 PhysX3CommonDEBUG_x86

 Timestamp is 619c4612 (Tue Nov 23 10:38:26 2021)

 Preferred load address is 10000000

 Start         Length     Name                   Class
 0001:00000000 00023330H .text$di                CODE
 0001:00023330 0022c2e0H .text$mn                CODE
 0001:0024f610 00001217H .text$x                 CODE
 0002:00000000 00000104H .CRT$XCA                DATA
 0002:00000104 00000d64H .CRT$XCU                DATA
 0002:00000e68 00000104H .CRT$XCZ                DATA
 0002:00000f6c 00000104H .CRT$XIA                DATA
 0002:00001070 00000110H .CRT$XIC                DATA
 0002:00001180 00000104H .CRT$XIZ                DATA
 0002:00001284 00000104H .CRT$XPA                DATA
 0002:00001388 0000010cH .CRT$XPX                DATA
 0002:00001494 00000104H .CRT$XPXA               DATA
 0002:00001598 00000104H .CRT$XPZ                DATA
 0002:0000169c 00000104H .CRT$XTA                DATA
 0002:000017a0 00000110H .CRT$XTZ                DATA
 0002:000018b0 00031c10H .rdata                  DATA
 0002:000334c0 00000450H .rdata$r                DATA
 0002:00033910 0000014cH .rdata$sxdata           DATA
 0002:00033a5c 000001bcH .rdata$zzzdbg           DATA
 0002:00033c18 00000104H .rtc$IAA                DATA
 0002:00033d1c 00000394H .rtc$IMZ                DATA
 0002:000340b0 00000104H .rtc$IZZ                DATA
 0002:000341b4 00000104H .rtc$TAA                DATA
 0002:000342b8 00000394H .rtc$TMZ                DATA
 0002:0003464c 00000104H .rtc$TZZ                DATA
 0002:00034750 00000f60H .xdata$x                DATA
 0002:000356b0 0000c51aH .edata                  DATA
 0003:00000000 0000113cH .data                   DATA
 0003:0000113c 00000564H .data$r                 DATA
 0003:000016a0 00005364H .bss                    DATA
 0004:00000000 000001ccH .idata$5                DATA
 0004:000001cc 00000014H .idata$2                DATA
 0004:000001e0 00000014H .idata$3                DATA
 0004:000001f4 000001ccH .idata$4                DATA
 0004:000003c0 0000080cH .idata$6                DATA
 0005:00000000 00000020H .didat$2                DATA
 0005:00000020 00000020H .didat$3                DATA
 0005:00000040 00000098H .didat$4                DATA
 0005:000000d8 00000098H .didat$5                DATA
 0005:00000170 000005a4H .didat$6                DATA
 0005:00000714 00000169H .didat$7                DATA
 0006:00000000 00000104H .00cfg                  DATA
 0007:00000000 000001c0H .rsrc$01                DATA
 0007:000001c0 000006a9H .rsrc$02                DATA

  Address         Publics by Value              Rva+Base       Lib:Object

 0000:00000000       ___guard_longjmp_count     00000000     <absolute>
 0000:00000000       ___hybrid_code_map         00000000     <absolute>
 0000:00000000       ___guard_iat_count         00000000     <absolute>
 0000:00000000       ___volatile_metadata       00000000     <absolute>
 0000:00000000       ___dynamic_value_reloc_table 00000000     <absolute>
 0000:00000000       ___hybrid_auxiliary_iat    00000000     <absolute>
 0000:00000000       ___hybrid_code_map_count   00000000     <absolute>
 0000:00000000       ___guard_longjmp_table     00000000     <absolute>
 0000:00000000       ___guard_fids_table        00000000     <absolute>
 0000:00000000       __except_list              00000000     <absolute>
 0000:00000000       ___enclave_config          00000000     <absolute>
 0000:00000000       ___guard_fids_count        00000000     <absolute>
 0000:00000000       ___guard_iat_table         00000000     <absolute>
 0000:00000010       ___safe_se_handler_count   00000010     <absolute>
 0000:00000100       ___guard_flags             00000100     <absolute>
 0000:00000000       ___ImageBase               10000000     <linker-defined>
 0001:00023330       _PxSetPhysXCommonDelayLoadHook 10024330 f   CmWindowsDelayLoadHook.obj
 0001:00023340       ?delayHook@@YGP6GHXZIPAUDelayLoadInfo@@@Z 10024340 f   CmWindowsDelayLoadHook.obj
 0001:000233c0       ?foundationDliNotePreLoadLibrary@shdfnd@physx@@YGP6GHXZPBDPBVPxFoundationDelayLoadHook@2@@Z 100243c0 f i CmWindowsDelayLoadHook.obj
 0001:000234d0       ?loadLibrary@Cm@physx@@YGPAUHINSTANCE__@@PBD@Z 100244d0 f i CmWindowsDelayLoadHook.obj
 0001:000234f0       ?physXCommonDliNotePreLoadLibrary@Cm@physx@@YGP6GHXZPBDPBVPxDelayLoadHook@2@@Z 100244f0 f i CmWindowsDelayLoadHook.obj
 0001:00023710       ??0CmModuleUpdateLoader@Cm@physx@@QAE@PBD@Z 10024710 f   CmWindowsModuleUpdateLoader.obj
 0001:00023760       ??1CmModuleUpdateLoader@Cm@physx@@QAE@XZ 10024760 f   CmWindowsModuleUpdateLoader.obj
 0001:00023790       ?LoadModule@CmModuleUpdateLoader@Cm@physx@@QAEPAUHINSTANCE__@@PBD0@Z 10024790 f   CmWindowsModuleUpdateLoader.obj
 0001:00023810       ??0Allocator@shdfnd@physx@@QAE@PBD@Z 10024810 f i CmWindowsModuleUpdateLoader.obj
 0001:00023830       ??0PxFoundation@physx@@QAE@ABV01@@Z 10024830 f i CmWindowsModuleUpdateLoader.obj
 0001:00023850       ??0PxFoundation@physx@@QAE@XZ 10024850 f i CmWindowsModuleUpdateLoader.obj
 0001:00023870       ??1PxFoundation@physx@@MAE@XZ 10024870 f i CmWindowsModuleUpdateLoader.obj
 0001:00023890       ??4Allocator@shdfnd@physx@@QAEAAV012@$$QAV012@@Z 10024890 f i CmWindowsModuleUpdateLoader.obj
 0001:000238b0       ??4Allocator@shdfnd@physx@@QAEAAV012@ABV012@@Z 100248b0 f i CmWindowsModuleUpdateLoader.obj
 0001:000238d0       ??4CmModuleUpdateLoader@Cm@physx@@QAEAAV012@ABV012@@Z 100248d0 f i CmWindowsModuleUpdateLoader.obj
 0001:00023900       ??4MutexImpl@shdfnd@physx@@QAEAAV012@ABV012@@Z 10024900 f i CmWindowsModuleUpdateLoader.obj
 0001:00023920       ??4PxFoundation@physx@@QAEAAV01@ABV01@@Z 10024920 f i CmWindowsModuleUpdateLoader.obj
 0001:00023940       ??_EPxFoundation@physx@@MAEPAXI@Z 10024940 f i CmWindowsModuleUpdateLoader.obj
 0001:000239e0       ??_FAllocator@shdfnd@physx@@QAEXXZ 100249e0 f i CmWindowsModuleUpdateLoader.obj
 0001:00023a00       ??_FNamedAllocator@shdfnd@physx@@QAEXXZ 10024a00 f i CmWindowsModuleUpdateLoader.obj
 0001:00023a20       ??_GPxFoundation@physx@@MAEPAXI@Z 10024a20 f i CmWindowsModuleUpdateLoader.obj
 0001:00023a60       ??_I@YGXPAXIIP6EX0@Z@Z     10024a60 f i CmWindowsModuleUpdateLoader.obj
 0001:00023ad0       ?__empty_global_delete@@YAXPAX@Z 10024ad0 f i CmWindowsModuleUpdateLoader.obj
 0001:00023ae0       ?__empty_global_delete@@YAXPAXI@Z 10024ae0 f i CmWindowsModuleUpdateLoader.obj
 0001:00023af0       ?getAllocator@Foundation@shdfnd@physx@@QAEAAVPxAllocatorCallback@3@XZ 10024af0 f i CmWindowsModuleUpdateLoader.obj
 0001:00023b10       ?getAllocatorCallback@Foundation@shdfnd@physx@@UAEAAVPxAllocatorCallback@3@XZ 10024b10 f i CmWindowsModuleUpdateLoader.obj
 0001:00023b30       ?getErrorCallback@Foundation@shdfnd@physx@@UAEAAVPxErrorCallback@3@XZ 10024b30 f i CmWindowsModuleUpdateLoader.obj
 0001:00023b50       ?getErrorLevel@Foundation@shdfnd@physx@@UBE?AW4Enum@PxErrorCode@3@XZ 10024b50 f i CmWindowsModuleUpdateLoader.obj
 0001:00023b70       ?getInternalErrorCallback@Foundation@shdfnd@physx@@QAEAAVPxErrorCallback@3@XZ 10024b70 f i CmWindowsModuleUpdateLoader.obj
 0001:00023b90       ?getNamedAllocMap@Foundation@shdfnd@physx@@QAEAAV?$HashMap@PBVNamedAllocator@shdfnd@physx@@PBDU?$Hash@PBVNamedAllocator@shdfnd@physx@@@23@VNonTrackingAllocator@23@@23@XZ 10024b90 f i CmWindowsModuleUpdateLoader.obj
 0001:00023bb0       ?getNamedAllocMutex@Foundation@shdfnd@physx@@QAEAAV?$MutexT@VAllocator@shdfnd@physx@@@23@XZ 10024bb0 f i CmWindowsModuleUpdateLoader.obj
 0001:00023bd0       ?getReportAllocationNames@Foundation@shdfnd@physx@@UBE_NXZ 10024bd0 f i CmWindowsModuleUpdateLoader.obj
 0001:00023bf0       ?getTempAllocFreeTable@Foundation@shdfnd@physx@@QAEAAV?$Array@PATTempAllocatorChunk@shdfnd@physx@@VAllocator@23@@23@XZ 10024bf0 f i CmWindowsModuleUpdateLoader.obj
 0001:00023c10       ?getTempAllocMutex@Foundation@shdfnd@physx@@QAEAAV?$MutexT@VAllocator@shdfnd@physx@@@23@XZ 10024c10 f i CmWindowsModuleUpdateLoader.obj
 0001:00023c30       ?setErrorLevel@Foundation@shdfnd@physx@@UAEXW4Enum@PxErrorCode@3@@Z 10024c30 f i CmWindowsModuleUpdateLoader.obj
 0001:00023c50       ?setReportAllocationNames@Foundation@shdfnd@physx@@UAEX_N@Z 10024c50 f i CmWindowsModuleUpdateLoader.obj
 0001:00023c70       ?CompleteBoxPruning@Cm@physx@@YA_NPBVPxBounds3@2@IAAV?$Array@IVNamedAllocator@shdfnd@physx@@@shdfnd@2@ABVAxes@Gu@2@@Z 10024c70 f   CmBoxPruning.obj
 0001:00023ec0       ?BipartiteBoxPruning@Cm@physx@@YA_NPBVPxBounds3@2@I0IAAV?$Array@IVNamedAllocator@shdfnd@physx@@@shdfnd@2@ABVAxes@Gu@2@@Z 10024ec0 f   CmBoxPruning.obj
 0001:00024440       ??$PX_UNUSED@I@@YAXABI@Z   10025440 f i CmBoxPruning.obj
 0001:00024450       ??0NonTrackingAllocator@shdfnd@physx@@QAE@PBD@Z 10025450 f i CmBoxPruning.obj
 0001:00024470       ??2@YAPAXIPAX@Z            10025470 f i CmBoxPruning.obj
 0001:00024480       ??APxVec3@physx@@QBEABMI@Z 10025480 f i CmBoxPruning.obj
 0001:000244f0       ?GetNbHits@RadixSort@Cm@physx@@QBEIXZ 100254f0 f i CmBoxPruning.obj
 0001:00024510       ?GetNbTotalCalls@RadixSort@Cm@physx@@QBEIXZ 10025510 f i CmBoxPruning.obj
 0001:00024530       ?GetRanks@RadixSort@Cm@physx@@QBEPBIXZ 10025530 f i CmBoxPruning.obj
 0001:00024550       ?GetRecyclable@RadixSort@Cm@physx@@QBEPAIXZ 10025550 f i CmBoxPruning.obj
 0001:00024570       ?PxIsFinite@physx@@YA_NM@Z 10025570 f i CmBoxPruning.obj
 0001:00024590       ?allocate@?$Array@IVNamedAllocator@shdfnd@physx@@@shdfnd@physx@@IAEPAII@Z 10025590 f i CmBoxPruning.obj
 0001:00024610       ?capacity@?$Array@IVNamedAllocator@shdfnd@physx@@@shdfnd@physx@@QBEIXZ 10025610 f i CmBoxPruning.obj
 0001:00024630       ?capacityIncrement@?$Array@IVNamedAllocator@shdfnd@physx@@@shdfnd@physx@@IBEIXZ 10025630 f i CmBoxPruning.obj
 0001:00024670       ?clear@?$Array@IVNamedAllocator@shdfnd@physx@@@shdfnd@physx@@QAEXXZ 10025670 f i CmBoxPruning.obj
 0001:000246b0       ?copy@?$Array@IVNamedAllocator@shdfnd@physx@@@shdfnd@physx@@KAXPAI0PBI@Z 100256b0 f i CmBoxPruning.obj
 0001:00024710       ?deallocate@?$Array@IVNamedAllocator@shdfnd@physx@@@shdfnd@physx@@IAEXPAX@Z 10025710 f i CmBoxPruning.obj
 0001:00024730       ?deallocate@NonTrackingAllocator@shdfnd@physx@@QAEXPAX@Z 10025730 f i CmBoxPruning.obj
 0001:00024770       ?destroy@?$Array@IVNamedAllocator@shdfnd@physx@@@shdfnd@physx@@KAXPAI0@Z 10025770 f i CmBoxPruning.obj
 0001:00024790       ?growAndPushBack@?$Array@IVNamedAllocator@shdfnd@physx@@@shdfnd@physx@@IAEAAIABI@Z 10025790 f i CmBoxPruning.obj
 0001:00024900       ?intersects@PxBounds3@physx@@QBE_NABV12@@Z 10025900 f i CmBoxPruning.obj
 0001:00024a10       ?invalidateRanks@RadixSort@Cm@physx@@QAEXXZ 10025a10 f i CmBoxPruning.obj
 0001:00024a40       ?isFinite@PxBounds3@physx@@QBE_NXZ 10025a40 f i CmBoxPruning.obj
 0001:00024aa0       ?isFinite@PxVec3@physx@@QBE_NXZ 10025aa0 f i CmBoxPruning.obj
 0001:00024b40       ?isFinite@intrinsics@physx@@YA_NM@Z 10025b40 f i CmBoxPruning.obj
 0001:00024b90       ?isInUserMemory@?$Array@IVNamedAllocator@shdfnd@physx@@@shdfnd@physx@@QBEIXZ 10025b90 f i CmBoxPruning.obj
 0001:00024bb0       ?isValid@PxBounds3@physx@@QBE_NXZ 10025bb0 f i CmBoxPruning.obj
 0001:00024cd0       ?pushBack@?$Array@IVNamedAllocator@shdfnd@physx@@@shdfnd@physx@@QAEAAIABI@Z 10025cd0 f i CmBoxPruning.obj
 0001:00024d70       ?PxCreateCollection@@YAPAVPxCollection@physx@@XZ 10025d70 f   CmCollection.obj
 0001:00024dc0       ?add@Collection@Cm@physx@@UAEXAAVPxBase@3@_K@Z 10025dc0 f   CmCollection.obj
 0001:00024e80       ?remove@Collection@Cm@physx@@UAEXAAVPxBase@3@@Z 10025e80 f   CmCollection.obj
 0001:00024f30       ?contains@Collection@Cm@physx@@UBE_NAAVPxBase@3@@Z 10025f30 f   CmCollection.obj
 0001:00024f70       ?addId@Collection@Cm@physx@@UAEXAAVPxBase@3@_K@Z 10025f70 f   CmCollection.obj
 0001:000250c0       ?removeId@Collection@Cm@physx@@UAEX_K@Z 100260c0 f   CmCollection.obj
 0001:00025190       ?find@Collection@Cm@physx@@UBEPAVPxBase@3@_K@Z 10026190 f   CmCollection.obj
 0001:00025200       ?add@Collection@Cm@physx@@UAEXAAVPxCollection@3@@Z 10026200 f   CmCollection.obj
 0001:00025390       ?remove@Collection@Cm@physx@@UAEXAAVPxCollection@3@@Z 10026390 f   CmCollection.obj
 0001:00025450       ?getNbObjects@Collection@Cm@physx@@UBEIXZ 10026450 f   CmCollection.obj
 0001:00025470       ?getObject@Collection@Cm@physx@@UBEAAVPxBase@3@I@Z 10026470 f   CmCollection.obj
 0001:000254e0       ?getObjects@Collection@Cm@physx@@UBEIPAPAVPxBase@3@II@Z 100264e0 f   CmCollection.obj
 0001:000255c0       ?getNbIds@Collection@Cm@physx@@UBEIXZ 100265c0 f   CmCollection.obj
 0001:000255e0       ?getId@Collection@Cm@physx@@UBE_KABVPxBase@3@@Z 100265e0 f   CmCollection.obj
 0001:00025630       ?getIds@Collection@Cm@physx@@UBEIPA_KII@Z 10026630 f   CmCollection.obj
 0001:000259b0       ??$?2V?$ReflectionAllocator@VCollection@Cm@physx@@@shdfnd@physx@@@UserAllocated@shdfnd@physx@@SAPAXIV?$ReflectionAllocator@VCollection@Cm@physx@@@12@PBDH@Z 100269b0 f i CmCollection.obj
 0001:000259d0       ??0?$CoalescedHashMap@PAVPxBase@physx@@_KU?$Hash@PAVPxBase@physx@@@shdfnd@2@VNonTrackingAllocator@42@@shdfnd@physx@@QAE@IM@Z 100269d0 f i CmCollection.obj
 0001:00025a00       ??0?$CoalescedHashMap@_KPAVPxBase@physx@@U?$Hash@_K@shdfnd@2@VNonTrackingAllocator@42@@shdfnd@physx@@QAE@IM@Z 10026a00 f i CmCollection.obj
 0001:00025a30       ??0?$CollectionHashMap@PAVPxBase@physx@@_KU?$Hash@PAVPxBase@physx@@@shdfnd@2@VNonTrackingAllocator@42@@Cm@physx@@QAE@IM@Z 10026a30 f i CmCollection.obj
 0001:00025a60       ??0?$CollectionHashMap@_KPAVPxBase@physx@@U?$Hash@_K@shdfnd@2@VNonTrackingAllocator@42@@Cm@physx@@QAE@IM@Z 10026a60 f i CmCollection.obj
 0001:00025a90       ??0?$HashBase@V?$Pair@$$CB_KPAVPxBase@physx@@@shdfnd@physx@@_KU?$Hash@_K@23@UGetKey@?$HashMapBase@_KPAVPxBase@physx@@U?$Hash@_K@shdfnd@2@VNonTrackingAllocator@42@@internal@23@VNonTrackingAllocator@23@$00@internal@shdfnd@physx@@QAE@IM@Z 10026a90 f i CmCollection.obj
 0001:00025ae0       ??0?$HashBase@V?$Pair@QAVPxBase@physx@@_K@shdfnd@physx@@PAVPxBase@3@U?$Hash@PAVPxBase@physx@@@23@UGetKey@?$HashMapBase@PAVPxBase@physx@@_KU?$Hash@PAVPxBase@physx@@@shdfnd@2@VNonTrackingAllocator@42@@internal@23@VNonTrackingAllocator@23@$00@internal@shdfnd@physx@@QAE@IM@Z 10026ae0 f i CmCollection.obj
 0001:00025b30       ??0?$HashMapBase@PAVPxBase@physx@@_KU?$Hash@PAVPxBase@physx@@@shdfnd@2@VNonTrackingAllocator@42@@internal@shdfnd@physx@@QAE@IM@Z 10026b30 f i CmCollection.obj
 0001:00025b60       ??0?$HashMapBase@_KPAVPxBase@physx@@U?$Hash@_K@shdfnd@2@VNonTrackingAllocator@42@@internal@shdfnd@physx@@QAE@IM@Z 10026b60 f i CmCollection.obj
 0001:00025b90       ??0?$Pair@$$CB_KPAVPxBase@physx@@@shdfnd@physx@@QAE@ABV012@@Z 10026b90 f i CmCollection.obj
 0001:00025bd0       ??0?$Pair@$$CB_KPAVPxBase@physx@@@shdfnd@physx@@QAE@AB_KABQAVPxBase@2@@Z 10026bd0 f i CmCollection.obj
 0001:00025c10       ??0?$Pair@QAVPxBase@physx@@_K@shdfnd@physx@@QAE@ABQAVPxBase@2@AB_K@Z 10026c10 f i CmCollection.obj
 0001:00025c50       ??0?$Pair@QAVPxBase@physx@@_K@shdfnd@physx@@QAE@ABV012@@Z 10026c50 f i CmCollection.obj
 0001:00025c90       ??0?$ReflectionAllocator@VCollection@Cm@physx@@@shdfnd@physx@@QAE@PBD@Z 10026c90 f i CmCollection.obj
 0001:00025cb0       ??0Collection@Cm@physx@@QAE@XZ 10026cb0 f i CmCollection.obj
 0001:00025d20       ??0Iter@?$HashBase@V?$Pair@$$CB_KPAVPxBase@physx@@@shdfnd@physx@@_KU?$Hash@_K@23@UGetKey@?$HashMapBase@_KPAVPxBase@physx@@U?$Hash@_K@shdfnd@2@VNonTrackingAllocator@42@@internal@23@VNonTrackingAllocator@23@$00@internal@shdfnd@physx@@QAE@AAV1234@@Z 10026d20 f i CmCollection.obj
 0001:00025da0       ??0PxCollection@physx@@IAE@XZ 10026da0 f i CmCollection.obj
 0001:00025dc0       ??1?$CoalescedHashMap@PAVPxBase@physx@@_KU?$Hash@PAVPxBase@physx@@@shdfnd@2@VNonTrackingAllocator@42@@shdfnd@physx@@QAE@XZ 10026dc0 f i CmCollection.obj
 0001:00025de0       ??1?$CoalescedHashMap@_KPAVPxBase@physx@@U?$Hash@_K@shdfnd@2@VNonTrackingAllocator@42@@shdfnd@physx@@QAE@XZ 10026de0 f i CmCollection.obj
 0001:00025e00       ??1?$CollectionHashMap@PAVPxBase@physx@@_KU?$Hash@PAVPxBase@physx@@@shdfnd@2@VNonTrackingAllocator@42@@Cm@physx@@QAE@XZ 10026e00 f i CmCollection.obj
 0001:00025e20       ??1?$CollectionHashMap@_KPAVPxBase@physx@@U?$Hash@_K@shdfnd@2@VNonTrackingAllocator@42@@Cm@physx@@QAE@XZ 10026e20 f i CmCollection.obj
 0001:00025e40       ??1?$HashBase@V?$Pair@$$CB_KPAVPxBase@physx@@@shdfnd@physx@@_KU?$Hash@_K@23@UGetKey@?$HashMapBase@_KPAVPxBase@physx@@U?$Hash@_K@shdfnd@2@VNonTrackingAllocator@42@@internal@23@VNonTrackingAllocator@23@$00@internal@shdfnd@physx@@QAE@XZ 10026e40 f i CmCollection.obj
 0001:00025e80       ??1?$HashBase@V?$Pair@QAVPxBase@physx@@_K@shdfnd@physx@@PAVPxBase@3@U?$Hash@PAVPxBase@physx@@@23@UGetKey@?$HashMapBase@PAVPxBase@physx@@_KU?$Hash@PAVPxBase@physx@@@shdfnd@2@VNonTrackingAllocator@42@@internal@23@VNonTrackingAllocator@23@$00@internal@shdfnd@physx@@QAE@XZ 10026e80 f i CmCollection.obj
 0001:00025ec0       ??1?$HashMapBase@PAVPxBase@physx@@_KU?$Hash@PAVPxBase@physx@@@shdfnd@2@VNonTrackingAllocator@42@@internal@shdfnd@physx@@QAE@XZ 10026ec0 f i CmCollection.obj
 0001:00025ee0       ??1?$HashMapBase@_KPAVPxBase@physx@@U?$Hash@_K@shdfnd@2@VNonTrackingAllocator@42@@internal@shdfnd@physx@@QAE@XZ 10026ee0 f i CmCollection.obj
 0001:00025f00       ??1Collection@Cm@physx@@UAE@XZ 10026f00 f i CmCollection.obj
 0001:00025f40       ??1PxCollection@physx@@MAE@XZ 10026f40 f i CmCollection.obj
 0001:00025f60       ??3UserAllocated@shdfnd@physx@@SAXPAX@Z 10026f60 f i CmCollection.obj
 0001:00025f90       ??A?$HashMapBase@PAVPxBase@physx@@_KU?$Hash@PAVPxBase@physx@@@shdfnd@2@VNonTrackingAllocator@42@@internal@shdfnd@physx@@QAEAA_KABQAVPxBase@3@@Z 10026f90 f i CmCollection.obj
 0001:00026000       ??A?$HashMapBase@_KPAVPxBase@physx@@U?$Hash@_K@shdfnd@2@VNonTrackingAllocator@42@@internal@shdfnd@physx@@QAEAAPAVPxBase@3@AB_K@Z 10027000 f i CmCollection.obj
 0001:00026070       ??CIter@?$HashBase@V?$Pair@$$CB_KPAVPxBase@physx@@@shdfnd@physx@@_KU?$Hash@_K@23@UGetKey@?$HashMapBase@_KPAVPxBase@physx@@U?$Hash@_K@shdfnd@2@VNonTrackingAllocator@42@@internal@23@VNonTrackingAllocator@23@$00@internal@shdfnd@physx@@QAEPAV?$Pair@$$CB_KPAVPxBase@physx@@@34@XZ 10027070 f i CmCollection.obj
 0001:000260a0       ??EIter@?$HashBase@V?$Pair@$$CB_KPAVPxBase@physx@@@shdfnd@physx@@_KU?$Hash@_K@23@UGetKey@?$HashMapBase@_KPAVPxBase@physx@@U?$Hash@_K@shdfnd@2@VNonTrackingAllocator@42@@internal@23@VNonTrackingAllocator@23@$00@internal@shdfnd@physx@@QAE?AV01234@H@Z 100270a0 f i CmCollection.obj
 0001:00026110       ??R?$Hash@PAVPxBase@physx@@@shdfnd@physx@@QBEIABQAVPxBase@2@@Z 10027110 f i CmCollection.obj
 0001:00026140       ??R?$Hash@_K@shdfnd@physx@@QBEIAB_K@Z 10027140 f i CmCollection.obj
 0001:00026170       ??RGetKey@?$HashMapBase@PAVPxBase@physx@@_KU?$Hash@PAVPxBase@physx@@@shdfnd@2@VNonTrackingAllocator@42@@internal@shdfnd@physx@@QAEABQAVPxBase@4@ABV?$Pair@QAVPxBase@physx@@_K@34@@Z 10027170 f i CmCollection.obj
 0001:00026190       ??RGetKey@?$HashMapBase@_KPAVPxBase@physx@@U?$Hash@_K@shdfnd@2@VNonTrackingAllocator@42@@internal@shdfnd@physx@@QAEAB_KABV?$Pair@$$CB_KPAVPxBase@physx@@@34@@Z 10027190 f i CmCollection.obj
 0001:000261b0       ??_GCollection@Cm@physx@@UAEPAXI@Z 100271b0 f i CmCollection.obj
 0001:000261b0       ??_ECollection@Cm@physx@@UAEPAXI@Z 100271b0 f i CmCollection.obj
 0001:00026210       ??_EPxCollection@physx@@MAEPAXI@Z 10027210 f i CmCollection.obj
 0001:00026210       ??_GPxCollection@physx@@MAEPAXI@Z 10027210 f i CmCollection.obj
 0001:00026250       ?advance@Iter@?$HashBase@V?$Pair@$$CB_KPAVPxBase@physx@@@shdfnd@physx@@_KU?$Hash@_K@23@UGetKey@?$HashMapBase@_KPAVPxBase@physx@@U?$Hash@_K@shdfnd@2@VNonTrackingAllocator@42@@internal@23@VNonTrackingAllocator@23@$00@internal@shdfnd@physx@@AAEXXZ 10027250 f i CmCollection.obj
 0001:00026290       ?allocate@?$ReflectionAllocator@VCollection@Cm@physx@@@shdfnd@physx@@QAEPAXIPBDH@Z 10027290 f i CmCollection.obj
 0001:000262f0       ?allocate@NonTrackingAllocator@shdfnd@physx@@QAEPAXIPBDH@Z 100272f0 f i CmCollection.obj
 0001:00026350       ?capacity@?$HashBase@V?$Pair@QAVPxBase@physx@@_K@shdfnd@physx@@PAVPxBase@3@U?$Hash@PAVPxBase@physx@@@23@UGetKey@?$HashMapBase@PAVPxBase@physx@@_KU?$Hash@PAVPxBase@physx@@@shdfnd@2@VNonTrackingAllocator@42@@internal@23@VNonTrackingAllocator@23@$00@internal@shdfnd@physx@@QBEIXZ 10027350 f i CmCollection.obj
 0001:00026370       ?capacity@?$HashMapBase@PAVPxBase@physx@@_KU?$Hash@PAVPxBase@physx@@@shdfnd@2@VNonTrackingAllocator@42@@internal@shdfnd@physx@@QBEIXZ 10027370 f i CmCollection.obj
 0001:00026390       ?check@Iter@?$HashBase@V?$Pair@$$CB_KPAVPxBase@physx@@@shdfnd@physx@@_KU?$Hash@_K@23@UGetKey@?$HashMapBase@_KPAVPxBase@physx@@U?$Hash@_K@shdfnd@2@VNonTrackingAllocator@42@@internal@23@VNonTrackingAllocator@23@$00@internal@shdfnd@physx@@QBEXXZ 10027390 f i CmCollection.obj
 0001:00026400       ?create@?$HashBase@V?$Pair@$$CB_KPAVPxBase@physx@@@shdfnd@physx@@_KU?$Hash@_K@23@UGetKey@?$HashMapBase@_KPAVPxBase@physx@@U?$Hash@_K@shdfnd@2@VNonTrackingAllocator@42@@internal@23@VNonTrackingAllocator@23@$00@internal@shdfnd@physx@@QAEPAV?$Pair@$$CB_KPAVPxBase@physx@@@34@AB_KAA_N@Z 10027400 f i CmCollection.obj
 0001:000265a0       ?create@?$HashBase@V?$Pair@QAVPxBase@physx@@_K@shdfnd@physx@@PAVPxBase@3@U?$Hash@PAVPxBase@physx@@@23@UGetKey@?$HashMapBase@PAVPxBase@physx@@_KU?$Hash@PAVPxBase@physx@@@shdfnd@2@VNonTrackingAllocator@42@@internal@23@VNonTrackingAllocator@23@$00@internal@shdfnd@physx@@QAEPAV?$Pair@QAVPxBase@physx@@_K@34@ABQAVPxBase@4@AA_N@Z 100275a0 f i CmCollection.obj
 0001:00026740       ?destroy@?$HashBase@V?$Pair@$$CB_KPAVPxBase@physx@@@shdfnd@physx@@_KU?$Hash@_K@23@UGetKey@?$HashMapBase@_KPAVPxBase@physx@@U?$Hash@_K@shdfnd@2@VNonTrackingAllocator@42@@internal@23@VNonTrackingAllocator@23@$00@internal@shdfnd@physx@@AAEXXZ 10027740 f i CmCollection.obj
 0001:000267b0       ?destroy@?$HashBase@V?$Pair@QAVPxBase@physx@@_K@shdfnd@physx@@PAVPxBase@3@U?$Hash@PAVPxBase@physx@@@23@UGetKey@?$HashMapBase@PAVPxBase@physx@@_KU?$Hash@PAVPxBase@physx@@@shdfnd@2@VNonTrackingAllocator@42@@internal@23@VNonTrackingAllocator@23@$00@internal@shdfnd@physx@@AAEXXZ 100277b0 f i CmCollection.obj
 0001:00026820       ?done@Iter@?$HashBase@V?$Pair@$$CB_KPAVPxBase@physx@@@shdfnd@physx@@_KU?$Hash@_K@23@UGetKey@?$HashMapBase@_KPAVPxBase@physx@@U?$Hash@_K@shdfnd@2@VNonTrackingAllocator@42@@internal@23@VNonTrackingAllocator@23@$00@internal@shdfnd@physx@@QBE_NXZ 10027820 f i CmCollection.obj
 0001:00026860       ?equal@?$Hash@PAVPxBase@physx@@@shdfnd@physx@@QBE_NABQAVPxBase@3@0@Z 10027860 f i CmCollection.obj
 0001:000268a0       ?equal@?$Hash@_K@shdfnd@physx@@QBE_NAB_K0@Z 100278a0 f i CmCollection.obj
 0001:00026900       ?erase@?$HashBase@V?$Pair@$$CB_KPAVPxBase@physx@@@shdfnd@physx@@_KU?$Hash@_K@23@UGetKey@?$HashMapBase@_KPAVPxBase@physx@@U?$Hash@_K@shdfnd@2@VNonTrackingAllocator@42@@internal@23@VNonTrackingAllocator@23@$00@internal@shdfnd@physx@@QAE_NAB_K@Z 10027900 f i CmCollection.obj
 0001:000269c0       ?erase@?$HashBase@V?$Pair@QAVPxBase@physx@@_K@shdfnd@physx@@PAVPxBase@3@U?$Hash@PAVPxBase@physx@@@23@UGetKey@?$HashMapBase@PAVPxBase@physx@@_KU?$Hash@PAVPxBase@physx@@@shdfnd@2@VNonTrackingAllocator@42@@internal@23@VNonTrackingAllocator@23@$00@internal@shdfnd@physx@@QAE_NABQAVPxBase@4@@Z 100279c0 f i CmCollection.obj
 0001:00026a80       ?erase@?$HashMapBase@PAVPxBase@physx@@_KU?$Hash@PAVPxBase@physx@@@shdfnd@2@VNonTrackingAllocator@42@@internal@shdfnd@physx@@QAE_NABQAVPxBase@4@@Z 10027a80 f i CmCollection.obj
 0001:00026aa0       ?erase@?$HashMapBase@_KPAVPxBase@physx@@U?$Hash@_K@shdfnd@2@VNonTrackingAllocator@42@@internal@shdfnd@physx@@QAE_NAB_K@Z 10027aa0 f i CmCollection.obj
 0001:00026ac0       ?eraseInternal@?$HashBase@V?$Pair@$$CB_KPAVPxBase@physx@@@shdfnd@physx@@_KU?$Hash@_K@23@UGetKey@?$HashMapBase@_KPAVPxBase@physx@@U?$Hash@_K@shdfnd@2@VNonTrackingAllocator@42@@internal@23@VNonTrackingAllocator@23@$00@internal@shdfnd@physx@@AAE_NPAI@Z 10027ac0 f i CmCollection.obj
 0001:00026b60       ?eraseInternal@?$HashBase@V?$Pair@QAVPxBase@physx@@_K@shdfnd@physx@@PAVPxBase@3@U?$Hash@PAVPxBase@physx@@@23@UGetKey@?$HashMapBase@PAVPxBase@physx@@_KU?$Hash@PAVPxBase@physx@@@shdfnd@2@VNonTrackingAllocator@42@@internal@23@VNonTrackingAllocator@23@$00@internal@shdfnd@physx@@AAE_NPAI@Z 10027b60 f i CmCollection.obj
 0001:00026c00       ?find@?$HashBase@V?$Pair@$$CB_KPAVPxBase@physx@@@shdfnd@physx@@_KU?$Hash@_K@23@UGetKey@?$HashMapBase@_KPAVPxBase@physx@@U?$Hash@_K@shdfnd@2@VNonTrackingAllocator@42@@internal@23@VNonTrackingAllocator@23@$00@internal@shdfnd@physx@@QBEPBV?$Pair@$$CB_KPAVPxBase@physx@@@34@AB_K@Z 10027c00 f i CmCollection.obj
 0001:00026cd0       ?find@?$HashBase@V?$Pair@QAVPxBase@physx@@_K@shdfnd@physx@@PAVPxBase@3@U?$Hash@PAVPxBase@physx@@@23@UGetKey@?$HashMapBase@PAVPxBase@physx@@_KU?$Hash@PAVPxBase@physx@@@shdfnd@2@VNonTrackingAllocator@42@@internal@23@VNonTrackingAllocator@23@$00@internal@shdfnd@physx@@QBEPBV?$Pair@QAVPxBase@physx@@_K@34@ABQAVPxBase@4@@Z 10027cd0 f i CmCollection.obj
 0001:00026da0       ?find@?$HashMapBase@PAVPxBase@physx@@_KU?$Hash@PAVPxBase@physx@@@shdfnd@2@VNonTrackingAllocator@42@@internal@shdfnd@physx@@QBEPBV?$Pair@QAVPxBase@physx@@_K@34@ABQAVPxBase@4@@Z 10027da0 f i CmCollection.obj
 0001:00026dc0       ?find@?$HashMapBase@_KPAVPxBase@physx@@U?$Hash@_K@shdfnd@2@VNonTrackingAllocator@42@@internal@shdfnd@physx@@QBEPBV?$Pair@$$CB_KPAVPxBase@physx@@@34@AB_K@Z 10027dc0 f i CmCollection.obj
 0001:00026de0       ?freeListAdd@?$HashBase@V?$Pair@$$CB_KPAVPxBase@physx@@@shdfnd@physx@@_KU?$Hash@_K@23@UGetKey@?$HashMapBase@_KPAVPxBase@physx@@U?$Hash@_K@shdfnd@2@VNonTrackingAllocator@42@@internal@23@VNonTrackingAllocator@23@$00@internal@shdfnd@physx@@AAEXI@Z 10027de0 f i CmCollection.obj
 0001:00026e90       ?freeListAdd@?$HashBase@V?$Pair@$$CB_KPAVPxBase@physx@@@shdfnd@physx@@_KU?$Hash@_K@23@UGetKey@?$HashMapBase@_KPAVPxBase@physx@@U?$Hash@_K@shdfnd@2@VNonTrackingAllocator@42@@internal@23@VNonTrackingAllocator@23@$00@internal@shdfnd@physx@@AAEXII@Z 10027e90 f i CmCollection.obj
 0001:00026f80       ?freeListAdd@?$HashBase@V?$Pair@QAVPxBase@physx@@_K@shdfnd@physx@@PAVPxBase@3@U?$Hash@PAVPxBase@physx@@@23@UGetKey@?$HashMapBase@PAVPxBase@physx@@_KU?$Hash@PAVPxBase@physx@@@shdfnd@2@VNonTrackingAllocator@42@@internal@23@VNonTrackingAllocator@23@$00@internal@shdfnd@physx@@AAEXI@Z 10027f80 f i CmCollection.obj
 0001:00027030       ?freeListAdd@?$HashBase@V?$Pair@QAVPxBase@physx@@_K@shdfnd@physx@@PAVPxBase@3@U?$Hash@PAVPxBase@physx@@@23@UGetKey@?$HashMapBase@PAVPxBase@physx@@_KU?$Hash@PAVPxBase@physx@@@shdfnd@2@VNonTrackingAllocator@42@@internal@23@VNonTrackingAllocator@23@$00@internal@shdfnd@physx@@AAEXII@Z 10028030 f i CmCollection.obj
 0001:00027120       ?freeListEmpty@?$HashBase@V?$Pair@$$CB_KPAVPxBase@physx@@@shdfnd@physx@@_KU?$Hash@_K@23@UGetKey@?$HashMapBase@_KPAVPxBase@physx@@U?$Hash@_K@shdfnd@2@VNonTrackingAllocator@42@@internal@23@VNonTrackingAllocator@23@$00@internal@shdfnd@physx@@ABE_NXZ 10028120 f i CmCollection.obj
 0001:00027190       ?freeListEmpty@?$HashBase@V?$Pair@QAVPxBase@physx@@_K@shdfnd@physx@@PAVPxBase@3@U?$Hash@PAVPxBase@physx@@@23@UGetKey@?$HashMapBase@PAVPxBase@physx@@_KU?$Hash@PAVPxBase@physx@@@shdfnd@2@VNonTrackingAllocator@42@@internal@23@VNonTrackingAllocator@23@$00@internal@shdfnd@physx@@ABE_NXZ 10028190 f i CmCollection.obj
 0001:00027200       ?freeListGetNext@?$HashBase@V?$Pair@$$CB_KPAVPxBase@physx@@@shdfnd@physx@@_KU?$Hash@_K@23@UGetKey@?$HashMapBase@_KPAVPxBase@physx@@U?$Hash@_K@shdfnd@2@VNonTrackingAllocator@42@@internal@23@VNonTrackingAllocator@23@$00@internal@shdfnd@physx@@AAEIXZ 10028200 f i CmCollection.obj
 0001:00027320       ?freeListGetNext@?$HashBase@V?$Pair@QAVPxBase@physx@@_K@shdfnd@physx@@PAVPxBase@3@U?$Hash@PAVPxBase@physx@@@23@UGetKey@?$HashMapBase@PAVPxBase@physx@@_KU?$Hash@PAVPxBase@physx@@@shdfnd@2@VNonTrackingAllocator@42@@internal@23@VNonTrackingAllocator@23@$00@internal@shdfnd@physx@@AAEIXZ 10028320 f i CmCollection.obj
 0001:00027440       ?getEntries@?$CoalescedHashMap@PAVPxBase@physx@@_KU?$Hash@PAVPxBase@physx@@@shdfnd@2@VNonTrackingAllocator@42@@shdfnd@physx@@QBEPBV?$Pair@QAVPxBase@physx@@_K@23@XZ 10028440 f i CmCollection.obj
 0001:00027460       ?getEntries@?$HashBase@V?$Pair@QAVPxBase@physx@@_K@shdfnd@physx@@PAVPxBase@3@U?$Hash@PAVPxBase@physx@@@23@UGetKey@?$HashMapBase@PAVPxBase@physx@@_KU?$Hash@PAVPxBase@physx@@@shdfnd@2@VNonTrackingAllocator@42@@internal@23@VNonTrackingAllocator@23@$00@internal@shdfnd@physx@@QBEPBV?$Pair@QAVPxBase@physx@@_K@34@XZ 10028460 f i CmCollection.obj
 0001:00027480       ?getFoundation@shdfnd@physx@@YAAAVFoundation@12@XZ 10028480 f i CmCollection.obj
 0001:00027490       ?getIterator@?$HashMapBase@_KPAVPxBase@physx@@U?$Hash@_K@shdfnd@2@VNonTrackingAllocator@42@@internal@shdfnd@physx@@QAE?AVIter@?$HashBase@V?$Pair@$$CB_KPAVPxBase@physx@@@shdfnd@physx@@_KU?$Hash@_K@23@UGetKey@?$HashMapBase@_KPAVPxBase@physx@@U?$Hash@_K@shdfnd@2@VNonTrackingAllocator@42@@internal@23@VNonTrackingAllocator@23@$00@234@XZ 10028490 f i CmCollection.obj
 0001:000274c0       ?getName@?$ReflectionAllocator@VCollection@Cm@physx@@@shdfnd@physx@@CAPBDXZ 100284c0 f i CmCollection.obj
 0001:00027510       ?grow@?$HashBase@V?$Pair@$$CB_KPAVPxBase@physx@@@shdfnd@physx@@_KU?$Hash@_K@23@UGetKey@?$HashMapBase@_KPAVPxBase@physx@@U?$Hash@_K@shdfnd@2@VNonTrackingAllocator@42@@internal@23@VNonTrackingAllocator@23@$00@internal@shdfnd@physx@@AAEXXZ 10028510 f i CmCollection.obj
 0001:000275d0       ?grow@?$HashBase@V?$Pair@QAVPxBase@physx@@_K@shdfnd@physx@@PAVPxBase@3@U?$Hash@PAVPxBase@physx@@@23@UGetKey@?$HashMapBase@PAVPxBase@physx@@_KU?$Hash@PAVPxBase@physx@@@shdfnd@2@VNonTrackingAllocator@42@@internal@23@VNonTrackingAllocator@23@$00@internal@shdfnd@physx@@AAEXXZ 100285d0 f i CmCollection.obj
 0001:00027690       ?hash@?$HashBase@V?$Pair@$$CB_KPAVPxBase@physx@@@shdfnd@physx@@_KU?$Hash@_K@23@UGetKey@?$HashMapBase@_KPAVPxBase@physx@@U?$Hash@_K@shdfnd@2@VNonTrackingAllocator@42@@internal@23@VNonTrackingAllocator@23@$00@internal@shdfnd@physx@@ABEIAB_K@Z 10028690 f i CmCollection.obj
 0001:000276c0       ?hash@?$HashBase@V?$Pair@$$CB_KPAVPxBase@physx@@@shdfnd@physx@@_KU?$Hash@_K@23@UGetKey@?$HashMapBase@_KPAVPxBase@physx@@U?$Hash@_K@shdfnd@2@VNonTrackingAllocator@42@@internal@23@VNonTrackingAllocator@23@$00@internal@shdfnd@physx@@ABEIAB_KI@Z 100286c0 f i CmCollection.obj
 0001:000276f0       ?hash@?$HashBase@V?$Pair@QAVPxBase@physx@@_K@shdfnd@physx@@PAVPxBase@3@U?$Hash@PAVPxBase@physx@@@23@UGetKey@?$HashMapBase@PAVPxBase@physx@@_KU?$Hash@PAVPxBase@physx@@@shdfnd@2@VNonTrackingAllocator@42@@internal@23@VNonTrackingAllocator@23@$00@internal@shdfnd@physx@@ABEIABQAVPxBase@4@@Z 100286f0 f i CmCollection.obj
 0001:00027720       ?hash@?$HashBase@V?$Pair@QAVPxBase@physx@@_K@shdfnd@physx@@PAVPxBase@3@U?$Hash@PAVPxBase@physx@@@23@UGetKey@?$HashMapBase@PAVPxBase@physx@@_KU?$Hash@PAVPxBase@physx@@@shdfnd@2@VNonTrackingAllocator@42@@internal@23@VNonTrackingAllocator@23@$00@internal@shdfnd@physx@@ABEIABQAVPxBase@4@I@Z 10028720 f i CmCollection.obj
 0001:00027750       ?hash@shdfnd@physx@@YAII@Z 10028750 f i CmCollection.obj
 0001:000277d0       ?hash@shdfnd@physx@@YAIPBX@Z 100287d0 f i CmCollection.obj
 0001:000277f0       ?hash@shdfnd@physx@@YAI_K@Z 100287f0 f i CmCollection.obj
 0001:00027920       ?init@?$HashBase@V?$Pair@$$CB_KPAVPxBase@physx@@@shdfnd@physx@@_KU?$Hash@_K@23@UGetKey@?$HashMapBase@_KPAVPxBase@physx@@U?$Hash@_K@shdfnd@2@VNonTrackingAllocator@42@@internal@23@VNonTrackingAllocator@23@$00@internal@shdfnd@physx@@AAEXIM@Z 10028920 f i CmCollection.obj
 0001:000279d0       ?init@?$HashBase@V?$Pair@QAVPxBase@physx@@_K@shdfnd@physx@@PAVPxBase@3@U?$Hash@PAVPxBase@physx@@@23@UGetKey@?$HashMapBase@PAVPxBase@physx@@_KU?$Hash@PAVPxBase@physx@@@shdfnd@2@VNonTrackingAllocator@42@@internal@23@VNonTrackingAllocator@23@$00@internal@shdfnd@physx@@AAEXIM@Z 100289d0 f i CmCollection.obj
 0001:00027a80       ?insert@?$HashMapBase@PAVPxBase@physx@@_KU?$Hash@PAVPxBase@physx@@@shdfnd@2@VNonTrackingAllocator@42@@internal@shdfnd@physx@@QAE_NQAVPxBase@4@_K@Z 10028a80 f i CmCollection.obj
 0001:00027b00       ?insert@?$HashMapBase@_KPAVPxBase@physx@@U?$Hash@_K@shdfnd@2@VNonTrackingAllocator@42@@internal@shdfnd@physx@@QAE_N_KQAVPxBase@4@@Z 10028b00 f i CmCollection.obj
 0001:00027b80       ?isPowerOfTwo@shdfnd@physx@@YA_NI@Z 10028b80 f i CmCollection.obj
 0001:00027bc0       ?memCopy@intrinsics@physx@@YAPAXPAXPBXI@Z 10028bc0 f i CmCollection.obj
 0001:00027be0       ?memSet@intrinsics@physx@@YAPAXPAXHI@Z 10028be0 f i CmCollection.obj
 0001:00027c00       ?name@type_info@@QBEPBDXZ  10028c00 f i CmCollection.obj
 0001:00027c30       ?nextPowerOfTwo@shdfnd@physx@@YAII@Z 10028c30 f i CmCollection.obj
 0001:00027c90       ?release@Collection@Cm@physx@@UAEXXZ 10028c90 f i CmCollection.obj
 0001:00027ce0       ?replaceWithLast@?$HashBase@V?$Pair@$$CB_KPAVPxBase@physx@@@shdfnd@physx@@_KU?$Hash@_K@23@UGetKey@?$HashMapBase@_KPAVPxBase@physx@@U?$Hash@_K@shdfnd@2@VNonTrackingAllocator@42@@internal@23@VNonTrackingAllocator@23@$00@internal@shdfnd@physx@@AAEXI@Z 10028ce0 f i CmCollection.obj
 0001:00027e20       ?replaceWithLast@?$HashBase@V?$Pair@QAVPxBase@physx@@_K@shdfnd@physx@@PAVPxBase@3@U?$Hash@PAVPxBase@physx@@@23@UGetKey@?$HashMapBase@PAVPxBase@physx@@_KU?$Hash@PAVPxBase@physx@@@shdfnd@2@VNonTrackingAllocator@42@@internal@23@VNonTrackingAllocator@23@$00@internal@shdfnd@physx@@AAEXI@Z 10028e20 f i CmCollection.obj
 0001:00027f60       ?reserve@?$HashBase@V?$Pair@$$CB_KPAVPxBase@physx@@@shdfnd@physx@@_KU?$Hash@_K@23@UGetKey@?$HashMapBase@_KPAVPxBase@physx@@U?$Hash@_K@shdfnd@2@VNonTrackingAllocator@42@@internal@23@VNonTrackingAllocator@23@$00@internal@shdfnd@physx@@QAEXI@Z 10028f60 f i CmCollection.obj
 0001:00027f90       ?reserve@?$HashBase@V?$Pair@QAVPxBase@physx@@_K@shdfnd@physx@@PAVPxBase@3@U?$Hash@PAVPxBase@physx@@@23@UGetKey@?$HashMapBase@PAVPxBase@physx@@_KU?$Hash@PAVPxBase@physx@@@shdfnd@2@VNonTrackingAllocator@42@@internal@23@VNonTrackingAllocator@23@$00@internal@shdfnd@physx@@QAEXI@Z 10028f90 f i CmCollection.obj
 0001:00027fc0       ?reserve@?$HashMapBase@PAVPxBase@physx@@_KU?$Hash@PAVPxBase@physx@@@shdfnd@2@VNonTrackingAllocator@42@@internal@shdfnd@physx@@QAEXI@Z 10028fc0 f i CmCollection.obj
 0001:00027fe0       ?reserveInternal@?$HashBase@V?$Pair@$$CB_KPAVPxBase@physx@@@shdfnd@physx@@_KU?$Hash@_K@23@UGetKey@?$HashMapBase@_KPAVPxBase@physx@@U?$Hash@_K@shdfnd@2@VNonTrackingAllocator@42@@internal@23@VNonTrackingAllocator@23@$00@internal@shdfnd@physx@@AAEXI@Z 10028fe0 f i CmCollection.obj
 0001:00028460       ?reserveInternal@?$HashBase@V?$Pair@QAVPxBase@physx@@_K@shdfnd@physx@@PAVPxBase@3@U?$Hash@PAVPxBase@physx@@@23@UGetKey@?$HashMapBase@PAVPxBase@physx@@_KU?$Hash@PAVPxBase@physx@@@shdfnd@2@VNonTrackingAllocator@42@@internal@23@VNonTrackingAllocator@23@$00@internal@shdfnd@physx@@AAEXI@Z 10029460 f i CmCollection.obj
 0001:000288e0       ?size@?$HashBase@V?$Pair@$$CB_KPAVPxBase@physx@@@shdfnd@physx@@_KU?$Hash@_K@23@UGetKey@?$HashMapBase@_KPAVPxBase@physx@@U?$Hash@_K@shdfnd@2@VNonTrackingAllocator@42@@internal@23@VNonTrackingAllocator@23@$00@internal@shdfnd@physx@@QBEIXZ 100298e0 f i CmCollection.obj
 0001:00028900       ?size@?$HashBase@V?$Pair@QAVPxBase@physx@@_K@shdfnd@physx@@PAVPxBase@3@U?$Hash@PAVPxBase@physx@@@23@UGetKey@?$HashMapBase@PAVPxBase@physx@@_KU?$Hash@PAVPxBase@physx@@@shdfnd@2@VNonTrackingAllocator@42@@internal@23@VNonTrackingAllocator@23@$00@internal@shdfnd@physx@@QBEIXZ 10029900 f i CmCollection.obj
 0001:00028920       ?size@?$HashMapBase@PAVPxBase@physx@@_KU?$Hash@PAVPxBase@physx@@@shdfnd@2@VNonTrackingAllocator@42@@internal@shdfnd@physx@@QBEIXZ 10029920 f i CmCollection.obj
 0001:00028940       ?size@?$HashMapBase@_KPAVPxBase@physx@@U?$Hash@_K@shdfnd@2@VNonTrackingAllocator@42@@internal@shdfnd@physx@@QBEIXZ 10029940 f i CmCollection.obj
 0001:00028960       ?skip@Iter@?$HashBase@V?$Pair@$$CB_KPAVPxBase@physx@@@shdfnd@physx@@_KU?$Hash@_K@23@UGetKey@?$HashMapBase@_KPAVPxBase@physx@@U?$Hash@_K@shdfnd@2@VNonTrackingAllocator@42@@internal@23@VNonTrackingAllocator@23@$00@internal@shdfnd@physx@@AAEXXZ 10029960 f i CmCollection.obj
 0001:000289d0       ?PxTransformFromPlaneEquation@physx@@YA?AVPxTransform@1@ABVPxPlane@1@@Z 100299d0 f   CmMathUtils.obj
 0001:00028bd0       ?PxTransformFromSegment@physx@@YA?AVPxTransform@1@ABVPxVec3@1@0PAM@Z 10029bd0 f   CmMathUtils.obj
 0001:00028d80       ??$PX_UNUSED@W4PxIDENTITY@physx@@@@YAXABW4PxIDENTITY@physx@@@Z 10029d80 f i CmMathUtils.obj
 0001:00028d90       ??0PxPlane@physx@@QAE@ABV01@@Z 10029d90 f i CmMathUtils.obj
 0001:00028dd0       ??0PxQuat@physx@@QAE@ABV01@@Z 10029dd0 f i CmMathUtils.obj
 0001:00028e20       ??0PxQuat@physx@@QAE@MMMM@Z 10029e20 f i CmMathUtils.obj
 0001:00028e80       ??0PxQuat@physx@@QAE@W4PxIDENTITY@1@@Z 10029e80 f i CmMathUtils.obj
 0001:00028ee0       ??0PxQuat@physx@@QAE@XZ    10029ee0 f i CmMathUtils.obj
 0001:00028f00       ??0PxTransform@physx@@QAE@ABVPxVec3@1@ABVPxQuat@1@@Z 10029f00 f i CmMathUtils.obj
 0001:00028f90       ??0PxVec3@physx@@QAE@ABV01@@Z 10029f90 f i CmMathUtils.obj
 0001:00028fd0       ??0PxVec3@physx@@QAE@MMM@Z 10029fd0 f i CmMathUtils.obj
 0001:00029020       ??4PxQuat@physx@@QAEAAV01@ABV01@@Z 1002a020 f i CmMathUtils.obj
 0001:00029070       ??DPxQuat@physx@@QBE?AV01@M@Z 1002a070 f i CmMathUtils.obj
 0001:000290f0       ??DPxVec3@physx@@QBE?AV01@M@Z 1002a0f0 f i CmMathUtils.obj
 0001:00029160       ??GPxVec3@physx@@QBE?AV01@ABV01@@Z 1002a160 f i CmMathUtils.obj
 0001:000291d0       ??GPxVec3@physx@@QBE?AV01@XZ 1002a1d0 f i CmMathUtils.obj
 0001:00029240       ??HPxVec3@physx@@QBE?AV01@ABV01@@Z 1002a240 f i CmMathUtils.obj
 0001:000292b0       ??KPxVec3@physx@@QBE?AV01@M@Z 1002a2b0 f i CmMathUtils.obj
 0001:00029330       ??XPxVec3@physx@@QAEAAV01@M@Z 1002a330 f i CmMathUtils.obj
 0001:00029390       ?PxAbs@physx@@YAMM@Z       1002a390 f i CmMathUtils.obj
 0001:000293b0       ?PxSqrt@physx@@YAMM@Z      1002a3b0 f i CmMathUtils.obj
 0001:000293d0       ?abs@intrinsics@physx@@YAMM@Z 1002a3d0 f i CmMathUtils.obj
 0001:000293f0       ?isFinite@PxQuat@physx@@QBE_NXZ 1002a3f0 f i CmMathUtils.obj
 0001:000294b0       ?isSane@PxQuat@physx@@QBE_NXZ 1002a4b0 f i CmMathUtils.obj
 0001:00029540       ?magnitude@PxQuat@physx@@QBEMXZ 1002a540 f i CmMathUtils.obj
 0001:00029570       ?magnitude@PxVec3@physx@@QBEMXZ 1002a570 f i CmMathUtils.obj
 0001:000295a0       ?magnitudeSquared@PxQuat@physx@@QBEMXZ 1002a5a0 f i CmMathUtils.obj
 0001:00029620       ?magnitudeSquared@PxVec3@physx@@QBEMXZ 1002a620 f i CmMathUtils.obj
 0001:00029680       ?normalize@PxPlane@physx@@QAEXXZ 1002a680 f i CmMathUtils.obj
 0001:000296f0       ?sqrt@intrinsics@physx@@YAMM@Z 1002a6f0 f i CmMathUtils.obj
 0001:00029710       _fabsf                     1002a710 f i CmMathUtils.obj
 0001:00029740       _sqrtf                     1002a740 f i CmMathUtils.obj
 0001:00029770       ??0PtrTable@Cm@physx@@QAE@XZ 1002a770 f   CmPtrTable.obj
 0001:000297a0       ??1PtrTable@Cm@physx@@QAE@XZ 1002a7a0 f   CmPtrTable.obj
 0001:00029860       ?add@PtrTable@Cm@physx@@QAEXPAXAAVPtrTableStorageManager@23@@Z 1002a860 f   CmPtrTable.obj
 0001:00029b30       ?replaceWithLast@PtrTable@Cm@physx@@QAEXIAAVPtrTableStorageManager@23@@Z 1002ab30 f   CmPtrTable.obj
 0001:00029df0       ?clear@PtrTable@Cm@physx@@QAEXAAVPtrTableStorageManager@23@@Z 1002adf0 f   CmPtrTable.obj
 0001:00029e60       ?find@PtrTable@Cm@physx@@QBEIPBX@Z 1002ae60 f   CmPtrTable.obj
 0001:00029ec0       ?exportExtraData@PtrTable@Cm@physx@@QAEXAAVPxSerializationContext@3@@Z 1002aec0 f   CmPtrTable.obj
 0001:00029f10       ?importExtraData@PtrTable@Cm@physx@@QAEXAAVPxDeserializationContext@3@@Z 1002af10 f   CmPtrTable.obj
 0001:00029f40       ?getBinaryMetaData@PtrTable@Cm@physx@@SAXAAVPxOutputStream@3@@Z 1002af40 f   CmPtrTable.obj
 0001:0002a140       ?realloc@PtrTable@Cm@physx@@AAEXIIAAVPtrTableStorageManager@23@@Z 1002b140 f   CmPtrTable.obj
 0001:0002a530       ??$readExtraData@PAX$0BA@@PxDeserializationContext@physx@@QAEPAPAXI@Z 1002b530 f i CmPtrTable.obj
 0001:0002a560       ??$readExtraData@PAX@PxDeserializationContext@physx@@QAEPAPAXI@Z 1002b560 f i CmPtrTable.obj
 0001:0002a5a0       ??0PtrTable@Cm@physx@@QAE@W4PxEMPTY@2@@Z 1002b5a0 f i CmPtrTable.obj
 0001:0002a600       ??4PtrTable@Cm@physx@@QAEAAU012@ABU012@@Z 1002b600 f i CmPtrTable.obj
 0001:0002a630       ?PxMemCopy@physx@@YAPAXPAXPBXI@Z 1002b630 f i CmPtrTable.obj
 0001:0002a650       ?alignExtraData@PxDeserializationContext@physx@@QAEXI@Z 1002b650 f i CmPtrTable.obj
 0001:0002a6a0       ?getCount@PtrTable@Cm@physx@@QBEIXZ 1002b6a0 f i CmPtrTable.obj
 0001:0002a6c0       ?getPtrs@PtrTable@Cm@physx@@QAEPAPAXXZ 1002b6c0 f i CmPtrTable.obj
 0001:0002a700       ?getPtrs@PtrTable@Cm@physx@@QBEPBQAXXZ 1002b700 f i CmPtrTable.obj
 0001:0002a740       ??0RadixSort@Cm@physx@@QAE@XZ 1002b740 f   CmRadixSort.obj
 0001:0002a7c0       ??1RadixSort@Cm@physx@@UAE@XZ 1002b7c0 f   CmRadixSort.obj
 0001:0002a7e0       ?Sort@RadixSort@Cm@physx@@QAEAAV123@PBIIW4RadixHint@23@@Z 1002b7e0 f   CmRadixSort.obj
 0001:0002b310       ?Sort@RadixSort@Cm@physx@@QAEAAV123@PBMI@Z 1002c310 f   CmRadixSort.obj
 0001:0002bd80       ?SetBuffers@RadixSort@Cm@physx@@QAE_NPAI00PAPAI@Z 1002cd80 f   CmRadixSort.obj
 0001:0002c3a0       ??_ERadixSort@Cm@physx@@UAEPAXI@Z 1002d3a0 f i CmRadixSort.obj
 0001:0002c440       ??_GRadixSort@Cm@physx@@UAEPAXI@Z 1002d440 f i CmRadixSort.obj
 0001:0002c480       ?CheckPassValidity@@YAPBIIPBIIPBXAAE@Z 1002d480 f i CmRadixSort.obj
 0001:0002c4d0       ?PxMemZero@physx@@YAPAXPAXI@Z 1002d4d0 f i CmRadixSort.obj
 0001:0002c4f0       ?memZero@intrinsics@physx@@YAPAXPAXI@Z 1002d4f0 f i CmRadixSort.obj
 0001:0002c510       ??0RadixSortBuffered@Cm@physx@@QAE@XZ 1002d510 f   CmRadixSortBuffered.obj
 0001:0002c530       ??1RadixSortBuffered@Cm@physx@@UAE@XZ 1002d530 f   CmRadixSortBuffered.obj
 0001:0002c5a0       ?Sort@RadixSortBuffered@Cm@physx@@QAEAAV123@PBIIW4RadixHint@23@@Z 1002d5a0 f   CmRadixSortBuffered.obj
 0001:0002c610       ?Sort@RadixSortBuffered@Cm@physx@@QAEAAV123@PBMI@Z 1002d610 f   CmRadixSortBuffered.obj
 0001:0002c680       ?Resize@RadixSortBuffered@Cm@physx@@AAE_NI@Z 1002d680 f   CmRadixSortBuffered.obj
 0001:0002c7e0       ??_ERadixSortBuffered@Cm@physx@@UAEPAXI@Z 1002d7e0 f i CmRadixSortBuffered.obj
 0001:0002c880       ??_GRadixSortBuffered@Cm@physx@@UAEPAXI@Z 1002d880 f i CmRadixSortBuffered.obj
 0001:0002c8c0       ?CheckResize@RadixSortBuffered@Cm@physx@@AAEXI@Z 1002d8c0 f i CmRadixSortBuffered.obj
 0001:0002c930       ??6RenderOutput@Cm@physx@@QAEAAV012@W4Primitive@012@@Z 1002d930 f   CmRenderOutput.obj
 0001:0002c960       ??6RenderOutput@Cm@physx@@QAEAAV012@I@Z 1002d960 f   CmRenderOutput.obj
 0001:0002c980       ??6RenderOutput@Cm@physx@@QAEAAV012@ABVPxMat44@2@@Z 1002d980 f   CmRenderOutput.obj
 0001:0002c9a0       ??6RenderOutput@Cm@physx@@QAEAAV012@ABVPxTransform@2@@Z 1002d9a0 f   CmRenderOutput.obj
 0001:0002c9d0       ??6RenderOutput@Cm@physx@@QAEAAV012@VPxVec3@2@@Z 1002d9d0 f   CmRenderOutput.obj
 0001:0002cbf0       ??6RenderOutput@Cm@physx@@QAEAAV012@ABUDebugText@12@@Z 1002dbf0 f   CmRenderOutput.obj
 0001:0002cd50       ?outputCapsule@RenderOutput@Cm@physx@@QAEAAV123@MMABVPxMat44@3@@Z 1002dd50 f   CmRenderOutput.obj
 0001:0002d350       ??0DebugText@Cm@physx@@QAA@ABVPxVec3@2@MPBDZZ 1002e350 f   CmRenderOutput.obj
 0001:0002d3c0       ??6Cm@physx@@YAAAVRenderOutput@01@AAV201@ABUDebugBox@01@@Z 1002e3c0 f   CmRenderOutput.obj
 0001:0002db00       ??6Cm@physx@@YAAAVRenderOutput@01@AAV201@ABUDebugArrow@01@@Z 1002eb00 f   CmRenderOutput.obj
 0001:0002dd10       ??6Cm@physx@@YAAAVRenderOutput@01@AAV201@ABUDebugBasis@01@@Z 1002ed10 f   CmRenderOutput.obj
 0001:0002de80       ??6Cm@physx@@YAAAVRenderOutput@01@AAV201@ABUDebugCircle@01@@Z 1002ee80 f   CmRenderOutput.obj
 0001:0002dfb0       ??6Cm@physx@@YAAAVRenderOutput@01@AAV201@ABUDebugArc@01@@Z 1002efb0 f   CmRenderOutput.obj
 0001:0002e730       ??$PxMax@I@physx@@YAIII@Z  1002f730 f i CmRenderOutput.obj
 0001:0002e760       ??$swap@VPxVec4@physx@@@shdfnd@physx@@YAXAAVPxVec4@1@0@Z 1002f760 f i CmRenderOutput.obj
 0001:0002e7a0       ??0DebugArc@Cm@physx@@QAE@IMMM@Z 1002f7a0 f i CmRenderOutput.obj
 0001:0002e7f0       ??0DebugArrow@Cm@physx@@QAE@ABVPxVec3@2@0M@Z 1002f7f0 f i CmRenderOutput.obj
 0001:0002e840       ??0DebugCircle@Cm@physx@@QAE@IM@Z 1002f840 f i CmRenderOutput.obj
 0001:0002e870       ??0DebugText@Cm@physx@@QAE@$$QAU012@@Z 1002f870 f i CmRenderOutput.obj
 0001:0002e8d0       ??0DebugText@Cm@physx@@QAE@ABU012@@Z 1002f8d0 f i CmRenderOutput.obj
 0001:0002e930       ??0PxDebugLine@physx@@QAE@ABU01@@Z 1002f930 f i CmRenderOutput.obj
 0001:0002e990       ??0PxDebugLine@physx@@QAE@ABVPxVec3@1@0ABI@Z 1002f990 f i CmRenderOutput.obj
 0001:0002e9f0       ??0PxDebugPoint@physx@@QAE@ABU01@@Z 1002f9f0 f i CmRenderOutput.obj
 0001:0002ea30       ??0PxDebugPoint@physx@@QAE@ABVPxVec3@1@ABI@Z 1002fa30 f i CmRenderOutput.obj
 0001:0002ea60       ??0PxDebugText@physx@@QAE@ABU01@@Z 1002fa60 f i CmRenderOutput.obj
 0001:0002eab0       ??0PxDebugText@physx@@QAE@ABVPxVec3@1@ABMABIPBD@Z 1002fab0 f i CmRenderOutput.obj
 0001:0002eb00       ??0PxDebugTriangle@physx@@QAE@ABU01@@Z 1002fb00 f i CmRenderOutput.obj
 0001:0002eb80       ??0PxDebugTriangle@physx@@QAE@ABVPxVec3@1@00ABI@Z 1002fb80 f i CmRenderOutput.obj
 0001:0002ec00       ??0PxMat33@physx@@QAE@ABVPxQuat@1@@Z 1002fc00 f i CmRenderOutput.obj
 0001:0002ee80       ??0PxMat44@physx@@QAE@ABV01@@Z 1002fe80 f i CmRenderOutput.obj
 0001:0002eef0       ??0PxMat44@physx@@QAE@ABVPxMat33@1@ABVPxVec3@1@@Z 1002fef0 f i CmRenderOutput.obj
 0001:0002ef90       ??0PxMat44@physx@@QAE@ABVPxTransform@1@@Z 1002ff90 f i CmRenderOutput.obj
 0001:0002f010       ??0PxMat44@physx@@QAE@W4PxIDENTITY@1@@Z 10030010 f i CmRenderOutput.obj
 0001:0002f140       ??0PxVec3@physx@@QAE@M@Z   10030140 f i CmRenderOutput.obj
 0001:0002f190       ??0PxVec3@physx@@QAE@XZ    10030190 f i CmRenderOutput.obj
 0001:0002f1b0       ??0PxVec4@physx@@QAE@ABV01@@Z 100301b0 f i CmRenderOutput.obj
 0001:0002f200       ??0PxVec4@physx@@QAE@ABVPxVec3@1@M@Z 10030200 f i CmRenderOutput.obj
 0001:0002f250       ??0PxVec4@physx@@QAE@MMMM@Z 10030250 f i CmRenderOutput.obj
 0001:0002f2b0       ??0PxVec4@physx@@QAE@XZ    100302b0 f i CmRenderOutput.obj
 0001:0002f2d0       ??0RenderOutput@Cm@physx@@QAE@AAVRenderBuffer@12@@Z 100302d0 f i CmRenderOutput.obj
 0001:0002f360       ??0RenderOutput@Cm@physx@@QAE@ABV012@@Z 10030360 f i CmRenderOutput.obj
 0001:0002f400       ??4DebugText@Cm@physx@@QAEAAU012@$$QAU012@@Z 10030400 f i CmRenderOutput.obj
 0001:0002f490       ??4DebugText@Cm@physx@@QAEAAU012@ABU012@@Z 10030490 f i CmRenderOutput.obj
 0001:0002f520       ??4PxMat44@physx@@QAEAAV01@ABV01@@Z 10030520 f i CmRenderOutput.obj
 0001:0002f590       ??4PxVec3@physx@@QAEAAV01@ABV01@@Z 10030590 f i CmRenderOutput.obj
 0001:0002f5d0       ??4PxVec4@physx@@QAEAAV01@ABV01@@Z 100305d0 f i CmRenderOutput.obj
 0001:0002f620       ??A?$Array@UPxDebugText@physx@@VNamedAllocator@shdfnd@2@@shdfnd@physx@@QAEAAUPxDebugText@2@I@Z 10030620 f i CmRenderOutput.obj
 0001:0002f690       ??DPxVec4@physx@@QBE?AV01@M@Z 10030690 f i CmRenderOutput.obj
 0001:0002f710       ??GPxVec4@physx@@QBE?AV01@XZ 10030710 f i CmRenderOutput.obj
 0001:0002f7a0       ??HPxVec4@physx@@QBE?AV01@ABV01@@Z 100307a0 f i CmRenderOutput.obj
 0001:0002f830       ??YPxVec4@physx@@QAEAAV01@ABV01@@Z 10030830 f i CmRenderOutput.obj
 0001:0002f8c0       ??_0PxVec3@physx@@QAEAAV01@M@Z 100308c0 f i CmRenderOutput.obj
 0001:0002f940       ?PxCos@physx@@YAMM@Z       10030940 f i CmRenderOutput.obj
 0001:0002f960       ?PxSin@physx@@YAMM@Z       10030960 f i CmRenderOutput.obj
 0001:0002f980       ?allocate@?$Array@DVNamedAllocator@shdfnd@physx@@@shdfnd@physx@@IAEPADI@Z 10030980 f i CmRenderOutput.obj
 0001:0002fa00       ?allocate@?$Array@UPxDebugLine@physx@@VNamedAllocator@shdfnd@2@@shdfnd@physx@@IAEPAUPxDebugLine@3@I@Z 10030a00 f i CmRenderOutput.obj
 0001:0002fa80       ?allocate@?$Array@UPxDebugPoint@physx@@VNamedAllocator@shdfnd@2@@shdfnd@physx@@IAEPAUPxDebugPoint@3@I@Z 10030a80 f i CmRenderOutput.obj
 0001:0002fb00       ?allocate@?$Array@UPxDebugText@physx@@VNamedAllocator@shdfnd@2@@shdfnd@physx@@IAEPAUPxDebugText@3@I@Z 10030b00 f i CmRenderOutput.obj
 0001:0002fb80       ?allocate@?$Array@UPxDebugTriangle@physx@@VNamedAllocator@shdfnd@2@@shdfnd@physx@@IAEPAUPxDebugTriangle@3@I@Z 10030b80 f i CmRenderOutput.obj
 0001:0002fc00       ?begin@?$Array@DVNamedAllocator@shdfnd@physx@@@shdfnd@physx@@QAEPADXZ 10030c00 f i CmRenderOutput.obj
 0001:0002fc20       ?capacity@?$Array@DVNamedAllocator@shdfnd@physx@@@shdfnd@physx@@QBEIXZ 10030c20 f i CmRenderOutput.obj
 0001:0002fc40       ?capacity@?$Array@UPxDebugLine@physx@@VNamedAllocator@shdfnd@2@@shdfnd@physx@@QBEIXZ 10030c40 f i CmRenderOutput.obj
 0001:0002fc60       ?capacity@?$Array@UPxDebugPoint@physx@@VNamedAllocator@shdfnd@2@@shdfnd@physx@@QBEIXZ 10030c60 f i CmRenderOutput.obj
 0001:0002fc80       ?capacity@?$Array@UPxDebugText@physx@@VNamedAllocator@shdfnd@2@@shdfnd@physx@@QBEIXZ 10030c80 f i CmRenderOutput.obj
 0001:0002fca0       ?capacity@?$Array@UPxDebugTriangle@physx@@VNamedAllocator@shdfnd@2@@shdfnd@physx@@QBEIXZ 10030ca0 f i CmRenderOutput.obj
 0001:0002fcc0       ?capacityIncrement@?$Array@DVNamedAllocator@shdfnd@physx@@@shdfnd@physx@@IBEIXZ 10030cc0 f i CmRenderOutput.obj
 0001:0002fd00       ?capacityIncrement@?$Array@UPxDebugLine@physx@@VNamedAllocator@shdfnd@2@@shdfnd@physx@@IBEIXZ 10030d00 f i CmRenderOutput.obj
 0001:0002fd40       ?capacityIncrement@?$Array@UPxDebugPoint@physx@@VNamedAllocator@shdfnd@2@@shdfnd@physx@@IBEIXZ 10030d40 f i CmRenderOutput.obj
 0001:0002fd80       ?capacityIncrement@?$Array@UPxDebugText@physx@@VNamedAllocator@shdfnd@2@@shdfnd@physx@@IBEIXZ 10030d80 f i CmRenderOutput.obj
 0001:0002fdc0       ?capacityIncrement@?$Array@UPxDebugTriangle@physx@@VNamedAllocator@shdfnd@2@@shdfnd@physx@@IBEIXZ 10030dc0 f i CmRenderOutput.obj
 0001:0002fe00       ?copy@?$Array@DVNamedAllocator@shdfnd@physx@@@shdfnd@physx@@KAXPAD0PBD@Z 10030e00 f i CmRenderOutput.obj
 0001:0002fe60       ?copy@?$Array@UPxDebugLine@physx@@VNamedAllocator@shdfnd@2@@shdfnd@physx@@KAXPAUPxDebugLine@3@0PBU43@@Z 10030e60 f i CmRenderOutput.obj
 0001:0002fec0       ?copy@?$Array@UPxDebugPoint@physx@@VNamedAllocator@shdfnd@2@@shdfnd@physx@@KAXPAUPxDebugPoint@3@0PBU43@@Z 10030ec0 f i CmRenderOutput.obj
 0001:0002ff20       ?copy@?$Array@UPxDebugText@physx@@VNamedAllocator@shdfnd@2@@shdfnd@physx@@KAXPAUPxDebugText@3@0PBU43@@Z 10030f20 f i CmRenderOutput.obj
 0001:0002ff80       ?copy@?$Array@UPxDebugTriangle@physx@@VNamedAllocator@shdfnd@2@@shdfnd@physx@@KAXPAUPxDebugTriangle@3@0PBU43@@Z 10030f80 f i CmRenderOutput.obj
 0001:0002ffe0       ?cos@intrinsics@physx@@YAMM@Z 10030fe0 f i CmRenderOutput.obj
 0001:00030000       ?cross@PxVec3@physx@@QBE?AV12@ABV12@@Z 10031000 f i CmRenderOutput.obj
 0001:000300c0       ?deallocate@?$Array@DVNamedAllocator@shdfnd@physx@@@shdfnd@physx@@IAEXPAX@Z 100310c0 f i CmRenderOutput.obj
 0001:000300e0       ?deallocate@?$Array@UPxDebugLine@physx@@VNamedAllocator@shdfnd@2@@shdfnd@physx@@IAEXPAX@Z 100310e0 f i CmRenderOutput.obj
 0001:00030100       ?deallocate@?$Array@UPxDebugPoint@physx@@VNamedAllocator@shdfnd@2@@shdfnd@physx@@IAEXPAX@Z 10031100 f i CmRenderOutput.obj
 0001:00030120       ?deallocate@?$Array@UPxDebugText@physx@@VNamedAllocator@shdfnd@2@@shdfnd@physx@@IAEXPAX@Z 10031120 f i CmRenderOutput.obj
 0001:00030140       ?deallocate@?$Array@UPxDebugTriangle@physx@@VNamedAllocator@shdfnd@2@@shdfnd@physx@@IAEXPAX@Z 10031140 f i CmRenderOutput.obj
 0001:00030160       ?destroy@?$Array@DVNamedAllocator@shdfnd@physx@@@shdfnd@physx@@KAXPAD0@Z 10031160 f i CmRenderOutput.obj
 0001:00030180       ?destroy@?$Array@UPxDebugLine@physx@@VNamedAllocator@shdfnd@2@@shdfnd@physx@@KAXPAUPxDebugLine@3@0@Z 10031180 f i CmRenderOutput.obj
 0001:000301a0       ?destroy@?$Array@UPxDebugPoint@physx@@VNamedAllocator@shdfnd@2@@shdfnd@physx@@KAXPAUPxDebugPoint@3@0@Z 100311a0 f i CmRenderOutput.obj
 0001:000301c0       ?destroy@?$Array@UPxDebugText@physx@@VNamedAllocator@shdfnd@2@@shdfnd@physx@@KAXPAUPxDebugText@3@0@Z 100311c0 f i CmRenderOutput.obj
 0001:000301e0       ?destroy@?$Array@UPxDebugTriangle@physx@@VNamedAllocator@shdfnd@2@@shdfnd@physx@@KAXPAUPxDebugTriangle@3@0@Z 100311e0 f i CmRenderOutput.obj
 0001:00030200       ?end@?$Array@DVNamedAllocator@shdfnd@physx@@@shdfnd@physx@@QAEPADXZ 10031200 f i CmRenderOutput.obj
 0001:00030220       ?end@?$Array@UPxDebugLine@physx@@VNamedAllocator@shdfnd@2@@shdfnd@physx@@QAEPAUPxDebugLine@3@XZ 10031220 f i CmRenderOutput.obj
 0001:00030240       ?forceSize_Unsafe@?$Array@UPxDebugLine@physx@@VNamedAllocator@shdfnd@2@@shdfnd@physx@@QAEXI@Z 10031240 f i CmRenderOutput.obj
 0001:000302b0       ?getXYZ@PxVec4@physx@@QBE?AVPxVec3@2@XZ 100312b0 f i CmRenderOutput.obj
 0001:00030310       ?grow@?$Array@DVNamedAllocator@shdfnd@physx@@@shdfnd@physx@@IAEXI@Z 10031310 f i CmRenderOutput.obj
 0001:00030390       ?grow@?$Array@UPxDebugLine@physx@@VNamedAllocator@shdfnd@2@@shdfnd@physx@@IAEXI@Z 10031390 f i CmRenderOutput.obj
 0001:00030410       ?growAndPushBack@?$Array@DVNamedAllocator@shdfnd@physx@@@shdfnd@physx@@IAEAADABD@Z 10031410 f i CmRenderOutput.obj
 0001:00030570       ?growAndPushBack@?$Array@UPxDebugLine@physx@@VNamedAllocator@shdfnd@2@@shdfnd@physx@@IAEAAUPxDebugLine@3@ABU43@@Z 10031570 f i CmRenderOutput.obj
 0001:000306e0       ?growAndPushBack@?$Array@UPxDebugPoint@physx@@VNamedAllocator@shdfnd@2@@shdfnd@physx@@IAEAAUPxDebugPoint@3@ABU43@@Z 100316e0 f i CmRenderOutput.obj
 0001:00030850       ?growAndPushBack@?$Array@UPxDebugText@physx@@VNamedAllocator@shdfnd@2@@shdfnd@physx@@IAEAAUPxDebugText@3@ABU43@@Z 10031850 f i CmRenderOutput.obj
 0001:000309c0       ?growAndPushBack@?$Array@UPxDebugTriangle@physx@@VNamedAllocator@shdfnd@2@@shdfnd@physx@@IAEAAUPxDebugTriangle@3@ABU43@@Z 100319c0 f i CmRenderOutput.obj
 0001:00030b30       ?isInUserMemory@?$Array@DVNamedAllocator@shdfnd@physx@@@shdfnd@physx@@QBEIXZ 10031b30 f i CmRenderOutput.obj
 0001:00030b50       ?isInUserMemory@?$Array@UPxDebugLine@physx@@VNamedAllocator@shdfnd@2@@shdfnd@physx@@QBEIXZ 10031b50 f i CmRenderOutput.obj
 0001:00030b70       ?isInUserMemory@?$Array@UPxDebugPoint@physx@@VNamedAllocator@shdfnd@2@@shdfnd@physx@@QBEIXZ 10031b70 f i CmRenderOutput.obj
 0001:00030b90       ?isInUserMemory@?$Array@UPxDebugText@physx@@VNamedAllocator@shdfnd@2@@shdfnd@physx@@QBEIXZ 10031b90 f i CmRenderOutput.obj
 0001:00030bb0       ?isInUserMemory@?$Array@UPxDebugTriangle@physx@@VNamedAllocator@shdfnd@2@@shdfnd@physx@@QBEIXZ 10031bb0 f i CmRenderOutput.obj
 0001:00030bd0       ?normalToTangents@shdfnd@physx@@YAXABVPxVec3@2@AAV32@1@Z 10031bd0 f i CmRenderOutput.obj
 0001:00030ce0       ?normalize@PxVec3@physx@@QAEMXZ 10031ce0 f i CmRenderOutput.obj
 0001:00030d30       ?outputSegment@RenderOutput@Cm@physx@@QAEXABVPxVec3@3@0@Z 10031d30 f i CmRenderOutput.obj
 0001:00030da0       ?pushBack@?$Array@DVNamedAllocator@shdfnd@physx@@@shdfnd@physx@@QAEAADABD@Z 10031da0 f i CmRenderOutput.obj
 0001:00030e30       ?pushBack@?$Array@UPxDebugLine@physx@@VNamedAllocator@shdfnd@2@@shdfnd@physx@@QAEAAUPxDebugLine@3@ABU43@@Z 10031e30 f i CmRenderOutput.obj
 0001:00030ed0       ?pushBack@?$Array@UPxDebugPoint@physx@@VNamedAllocator@shdfnd@2@@shdfnd@physx@@QAEAAUPxDebugPoint@3@ABU43@@Z 10031ed0 f i CmRenderOutput.obj
 0001:00030f70       ?pushBack@?$Array@UPxDebugText@physx@@VNamedAllocator@shdfnd@2@@shdfnd@physx@@QAEAAUPxDebugText@3@ABU43@@Z 10031f70 f i CmRenderOutput.obj
 0001:00031010       ?pushBack@?$Array@UPxDebugTriangle@physx@@VNamedAllocator@shdfnd@2@@shdfnd@physx@@QAEAAUPxDebugTriangle@3@ABU43@@Z 10032010 f i CmRenderOutput.obj
 0001:000310b0       ?recreate@?$Array@DVNamedAllocator@shdfnd@physx@@@shdfnd@physx@@IAEXI@Z 100320b0 f i CmRenderOutput.obj
 0001:000311b0       ?recreate@?$Array@UPxDebugLine@physx@@VNamedAllocator@shdfnd@2@@shdfnd@physx@@IAEXI@Z 100321b0 f i CmRenderOutput.obj
 0001:000312c0       ?reserve@?$Array@DVNamedAllocator@shdfnd@physx@@@shdfnd@physx@@QAEXI@Z 100322c0 f i CmRenderOutput.obj
 0001:000312f0       ?reserve@?$Array@UPxDebugLine@physx@@VNamedAllocator@shdfnd@2@@shdfnd@physx@@QAEXI@Z 100322f0 f i CmRenderOutput.obj
 0001:00031320       ?reserveSegments@RenderOutput@Cm@physx@@QAEPAUPxDebugLine@3@I@Z 10032320 f i CmRenderOutput.obj
 0001:00031350       ?rotate@PxMat44@physx@@QBE?BVPxVec3@2@ABV32@@Z 10032350 f i CmRenderOutput.obj
 0001:000313b0       ?rotate@PxMat44@physx@@QBE?BVPxVec4@2@ABV32@@Z 100323b0 f i CmRenderOutput.obj
 0001:00031450       ?sin@intrinsics@physx@@YAMM@Z 10032450 f i CmRenderOutput.obj
 0001:00031470       ?size@?$Array@DVNamedAllocator@shdfnd@physx@@@shdfnd@physx@@QBEIXZ 10032470 f i CmRenderOutput.obj
 0001:00031490       ?size@?$Array@UPxDebugLine@physx@@VNamedAllocator@shdfnd@2@@shdfnd@physx@@QBEIXZ 10032490 f i CmRenderOutput.obj
 0001:000314b0       ?size@?$Array@UPxDebugText@physx@@VNamedAllocator@shdfnd@2@@shdfnd@physx@@QBEIXZ 100324b0 f i CmRenderOutput.obj
 0001:000314d0       ?transform@PxMat44@physx@@QBE?BVPxVec3@2@ABV32@@Z 100324d0 f i CmRenderOutput.obj
 0001:00031530       ?transform@PxMat44@physx@@QBE?BVPxVec4@2@ABV32@@Z 10032530 f i CmRenderOutput.obj
 0001:00031600       _cosf                      10032600 f i CmRenderOutput.obj
 0001:00031630       _sinf                      10032630 f i CmRenderOutput.obj
 0001:00031740       ?visualizeJointFrames@Cm@physx@@YAXAAVRenderOutput@12@MABVPxTransform@2@1@Z 10032740 f   CmVisualization.obj
 0001:00031830       ?visualizeLinearLimit@Cm@physx@@YAXAAVRenderOutput@12@MABVPxTransform@2@1M_N@Z 10032830 f   CmVisualization.obj
 0001:00031990       ?visualizeAngularLimit@Cm@physx@@YAXAAVRenderOutput@12@MABVPxTransform@2@MM_N@Z 10032990 f   CmVisualization.obj
 0001:00031b80       ?visualizeLimitCone@Cm@physx@@YAXAAVRenderOutput@12@MABVPxTransform@2@MM_N@Z 10032b80 f   CmVisualization.obj
 0001:00031df0       ?visualizeDoubleCone@Cm@physx@@YAXAAVRenderOutput@12@MABVPxTransform@2@M_N@Z 10032df0 f   CmVisualization.obj
 0001:00032500       ??$PX_UNUSED@W4PxZERO@physx@@@@YAXABW4PxZERO@physx@@@Z 10033500 f i CmVisualization.obj
 0001:00032510       ??0DebugArrow@Cm@physx@@QAE@ABVPxVec3@2@0@Z 10033510 f i CmVisualization.obj
 0001:00032580       ??0DebugBasis@Cm@physx@@QAE@ABVPxVec3@2@III@Z 10033580 f i CmVisualization.obj
 0001:000325d0       ??0PxQuat@physx@@QAE@MABVPxVec3@1@@Z 100335d0 f i CmVisualization.obj
 0001:00032710       ??0PxTransform@physx@@QAE@W4PxIDENTITY@1@@Z 10033710 f i CmVisualization.obj
 0001:00032750       ??0PxVec3@physx@@QAE@W4PxZERO@1@@Z 10033750 f i CmVisualization.obj
 0001:000327a0       ??DPxQuat@physx@@QBE?AV01@ABV01@@Z 100337a0 f i CmVisualization.obj
 0001:00032950       ?PxTan@physx@@YAMM@Z       10033950 f i CmVisualization.obj
 0001:00032970       ?getBasisVector0@PxQuat@physx@@QBE?AVPxVec3@2@XZ 10033970 f i CmVisualization.obj
 0001:00032a60       ?rotate@PxQuat@physx@@QBE?BVPxVec3@2@ABV32@@Z 10033a60 f i CmVisualization.obj
 0001:00032c50       _tanf                      10033c50 f i CmVisualization.obj
 0001:00032cd0       ?contactBoxBox@Gu@physx@@YA_NABVGeometryUnion@12@0ABVPxTransform@2@1ABUNarrowPhaseParams@12@AAUCache@12@AAVContactBuffer@12@PAVRenderOutput@Cm@2@@Z 10033cd0 f   GuContactBoxBox.obj
 0001:00036880       ??$PX_UNUSED@PAVRenderOutput@Cm@physx@@@@YAXABQAVRenderOutput@Cm@physx@@@Z 10037880 f i GuContactBoxBox.obj
 0001:00036890       ??$PX_UNUSED@VGeometryUnion@Gu@physx@@@@YAXABVGeometryUnion@Gu@physx@@@Z 10037890 f i GuContactBoxBox.obj
 0001:000368a0       ??$checkType@$$CBVPxBoxGeometry@physx@@@physx@@YAXABVGeometryUnion@Gu@0@@Z 100378a0 f i GuContactBoxBox.obj
 0001:00036910       ??$get@$$CBVPxBoxGeometry@physx@@@GeometryUnion@Gu@physx@@QBEABVPxBoxGeometry@2@XZ 10037910 f i GuContactBoxBox.obj
 0001:00036930       ??0?$PxFlags@W4Enum@PxBaseFlag@physx@@G@physx@@QAE@ABV01@@Z 10037930 f i GuContactBoxBox.obj
 0001:00036960       ??0Box@Gu@physx@@QAE@ABV012@@Z 10037960 f i GuContactBoxBox.obj
 0001:000369b0       ??0Box@Gu@physx@@QAE@ABVPxVec3@2@0ABVPxMat33@2@@Z 100379b0 f i GuContactBoxBox.obj
 0001:00036a00       ??0Box@Gu@physx@@QAE@XZ    10037a00 f i GuContactBoxBox.obj
 0001:00036a40       ??0GeometryUnion@Gu@physx@@QAE@ABVPxGeometry@2@@Z 10037a40 f i GuContactBoxBox.obj
 0001:00036a70       ??0GeometryUnion@Gu@physx@@QAE@W4PxEMPTY@2@@Z 10037a70 f i GuContactBoxBox.obj
 0001:00036a90       ??0GeometryUnion@Gu@physx@@QAE@XZ 10037a90 f i GuContactBoxBox.obj
 0001:00036ac0       ??0InvalidGeometry@Gu@physx@@QAE@XZ 10037ac0 f i GuContactBoxBox.obj
 0001:00036ae0       ??0MaterialIndicesStruct@physx@@QAE@W4PxEMPTY@1@@Z 10037ae0 f i GuContactBoxBox.obj
 0001:00036b00       ??0MaterialIndicesStruct@physx@@QAE@XZ 10037b00 f i GuContactBoxBox.obj
 0001:00036b30       ??0Matrix34@Cm@physx@@QAE@ABVPxMat33@2@ABVPxVec3@2@@Z 10037b30 f i GuContactBoxBox.obj
 0001:00036b70       ??0Matrix34@Cm@physx@@QAE@ABVPxTransform@2@@Z 10037b70 f i GuContactBoxBox.obj
 0001:00036bb0       ??0Matrix34@Cm@physx@@QAE@XZ 10037bb0 f i GuContactBoxBox.obj
 0001:00036be0       ??0PxGeometry@physx@@IAE@W4Enum@PxGeometryType@1@@Z 10037be0 f i GuContactBoxBox.obj
 0001:00036c00       ??0PxMat33@physx@@QAE@ABV01@@Z 10037c00 f i GuContactBoxBox.obj
 0001:00036c50       ??0PxMat33@physx@@QAE@ABVPxVec3@1@00@Z 10037c50 f i GuContactBoxBox.obj
 0001:00036ca0       ??0PxMat33@physx@@QAE@W4PxIDENTITY@1@@Z 10037ca0 f i GuContactBoxBox.obj
 0001:00036d60       ??0PxMat33@physx@@QAE@XZ   10037d60 f i GuContactBoxBox.obj
 0001:00036da0       ??0PxQuat@physx@@QAE@ABVPxMat33@1@@Z 10037da0 f i GuContactBoxBox.obj
 0001:000371c0       ??0VertexInfo@@QAE@XZ      100381c0 f i GuContactBoxBox.obj
 0001:000371e0       ??1Box@Gu@physx@@QAE@XZ    100381e0 f i GuContactBoxBox.obj
 0001:000371f0       ??1MaterialIndicesStruct@physx@@QAE@XZ 100381f0 f i GuContactBoxBox.obj
 0001:00037200       ??1PxBase@physx@@MAE@XZ    10038200 f i GuContactBoxBox.obj
 0001:00037220       ??1PxConvexMesh@physx@@MAE@XZ 10038220 f i GuContactBoxBox.obj
 0001:00037250       ??4Box@Gu@physx@@QAEABV012@ABV012@@Z 10038250 f i GuContactBoxBox.obj
 0001:000372a0       ??4GeometryUnion@Gu@physx@@QAEAAV012@$$QAV012@@Z 100382a0 f i GuContactBoxBox.obj
 0001:000372d0       ??4GeometryUnion@Gu@physx@@QAEAAV012@ABV012@@Z 100382d0 f i GuContactBoxBox.obj
 0001:00037300       ??4MaterialIndicesStruct@physx@@QAEAAU01@ABU01@@Z 10038300 f i GuContactBoxBox.obj
 0001:00037330       ??4PxMat33@physx@@QAEAAV01@ABV01@@Z 10038330 f i GuContactBoxBox.obj
 0001:00037380       ??APxMat33@physx@@QBEABVPxVec3@1@I@Z 10038380 f i GuContactBoxBox.obj
 0001:000373a0       ??B?$PxFlags@W4Enum@PxBaseFlag@physx@@G@physx@@QBE_NXZ 100383a0 f i GuContactBoxBox.obj
 0001:000373d0       ??DMatrix34@Cm@physx@@QBE?AV012@ABV012@@Z 100383d0 f i GuContactBoxBox.obj
 0001:00037440       ??DPxMat33@physx@@QBE?BV01@ABV01@@Z 10038440 f i GuContactBoxBox.obj
 0001:000374b0       ??DPxMat33@physx@@QBE?BVPxVec3@1@ABV21@@Z 100384b0 f i GuContactBoxBox.obj
 0001:000374e0       ??I?$PxFlags@W4Enum@PxBaseFlag@physx@@G@physx@@QBE?AV01@W4Enum@PxBaseFlag@1@@Z 100384e0 f i GuContactBoxBox.obj
 0001:00037530       ??YPxVec3@physx@@QAEAAV01@ABV01@@Z 10038530 f i GuContactBoxBox.obj
 0001:000375a0       ??ZPxVec3@physx@@QAEAAV01@ABV01@@Z 100385a0 f i GuContactBoxBox.obj
 0001:00037610       ??_EPxConvexMesh@physx@@MAEPAXI@Z 10038610 f i GuContactBoxBox.obj
 0001:000376b0       ??_EPxBase@physx@@MAEPAXI@Z 100386b0 f i GuContactBoxBox.obj
 0001:000376b0       ??_GPxBase@physx@@MAEPAXI@Z 100386b0 f i GuContactBoxBox.obj
 0001:000376f0       ??_H@YGXPAXIIP6EPAX0@Z@Z   100386f0 f i GuContactBoxBox.obj
 0001:00037750       ?FLoad@aos@shdfnd@physx@@YA?AT__m128@@M@Z 10038750 f i GuContactBoxBox.obj
 0001:00037790       ?V3Load@aos@shdfnd@physx@@YA?AT__m128@@M@Z 10038790 f i GuContactBoxBox.obj
 0001:000377f0       ?V4Load@aos@shdfnd@physx@@YA?AT__m128@@M@Z 100387f0 f i GuContactBoxBox.obj
 0001:00037830       ?allocate@MaterialIndicesStruct@physx@@QAEXG@Z 10038830 f i GuContactBoxBox.obj
 0001:00037890       ?computeAABBExtent@Box@Gu@physx@@QBE?AVPxVec3@3@XZ 10038890 f i GuContactBoxBox.obj
 0001:00037b50       ?computeBoxPoints@Box@Gu@physx@@QBEXPIAVPxVec3@3@@Z 10038b50 f i GuContactBoxBox.obj
 0001:00037ba0       ?contact@ContactBuffer@Gu@physx@@QAE_NABVPxVec3@3@0MI@Z 10038ba0 f i GuContactBoxBox.obj
 0001:00037cc0       ?deallocate@MaterialIndicesStruct@physx@@QAEXXZ 10038cc0 f i GuContactBoxBox.obj
 0001:00037d00       ?dot@PxVec3@physx@@QBEMABV12@@Z 10038d00 f i GuContactBoxBox.obj
 0001:00037d60       ?getConcreteTypeName@PxConvexMesh@physx@@UBEPBDXZ 10038d60 f i GuContactBoxBox.obj
 0001:00037d80       ?getGeometry@GeometryUnion@Gu@physx@@QBEABVPxGeometry@3@XZ 10038d80 f i GuContactBoxBox.obj
 0001:00037da0       ?getInverseRT@Matrix34@Cm@physx@@QBE?AV123@XZ 10038da0 f i GuContactBoxBox.obj
 0001:00037e00       ?getTransform@Box@Gu@physx@@QBE?AVPxTransform@3@XZ 10038e00 f i GuContactBoxBox.obj
 0001:00037e40       ?getTranspose@PxMat33@physx@@QBE?BV12@XZ 10038e40 f i GuContactBoxBox.obj
 0001:00037f30       ?getType@GeometryUnion@Gu@physx@@QBE?AW4Enum@PxGeometryType@3@XZ 10038f30 f i GuContactBoxBox.obj
 0001:00037f50       ?getType@PxGeometry@physx@@QBE?AW4Enum@PxGeometryType@2@XZ 10038f50 f i GuContactBoxBox.obj
 0001:00037f70       ?isKindOf@PxBase@physx@@MBE_NPBD@Z 10038f70 f i GuContactBoxBox.obj
 0001:00037fc0       ?isKindOf@PxConvexMesh@physx@@MBE_NPBD@Z 10038fc0 f i GuContactBoxBox.obj
 0001:00038020       ?isReleasable@PxBase@physx@@UBE_NXZ 10039020 f i GuContactBoxBox.obj
 0001:00038050       ?isValid@Box@Gu@physx@@QBE_NXZ 10039050 f i GuContactBoxBox.obj
 0001:000380a0       ?reset@ContactBuffer@Gu@physx@@QAEXXZ 100390a0 f i GuContactBoxBox.obj
 0001:000380c0       ?rotate@Box@Gu@physx@@QBE?AVPxVec3@3@ABV43@@Z 100390c0 f i GuContactBoxBox.obj
 0001:000380f0       ?rotateInv@Box@Gu@physx@@QBE?AVPxVec3@3@ABV43@@Z 100390f0 f i GuContactBoxBox.obj
 0001:00038120       ?setAxes@Box@Gu@physx@@QAEXABVPxVec3@3@00@Z 10039120 f i GuContactBoxBox.obj
 0001:00038170       ?setEmpty@Box@Gu@physx@@QAEXXZ 10039170 f i GuContactBoxBox.obj
 0001:00038210       ?to8@shdfnd@physx@@YAEI@Z  10039210 f i GuContactBoxBox.obj
 0001:00038270       ?transform@Box@Gu@physx@@QBE?AVPxVec3@3@ABV43@@Z 10039270 f i GuContactBoxBox.obj
 0001:000382c0       ?transform@Matrix34@Cm@physx@@QBE?AVPxVec3@3@ABV43@@Z 100392c0 f i GuContactBoxBox.obj
 0001:00038310       ?transform@PxMat33@physx@@QBE?BVPxVec3@2@ABV32@@Z 10039310 f i GuContactBoxBox.obj
 0001:000383b0       ?transformTranspose@PxMat33@physx@@QBE?BVPxVec3@2@ABV32@@Z 100393b0 f i GuContactBoxBox.obj
 0001:00038470       ?contactCapsuleBox@Gu@physx@@YA_NABVGeometryUnion@12@0ABVPxTransform@2@1ABUNarrowPhaseParams@12@AAUCache@12@AAVContactBuffer@12@PAVRenderOutput@Cm@2@@Z 10039470 f   GuContactCapsuleBox.obj
 0001:00039880       ??$PX_UNUSED@UCache@Gu@physx@@@@YAXABUCache@Gu@physx@@@Z 1003a880 f i GuContactCapsuleBox.obj
 0001:00039890       ??$checkType@$$CBVPxCapsuleGeometry@physx@@@physx@@YAXABVGeometryUnion@Gu@0@@Z 1003a890 f i GuContactCapsuleBox.obj
 0001:00039910       ??$get@$$CBVPxCapsuleGeometry@physx@@@GeometryUnion@Gu@physx@@QBEABVPxCapsuleGeometry@2@XZ 1003a910 f i GuContactCapsuleBox.obj
 0001:00039930       ??$swap@M@shdfnd@physx@@YAXAAM0@Z 1003a930 f i GuContactCapsuleBox.obj
 0001:00039970       ??0PxPlane@physx@@QAE@XZ   1003a970 f i GuContactCapsuleBox.obj
 0001:00039990       ??0Segment@Gu@physx@@QAE@XZ 1003a990 f i GuContactCapsuleBox.obj
 0001:000399c0       ??1Segment@Gu@physx@@QAE@XZ 1003a9c0 f i GuContactCapsuleBox.obj
 0001:000399d0       ??APxVec3@physx@@QAEAAMI@Z 1003a9d0 f i GuContactCapsuleBox.obj
 0001:00039a40       ?PxRecipSqrt@physx@@YAMM@Z 1003aa40 f i GuContactCapsuleBox.obj
 0001:00039a60       ?QuatGetMat33V@aos@shdfnd@physx@@YAXABT__m128@@AAT4@11@Z 1003aa60 f i GuContactCapsuleBox.obj
 0001:00039cd0       ?V4Add@aos@shdfnd@physx@@YA?AT__m128@@T4@0@Z 1003acd0 f i GuContactCapsuleBox.obj
 0001:00039d20       ?V4ClearW@aos@shdfnd@physx@@YA?AT__m128@@T4@@Z 1003ad20 f i GuContactCapsuleBox.obj
 0001:00039d70       ?V4GetW@aos@shdfnd@physx@@YA?AT__m128@@T4@@Z 1003ad70 f i GuContactCapsuleBox.obj
 0001:00039dc0       ?V4GetX@aos@shdfnd@physx@@YA?AT__m128@@T4@@Z 1003adc0 f i GuContactCapsuleBox.obj
 0001:00039e10       ?V4GetY@aos@shdfnd@physx@@YA?AT__m128@@T4@@Z 1003ae10 f i GuContactCapsuleBox.obj
 0001:00039e60       ?V4GetZ@aos@shdfnd@physx@@YA?AT__m128@@T4@@Z 1003ae60 f i GuContactCapsuleBox.obj
 0001:00039eb0       ?V4LoadU@aos@shdfnd@physx@@YA?AT__m128@@QBM@Z 1003aeb0 f i GuContactCapsuleBox.obj
 0001:00039ef0       ?V4Mul@aos@shdfnd@physx@@YA?AT__m128@@T4@0@Z 1003aef0 f i GuContactCapsuleBox.obj
 0001:00039f40       ?V4MulAdd@aos@shdfnd@physx@@YA?AT__m128@@T4@00@Z 1003af40 f i GuContactCapsuleBox.obj
 0001:00039fb0       ?V4Neg@aos@shdfnd@physx@@YA?AT__m128@@T4@@Z 1003afb0 f i GuContactCapsuleBox.obj
 0001:0003a000       ?V4StoreU@aos@shdfnd@physx@@YAXT__m128@@PAM@Z 1003b000 f i GuContactCapsuleBox.obj
 0001:0003a040       ?Vec3V_From_Vec4V@aos@shdfnd@physx@@YA?AT__m128@@T4@@Z 1003b040 f i GuContactCapsuleBox.obj
 0001:0003a090       ?Vec4V_From_Vec3V@aos@shdfnd@physx@@YA?AT__m128@@T4@@Z 1003b090 f i GuContactCapsuleBox.obj
 0001:0003a0d0       ?buildFrom@physx@@YAXAAVBox@Gu@1@ABVPxQuat@1@@Z 1003b0d0 f i GuContactCapsuleBox.obj
 0001:0003a1b0       ?buildFrom@physx@@YAXAAVBox@Gu@1@ABVPxVec3@1@1ABVPxQuat@1@@Z 1003b1b0 f i GuContactCapsuleBox.obj
 0001:0003a1f0       ?closestAxis@shdfnd@physx@@YAIABVPxVec3@2@AAI1@Z 1003b1f0 f i GuContactCapsuleBox.obj
 0001:0003a2f0       ?computeCenter@Segment@Gu@physx@@QBE?AVPxVec3@3@XZ 1003b2f0 f i GuContactCapsuleBox.obj
 0001:0003a340       ?distance@PxPlane@physx@@QBEMABVPxVec3@2@@Z 1003b340 f i GuContactCapsuleBox.obj
 0001:0003a380       ?getCapsuleHalfHeightVector@Gu@physx@@YA?AVPxVec3@2@ABVPxTransform@2@ABVPxCapsuleGeometry@2@@Z 1003b380 f i GuContactCapsuleBox.obj
 0001:0003a3c0       ?getCapsuleSegment@Gu@physx@@YAXABVPxTransform@2@ABVPxCapsuleGeometry@2@AAVSegment@12@@Z 1003b3c0 f i GuContactCapsuleBox.obj
 0001:0003a430       ?getNormalized@PxVec3@physx@@QBE?AV12@XZ 1003b430 f i GuContactCapsuleBox.obj
 0001:0003a4e0       ?getPointAt@Segment@Gu@physx@@QBE?AVPxVec3@3@M@Z 1003b4e0 f i GuContactCapsuleBox.obj
 0001:0003a540       ?isAlmostZero@shdfnd@physx@@YA_NABVPxVec3@2@@Z 1003b540 f i GuContactCapsuleBox.obj
 0001:0003a5f0       ?makeFatEdge@shdfnd@physx@@YAXAAVPxVec3@2@0M@Z 1003b5f0 f i GuContactCapsuleBox.obj
 0001:0003a670       ?recipSqrt@intrinsics@physx@@YAMM@Z 1003b670 f i GuContactCapsuleBox.obj
 0001:0003a6c0       ?selectMin@intrinsics@physx@@YAMMM@Z 1003b6c0 f i GuContactCapsuleBox.obj
 0001:0003a750       ?contactCapsuleCapsule@Gu@physx@@YA_NABVGeometryUnion@12@0ABVPxTransform@2@1ABUNarrowPhaseParams@12@AAUCache@12@AAVContactBuffer@12@PAVRenderOutput@Cm@2@@Z 1003b750 f   GuContactCapsuleCapsule.obj
 0001:0003b190       ?computeDirection@Segment@Gu@physx@@QBE?AVPxVec3@3@XZ 1003c190 f i GuContactCapsuleCapsule.obj
 0001:0003b1c0       ?distanceSegmentSegmentSquared@Gu@physx@@YAMABVSegment@12@0PAM1@Z 1003c1c0 f i GuContactCapsuleCapsule.obj
 0001:0003b2f0       ?contactCapsuleConvex@Gu@physx@@YA_NABVGeometryUnion@12@0ABVPxTransform@2@1ABUNarrowPhaseParams@12@AAUCache@12@AAVContactBuffer@12@PAVRenderOutput@Cm@2@@Z 1003c2f0 f   GuContactCapsuleConvex.obj
 0001:0003cda0       ??$checkType@$$CBUPxConvexMeshGeometryLL@physx@@@physx@@YAXABVGeometryUnion@Gu@0@@Z 1003dda0 f i GuContactCapsuleConvex.obj
 0001:0003ce10       ??$get@$$CBUPxConvexMeshGeometryLL@physx@@@GeometryUnion@Gu@physx@@QBEABUPxConvexMeshGeometryLL@2@XZ 1003de10 f i GuContactCapsuleConvex.obj
 0001:0003ce30       ??$getConvex@VCapsuleV@Gu@physx@@@GjkConvexBase@Gu@physx@@QBEABVCapsuleV@12@XZ 1003de30 f i GuContactCapsuleConvex.obj
 0001:0003ce50       ??$getConvex@VConvexHullV@Gu@physx@@@GjkConvexBase@Gu@physx@@QBEABVConvexHullV@12@XZ 1003de50 f i GuContactCapsuleConvex.obj
 0001:0003ce70       ??$gjk@U?$LocalConvex@VCapsuleV@Gu@physx@@@Gu@physx@@U?$LocalConvex@VConvexHullV@Gu@physx@@@23@@Gu@physx@@YA?AW4GjkStatus@01@ABU?$LocalConvex@VCapsuleV@Gu@physx@@@01@ABU?$LocalConvex@VConvexHullV@Gu@physx@@@01@ABT__m128@@2AAT5@333@Z 1003de70 f i GuContactCapsuleConvex.obj
 0001:0003da60       ??0?$LocalConvex@VCapsuleV@Gu@physx@@@Gu@physx@@QAE@ABVCapsuleV@12@@Z 1003ea60 f i GuContactCapsuleConvex.obj
 0001:0003da90       ??0?$LocalConvex@VConvexHullV@Gu@physx@@@Gu@physx@@QAE@ABVConvexHullV@12@@Z 1003ea90 f i GuContactCapsuleConvex.obj
 0001:0003dac0       ??0?$PxBitAndDataT@G$0IAAA@@physx@@QAE@W4PxEMPTY@1@@Z 1003eac0 f i GuContactCapsuleConvex.obj
 0001:0003dae0       ??0?$PxBitAndDataT@I$0IAAAAAAA@@physx@@QAE@W4PxEMPTY@1@@Z 1003eae0 f i GuContactCapsuleConvex.obj
 0001:0003db00       ??0CapsuleV@Gu@physx@@QAE@ABT__m128@@00@Z 1003eb00 f i GuContactCapsuleConvex.obj
 0001:0003dc00       ??0CenterExtents@Gu@physx@@QAE@XZ 1003ec00 f i GuContactCapsuleConvex.obj
 0001:0003dc30       ??0ConvexEdge@Gu@physx@@QAE@XZ 1003ec30 f i GuContactCapsuleConvex.obj
 0001:0003dc50       ??0ConvexHullData@Gu@physx@@QAE@W4PxEMPTY@2@@Z 1003ec50 f i GuContactCapsuleConvex.obj
 0001:0003dc90       ??0ConvexHullV@Gu@physx@@QAE@PBUConvexHullData@12@ABT__m128@@11_N@Z 1003ec90 f i GuContactCapsuleConvex.obj
 0001:0003dd90       ??0ConvexMesh@Gu@physx@@QAE@V?$PxFlags@W4Enum@PxBaseFlag@physx@@G@2@@Z 1003ed90 f i GuContactCapsuleConvex.obj
 0001:0003de30       ??0ConvexV@Gu@physx@@QAE@W4Type@ConvexType@12@ABT__m128@@@Z 1003ee30 f i GuContactCapsuleConvex.obj
 0001:0003deb0       ??0FastVertex2ShapeScaling@Cm@physx@@QAE@XZ 1003eeb0 f i GuContactCapsuleConvex.obj
 0001:0003df20       ??0GjkConvex@Gu@physx@@QAE@ABVConvexV@12@@Z 1003ef20 f i GuContactCapsuleConvex.obj
 0001:0003df50       ??0GjkConvexBase@Gu@physx@@QAE@ABVConvexV@12@@Z 1003ef50 f i GuContactCapsuleConvex.obj
 0001:0003df80       ??0HullPolygonData@Gu@physx@@QAE@ABU012@@Z 1003ef80 f i GuContactCapsuleConvex.obj
 0001:0003dfe0       ??0Mat33V@aos@shdfnd@physx@@QAE@ABT__m128@@00@Z 1003efe0 f i GuContactCapsuleConvex.obj
 0001:0003e030       ??0Mat33V@aos@shdfnd@physx@@QAE@XZ 1003f030 f i GuContactCapsuleConvex.obj
 0001:0003e050       ??0PolygonalBox@Gu@physx@@QAE@ABV012@@Z 1003f050 f i GuContactCapsuleConvex.obj
 0001:0003e0c0       ??0PolygonalData@Gu@physx@@QAE@XZ 1003f0c0 f i GuContactCapsuleConvex.obj
 0001:0003e0e0       ??0PsMatTransformV@aos@shdfnd@physx@@QAE@ABVPsTransformV@123@@Z 1003f0e0 f i GuContactCapsuleConvex.obj
 0001:0003e140       ??0PsTransformV@aos@shdfnd@physx@@QAE@ABVPxTransform@3@@Z 1003f140 f i GuContactCapsuleConvex.obj
 0001:0003e200       ??0PxBase@physx@@IAE@V?$PxFlags@W4Enum@PxBaseFlag@physx@@G@1@@Z 1003f200 f i GuContactCapsuleConvex.obj
 0001:0003e240       ??0PxConvexMesh@physx@@IAE@V?$PxFlags@W4Enum@PxBaseFlag@physx@@G@1@@Z 1003f240 f i GuContactCapsuleConvex.obj
 0001:0003e280       ??0PxMeshScale@physx@@QAE@ABVPxVec3@1@ABVPxQuat@1@@Z 1003f280 f i GuContactCapsuleConvex.obj
 0001:0003e320       ??0RefCountable@Cm@physx@@QAE@W4PxEMPTY@2@@Z 1003f320 f i GuContactCapsuleConvex.obj
 0001:0003e350       ??1?$LocalConvex@VCapsuleV@Gu@physx@@@Gu@physx@@UAE@XZ 1003f350 f i GuContactCapsuleConvex.obj
 0001:0003e370       ??1?$LocalConvex@VConvexHullV@Gu@physx@@@Gu@physx@@UAE@XZ 1003f370 f i GuContactCapsuleConvex.obj
 0001:0003e390       ??1CapsuleV@Gu@physx@@QAE@XZ 1003f390 f i GuContactCapsuleConvex.obj
 0001:0003e3b0       ??1ConvexHullV@Gu@physx@@QAE@XZ 1003f3b0 f i GuContactCapsuleConvex.obj
 0001:0003e3d0       ??1ConvexV@Gu@physx@@IAE@XZ 1003f3d0 f i GuContactCapsuleConvex.obj
 0001:0003e3e0       ??1GjkConvex@Gu@physx@@UAE@XZ 1003f3e0 f i GuContactCapsuleConvex.obj
 0001:0003e400       ??1GjkConvexBase@Gu@physx@@UAE@XZ 1003f400 f i GuContactCapsuleConvex.obj
 0001:0003e420       ??1RefCountable@Cm@physx@@UAE@XZ 1003f420 f i GuContactCapsuleConvex.obj
 0001:0003e440       ??4FPUGuard@shdfnd@physx@@QAEAAV012@ABV012@@Z 1003f440 f i GuContactCapsuleConvex.obj
 0001:0003e470       ??8PxVec3@physx@@QBE_NABV01@@Z 1003f470 f i GuContactCapsuleConvex.obj
 0001:0003e4f0       ??B?$PxBitAndDataT@G$0IAAA@@physx@@QBEGXZ 1003f4f0 f i GuContactCapsuleConvex.obj
 0001:0003e510       ??DFastVertex2ShapeScaling@Cm@physx@@QBE?AVPxVec3@2@ABV32@@Z 1003f510 f i GuContactCapsuleConvex.obj
 0001:0003e540       ??Dphysx@@YA?AVMatrix34@Cm@0@ABVPxMeshScale@0@ABVPxTransform@0@@Z 1003f540 f i GuContactCapsuleConvex.obj
 0001:0003e5b0       ??_EConvexMesh@Gu@physx@@UAEPAXI@Z 1003f5b0 f i GuContactCapsuleConvex.obj
 0001:0003e68f       ??_EConvexMesh@Gu@physx@@W7AEPAXI@Z 1003f68f f i GuContactCapsuleConvex.obj
 0001:0003e6a0       ??_G?$LocalConvex@VCapsuleV@Gu@physx@@@Gu@physx@@UAEPAXI@Z 1003f6a0 f i GuContactCapsuleConvex.obj
 0001:0003e6a0       ??_E?$LocalConvex@VCapsuleV@Gu@physx@@@Gu@physx@@UAEPAXI@Z 1003f6a0 f i GuContactCapsuleConvex.obj
 0001:0003e6e0       ??_G?$LocalConvex@VConvexHullV@Gu@physx@@@Gu@physx@@UAEPAXI@Z 1003f6e0 f i GuContactCapsuleConvex.obj
 0001:0003e6e0       ??_E?$LocalConvex@VConvexHullV@Gu@physx@@@Gu@physx@@UAEPAXI@Z 1003f6e0 f i GuContactCapsuleConvex.obj
 0001:0003e720       ??_EGjkConvex@Gu@physx@@UAEPAXI@Z 1003f720 f i GuContactCapsuleConvex.obj
 0001:0003e720       ??_GGjkConvex@Gu@physx@@UAEPAXI@Z 1003f720 f i GuContactCapsuleConvex.obj
 0001:0003e760       ??_GGjkConvexBase@Gu@physx@@UAEPAXI@Z 1003f760 f i GuContactCapsuleConvex.obj
 0001:0003e760       ??_EGjkConvexBase@Gu@physx@@UAEPAXI@Z 1003f760 f i GuContactCapsuleConvex.obj
 0001:0003e7a0       ??_ERefCountable@Cm@physx@@UAEPAXI@Z 1003f7a0 f i GuContactCapsuleConvex.obj
 0001:0003e7a0       ??_GRefCountable@Cm@physx@@UAEPAXI@Z 1003f7a0 f i GuContactCapsuleConvex.obj
 0001:0003e7e0       ??_VUserAllocated@shdfnd@physx@@SAXPAX@Z 1003f7e0 f i GuContactCapsuleConvex.obj
 0001:0003e810       ??__G@YGXPAX0IIP6EPAX00@Z@Z 1003f810 f i GuContactCapsuleConvex.obj
 0001:0003e880       ?BAllEqTTTT@aos@shdfnd@physx@@YAIT__m128@@@Z 1003f880 f i GuContactCapsuleConvex.obj
 0001:0003e8e0       ?BAllTrue3_R@internalWindowsSimd@aos@shdfnd@physx@@YAIT__m128@@@Z 1003f8e0 f i GuContactCapsuleConvex.obj
 0001:0003e940       ?BAllTrue4_R@internalWindowsSimd@aos@shdfnd@physx@@YAIT__m128@@@Z 1003f940 f i GuContactCapsuleConvex.obj
 0001:0003e9a0       ?BAnd@aos@shdfnd@physx@@YA?AT__m128@@T4@0@Z 1003f9a0 f i GuContactCapsuleConvex.obj
 0001:0003e9f0       ?BFFFF@aos@shdfnd@physx@@YA?AT__m128@@XZ 1003f9f0 f i GuContactCapsuleConvex.obj
 0001:0003ea30       ?BLoad@aos@shdfnd@physx@@YA?AT__m128@@_N@Z 1003fa30 f i GuContactCapsuleConvex.obj
 0001:0003ea80       ?BTTTF@aos@shdfnd@physx@@YA?AT__m128@@XZ 1003fa80 f i GuContactCapsuleConvex.obj
 0001:0003ead0       ?BTTTT@aos@shdfnd@physx@@YA?AT__m128@@XZ 1003fad0 f i GuContactCapsuleConvex.obj
 0001:0003eb20       ?CalculateConvexMargin@Gu@physx@@YAXPBUConvexHullData@12@AAM11ABT__m128@@@Z 1003fb20 f i GuContactCapsuleConvex.obj
 0001:0003ec00       ?ComputeCubemapNearestOffset@physx@@YAIABVPxVec3@1@I@Z 1003fc00 f i GuContactCapsuleConvex.obj
 0001:0003ed10       ?ConstructSkewMatrix@Gu@physx@@YAXABT__m128@@0AAUMat33V@aos@shdfnd@2@1AAT3@_N@Z 1003fd10 f i GuContactCapsuleConvex.obj
 0001:0003f110       ?CubemapLookup@physx@@YA?AW4CubeIndex@1@ABVPxVec3@1@AAM1@Z 10040110 f i GuContactCapsuleConvex.obj
 0001:0003f2c0       ?FAbs@aos@shdfnd@physx@@YA?AT__m128@@T4@@Z 100402c0 f i GuContactCapsuleConvex.obj
 0001:0003f370       ?FAdd@aos@shdfnd@physx@@YA?AT__m128@@T4@0@Z 10040370 f i GuContactCapsuleConvex.obj
 0001:0003f460       ?FAllEq@aos@shdfnd@physx@@YAIT__m128@@0@Z 10040460 f i GuContactCapsuleConvex.obj
 0001:0003f560       ?FAllGrtr@aos@shdfnd@physx@@YAIT__m128@@0@Z 10040560 f i GuContactCapsuleConvex.obj
 0001:0003f650       ?FAllGrtrOrEq@aos@shdfnd@physx@@YAIT__m128@@0@Z 10040650 f i GuContactCapsuleConvex.obj
 0001:0003f740       ?FClamp@aos@shdfnd@physx@@YA?AT__m128@@T4@00@Z 10040740 f i GuContactCapsuleConvex.obj
 0001:0003f850       ?FDiv@aos@shdfnd@physx@@YA?AT__m128@@T4@0@Z 10040850 f i GuContactCapsuleConvex.obj
 0001:0003f940       ?FEps@aos@shdfnd@physx@@YA?AT__m128@@XZ 10040940 f i GuContactCapsuleConvex.obj
 0001:0003f990       ?FIsGrtr@aos@shdfnd@physx@@YA?AT__m128@@T4@0@Z 10040990 f i GuContactCapsuleConvex.obj
 0001:0003fa90       ?FIsGrtrOrEq@aos@shdfnd@physx@@YA?AT__m128@@T4@0@Z 10040a90 f i GuContactCapsuleConvex.obj
 0001:0003fb90       ?FMax@aos@shdfnd@physx@@YA?AT__m128@@T4@0@Z 10040b90 f i GuContactCapsuleConvex.obj
 0001:0003fc80       ?FMax@aos@shdfnd@physx@@YA?AT__m128@@XZ 10040c80 f i GuContactCapsuleConvex.obj
 0001:0003fcd0       ?FMin@aos@shdfnd@physx@@YA?AT__m128@@T4@0@Z 10040cd0 f i GuContactCapsuleConvex.obj
 0001:0003fdc0       ?FMul@aos@shdfnd@physx@@YA?AT__m128@@T4@0@Z 10040dc0 f i GuContactCapsuleConvex.obj
 0001:0003feb0       ?FOne@aos@shdfnd@physx@@YA?AT__m128@@XZ 10040eb0 f i GuContactCapsuleConvex.obj
 0001:0003ff00       ?FRecip@aos@shdfnd@physx@@YA?AT__m128@@T4@@Z 10040f00 f i GuContactCapsuleConvex.obj
 0001:0003ffb0       ?FSel@aos@shdfnd@physx@@YA?AT__m128@@T4@00@Z 10040fb0 f i GuContactCapsuleConvex.obj
 0001:00040150       ?FStore@aos@shdfnd@physx@@YAXT__m128@@PIAM@Z 10041150 f i GuContactCapsuleConvex.obj
 0001:000401e0       ?FSub@aos@shdfnd@physx@@YA?AT__m128@@T4@0@Z 100411e0 f i GuContactCapsuleConvex.obj
 0001:000402d0       ?FZero@aos@shdfnd@physx@@YA?AT__m128@@XZ 100412d0 f i GuContactCapsuleConvex.obj
 0001:00040310       ?GJKCPairDoSimplex@Gu@physx@@YA?AT__m128@@PIAT3@00ABT3@AAI@Z 10041310 f i GuContactCapsuleConvex.obj
 0001:00040450       ?I4Load@aos@shdfnd@physx@@YA?AT__m128@@H@Z 10041450 f i GuContactCapsuleConvex.obj
 0001:00040490       ?M33Diagonal@aos@shdfnd@physx@@YA?AUMat33V@123@ABT__m128@@@Z 10041490 f i GuContactCapsuleConvex.obj
 0001:00040570       ?M33Identity@aos@shdfnd@physx@@YA?AUMat33V@123@XZ 10041570 f i GuContactCapsuleConvex.obj
 0001:000405e0       ?M33MulM33@aos@shdfnd@physx@@YA?AUMat33V@123@ABU4123@0@Z 100415e0 f i GuContactCapsuleConvex.obj
 0001:00040680       ?M33MulV3@aos@shdfnd@physx@@YA?AT__m128@@ABUMat33V@123@T4@@Z 10041680 f i GuContactCapsuleConvex.obj
 0001:000407e0       ?M33Trnsps@aos@shdfnd@physx@@YA?AUMat33V@123@ABU4123@@Z 100417e0 f i GuContactCapsuleConvex.obj
 0001:00040870       ?M33TrnspsMulV3@aos@shdfnd@physx@@YA?AT__m128@@ABUMat33V@123@T4@@Z 10041870 f i GuContactCapsuleConvex.obj
 0001:00040960       ?PxI32_From_VecI32V@aos@shdfnd@physx@@YAXABT__m128@@PAH@Z 10041960 f i GuContactCapsuleConvex.obj
 0001:00040980       ?QuatVLoadU@aos@shdfnd@physx@@YA?AT__m128@@PBM@Z 10041980 f i GuContactCapsuleConvex.obj
 0001:000409d0       ?QuatVLoadXYZW@aos@shdfnd@physx@@YA?AT__m128@@MMMM@Z 100419d0 f i GuContactCapsuleConvex.obj
 0001:00040a20       ?V3Add@aos@shdfnd@physx@@YA?AT__m128@@T4@0@Z 10041a20 f i GuContactCapsuleConvex.obj
 0001:00040b10       ?V3AllEq@aos@shdfnd@physx@@YAIT__m128@@0@Z 10041b10 f i GuContactCapsuleConvex.obj
 0001:00040c10       ?V3Cross@aos@shdfnd@physx@@YA?AT__m128@@ABUVecCrossV@123@0@Z 10041c10 f i GuContactCapsuleConvex.obj
 0001:00040c80       ?V3Cross@aos@shdfnd@physx@@YA?AT__m128@@T4@0@Z 10041c80 f i GuContactCapsuleConvex.obj
 0001:00040e30       ?V3Dot@aos@shdfnd@physx@@YA?AT__m128@@T4@0@Z 10041e30 f i GuContactCapsuleConvex.obj
 0001:00040fb0       ?V3ExtractMin@aos@shdfnd@physx@@YA?AT__m128@@T4@@Z 10041fb0 f i GuContactCapsuleConvex.obj
 0001:000410c0       ?V3GetX@aos@shdfnd@physx@@YA?AT__m128@@T4@@Z 100420c0 f i GuContactCapsuleConvex.obj
 0001:00041160       ?V3GetY@aos@shdfnd@physx@@YA?AT__m128@@T4@@Z 10042160 f i GuContactCapsuleConvex.obj
 0001:00041200       ?V3GetZ@aos@shdfnd@physx@@YA?AT__m128@@T4@@Z 10042200 f i GuContactCapsuleConvex.obj
 0001:000412a0       ?V3Length@aos@shdfnd@physx@@YA?AT__m128@@T4@@Z 100422a0 f i GuContactCapsuleConvex.obj
 0001:00041350       ?V3LoadU@aos@shdfnd@physx@@YA?AT__m128@@ABVPxVec3@3@@Z 10042350 f i GuContactCapsuleConvex.obj
 0001:000413b0       ?V3LoadU@aos@shdfnd@physx@@YA?AT__m128@@PBM@Z 100423b0 f i GuContactCapsuleConvex.obj
 0001:00041430       ?V3LoadU_SafeReadW@aos@shdfnd@physx@@YA?AT__m128@@ABVPxVec3@3@@Z 10042430 f i GuContactCapsuleConvex.obj
 0001:00041490       ?V3Mul@aos@shdfnd@physx@@YA?AT__m128@@T4@0@Z 10042490 f i GuContactCapsuleConvex.obj
 0001:00041580       ?V3Neg@aos@shdfnd@physx@@YA?AT__m128@@T4@@Z 10042580 f i GuContactCapsuleConvex.obj
 0001:00041620       ?V3NegScaleSub@aos@shdfnd@physx@@YA?AT__m128@@T4@00@Z 10042620 f i GuContactCapsuleConvex.obj
 0001:00041790       ?V3Normalize@aos@shdfnd@physx@@YA?AT__m128@@T4@@Z 10042790 f i GuContactCapsuleConvex.obj
 0001:00041850       ?V3One@aos@shdfnd@physx@@YA?AT__m128@@XZ 10042850 f i GuContactCapsuleConvex.obj
 0001:000418a0       ?V3PrepareCross@aos@shdfnd@physx@@YA?AUVecCrossV@123@T__m128@@@Z 100428a0 f i GuContactCapsuleConvex.obj
 0001:00041970       ?V3Recip@aos@shdfnd@physx@@YA?AT__m128@@T4@@Z 10042970 f i GuContactCapsuleConvex.obj
 0001:00041a80       ?V3Scale@aos@shdfnd@physx@@YA?AT__m128@@T4@0@Z 10042a80 f i GuContactCapsuleConvex.obj
 0001:00041b70       ?V3ScaleAdd@aos@shdfnd@physx@@YA?AT__m128@@T4@00@Z 10042b70 f i GuContactCapsuleConvex.obj
 0001:00041ce0       ?V3ScaleInv@aos@shdfnd@physx@@YA?AT__m128@@T4@0@Z 10042ce0 f i GuContactCapsuleConvex.obj
 0001:00041dd0       ?V3Sel@aos@shdfnd@physx@@YA?AT__m128@@T4@00@Z 10042dd0 f i GuContactCapsuleConvex.obj
 0001:00041ed0       ?V3Splat@aos@shdfnd@physx@@YA?AT__m128@@T4@@Z 10042ed0 f i GuContactCapsuleConvex.obj
 0001:00041fa0       ?V3StoreU@aos@shdfnd@physx@@YAXT__m128@@AAVPxVec3@3@@Z 10042fa0 f i GuContactCapsuleConvex.obj
 0001:00042040       ?V3Sub@aos@shdfnd@physx@@YA?AT__m128@@T4@0@Z 10043040 f i GuContactCapsuleConvex.obj
 0001:00042130       ?V3Transpose@aos@shdfnd@physx@@YAXAAT__m128@@00@Z 10043130 f i GuContactCapsuleConvex.obj
 0001:00042380       ?V3UnitX@aos@shdfnd@physx@@YA?AT__m128@@XZ 10043380 f i GuContactCapsuleConvex.obj
 0001:000423f0       ?V3UnitY@aos@shdfnd@physx@@YA?AT__m128@@XZ 100433f0 f i GuContactCapsuleConvex.obj
 0001:00042460       ?V3UnitZ@aos@shdfnd@physx@@YA?AT__m128@@XZ 10043460 f i GuContactCapsuleConvex.obj
 0001:000424d0       ?V3Zero@aos@shdfnd@physx@@YA?AT__m128@@XZ 100434d0 f i GuContactCapsuleConvex.obj
 0001:00042510       ?V4IsEq@aos@shdfnd@physx@@YA?AT__m128@@T4@0@Z 10043510 f i GuContactCapsuleConvex.obj
 0001:00042560       ?V4LoadXYZW@aos@shdfnd@physx@@YA?AT__m128@@ABM000@Z 10043560 f i GuContactCapsuleConvex.obj
 0001:000425c0       ?V4ReadW@aos@shdfnd@physx@@YAMABT__m128@@@Z 100435c0 f i GuContactCapsuleConvex.obj
 0001:000425d0       ?V4ReadX@aos@shdfnd@physx@@YAMABT__m128@@@Z 100435d0 f i GuContactCapsuleConvex.obj
 0001:000425e0       ?V4ReadY@aos@shdfnd@physx@@YAMABT__m128@@@Z 100435e0 f i GuContactCapsuleConvex.obj
 0001:000425f0       ?V4ReadZ@aos@shdfnd@physx@@YAMABT__m128@@@Z 100435f0 f i GuContactCapsuleConvex.obj
 0001:00042600       ?V4Sel@aos@shdfnd@physx@@YA?AT__m128@@T4@00@Z 10043600 f i GuContactCapsuleConvex.obj
 0001:00042670       ?V4StoreA@aos@shdfnd@physx@@YAXT__m128@@PAM@Z 10043670 f i GuContactCapsuleConvex.obj
 0001:00042710       ?VecI32V_And@aos@shdfnd@physx@@YA?AT__m128@@ABT4@0@Z 10043710 f i GuContactCapsuleConvex.obj
 0001:00042760       ?VecI32V_From_BoolV@aos@shdfnd@physx@@YA?AT__m128@@ABT4@@Z 10043760 f i GuContactCapsuleConvex.obj
 0001:00042770       ?VecI32V_IsEq@aos@shdfnd@physx@@YA?AT__m128@@ABT4@0@Z 10043770 f i GuContactCapsuleConvex.obj
 0001:000427f0       ?VecI32V_One@aos@shdfnd@physx@@YA?AT__m128@@XZ 100437f0 f i GuContactCapsuleConvex.obj
 0001:00042830       ?allElementsEqualBoolV@_VecMathTests@aos@shdfnd@physx@@YA_NT__m128@@0@Z 10043830 f i GuContactCapsuleConvex.obj
 0001:000428b0       ?bruteForceSearch@ConvexHullV@Gu@physx@@QBEIABT__m128@@@Z 100438b0 f i GuContactCapsuleConvex.obj
 0001:000429e0       ?closestPtPointSegment@Gu@physx@@YA?AT__m128@@PIAT3@AAI@Z 100439e0 f i GuContactCapsuleConvex.obj
 0001:00042bf0       ?closestPtPointTriangle@Gu@physx@@YA?AT__m128@@PIAT3@PAT3@1AAI@Z 10043bf0 f i GuContactCapsuleConvex.obj
 0001:00042f60       ?closestPtPointTriangleBaryCentric@Gu@physx@@YA?AT__m128@@ABT3@00PIAIAAIAAT3@@Z 10043f60 f i GuContactCapsuleConvex.obj
 0001:00043fd0       ?createDiagonal@PxMat33@physx@@SA?BV12@ABVPxVec3@2@@Z 10044fd0 f i GuContactCapsuleConvex.obj
 0001:00044090       ?doVirtualGetSweepMargin@GjkConvex@Gu@physx@@ABE?AT__m128@@XZ 10045090 f i GuContactCapsuleConvex.obj
 0001:000440c0       ?doVirtualSupport@GjkConvex@Gu@physx@@ABE?AT__m128@@ABT4@@Z 100450c0 f i GuContactCapsuleConvex.obj
 0001:000440f0       ?doVirtualSupport@GjkConvex@Gu@physx@@ABE?AT__m128@@ABT4@AAHPAT4@@Z 100450f0 f i GuContactCapsuleConvex.obj
 0001:00044130       ?doVirtualSupportPoint@GjkConvex@Gu@physx@@ABE?AT__m128@@HPAT4@@Z 10045130 f i GuContactCapsuleConvex.obj
 0001:00044170       ?getCenter@?$LocalConvex@VCapsuleV@Gu@physx@@@Gu@physx@@UBE?AT__m128@@XZ 10045170 f i GuContactCapsuleConvex.obj
 0001:000441a0       ?getCenter@?$LocalConvex@VConvexHullV@Gu@physx@@@Gu@physx@@UBE?AT__m128@@XZ 100451a0 f i GuContactCapsuleConvex.obj
 0001:000441d0       ?getCenter@ConvexV@Gu@physx@@QBE?AT__m128@@XZ 100451d0 f i GuContactCapsuleConvex.obj
 0001:00044200       ?getClosestPoint@Gu@physx@@YAXPIBT__m128@@00ABT3@AAT3@2I@Z 10045200 f i GuContactCapsuleConvex.obj
 0001:00044630       ?getConjugate@PxQuat@physx@@QBE?AV12@XZ 10045630 f i GuContactCapsuleConvex.obj
 0001:000446b0       ?getDeterminant@PxMat33@physx@@QBEMXZ 100456b0 f i GuContactCapsuleConvex.obj
 0001:000446f0       ?getHull@ConvexMesh@Gu@physx@@QAEAAUConvexHullData@23@XZ 100456f0 f i GuContactCapsuleConvex.obj
 0001:00044710       ?getHullVertices@ConvexHullData@Gu@physx@@QBEPBVPxVec3@3@XZ 10045710 f i GuContactCapsuleConvex.obj
 0001:00044750       ?getIndex@CapsuleV@Gu@physx@@QBEXT__m128@@AAH@Z 10045750 f i GuContactCapsuleConvex.obj
 0001:000447f0       ?getIndexBuffer@ConvexMesh@Gu@physx@@UBEPBEXZ 100457f0 f i GuContactCapsuleConvex.obj
 0001:00044810       ?getInverse@PxMat33@physx@@QBE?BV12@XZ 10045810 f i GuContactCapsuleConvex.obj
 0001:00044ac0       ?getInverse@PxMeshScale@physx@@QBE?AV12@XZ 10045ac0 f i GuContactCapsuleConvex.obj
 0001:00044b50       ?getInverse@PxTransform@physx@@QBE?AV12@XZ 10045b50 f i GuContactCapsuleConvex.obj
 0001:00044c00       ?getMargin@ConvexV@Gu@physx@@QBE?AT__m128@@XZ 10045c00 f i GuContactCapsuleConvex.obj
 0001:00044c60       ?getMargin@GjkConvexBase@Gu@physx@@QBE?AT__m128@@XZ 10045c60 f i GuContactCapsuleConvex.obj
 0001:00044c90       ?getMinMargin@ConvexV@Gu@physx@@QBE?AT__m128@@XZ 10045c90 f i GuContactCapsuleConvex.obj
 0001:00044cf0       ?getMinMargin@GjkConvexBase@Gu@physx@@QBE?AT__m128@@XZ 10045cf0 f i GuContactCapsuleConvex.obj
 0001:00044d20       ?getNbPolygons@ConvexMesh@Gu@physx@@UBEIXZ 10045d20 f i GuContactCapsuleConvex.obj
 0001:00044d40       ?getNbVertices@ConvexMesh@Gu@physx@@UBEIXZ 10045d40 f i GuContactCapsuleConvex.obj
 0001:00044d60       ?getSweepMargin@?$LocalConvex@VCapsuleV@Gu@physx@@@Gu@physx@@UBE?AT__m128@@XZ 10045d60 f i GuContactCapsuleConvex.obj
 0001:00044d90       ?getSweepMargin@?$LocalConvex@VConvexHullV@Gu@physx@@@Gu@physx@@UBE?AT__m128@@XZ 10045d90 f i GuContactCapsuleConvex.obj
 0001:00044dc0       ?getSweepMargin@CapsuleV@Gu@physx@@QBE?AT__m128@@XZ 10045dc0 f i GuContactCapsuleConvex.obj
 0001:00044e10       ?getSweepMargin@ConvexV@Gu@physx@@QBE?AT__m128@@XZ 10045e10 f i GuContactCapsuleConvex.obj
 0001:00044e70       ?getSweepMargin@GjkConvex@Gu@physx@@UBE?AT__m128@@XZ 10045e70 f i GuContactCapsuleConvex.obj
 0001:00044ea0       ?getVertexData8@ConvexHullData@Gu@physx@@QBEPBEXZ 10045ea0 f i GuContactCapsuleConvex.obj
 0001:00044f50       ?getVertices@ConvexMesh@Gu@physx@@UBEPBVPxVec3@3@XZ 10045f50 f i GuContactCapsuleConvex.obj
 0001:00044f70       ?hillClimbing@ConvexHullV@Gu@physx@@QBEIABT__m128@@@Z 10045f70 f i GuContactCapsuleConvex.obj
 0001:00045230       ?init@FastVertex2ShapeScaling@Cm@physx@@QAEXABVPxMeshScale@3@@Z 10046230 f i GuContactCapsuleConvex.obj
 0001:00045260       ?init@FastVertex2ShapeScaling@Cm@physx@@QAEXABVPxVec3@3@ABVPxQuat@3@@Z 10046260 f i GuContactCapsuleConvex.obj
 0001:00045370       ?isAligned16@aos@shdfnd@physx@@YA_NPAX@Z 10046370 f i GuContactCapsuleConvex.obj
 0001:000453a0       ?isBitSet@?$PxBitAndDataT@G$0IAAA@@physx@@QBEGXZ 100463a0 f i GuContactCapsuleConvex.obj
 0001:000453c0       ?isFinite@PxTransform@physx@@QBE_NXZ 100463c0 f i GuContactCapsuleConvex.obj
 0001:00045420       ?isIdentity@PxMeshScale@physx@@QBE_NXZ 10046420 f i GuContactCapsuleConvex.obj
 0001:000454a0       ?isMarginEqRadius@ConvexV@Gu@physx@@QBE?AT__m128@@XZ 100464a0 f i GuContactCapsuleConvex.obj
 0001:00045500       ?isMarginEqRadius@GjkConvexBase@Gu@physx@@QBE?AT__m128@@XZ 10046500 f i GuContactCapsuleConvex.obj
 0001:00045530       ?isSane@PxTransform@physx@@QBE_NXZ 10046530 f i GuContactCapsuleConvex.obj
 0001:00045580       ?isUnit@PxQuat@physx@@QBE_NXZ 10046580 f i GuContactCapsuleConvex.obj
 0001:00045610       ?isValidFloatV@aos@shdfnd@physx@@YA_NT__m128@@@Z 10046610 f i GuContactCapsuleConvex.obj
 0001:000457e0       ?isValidVec3V@aos@shdfnd@physx@@YA_NT__m128@@@Z 100467e0 f i GuContactCapsuleConvex.obj
 0001:00045860       ?m128_F2I@internalWindowsSimd@aos@shdfnd@physx@@YA?AT__m128i@@T__m128@@@Z 10046860 f i GuContactCapsuleConvex.obj
 0001:000458a0       ?m128_I2F@internalWindowsSimd@aos@shdfnd@physx@@YA?AT__m128@@T__m128i@@@Z 100468a0 f i GuContactCapsuleConvex.obj
 0001:000458e0       ?onRefCountZero@RefCountable@Cm@physx@@UAEXXZ 100468e0 f i GuContactCapsuleConvex.obj
 0001:00045930       ?requiresObjects@ConvexMesh@Gu@physx@@UAEXAAVPxProcessPxBaseCallback@3@@Z 10046930 f i GuContactCapsuleConvex.obj
 0001:00045940       ?rotate@Matrix34@Cm@physx@@QBE?AVPxVec3@3@ABV43@@Z 10046940 f i GuContactCapsuleConvex.obj
 0001:00045970       ?rotate@PsMatTransformV@aos@shdfnd@physx@@QBE?AT__m128@@ABT5@@Z 10046970 f i GuContactCapsuleConvex.obj
 0001:000459d0       ?rotate@PxTransform@physx@@QBE?AVPxVec3@2@ABV32@@Z 100469d0 f i GuContactCapsuleConvex.obj
 0001:00045a50       ?rotateInv@PxQuat@physx@@QBE?BVPxVec3@2@ABV32@@Z 10046a50 f i GuContactCapsuleConvex.obj
 0001:00045c40       ?rotateTranspose@Matrix34@Cm@physx@@QBE?AVPxVec3@3@ABV43@@Z 10046c40 f i GuContactCapsuleConvex.obj
 0001:00045c70       ?selectMax@intrinsics@physx@@YAMMM@Z 10046c70 f i GuContactCapsuleConvex.obj
 0001:00045cb0       ?setBit@?$PxBitAndDataT@I$0IAAAAAAA@@physx@@QAEXXZ 10046cb0 f i GuContactCapsuleConvex.obj
 0001:00045ce0       ?support@?$LocalConvex@VCapsuleV@Gu@physx@@@Gu@physx@@UBE?AT__m128@@ABT4@@Z 10046ce0 f i GuContactCapsuleConvex.obj
 0001:00045d10       ?support@?$LocalConvex@VCapsuleV@Gu@physx@@@Gu@physx@@UBE?AT__m128@@ABT4@AAHPAT4@@Z 10046d10 f i GuContactCapsuleConvex.obj
 0001:00045d50       ?support@?$LocalConvex@VConvexHullV@Gu@physx@@@Gu@physx@@UBE?AT__m128@@ABT4@@Z 10046d50 f i GuContactCapsuleConvex.obj
 0001:00045d80       ?support@?$LocalConvex@VConvexHullV@Gu@physx@@@Gu@physx@@UBE?AT__m128@@ABT4@AAHPAT4@@Z 10046d80 f i GuContactCapsuleConvex.obj
 0001:00045dc0       ?support@GjkConvex@Gu@physx@@UBE?AT__m128@@ABT4@@Z 10046dc0 f i GuContactCapsuleConvex.obj
 0001:00045df0       ?support@GjkConvex@Gu@physx@@UBE?AT__m128@@ABT4@AAHPAT4@@Z 10046df0 f i GuContactCapsuleConvex.obj
 0001:00045e30       ?supportLocal@CapsuleV@Gu@physx@@QBE?AT__m128@@ABT4@@Z 10046e30 f i GuContactCapsuleConvex.obj
 0001:00045ef0       ?supportLocal@CapsuleV@Gu@physx@@QBE?AT__m128@@ABT4@AAHPAT4@@Z 10046ef0 f i GuContactCapsuleConvex.obj
 0001:00045fe0       ?supportLocal@ConvexHullV@Gu@physx@@QBE?AT__m128@@ABT4@@Z 10046fe0 f i GuContactCapsuleConvex.obj
 0001:000460a0       ?supportLocal@ConvexHullV@Gu@physx@@QBE?AT__m128@@ABT4@AAHPAT4@@Z 100470a0 f i GuContactCapsuleConvex.obj
 0001:00046170       ?supportPoint@?$LocalConvex@VCapsuleV@Gu@physx@@@Gu@physx@@UBE?AT__m128@@HPAT4@@Z 10047170 f i GuContactCapsuleConvex.obj
 0001:000461b0       ?supportPoint@?$LocalConvex@VConvexHullV@Gu@physx@@@Gu@physx@@UBE?AT__m128@@HPAT4@@Z 100471b0 f i GuContactCapsuleConvex.obj
 0001:000461f0       ?supportPoint@CapsuleV@Gu@physx@@QBE?AT__m128@@HPAT4@@Z 100471f0 f i GuContactCapsuleConvex.obj
 0001:00046230       ?supportPoint@ConvexHullV@Gu@physx@@QBE?AT__m128@@HPAT4@@Z 10047230 f i GuContactCapsuleConvex.obj
 0001:000462b0       ?supportPoint@GjkConvex@Gu@physx@@UBE?AT__m128@@HPAT4@@Z 100472b0 f i GuContactCapsuleConvex.obj
 0001:000462e0       ?supportVertexIndex@ConvexHullV@Gu@physx@@QBEIABT__m128@@@Z 100472e0 f i GuContactCapsuleConvex.obj
 0001:00046330       ?toMat33@PxMeshScale@physx@@QBE?AVPxMat33@2@XZ 10047330 f i GuContactCapsuleConvex.obj
 0001:000463f0       ?transform@PxTransform@physx@@QBE?AVPxVec3@2@ABV32@@Z 100473f0 f i GuContactCapsuleConvex.obj
 0001:00046490       ?transformInv@PxTransform@physx@@QBE?AV12@ABV12@@Z 10047490 f i GuContactCapsuleConvex.obj
 0001:00046600       ?contactCapsuleMesh@Gu@physx@@YA_NABVGeometryUnion@12@0ABVPxTransform@2@1ABUNarrowPhaseParams@12@AAUCache@12@AAVContactBuffer@12@PAVRenderOutput@Cm@2@@Z 10047600 f   GuContactCapsuleMesh.obj
 0001:00046800       ?contactCapsuleHeightfield@Gu@physx@@YA_NABVGeometryUnion@12@0ABVPxTransform@2@1ABUNarrowPhaseParams@12@AAUCache@12@AAVContactBuffer@12@PAVRenderOutput@Cm@2@@Z 10047800 f   GuContactCapsuleMesh.obj
 0001:00047650       ??$PX_UNUSED@M@@YAXABM@Z   10048650 f i GuContactCapsuleMesh.obj
 0001:00047660       ??$checkType@$$CBUPxHeightFieldGeometryLL@physx@@@physx@@YAXABVGeometryUnion@Gu@0@@Z 10048660 f i GuContactCapsuleMesh.obj
 0001:000476d0       ??$checkType@$$CBUPxTriangleMeshGeometryLL@physx@@@physx@@YAXABVGeometryUnion@Gu@0@@Z 100486d0 f i GuContactCapsuleMesh.obj
 0001:00047740       ??$get@$$CBUPxHeightFieldGeometryLL@physx@@@GeometryUnion@Gu@physx@@QBEABUPxHeightFieldGeometryLL@2@XZ 10048740 f i GuContactCapsuleMesh.obj
 0001:00047760       ??$get@$$CBUPxTriangleMeshGeometryLL@physx@@@GeometryUnion@Gu@physx@@QBEABUPxTriangleMeshGeometryLL@2@XZ 10048760 f i GuContactCapsuleMesh.obj
 0001:00047780       ??0?$EntityReport@I@Gu@physx@@QAE@XZ 10048780 f i GuContactCapsuleMesh.obj
 0001:000477a0       ??0?$MeshHitCallback@UPxRaycastHit@physx@@@Gu@physx@@QAE@W4Enum@CallbackMode@12@@Z 100487a0 f i GuContactCapsuleMesh.obj
 0001:000477d0       ??0?$PxFlags@W4Enum@PxHeightFieldFlag@physx@@G@physx@@QAE@ABV01@@Z 100487d0 f i GuContactCapsuleMesh.obj
 0001:00047800       ??0?$PxFlags@W4Enum@PxHeightFieldFlag@physx@@G@physx@@QAE@W4PxEMPTY@1@@Z 10048800 f i GuContactCapsuleMesh.obj
 0001:00047820       ??0?$PxFlags@W4Enum@PxHeightFieldFlag@physx@@G@physx@@QAE@XZ 10048820 f i GuContactCapsuleMesh.obj
 0001:00047840       ??0Capsule@Gu@physx@@QAE@ABVSegment@12@M@Z 10048840 f i GuContactCapsuleMesh.obj
 0001:00047cd0       ??0CenterExtents@Gu@physx@@QAE@ABV012@@Z 10048cd0 f i GuContactCapsuleMesh.obj
 0001:00047d10       ??0FastVertex2ShapeScaling@Cm@physx@@QAE@ABVPxMeshScale@2@@Z 10048d10 f i GuContactCapsuleMesh.obj
 0001:00047d50       ??0HeightFieldData@Gu@physx@@QAE@$$QAU012@@Z 10048d50 f i GuContactCapsuleMesh.obj
 0001:00047e10       ??0HeightFieldData@Gu@physx@@QAE@ABU012@@Z 10048e10 f i GuContactCapsuleMesh.obj
 0001:00047ed0       ??0HeightFieldData@Gu@physx@@QAE@W4PxEMPTY@2@@Z 10048ed0 f i GuContactCapsuleMesh.obj
 0001:00047f00       ??0HeightFieldData@Gu@physx@@QAE@XZ 10048f00 f i GuContactCapsuleMesh.obj
 0001:00047f30       ??0HeightFieldTraceUtil@Gu@physx@@QAE@ABVPxHeightFieldGeometry@2@@Z 10048f30 f i GuContactCapsuleMesh.obj
 0001:00047f60       ??0HeightFieldUtil@Gu@physx@@QAE@ABVPxHeightFieldGeometry@2@@Z 10048f60 f i GuContactCapsuleMesh.obj
 0001:00047fa0       ??0HeightFieldUtil@Gu@physx@@QAE@XZ 10048fa0 f i GuContactCapsuleMesh.obj
 0001:00047fc0       ??0PxBounds3@physx@@QAE@ABVPxVec3@1@0@Z 10048fc0 f i GuContactCapsuleMesh.obj
 0001:00048000       ??0PxBounds3@physx@@QAE@XZ 10049000 f i GuContactCapsuleMesh.obj
 0001:00048030       ??0PxTriangle@physx@@QAE@XZ 10049030 f i GuContactCapsuleMesh.obj
 0001:00048060       ??0Segment@Gu@physx@@QAE@ABV012@@Z 10049060 f i GuContactCapsuleMesh.obj
 0001:000480a0       ??0Segment@Gu@physx@@QAE@ABVPxVec3@2@0@Z 100490a0 f i GuContactCapsuleMesh.obj
 0001:000480e0       ??0TrianglePadded@Gu@physx@@QAE@XZ 100490e0 f i GuContactCapsuleMesh.obj
 0001:00048100       ??0Vec3p@Gu@physx@@QAE@ABVPxVec3@2@@Z 10049100 f i GuContactCapsuleMesh.obj
 0001:00048130       ??0Vec3p@Gu@physx@@QAE@XZ  10049130 f i GuContactCapsuleMesh.obj
 0001:00048150       ??1?$EntityReport@I@Gu@physx@@UAE@XZ 10049150 f i GuContactCapsuleMesh.obj
 0001:00048170       ??1?$MeshHitCallback@UPxRaycastHit@physx@@@Gu@physx@@UAE@XZ 10049170 f i GuContactCapsuleMesh.obj
 0001:00048190       ??1Capsule@Gu@physx@@QAE@XZ 10049190 f i GuContactCapsuleMesh.obj
 0001:00048260       ??1CenterExtents@Gu@physx@@QAE@XZ 10049260 f i GuContactCapsuleMesh.obj
 0001:00048270       ??1HeightFieldData@Gu@physx@@QAE@XZ 10049270 f i GuContactCapsuleMesh.obj
 0001:00048290       ??1PxHeightField@physx@@MAE@XZ 10049290 f i GuContactCapsuleMesh.obj
 0001:000482c0       ??1PxTriangle@physx@@QAE@XZ 100492c0 f i GuContactCapsuleMesh.obj
 0001:000482d0       ??1TrianglePadded@Gu@physx@@QAE@XZ 100492d0 f i GuContactCapsuleMesh.obj
 0001:000482f0       ??1Vec3p@Gu@physx@@QAE@XZ  100492f0 f i GuContactCapsuleMesh.obj
 0001:00048300       ??4?$PxFlags@W4Enum@PxHeightFieldFlag@physx@@G@physx@@QAEAAV01@ABV01@@Z 10049300 f i GuContactCapsuleMesh.obj
 0001:00048330       ??4CenterExtents@Gu@physx@@QAEAAV012@ABV012@@Z 10049330 f i GuContactCapsuleMesh.obj
 0001:00048370       ??4HeightFieldData@Gu@physx@@QAEAAU012@$$QAU012@@Z 10049370 f i GuContactCapsuleMesh.obj
 0001:00048430       ??4HeightFieldData@Gu@physx@@QAEAAU012@ABU012@@Z 10049430 f i GuContactCapsuleMesh.obj
 0001:000484f0       ??4HeightFieldTraceUtil@Gu@physx@@QAEAAV012@$$QAV012@@Z 100494f0 f i GuContactCapsuleMesh.obj
 0001:00048530       ??4HeightFieldTraceUtil@Gu@physx@@QAEAAV012@ABV012@@Z 10049530 f i GuContactCapsuleMesh.obj
 0001:00048570       ??4HeightFieldUtil@Gu@physx@@QAEAAV012@$$QAV012@@Z 10049570 f i GuContactCapsuleMesh.obj
 0001:000485d0       ??4HeightFieldUtil@Gu@physx@@QAEAAV012@ABV012@@Z 100495d0 f i GuContactCapsuleMesh.obj
 0001:00048610       ??4PxBounds3@physx@@QAEAAV01@$$QAV01@@Z 10049610 f i GuContactCapsuleMesh.obj
 0001:00048650       ??4Vec3p@Gu@physx@@QAEAAV012@ABV012@@Z 10049650 f i GuContactCapsuleMesh.obj
 0001:00048690       ??B?$PxBitAndDataT@E$0IA@@physx@@QBEEXZ 10049690 f i GuContactCapsuleMesh.obj
 0001:000486b0       ??B?$PxFlags@W4Enum@PxHeightFieldFlag@physx@@G@physx@@QBE_NXZ 100496b0 f i GuContactCapsuleMesh.obj
 0001:000486e0       ??I?$PxFlags@W4Enum@PxHeightFieldFlag@physx@@G@physx@@QBE?AV01@W4Enum@PxHeightFieldFlag@1@@Z 100496e0 f i GuContactCapsuleMesh.obj
 0001:00048730       ??_EPxHeightField@physx@@MAEPAXI@Z 10049730 f i GuContactCapsuleMesh.obj
 0001:000487d0       ??_G?$EntityReport@I@Gu@physx@@UAEPAXI@Z 100497d0 f i GuContactCapsuleMesh.obj
 0001:000487d0       ??_E?$EntityReport@I@Gu@physx@@UAEPAXI@Z 100497d0 f i GuContactCapsuleMesh.obj
 0001:00048810       ??_G?$MeshHitCallback@UPxRaycastHit@physx@@@Gu@physx@@UAEPAXI@Z 10049810 f i GuContactCapsuleMesh.obj
 0001:00048810       ??_E?$MeshHitCallback@UPxRaycastHit@physx@@@Gu@physx@@UAEPAXI@Z 10049810 f i GuContactCapsuleMesh.obj
 0001:00048910       ?PxCeil@physx@@YAMM@Z      10049910 f i GuContactCapsuleMesh.obj
 0001:00048930       ?PxFloor@physx@@YAMM@Z     10049930 f i GuContactCapsuleMesh.obj
 0001:00048950       ?basisExtent@PxBounds3@physx@@SA?AV12@ABVPxVec3@2@ABVPxMat33@2@0@Z 10049950 f i GuContactCapsuleMesh.obj
 0001:00048ba0       ?ceilUp@HeightFieldTraceUtil@Gu@physx@@SAMM@Z 10049ba0 f i GuContactCapsuleMesh.obj
 0001:00048c10       ?clipShapeNormalToVertexVoronoi@HeightFieldUtil@Gu@physx@@QBE_NAAVPxVec3@3@III@Z 10049c10 f i GuContactCapsuleMesh.obj
 0001:000490f0       ?computeBarycentricPoint@shdfnd@physx@@YA?AVPxVec3@2@ABV32@00MM@Z 1004a0f0 f i GuContactCapsuleMesh.obj
 0001:000491f0       ?computePointNormal@HeightFieldUtil@Gu@physx@@QBE?AVPxVec3@3@IABV43@ABVPxTransform@3@MMMMAAM@Z 1004a1f0 f i GuContactCapsuleMesh.obj
 0001:000492f0       ?denormalizedNormal@PxTriangle@physx@@QBEXAAVPxVec3@2@@Z 1004a2f0 f i GuContactCapsuleMesh.obj
 0001:00049370       ?distanceSegmentTriangleSquared@Gu@physx@@YAMABVSegment@12@ABVPxVec3@2@11PAM22@Z 1004a370 f i GuContactCapsuleMesh.obj
 0001:000493c0       ?flipsNormal@FastVertex2ShapeScaling@Cm@physx@@QBE_NXZ 1004a3c0 f i GuContactCapsuleMesh.obj
 0001:000493e0       ?floorDown@HeightFieldTraceUtil@Gu@physx@@SAMM@Z 1004a3e0 f i GuContactCapsuleMesh.obj
 0001:00049450       ?fsel@intrinsics@physx@@YAMMMM@Z 1004a450 f i GuContactCapsuleMesh.obj
 0001:00049490       ?getCenter@PxBounds3@physx@@QBE?AVPxVec3@2@XZ 1004a490 f i GuContactCapsuleMesh.obj
 0001:00049540       ?getConcreteType@PxBase@physx@@QBEGXZ 1004a540 f i GuContactCapsuleMesh.obj
 0001:00049560       ?getConcreteTypeName@PxHeightField@physx@@UBEPBDXZ 1004a560 f i GuContactCapsuleMesh.obj
 0001:00049580       ?getConvexEdgeFlags@Gu@physx@@YAEPBEI@Z 1004a580 f i GuContactCapsuleMesh.obj
 0001:000495b0       ?getConvexEdgeThreshold@HeightField@Gu@physx@@UBEMXZ 1004a5b0 f i GuContactCapsuleMesh.obj
 0001:000495d0       ?getData@HeightField@Gu@physx@@QBEABUHeightFieldData@23@XZ 1004a5d0 f i GuContactCapsuleMesh.obj
 0001:000495f0       ?getDimensions@PxBounds3@physx@@QBE?AVPxVec3@2@XZ 1004a5f0 f i GuContactCapsuleMesh.obj
 0001:00049680       ?getExtents@PxBounds3@physx@@QBE?AVPxVec3@2@XZ 1004a680 f i GuContactCapsuleMesh.obj
 0001:00049720       ?getExtraTrigData@TriangleMesh@Gu@physx@@QBEPBEXZ 1004a720 f i GuContactCapsuleMesh.obj
 0001:00049740       ?getFeatureIndex@HeightFieldUtil@Gu@physx@@SAII@Z 1004a740 f i GuContactCapsuleMesh.obj
 0001:00049750       ?getFeatureType@HeightFieldUtil@Gu@physx@@SA?AW4Feature@123@I@Z 1004a750 f i GuContactCapsuleMesh.obj
 0001:00049760       ?getFlags@HeightField@Gu@physx@@UBE?AV?$PxFlags@W4Enum@PxHeightFieldFlag@physx@@G@3@XZ 1004a760 f i GuContactCapsuleMesh.obj
 0001:00049790       ?getFormat@HeightField@Gu@physx@@UBE?AW4Enum@PxHeightFieldFormat@3@XZ 1004a790 f i GuContactCapsuleMesh.obj
 0001:000497b0       ?getHeight@HeightField@Gu@physx@@QBEMI@Z 1004a7b0 f i GuContactCapsuleMesh.obj
 0001:000497e0       ?getHeight@HeightField@Gu@physx@@UBEMMM@Z 1004a7e0 f i GuContactCapsuleMesh.obj
 0001:00049820       ?getHeightAtShapePoint2@HeightFieldUtil@Gu@physx@@QBEMIMM@Z 1004a820 f i GuContactCapsuleMesh.obj
 0001:00049890       ?getHeightAtShapePoint@HeightFieldUtil@Gu@physx@@QBEMMM@Z 1004a890 f i GuContactCapsuleMesh.obj
 0001:00049910       ?getHeightField@HeightFieldUtil@Gu@physx@@QBEABVHeightField@23@XZ 1004a910 f i GuContactCapsuleMesh.obj
 0001:00049930       ?getHeightFieldGeometry@HeightFieldUtil@Gu@physx@@QBEABVPxHeightFieldGeometry@3@XZ 1004a930 f i GuContactCapsuleMesh.obj
 0001:00049950       ?getHeightInternal2@HeightField@Gu@physx@@QBEMIMM@Z 1004a950 f i GuContactCapsuleMesh.obj
 0001:00049ba0       ?getHeightInternal@HeightField@Gu@physx@@QBEMMM@Z 1004aba0 f i GuContactCapsuleMesh.obj
 0001:00049c10       ?getMaterialIndex0@HeightField@Gu@physx@@QBEGI@Z 1004ac10 f i GuContactCapsuleMesh.obj
 0001:00049c40       ?getMaterialIndex1@HeightField@Gu@physx@@QBEGI@Z 1004ac40 f i GuContactCapsuleMesh.obj
 0001:00049c70       ?getNbColumns@HeightField@Gu@physx@@UBEIXZ 1004ac70 f i GuContactCapsuleMesh.obj
 0001:00049c90       ?getNbColumnsFast@HeightField@Gu@physx@@QBEIXZ 1004ac90 f i GuContactCapsuleMesh.obj
 0001:00049cb0       ?getNbRows@HeightField@Gu@physx@@UBEIXZ 1004acb0 f i GuContactCapsuleMesh.obj
 0001:00049cd0       ?getNbRowsFast@HeightField@Gu@physx@@QBEIXZ 1004acd0 f i GuContactCapsuleMesh.obj
 0001:00049cf0       ?getNextIndex3@shdfnd@physx@@YAII@Z 1004acf0 f i GuContactCapsuleMesh.obj
 0001:00049d10       ?getNormalAtShapePoint2@HeightFieldUtil@Gu@physx@@QBE?AVPxVec3@3@IMM@Z 1004ad10 f i GuContactCapsuleMesh.obj
 0001:00049d90       ?getNormalAtShapePoint@HeightFieldUtil@Gu@physx@@QBE?AVPxVec3@3@MM@Z 1004ad90 f i GuContactCapsuleMesh.obj
 0001:00049e20       ?getNormal_2@HeightField@Gu@physx@@QBE?AVPxVec3@3@IMMMMM@Z 1004ae20 f i GuContactCapsuleMesh.obj
 0001:0004a130       ?getNormal_@HeightField@Gu@physx@@QBE?AVPxVec3@3@MMMMM@Z 1004b130 f i GuContactCapsuleMesh.obj
 0001:0004a1e0       ?getOneOverColumnScale@HeightFieldUtil@Gu@physx@@QBEMXZ 1004b1e0 f i GuContactCapsuleMesh.obj
 0001:0004a200       ?getOneOverHeightScale@HeightFieldUtil@Gu@physx@@QBEMXZ 1004b200 f i GuContactCapsuleMesh.obj
 0001:0004a220       ?getOneOverRowScale@HeightFieldUtil@Gu@physx@@QBEMXZ 1004b220 f i GuContactCapsuleMesh.obj
 0001:0004a240       ?getPaddedBounds@HeightFieldData@Gu@physx@@QBEABVCenterExtentsPadded@23@XZ 1004b240 f i GuContactCapsuleMesh.obj
 0001:0004a260       ?getSample@HeightField@Gu@physx@@QBEABUPxHeightFieldSample@3@I@Z 1004b260 f i GuContactCapsuleMesh.obj
 0001:0004a2e0       ?getSample@HeightField@Gu@physx@@UBEABUPxHeightFieldSample@3@II@Z 1004b2e0 f i GuContactCapsuleMesh.obj
 0001:0004a320       ?getSampleStride@HeightField@Gu@physx@@UBEIXZ 1004b320 f i GuContactCapsuleMesh.obj
 0001:0004a340       ?getScaledVertices@Cm@physx@@YAXPAVPxVec3@2@ABV32@11_NABVFastVertex2ShapeScaling@12@@Z 1004b340 f i GuContactCapsuleMesh.obj
 0001:0004a460       ?getThickness@HeightField@Gu@physx@@UBEMXZ 1004b460 f i GuContactCapsuleMesh.obj
 0001:0004a480       ?getTimestamp@HeightField@Gu@physx@@UBEIXZ 1004b480 f i GuContactCapsuleMesh.obj
 0001:0004a4a0       ?getTriangleMaterial@HeightField@Gu@physx@@QBEGI@Z 1004b4a0 f i GuContactCapsuleMesh.obj
 0001:0004a500       ?getTriangleMaterialIndex@HeightField@Gu@physx@@UBEGI@Z 1004b500 f i GuContactCapsuleMesh.obj
 0001:0004a520       ?getTriangleNormal@HeightField@Gu@physx@@UBE?AVPxVec3@3@I@Z 1004b520 f i GuContactCapsuleMesh.obj
 0001:0004a550       ?getTriangleNormalInternal@HeightField@Gu@physx@@QBE?AVPxVec3@3@I@Z 1004b550 f i GuContactCapsuleMesh.obj
 0001:0004a7c0       ?getTriangleVertexIndices@HeightField@Gu@physx@@QBEXIAAI00@Z 1004b7c0 f i GuContactCapsuleMesh.obj
 0001:0004a8f0       ?getVertexNormal@HeightFieldUtil@Gu@physx@@QBE?AVPxVec3@3@I@Z 1004b8f0 f i GuContactCapsuleMesh.obj
 0001:0004a960       ?hf2shapen@HeightFieldUtil@Gu@physx@@QBE?AVPxVec3@3@ABV43@@Z 1004b960 f i GuContactCapsuleMesh.obj
 0001:0004a9d0       ?hf2shapep@HeightFieldUtil@Gu@physx@@QBE?AVPxVec3@3@ABV43@@Z 1004b9d0 f i GuContactCapsuleMesh.obj
 0001:0004aa50       ?hf2worldn@HeightFieldUtil@Gu@physx@@QBE?AVPxVec3@3@ABVPxTransform@3@ABV43@@Z 1004ba50 f i GuContactCapsuleMesh.obj
 0001:0004aa90       ?hf2worldp@HeightFieldUtil@Gu@physx@@QBE?AVPxVec3@3@ABVPxTransform@3@ABV43@@Z 1004ba90 f i GuContactCapsuleMesh.obj
 0001:0004aad0       ?initialize@HeightFieldUtil@Gu@physx@@QAEXABVPxHeightFieldGeometry@3@ABVHeightField@23@@Z 1004bad0 f i GuContactCapsuleMesh.obj
 0001:0004ab00       ?initialize@HeightFieldUtil@Gu@physx@@QAEXXZ 1004bb00 f i GuContactCapsuleMesh.obj
 0001:0004acd0       ?intersectOBB@Midphase@Gu@physx@@YAXPBVTriangleMesh@23@ABVBox@23@AAU?$MeshHitCallback@UPxRaycastHit@physx@@@23@_N3@Z 1004bcd0 f i GuContactCapsuleMesh.obj
 0001:0004ad20       ?intersectRayTriangle@Gu@physx@@YA_NABVPxVec3@2@0000AAM11_NM@Z 1004bd20 f i GuContactCapsuleMesh.obj
 0001:0004b0a0       ?intersectRayTriangleCulling@Gu@physx@@YA_NABVPxVec3@2@0000AAM11M@Z 1004c0a0 f i GuContactCapsuleMesh.obj
 0001:0004b0f0       ?isBitSet@?$PxBitAndDataT@E$0IA@@physx@@QBEEXZ 1004c0f0 f i GuContactCapsuleMesh.obj
 0001:0004b110       ?isCollisionVertex@HeightField@Gu@physx@@QBE_NIIIG@Z 1004c110 f i GuContactCapsuleMesh.obj
 0001:0004b160       ?isCollisionVertex@HeightFieldUtil@Gu@physx@@QBE_NIII@Z 1004c160 f i GuContactCapsuleMesh.obj
 0001:0004b190       ?isFirstTriangle@HeightField@Gu@physx@@QBE_NI@Z 1004c190 f i GuContactCapsuleMesh.obj
 0001:0004b1d0       ?isKindOf@PxHeightField@physx@@MBE_NPBD@Z 1004c1d0 f i GuContactCapsuleMesh.obj
 0001:0004b230       ?isQueryVertex@HeightFieldUtil@Gu@physx@@QBE_NIII@Z 1004c230 f i GuContactCapsuleMesh.obj
 0001:0004b330       ?isShapePointOnHeightField@HeightFieldUtil@Gu@physx@@QBE_NMM@Z 1004c330 f i GuContactCapsuleMesh.obj
 0001:0004b400       ?isValidVertex@HeightField@Gu@physx@@QBE_NI@Z 1004c400 f i GuContactCapsuleMesh.obj
 0001:0004b450       ?isZerothVertexShared@HeightField@Gu@physx@@QBE_NI@Z 1004c450 f i GuContactCapsuleMesh.obj
 0001:0004b4a0       ?makeFeatureCode@HeightFieldUtil@Gu@physx@@SAIIW4Feature@123@@Z 1004c4a0 f i GuContactCapsuleMesh.obj
 0001:0004b4c0       ?normal@PxTriangle@physx@@QBEXAAVPxVec3@2@@Z 1004c4c0 f i GuContactCapsuleMesh.obj
 0001:0004bd40       ?rotateInv@PxTransform@physx@@QBE?AVPxVec3@2@ABV32@@Z 1004cd40 f i GuContactCapsuleMesh.obj
 0001:0004bdc0       ?shape2hfp@HeightFieldUtil@Gu@physx@@QBE?AVPxVec3@3@ABV43@@Z 1004cdc0 f i GuContactCapsuleMesh.obj
 0001:0004be30       ?tessFlag@PxHeightFieldSample@physx@@QBEEXZ 1004ce30 f i GuContactCapsuleMesh.obj
 0001:0004be70       ?transformFast@PxBounds3@physx@@SA?AV12@ABVPxTransform@2@ABV12@@Z 1004ce70 f i GuContactCapsuleMesh.obj
 0001:0004bf30       ?transformQueryBounds@FastVertex2ShapeScaling@Cm@physx@@QBEXAAVPxVec3@3@0AAVPxMat33@3@@Z 1004cf30 f i GuContactCapsuleMesh.obj
 0001:0004c060       _ceilf                     1004d060 f i GuContactCapsuleMesh.obj
 0001:0004c090       _floorf                    1004d090 f i GuContactCapsuleMesh.obj
 0001:0004c0c0       ?contactBoxConvex@Gu@physx@@YA_NABVGeometryUnion@12@0ABVPxTransform@2@1ABUNarrowPhaseParams@12@AAUCache@12@AAVContactBuffer@12@PAVRenderOutput@Cm@2@@Z 1004d0c0 f   GuContactConvexConvex.obj
 0001:0004c1d0       ?contactConvexConvex@Gu@physx@@YA_NABVGeometryUnion@12@0ABVPxTransform@2@1ABUNarrowPhaseParams@12@AAUCache@12@AAVContactBuffer@12@PAVRenderOutput@Cm@2@@Z 1004d1d0 f   GuContactConvexConvex.obj
 0001:0004ec60       ??0Matrix34@Cm@physx@@QAE@ABVPxVec3@2@000@Z 1004fc60 f i GuContactConvexConvex.obj
 0001:0004eca0       ??0PxPlane@physx@@QAE@ABVPxVec3@1@M@Z 1004fca0 f i GuContactConvexConvex.obj
 0001:0004ece0       ??0SeparatingAxes@Gu@physx@@QAE@$$QAV012@@Z 1004fce0 f i GuContactConvexConvex.obj
 0001:0004ed30       ??0SeparatingAxes@Gu@physx@@QAE@ABV012@@Z 1004fd30 f i GuContactConvexConvex.obj
 0001:0004ed80       ??0SeparatingAxes@Gu@physx@@QAE@XZ 1004fd80 f i GuContactConvexConvex.obj
 0001:0004edc0       ??4PxBounds3@physx@@QAEAAV01@ABV01@@Z 1004fdc0 f i GuContactConvexConvex.obj
 0001:0004ee00       ??4PxPlane@physx@@QAEAAV01@$$QAV01@@Z 1004fe00 f i GuContactConvexConvex.obj
 0001:0004ee40       ??4PxTransform@physx@@QAEAAV01@$$QAV01@@Z 1004fe40 f i GuContactConvexConvex.obj
 0001:0004ee80       ??4SeparatingAxes@Gu@physx@@QAEAAV012@$$QAV012@@Z 1004fe80 f i GuContactConvexConvex.obj
 0001:0004eef0       ??4SeparatingAxes@Gu@physx@@QAEAAV012@ABV012@@Z 1004fef0 f i GuContactConvexConvex.obj
 0001:0004ef60       ??LFastVertex2ShapeScaling@Cm@physx@@QBE?AVPxVec3@2@ABV32@@Z 1004ff60 f i GuContactConvexConvex.obj
 0001:0004ef90       ?BoxSupport@@YAXQBMABVPxVec3@physx@@QAM@Z 1004ff90 f i GuContactConvexConvex.obj
 0001:0004f060       ?PxcMultiplyAdd3x4@@YAMIABVPxVec3@physx@@0ABVMatrix34@Cm@2@@Z 10050060 f i GuContactConvexConvex.obj
 0001:0004f170       ?PxcMultiplySub3x4@@YAMIABVPxVec3@physx@@0ABVMatrix34@Cm@2@@Z 10050170 f i GuContactConvexConvex.obj
 0001:0004f250       ?getAxes@SeparatingAxes@Gu@physx@@QBEPBVPxVec3@3@XZ 10050250 f i GuContactConvexConvex.obj
 0001:0004f270       ?getMax@HullPolygonData@Gu@physx@@QBEMXZ 10050270 f i GuContactConvexConvex.obj
 0001:0004f2a0       ?getMin@HullPolygonData@Gu@physx@@QBEMPIBVPxVec3@3@@Z 100502a0 f i GuContactConvexConvex.obj
 0001:0004f2d0       ?getNumAxes@SeparatingAxes@Gu@physx@@QBEIXZ 100502d0 f i GuContactConvexConvex.obj
 0001:0004f2f0       ?getPolygonVertexRefs@PolygonalData@Gu@physx@@QBEPBEABUHullPolygonData@23@@Z 100502f0 f i GuContactConvexConvex.obj
 0001:0004f310       ?prefetchLine@shdfnd@physx@@YAXPBXI@Z 10050310 f i GuContactConvexConvex.obj
 0001:0004f330       ?reset@SeparatingAxes@Gu@physx@@QAEXXZ 10050330 f i GuContactConvexConvex.obj
 0001:0004f350       ?set@Matrix34@Cm@physx@@QAEXABVPxQuat@3@@Z 10050350 f i GuContactConvexConvex.obj
 0001:0004f3a0       ?transformPlaneToShapeSpace@FastVertex2ShapeScaling@Cm@physx@@QBEXABVPxVec3@3@MAAV43@AAM@Z 100503a0 f i GuContactConvexConvex.obj
 0001:0004f430       ?contactBoxMesh@Gu@physx@@YA_NABVGeometryUnion@12@0ABVPxTransform@2@1ABUNarrowPhaseParams@12@AAUCache@12@AAVContactBuffer@12@PAVRenderOutput@Cm@2@@Z 10050430 f   GuContactConvexMesh.obj
 0001:0004f530       ?contactConvexMesh@Gu@physx@@YA_NABVGeometryUnion@12@0ABVPxTransform@2@1ABUNarrowPhaseParams@12@AAUCache@12@AAVContactBuffer@12@PAVRenderOutput@Cm@2@@Z 10050530 f   GuContactConvexMesh.obj
 0001:0004f610       ?contactBoxHeightfield@Gu@physx@@YA_NABVGeometryUnion@12@0ABVPxTransform@2@1ABUNarrowPhaseParams@12@AAUCache@12@AAVContactBuffer@12@PAVRenderOutput@Cm@2@@Z 10050610 f   GuContactConvexMesh.obj
 0001:0004f700       ?contactConvexHeightfield@Gu@physx@@YA_NABVGeometryUnion@12@0ABVPxTransform@2@1ABUNarrowPhaseParams@12@AAUCache@12@AAVContactBuffer@12@PAVRenderOutput@Cm@2@@Z 10050700 f   GuContactConvexMesh.obj
 0001:00052b20       ??$PxMin@I@physx@@YAIII@Z  10053b20 f i GuContactConvexMesh.obj
 0001:00052b50       ??0?$Array@IV?$InlineAllocator@$0BBAA@VNamedAllocator@shdfnd@physx@@@shdfnd@physx@@@shdfnd@physx@@QAE@ABV?$InlineAllocator@$0BBAA@VNamedAllocator@shdfnd@physx@@@12@@Z 10053b50 f i GuContactConvexMesh.obj
 0001:00052bb0       ??0?$CacheMap@UCachedEdge@Gu@physx@@$0IA@@Gu@physx@@QAE@XZ 10053bb0 f i GuContactConvexMesh.obj
 0001:00052c30       ??0?$CacheMap@UCachedVertex@Gu@physx@@$0IA@@Gu@physx@@QAE@XZ 10053c30 f i GuContactConvexMesh.obj
 0001:00052cb0       ??0?$InlineAllocator@$0BBAA@VNamedAllocator@shdfnd@physx@@@shdfnd@physx@@QAE@ABV012@@Z 10053cb0 f i GuContactConvexMesh.obj
 0001:00052ce0       ??0?$InlineAllocator@$0BBAA@VNamedAllocator@shdfnd@physx@@@shdfnd@physx@@QAE@ABVNamedAllocator@12@@Z 10053ce0 f i GuContactConvexMesh.obj
 0001:00052d10       ??0?$InlineArray@I$0EEA@VNamedAllocator@shdfnd@physx@@@shdfnd@physx@@QAE@ABVNamedAllocator@12@@Z 10053d10 f i GuContactConvexMesh.obj
 0001:00052d90       ??0BoxPadded@Gu@physx@@QAE@XZ 10053d90 f i GuContactConvexMesh.obj
 0001:00052db0       ??0CachedEdge@Gu@physx@@QAE@II@Z 10053db0 f i GuContactConvexMesh.obj
 0001:00052e00       ??0CachedEdge@Gu@physx@@QAE@XZ 10053e00 f i GuContactConvexMesh.obj
 0001:00052e20       ??0CachedVertex@Gu@physx@@QAE@I@Z 10053e20 f i GuContactConvexMesh.obj
 0001:00052e40       ??0CachedVertex@Gu@physx@@QAE@XZ 10053e40 f i GuContactConvexMesh.obj
 0001:00052e60       ??0ConvexMeshContactGenerationCallback@@QAE@AAV?$InlineArray@I$0EEA@VNamedAllocator@shdfnd@physx@@@shdfnd@physx@@ABVPxTransform@3@1ABUPolygonalData@Gu@3@ABVMatrix34@Cm@3@3PBVTriangleMesh@63@PIBEABVFastVertex2ShapeScaling@83@6MM_N7M11AAVContactBuffer@63@ABVBoxPadded@63@@Z 10053e60 f i GuContactConvexMesh.obj
 0001:00053000       ??0Matrix34@Cm@physx@@QAE@ABV012@@Z 10054000 f i GuContactConvexMesh.obj
 0001:00053040       ??0PxPlane@physx@@QAE@ABVPxVec3@1@00@Z 10054040 f i GuContactConvexMesh.obj
 0001:000530e0       ??0PxTransform@physx@@QAE@ABV01@@Z 100540e0 f i GuContactConvexMesh.obj
 0001:00053120       ??1?$Array@IV?$InlineAllocator@$0BBAA@VNamedAllocator@shdfnd@physx@@@shdfnd@physx@@@shdfnd@physx@@QAE@XZ 10054120 f i GuContactConvexMesh.obj
 0001:000531a0       ??1?$InlineAllocator@$0BBAA@VNamedAllocator@shdfnd@physx@@@shdfnd@physx@@QAE@XZ 100541a0 f i GuContactConvexMesh.obj
 0001:000531c0       ??1?$InlineArray@I$0EEA@VNamedAllocator@shdfnd@physx@@@shdfnd@physx@@QAE@XZ 100541c0 f i GuContactConvexMesh.obj
 0001:000531e0       ??1BoxPadded@Gu@physx@@QAE@XZ 100541e0 f i GuContactConvexMesh.obj
 0001:00053200       ??1ConvexMeshContactGenerationCallback@@UAE@XZ 10054200 f i GuContactConvexMesh.obj
 0001:00053240       ??8CachedEdge@Gu@physx@@QBE_NABU012@@Z 10054240 f i GuContactConvexMesh.obj
 0001:00053290       ??8CachedVertex@Gu@physx@@QBE_NABU012@@Z 10054290 f i GuContactConvexMesh.obj
 0001:000532d0       ??_EConvexMeshContactGenerationCallback@@UAEPAXI@Z 100542d0 f i GuContactConvexMesh.obj
 0001:000532d0       ??_GConvexMeshContactGenerationCallback@@UAEPAXI@Z 100542d0 f i GuContactConvexMesh.obj
 0001:00053350       ?addData@?$CacheMap@UCachedEdge@Gu@physx@@$0IA@@Gu@physx@@QAE_NABUCachedEdge@23@@Z 10054350 f i GuContactConvexMesh.obj
 0001:000534e0       ?addData@?$CacheMap@UCachedVertex@Gu@physx@@$0IA@@Gu@physx@@QAE_NABUCachedVertex@23@@Z 100544e0 f i GuContactConvexMesh.obj
 0001:00053660       ?allocate@?$Array@IV?$InlineAllocator@$0BBAA@VNamedAllocator@shdfnd@physx@@@shdfnd@physx@@@shdfnd@physx@@IAEPAII@Z 10054660 f i GuContactConvexMesh.obj
 0001:000536e0       ?allocate@?$InlineAllocator@$0BBAA@VNamedAllocator@shdfnd@physx@@@shdfnd@physx@@QAEPAXIPBDH@Z 100546e0 f i GuContactConvexMesh.obj
 0001:00053740       ?begin@?$Array@IV?$InlineAllocator@$0BBAA@VNamedAllocator@shdfnd@physx@@@shdfnd@physx@@@shdfnd@physx@@QAEPAIXZ 10054740 f i GuContactConvexMesh.obj
 0001:00053760       ?capacity@?$Array@IV?$InlineAllocator@$0BBAA@VNamedAllocator@shdfnd@physx@@@shdfnd@physx@@@shdfnd@physx@@QBEIXZ 10054760 f i GuContactConvexMesh.obj
 0001:00053780       ?contains@?$CacheMap@UCachedEdge@Gu@physx@@$0IA@@Gu@physx@@QBE_NABUCachedEdge@23@@Z 10054780 f i GuContactConvexMesh.obj
 0001:00053810       ?contains@?$CacheMap@UCachedVertex@Gu@physx@@$0IA@@Gu@physx@@QBE_NABUCachedVertex@23@@Z 10054810 f i GuContactConvexMesh.obj
 0001:000538a0       ?copy@?$Array@IV?$InlineAllocator@$0BBAA@VNamedAllocator@shdfnd@physx@@@shdfnd@physx@@@shdfnd@physx@@KAXPAI0PBI@Z 100548a0 f i GuContactConvexMesh.obj
 0001:00053900       ?deallocate@?$Array@IV?$InlineAllocator@$0BBAA@VNamedAllocator@shdfnd@physx@@@shdfnd@physx@@@shdfnd@physx@@IAEXPAX@Z 10054900 f i GuContactConvexMesh.obj
 0001:00053920       ?deallocate@?$InlineAllocator@$0BBAA@VNamedAllocator@shdfnd@physx@@@shdfnd@physx@@QAEXPAX@Z 10054920 f i GuContactConvexMesh.obj
 0001:00053960       ?destroy@?$Array@IV?$InlineAllocator@$0BBAA@VNamedAllocator@shdfnd@physx@@@shdfnd@physx@@@shdfnd@physx@@KAXPAI0@Z 10054960 f i GuContactConvexMesh.obj
 0001:00053980       ?end@?$Array@IV?$InlineAllocator@$0BBAA@VNamedAllocator@shdfnd@physx@@@shdfnd@physx@@@shdfnd@physx@@QAEPAIXZ 10054980 f i GuContactConvexMesh.obj
 0001:000539b0       ?forceSize_Unsafe@?$Array@IV?$InlineAllocator@$0BBAA@VNamedAllocator@shdfnd@physx@@@shdfnd@physx@@@shdfnd@physx@@QAEXI@Z 100549b0 f i GuContactConvexMesh.obj
 0001:00053a30       ?getHashCode@CachedEdge@Gu@physx@@QBEIXZ 10054a30 f i GuContactConvexMesh.obj
 0001:00053a60       ?getHashCode@CachedVertex@Gu@physx@@QBEIXZ 10054a60 f i GuContactConvexMesh.obj
 0001:00053a80       ?grow@?$Array@IV?$InlineAllocator@$0BBAA@VNamedAllocator@shdfnd@physx@@@shdfnd@physx@@@shdfnd@physx@@IAEXI@Z 10054a80 f i GuContactConvexMesh.obj
 0001:00053b00       ?isInUserMemory@?$Array@IV?$InlineAllocator@$0BBAA@VNamedAllocator@shdfnd@physx@@@shdfnd@physx@@@shdfnd@physx@@QBEIXZ 10054b00 f i GuContactConvexMesh.obj
 0001:00053d80       ?processHit@ConvexMeshContactGenerationCallback@@UAE_NABUPxRaycastHit@physx@@ABVPxVec3@3@11AAMPBI@Z 10054d80 f i GuContactConvexMesh.obj
 0001:00053e70       ?recreate@?$Array@IV?$InlineAllocator@$0BBAA@VNamedAllocator@shdfnd@physx@@@shdfnd@physx@@@shdfnd@physx@@IAEXI@Z 10054e70 f i GuContactConvexMesh.obj
 0001:00053fa0       ?reserve@?$Array@IV?$InlineAllocator@$0BBAA@VNamedAllocator@shdfnd@physx@@@shdfnd@physx@@@shdfnd@physx@@QAEXI@Z 10054fa0 f i GuContactConvexMesh.obj
 0001:00053fd0       ?size@?$Array@IV?$InlineAllocator@$0BBAA@VNamedAllocator@shdfnd@physx@@@shdfnd@physx@@@shdfnd@physx@@QBEIXZ 10054fd0 f i GuContactConvexMesh.obj
 0001:00053ff0       ?contactPlaneBox@Gu@physx@@YA_NABVGeometryUnion@12@0ABVPxTransform@2@1ABUNarrowPhaseParams@12@AAUCache@12@AAVContactBuffer@12@PAVRenderOutput@Cm@2@@Z 10054ff0 f   GuContactPlaneBox.obj
 0001:00054890       ??$PxUnionCast@PAIPAM@physx@@YAPAIPAM@Z 10055890 f i GuContactPlaneBox.obj
 0001:000548b0       ??0AB@?1???$PxUnionCast@PAIPAM@physx@@YAPAIPAM@Z@QAE@0@Z 100558b0 f i GuContactPlaneBox.obj
 0001:000548d0       ?contactPlaneCapsule@Gu@physx@@YA_NABVGeometryUnion@12@0ABVPxTransform@2@1ABUNarrowPhaseParams@12@AAUCache@12@AAVContactBuffer@12@PAVRenderOutput@Cm@2@@Z 100558d0 f   GuContactPlaneCapsule.obj
 0001:00054ae0       ?contactPlaneConvex@Gu@physx@@YA_NABVGeometryUnion@12@0ABVPxTransform@2@1ABUNarrowPhaseParams@12@AAUCache@12@AAVContactBuffer@12@PAVRenderOutput@Cm@2@@Z 10055ae0 f   GuContactPlaneConvex.obj
 0001:00054d30       ??4Matrix34@Cm@physx@@QAEABV012@ABV012@@Z 10055d30 f i GuContactPlaneConvex.obj
 0001:00054d70       ??AMatrix34@Cm@physx@@QAEAAVPxVec3@2@H@Z 10055d70 f i GuContactPlaneConvex.obj
 0001:00054d90       ?contact@ContactBuffer@Gu@physx@@QAEPAUContactPoint@23@XZ 10055d90 f i GuContactPlaneConvex.obj
 0001:00054df0       ?getVertex2ShapeSkew@FastVertex2ShapeScaling@Cm@physx@@QBEABVPxMat33@3@XZ 10055df0 f i GuContactPlaneConvex.obj
 0001:00054e60       ?findRotationMatrixFromZ@Gu@physx@@YA?AVPxMat33@2@ABVPxVec3@2@@Z 10055e60 f   GuContactPolygonPolygon.obj
 0001:00055490       ?contactPolygonPolygonExt@Gu@physx@@YA_NIPBVPxVec3@2@PBEABVMatrix34@Cm@2@ABVPxPlane@2@ABVPxMat33@2@I01234ABV32@22IIAAVContactBuffer@12@_N5M@Z 10056490 f   GuContactPolygonPolygon.obj
 0001:00057420       ??4ContactPoint@Gu@physx@@QAEAAU012@ABU012@@Z 10058420 f i GuContactPolygonPolygon.obj
 0001:000574f0       ??APxMat33@physx@@QAEAAVPxVec3@1@I@Z 100584f0 f i GuContactPolygonPolygon.obj
 0001:00057510       ??RPxMat33@physx@@QAEAAMII@Z 10058510 f i GuContactPolygonPolygon.obj
 0001:00057540       ?EdgeEdgeContactSpecial@@YA_NABVPxVec3@physx@@ABVPxPlane@2@00000AAMAAV12@IIM@Z 10058540 f i GuContactPolygonPolygon.obj
 0001:000577c0       ?cross001@shdfnd@physx@@YA?AVPxVec3@2@ABV32@@Z 100587c0 f i GuContactPolygonPolygon.obj
 0001:00057810       ?degToRad@shdfnd@physx@@YAMM@Z 10058810 f i GuContactPolygonPolygon.obj
 0001:00057840       ?pointInTriangle2D@@YA_NMMMMMMMM@Z 10058840 f i GuContactPolygonPolygon.obj
 0001:000579f0       ?transform2D@@YAXAAM0ABVPxVec3@physx@@ABVMatrix34@Cm@2@@Z 100589f0 f i GuContactPolygonPolygon.obj
 0001:00057ab0       ?transform2DT@@YAXAAM0ABVPxVec3@physx@@ABVPxMat33@2@@Z 10058ab0 f i GuContactPolygonPolygon.obj
 0001:00057af0       ?transformTranspose@@YA?AVMatrix34@Cm@physx@@ABVPxMat33@3@ABV123@@Z 10058af0 f i GuContactPolygonPolygon.obj
 0001:00057b70       ?transformZ@@YAMABVPxVec3@physx@@ABVMatrix34@Cm@2@@Z 10058b70 f i GuContactPolygonPolygon.obj
 0001:00057be0       ?contactSphereBox@Gu@physx@@YA_NABVGeometryUnion@12@0ABVPxTransform@2@1ABUNarrowPhaseParams@12@AAUCache@12@AAVContactBuffer@12@PAVRenderOutput@Cm@2@@Z 10058be0 f   GuContactSphereBox.obj
 0001:00058280       ??$checkType@$$CBVPxSphereGeometry@physx@@@physx@@YAXABVGeometryUnion@Gu@0@@Z 10059280 f i GuContactSphereBox.obj
 0001:000582f0       ??$get@$$CBVPxSphereGeometry@physx@@@GeometryUnion@Gu@physx@@QBEABVPxSphereGeometry@2@XZ 100592f0 f i GuContactSphereBox.obj
 0001:00058360       ?contactSphereCapsule@Gu@physx@@YA_NABVGeometryUnion@12@0ABVPxTransform@2@1ABUNarrowPhaseParams@12@AAUCache@12@AAVContactBuffer@12@PAVRenderOutput@Cm@2@@Z 10059360 f   GuContactSphereCapsule.obj
 0001:00058600       ?distancePointSegmentSquared@Gu@physx@@YAMABVPxVec3@2@00PAM@Z 10059600 f i GuContactSphereCapsule.obj
 0001:00058640       ?distancePointSegmentSquared@Gu@physx@@YAMABVSegment@12@ABVPxVec3@2@PAM@Z 10059640 f i GuContactSphereCapsule.obj
 0001:00058670       ?distancePointSegmentSquaredInternal@Gu@physx@@YAMABVPxVec3@2@00PAM@Z 10059670 f i GuContactSphereCapsule.obj
 0001:000587b0       ?contactSphereMesh@Gu@physx@@YA_NABVGeometryUnion@12@0ABVPxTransform@2@1ABUNarrowPhaseParams@12@AAUCache@12@AAVContactBuffer@12@PAVRenderOutput@Cm@2@@Z 100597b0 f   GuContactSphereMesh.obj
 0001:000589c0       ?contactSphereHeightfield@Gu@physx@@YA_NABVGeometryUnion@12@0ABVPxTransform@2@1ABUNarrowPhaseParams@12@AAUCache@12@AAVContactBuffer@12@PAVRenderOutput@Cm@2@@Z 100599c0 f   GuContactSphereMesh.obj
 0001:00059460       ??$median3@USortKey@@$$CBU?$Less@USortKey@@@shdfnd@physx@@@internal@shdfnd@physx@@YAXPAUSortKey@@HHABU?$Less@USortKey@@@12@@Z 1005a460 f i GuContactSphereMesh.obj
 0001:00059590       ??$partition@USortKey@@$$CBU?$Less@USortKey@@@shdfnd@physx@@@internal@shdfnd@physx@@YAHPAUSortKey@@HHABU?$Less@USortKey@@@12@@Z 1005a590 f i GuContactSphereMesh.obj
 0001:00059750       ??$smallSort@USortKey@@$$CBU?$Less@USortKey@@@shdfnd@physx@@@internal@shdfnd@physx@@YAXPAUSortKey@@HHABU?$Less@USortKey@@@12@@Z 1005a750 f i GuContactSphereMesh.obj
 0001:00059ad0       ??$swap@USortKey@@@shdfnd@physx@@YAXAAUSortKey@@0@Z 1005aad0 f i GuContactSphereMesh.obj
 0001:00059b20       ??0?$ScopedPointer@HVTempAllocator@shdfnd@physx@@@shdfnd@physx@@QAE@XZ 1005ab20 f i GuContactSphereMesh.obj
 0001:00059dc0       ??0TempAllocator@shdfnd@physx@@QAE@PBD@Z 1005adc0 f i GuContactSphereMesh.obj
 0001:00059de0       ??0TriangleData@@QAE@XZ    1005ade0 f i GuContactSphereMesh.obj
 0001:00059e00       ??1?$ScopedPointer@HVTempAllocator@shdfnd@physx@@@shdfnd@physx@@QAE@XZ 1005ae00 f i GuContactSphereMesh.obj
 0001:00059ee0       ??B?$ScopedPointer@HVTempAllocator@shdfnd@physx@@@shdfnd@physx@@QBEPAHXZ 1005aee0 f i GuContactSphereMesh.obj
 0001:00059f00       ??MSortKey@@QBE_NABU0@@Z   1005af00 f i GuContactSphereMesh.obj
 0001:00059f40       ??R?$Less@USortKey@@@shdfnd@physx@@QBE_NABUSortKey@@0@Z 1005af40 f i GuContactSphereMesh.obj
 0001:0005ae90       ?transformInv@PxTransform@physx@@QBE?AVPxVec3@2@ABV32@@Z 1005be90 f i GuContactSphereMesh.obj
 0001:0005af20       ?contactSpherePlane@Gu@physx@@YA_NABVGeometryUnion@12@0ABVPxTransform@2@1ABUNarrowPhaseParams@12@AAUCache@12@AAVContactBuffer@12@PAVRenderOutput@Cm@2@@Z 1005bf20 f   GuContactSpherePlane.obj
 0001:0005b020       ?contactSphereSphere@Gu@physx@@YA_NABVGeometryUnion@12@0ABVPxTransform@2@1ABUNarrowPhaseParams@12@AAUCache@12@AAVContactBuffer@12@PAVRenderOutput@Cm@2@@Z 1005c020 f   GuContactSphereSphere.obj
 0001:0005b1f0       ?selectNormal@Gu@physx@@YA_NEMM@Z 1005c1f0 f   GuFeatureCode.obj
 0001:0005b3f0       ?legacyContactBoxHeightfield@Gu@physx@@YA_NABVGeometryUnion@12@0ABVPxTransform@2@1ABUNarrowPhaseParams@12@AAUCache@12@AAVContactBuffer@12@PAVRenderOutput@Cm@2@@Z 1005c3f0 f   GuLegacyContactBoxHeightField.obj
 0001:0005c960       ??$PxMax@M@physx@@YAMMM@Z  1005d960 f i GuLegacyContactBoxHeightField.obj
 0001:0005c990       ??$PxMin@H@physx@@YAHHH@Z  1005d990 f i GuLegacyContactBoxHeightField.obj
 0001:0005c9c0       ??$PxMin@M@physx@@YAMMM@Z  1005d9c0 f i GuLegacyContactBoxHeightField.obj
 0001:0005c9f0       ??$swap@I@shdfnd@physx@@YAXAAI0@Z 1005d9f0 f i GuLegacyContactBoxHeightField.obj
 0001:0005ca20       ??$swap@PBVPxVec3@physx@@@shdfnd@physx@@YAXAAPBVPxVec3@1@0@Z 1005da20 f i GuLegacyContactBoxHeightField.obj
 0001:0005ca50       ??$traceSegment@UGuContactTraceSegmentCallback@Gu@physx@@$00$0A@@HeightFieldTraceUtil@Gu@physx@@QBEXABVPxVec3@2@0MPAUGuContactTraceSegmentCallback@12@ABVPxBounds3@2@_NPBV32@@Z 1005da50 f i GuLegacyContactBoxHeightField.obj
 0001:0005ed10       ??0?$OverlapTraceSegment@UGuContactTraceSegmentCallback@Gu@physx@@@HeightFieldTraceUtil@Gu@physx@@QAE@ABVHeightFieldUtil@23@ABVHeightField@23@@Z 1005fd10 f i GuLegacyContactBoxHeightField.obj
 0001:0005ed60       ??0GuContactHeightfieldTraceSegmentHelper@Gu@physx@@QAE@ABVHeightFieldTraceUtil@12@@Z 1005fd60 f i GuLegacyContactBoxHeightField.obj
 0001:0005edb0       ??0GuContactTraceSegmentCallback@Gu@physx@@QAE@ABVPxVec3@2@AAVContactBuffer@12@VMatrix34@Cm@2@M@Z 1005fdb0 f i GuLegacyContactBoxHeightField.obj
 0001:0005ee10       ?PxSign@physx@@YAMM@Z      1005fe10 f i GuLegacyContactBoxHeightField.obj
 0001:0005ee30       ?addIndex@?$OverlapTraceSegment@UGuContactTraceSegmentCallback@Gu@physx@@@HeightFieldTraceUtil@Gu@physx@@QAE_NI@Z 1005fe30 f i GuLegacyContactBoxHeightField.obj
 0001:0005eea0       ?ceil@shdfnd@physx@@YAMM@Z 1005fea0 f i GuLegacyContactBoxHeightField.obj
 0001:0005eec0       ?computeRectangleDifference@?$OverlapTraceSegment@UGuContactTraceSegmentCallback@Gu@physx@@@HeightFieldTraceUtil@Gu@physx@@QAEXABUOverlapRectangle@1234@0AAUOverlapLine@1234@@Z 1005fec0 f i GuLegacyContactBoxHeightField.obj
 0001:0005efb0       ?faceHit@GuContactTraceSegmentCallback@Gu@physx@@QAE_NABVHeightFieldUtil@23@ABVPxVec3@3@IMM@Z 1005ffb0 f i GuLegacyContactBoxHeightField.obj
 0001:0005efd0       ?floatFloor@shdfnd@physx@@YAMM@Z 1005ffd0 f i GuLegacyContactBoxHeightField.obj
 0001:0005eff0       ?floor@shdfnd@physx@@YAMM@Z 1005fff0 f i GuLegacyContactBoxHeightField.obj
 0001:0005f010       ?getMax@HeightField@Gu@physx@@QBEIMI@Z 10060010 f i GuLegacyContactBoxHeightField.obj
 0001:0005f0b0       ?getMaxColumn@HeightField@Gu@physx@@QBEIM@Z 100600b0 f i GuLegacyContactBoxHeightField.obj
 0001:0005f0f0       ?getMaxRow@HeightField@Gu@physx@@QBEIM@Z 100600f0 f i GuLegacyContactBoxHeightField.obj
 0001:0005f130       ?getMin@HeightField@Gu@physx@@QBEIMI@Z 10060130 f i GuLegacyContactBoxHeightField.obj
 0001:0005f1d0       ?getMinColumn@HeightField@Gu@physx@@QBEIM@Z 100601d0 f i GuLegacyContactBoxHeightField.obj
 0001:0005f210       ?getMinRow@HeightField@Gu@physx@@QBEIM@Z 10060210 f i GuLegacyContactBoxHeightField.obj
 0001:0005f250       ?getThicknessFast@HeightField@Gu@physx@@QBEMXZ 10060250 f i GuLegacyContactBoxHeightField.obj
 0001:0005f270       ?init@?$OverlapTraceSegment@UGuContactTraceSegmentCallback@Gu@physx@@@HeightFieldTraceUtil@Gu@physx@@QAE_NHHHHHPAUGuContactTraceSegmentCallback@34@@Z 10060270 f i GuLegacyContactBoxHeightField.obj
 0001:0005f390       ?initialized@?$OverlapTraceSegment@UGuContactTraceSegmentCallback@Gu@physx@@@HeightFieldTraceUtil@Gu@physx@@QBE_NXZ 10060390 f i GuLegacyContactBoxHeightField.obj
 0001:0005f3b0       ?invalidate@OverlapRectangle@?$OverlapTraceSegment@UGuContactTraceSegmentCallback@Gu@physx@@@HeightFieldTraceUtil@Gu@physx@@QAEXXZ 100603b0 f i GuLegacyContactBoxHeightField.obj
 0001:0005f3f0       ?isDeltaHeightInsideExtent@HeightField@Gu@physx@@QBE_NMM@Z 100603f0 f i GuLegacyContactBoxHeightField.obj
 0001:0005f490       ?onEvent@GuContactTraceSegmentCallback@Gu@physx@@QAE_NIPAI@Z 10060490 f i GuLegacyContactBoxHeightField.obj
 0001:0005f4b0       ?prepare@?$OverlapTraceSegment@UGuContactTraceSegmentCallback@Gu@physx@@@HeightFieldTraceUtil@Gu@physx@@QAEXABVPxVec3@4@00AAM1@Z 100604b0 f i GuLegacyContactBoxHeightField.obj
 0001:0005f840       ?reportOverlaps@?$OverlapTraceSegment@UGuContactTraceSegmentCallback@Gu@physx@@@HeightFieldTraceUtil@Gu@physx@@QAE_NXZ 10060840 f i GuLegacyContactBoxHeightField.obj
 0001:0005f8a0       ?sign@intrinsics@physx@@YAMM@Z 100608a0 f i GuLegacyContactBoxHeightField.obj
 0001:0005f8f0       ?step@?$OverlapTraceSegment@UGuContactTraceSegmentCallback@Gu@physx@@@HeightFieldTraceUtil@Gu@physx@@QAE_NHH@Z 100608f0 f i GuLegacyContactBoxHeightField.obj
 0001:0005f9d0       ?testVertexIndex@?$OverlapTraceSegment@UGuContactTraceSegmentCallback@Gu@physx@@@HeightFieldTraceUtil@Gu@physx@@QAE_NI@Z 100609d0 f i GuLegacyContactBoxHeightField.obj
 0001:0005fb70       ?traceSegment@GuContactHeightfieldTraceSegmentHelper@Gu@physx@@QBEXABVPxVec3@3@0PAUGuContactTraceSegmentCallback@23@@Z 10060b70 f i GuLegacyContactBoxHeightField.obj
 0001:0005fbd0       ?transformTranspose@Matrix34@Cm@physx@@QBE?AVPxVec3@3@ABV43@@Z 10060bd0 f i GuLegacyContactBoxHeightField.obj
 0001:0005fc10       ?underFaceHit@GuContactTraceSegmentCallback@Gu@physx@@QAE_NABVHeightFieldUtil@23@ABVPxVec3@3@1MMMI@Z 10060c10 f i GuLegacyContactBoxHeightField.obj
 0001:0005fe60       ?visitCells@?$OverlapTraceSegment@UGuContactTraceSegmentCallback@Gu@physx@@@HeightFieldTraceUtil@Gu@physx@@QAE_NABUOverlapLine@1234@@Z 10060e60 f i GuLegacyContactBoxHeightField.obj
 0001:00060030       ?visitCells@?$OverlapTraceSegment@UGuContactTraceSegmentCallback@Gu@physx@@@HeightFieldTraceUtil@Gu@physx@@QAE_NABUOverlapRectangle@1234@@Z 10061030 f i GuLegacyContactBoxHeightField.obj
 0001:00060180       ?legacyContactCapsuleHeightfield@Gu@physx@@YA_NABVGeometryUnion@12@0ABVPxTransform@2@1ABUNarrowPhaseParams@12@AAUCache@12@AAVContactBuffer@12@PAVRenderOutput@Cm@2@@Z 10061180 f   GuLegacyContactCapsuleHeightField.obj
 0001:000615d0       ??0PxSphereGeometry@physx@@QAE@M@Z 100625d0 f i GuLegacyContactCapsuleHeightField.obj
 0001:00061600       ??0PxTransform@physx@@QAE@ABVPxVec3@1@@Z 10062600 f i GuLegacyContactCapsuleHeightField.obj
 0001:00061640       ??B?$PxFlags@W4Enum@PxMeshGeometryFlag@physx@@E@physx@@QBEIXZ 10062640 f i GuLegacyContactCapsuleHeightField.obj
 0001:00061660       ?getEdgeTriangleIndices@HeightField@Gu@physx@@QBEIIQAI@Z 10062660 f i GuLegacyContactCapsuleHeightField.obj
 0001:00061860       ?getTriangleVertices@HeightField@Gu@physx@@QBEXIIIAAVPxVec3@3@00@Z 10062860 f i GuLegacyContactCapsuleHeightField.obj
 0001:00062150       ?isDeltaHeightOppositeExtent@HeightField@Gu@physx@@QBE_NM@Z 10063150 f i GuLegacyContactCapsuleHeightField.obj
 0001:00062250       ?legacyContactConvexHeightfield@Gu@physx@@YA_NABVGeometryUnion@12@0ABVPxTransform@2@1ABUNarrowPhaseParams@12@AAUCache@12@AAVContactBuffer@12@PAVRenderOutput@Cm@2@@Z 10063250 f   GuLegacyContactConvexHeightField.obj
 0001:00063860       ??0EdgeCache@Gu@physx@@QAE@XZ 10064860 f i GuLegacyContactConvexHeightField.obj
 0001:00063890       ?hash@EdgeCache@Gu@physx@@QBEII@Z 10064890 f i GuLegacyContactConvexHeightField.obj
 0001:000638c0       ?isInCache@EdgeCache@Gu@physx@@QAE_NEE@Z 100648c0 f i GuLegacyContactConvexHeightField.obj
 0001:00063980       ?legacyContactSphereHeightfield@Gu@physx@@YA_NABVGeometryUnion@12@0ABVPxTransform@2@1ABUNarrowPhaseParams@12@AAUCache@12@AAVContactBuffer@12@PAVRenderOutput@Cm@2@@Z 10064980 f   GuLegacyContactSphereHeightField.obj
 0001:000639b0       ?GuContactSphereHeightFieldShared@@YA_NABVGeometryUnion@Gu@physx@@0ABVPxTransform@3@1ABUNarrowPhaseParams@23@AAUCache@23@AAVContactBuffer@23@PAVRenderOutput@Cm@3@_N@Z 100649b0 f   GuLegacyContactSphereHeightField.obj
 0001:00064a70       ?contact@ContactBuffer@Gu@physx@@QAE_NABVPxVec3@3@0MGI@Z 10065a70 f i GuLegacyContactSphereHeightField.obj
 0001:00064ba0       ?getBasisVector1@PxQuat@physx@@QBE?AVPxVec3@2@XZ 10065ba0 f i GuLegacyContactSphereHeightField.obj
 0001:00064c90       ?barycentricCoordinates@Gu@physx@@YAXABT__m128@@00AAT3@@Z 10065c90 f   GuBarycentricCoordinates.obj
 0001:00064df0       ?barycentricCoordinates@Gu@physx@@YAXABT__m128@@000AAT3@1@Z 10065df0 f   GuBarycentricCoordinates.obj
 0001:00065140       ?barycentricCoordinates@Gu@physx@@YAXABT__m128@@00AAT3@1@Z 10066140 f   GuBarycentricCoordinates.obj
 0001:000654e0       ?FIsEq@aos@shdfnd@physx@@YA?AT__m128@@T4@0@Z 100664e0 f i GuBarycentricCoordinates.obj
 0001:000655e0       ?addAxis@SeparatingAxes@Gu@physx@@QAE_NABVPxVec3@3@@Z 100665e0 f   GuSeparatingAxes.obj
 0001:000656c0       ??0BigConvexData@physx@@QAE@XZ 100666c0 f   GuBigConvexData.obj
 0001:00065720       ??1BigConvexData@physx@@QAE@XZ 10066720 f   GuBigConvexData.obj
 0001:000657a0       ?Load@BigConvexData@physx@@QAE_NAAVPxInputStream@2@@Z 100667a0 f   GuBigConvexData.obj
 0001:000658b0       ?ComputeOffset@BigConvexData@physx@@QBEIABVPxVec3@2@@Z 100668b0 f   GuBigConvexData.obj
 0001:000658d0       ?ComputeNearestOffset@BigConvexData@physx@@QBEIABVPxVec3@2@@Z 100668d0 f   GuBigConvexData.obj
 0001:000658f0       ?exportExtraData@BigConvexData@physx@@QAEXAAVPxSerializationContext@2@@Z 100668f0 f   GuBigConvexData.obj
 0001:00065990       ?importExtraData@BigConvexData@physx@@QAEXAAVPxDeserializationContext@2@@Z 10066990 f   GuBigConvexData.obj
 0001:00065a10       ?CreateOffsets@BigConvexData@physx@@IAEXXZ 10066a10 f   GuBigConvexData.obj
 0001:00065a80       ?VLoad@BigConvexData@physx@@IAE_NAAVPxInputStream@2@@Z 10066a80 f   GuBigConvexData.obj
 0001:00065e10       ??$readExtraData@E$0BA@@PxDeserializationContext@physx@@QAEPAEI@Z 10066e10 f i GuBigConvexData.obj
 0001:00065e40       ??$readExtraData@E@PxDeserializationContext@physx@@QAEPAEI@Z 10066e40 f i GuBigConvexData.obj
 0001:00065e80       ??$readExtraData@UValency@Gu@physx@@@PxDeserializationContext@physx@@QAEPAUValency@Gu@1@I@Z 10066e80 f i GuBigConvexData.obj
 0001:00065ec0       ??0BigConvexData@physx@@QAE@W4PxEMPTY@1@@Z 10066ec0 f i GuBigConvexData.obj
 0001:00065ee0       ??4BigConvexData@physx@@QAEAAV01@ABV01@@Z 10066ee0 f i GuBigConvexData.obj
 0001:00065f10       ?ComputeCubemapOffset@physx@@YAIABVPxVec3@1@I@Z 10066f10 f i GuBigConvexData.obj
 0001:00066010       ?GetAdjacentVerts@BigConvexData@physx@@QBEPBEXZ 10067010 f i GuBigConvexData.obj
 0001:00066030       ?GetNbNeighbors@BigConvexData@physx@@QBEGI@Z 10067030 f i GuBigConvexData.obj
 0001:00066050       ?GetNbSamples@BigConvexData@physx@@QBEIXZ 10067050 f i GuBigConvexData.obj
 0001:00066070       ?GetNbVerts@BigConvexData@physx@@QBEIXZ 10067070 f i GuBigConvexData.obj
 0001:00066090       ?GetNeighbors@BigConvexData@physx@@QBEPBEI@Z 10067090 f i GuBigConvexData.obj
 0001:000660c0       ?GetOffset@BigConvexData@physx@@QBEGI@Z 100670c0 f i GuBigConvexData.obj
 0001:000660f0       ?GetSubdiv@BigConvexData@physx@@QBEIXZ 100670f0 f i GuBigConvexData.obj
 0001:00066110       ?GetValencies@BigConvexData@physx@@QBEPBUValency@Gu@2@XZ 10067110 f i GuBigConvexData.obj
 0001:00066130       ?GetValency@BigConvexData@physx@@QBEGI@Z 10067130 f i GuBigConvexData.obj
 0001:00066150       ?__global_array_delete@@YAXPAX@Z 10067150 f i GuBigConvexData.obj
 0001:00066170       ?__global_array_delete@@YAXPAXI@Z 10067170 f i GuBigConvexData.obj
 0001:00066190       ?__global_delete@@YAXPAX@Z 10067190 f i GuBigConvexData.obj
 0001:000661b0       ?__global_delete@@YAXPAXI@Z 100671b0 f i GuBigConvexData.obj
 0001:000661d0       ?to16@shdfnd@physx@@YAGI@Z 100671d0 f i GuBigConvexData.obj
 0001:00066230       ?getScaledConvex@Gu@physx@@YAXAAPAVPxVec3@2@AAPAEPAV32@PAE_NPBV32@PBEIABVFastVertex2ShapeScaling@Cm@2@@Z 10067230 f   GuConvexHelper.obj
 0001:000662d0       ?getConvexData@Gu@physx@@YA_NABVGeometryUnion@12@AAVFastVertex2ShapeScaling@Cm@2@AAVPxBounds3@2@AAUPolygonalData@12@@Z 100672d0 f   GuConvexHelper.obj
 0001:000663a0       ?findUniqueConvexEdges@Gu@physx@@YAIIPIAUConvexEdge@12@IPIBUHullPolygonData@12@PIBE@Z 100673a0 f   GuConvexHelper.obj
 0001:00066620       ??$PX_UNUSED@VPxVec3@physx@@@@YAXABVPxVec3@physx@@@Z 10067620 f i GuConvexHelper.obj
 0001:00066630       ?isEmpty@CenterExtents@Gu@physx@@QBE_NXZ 10067630 f i GuConvexHelper.obj
 0001:00066660       ?isEmpty@Cm@physx@@YA_NABVPxVec3@2@0@Z 10067660 f i GuConvexHelper.obj
 0001:00066700       ?isValid@CenterExtents@Gu@physx@@QBE_NXZ 10067700 f i GuConvexHelper.obj
 0001:00066730       ?isValid@Cm@physx@@YA_NABVPxVec3@2@0@Z 10067730 f i GuConvexHelper.obj
 0001:00066810       ?reset@InternalObjectsData@Gu@physx@@QAEXXZ 10067810 f i GuConvexHelper.obj
 0001:00066880       ?transformFast@CenterExtents@Gu@physx@@QBE?AVPxBounds3@3@ABVPxMat33@3@@Z 10067880 f i GuConvexHelper.obj
 0001:000669b0       ?exportExtraData@ConvexMesh@Gu@physx@@UAEXAAVPxSerializationContext@3@@Z 100679b0 f   GuConvexMesh.obj
 0001:00066a40       ?importExtraData@ConvexMesh@Gu@physx@@QAEXAAVPxDeserializationContext@3@@Z 10067a40 f   GuConvexMesh.obj
 0001:00066ae0       ?onRefCountZero@ConvexMesh@Gu@physx@@UAEXXZ 10067ae0 f   GuConvexMesh.obj
 0001:00066b60       ?createObject@ConvexMesh@Gu@physx@@SAPAV123@AAPAEAAVPxDeserializationContext@3@@Z 10067b60 f   GuConvexMesh.obj
 0001:00066be0       ??0ConvexMesh@Gu@physx@@QAE@XZ 10067be0 f   GuConvexMesh.obj
 0001:00066c80       ??0ConvexMesh@Gu@physx@@QAE@AAVGuMeshFactory@2@AAUConvexHullData@12@@Z 10067c80 f   GuConvexMesh.obj
 0001:00066d30       ?load@ConvexMesh@Gu@physx@@QAE_NAAVPxInputStream@3@@Z 10067d30 f   GuConvexMesh.obj
 0001:000671f0       ?release@ConvexMesh@Gu@physx@@UAEXXZ 100681f0 f   GuConvexMesh.obj
 0001:00067210       ?getPolygonData@ConvexMesh@Gu@physx@@UBE_NIAAUPxHullPolygon@3@@Z 10068210 f   GuConvexMesh.obj
 0001:000672b0       ?isGpuCompatible@ConvexMesh@Gu@physx@@UBE_NXZ 100682b0 f   GuConvexMesh.obj
 0001:00067310       ?getReferenceCount@ConvexMesh@Gu@physx@@UBEIXZ 10068310 f   GuConvexMesh.obj
 0001:00067330       ?acquireReference@ConvexMesh@Gu@physx@@UAEXXZ 10068330 f   GuConvexMesh.obj
 0001:00067350       ?getMassInformation@ConvexMesh@Gu@physx@@UBEXAAMAAVPxMat33@3@AAVPxVec3@3@@Z 10068350 f   GuConvexMesh.obj
 0001:00067390       ?getLocalBounds@ConvexMesh@Gu@physx@@UBE?AVPxBounds3@3@XZ 10068390 f   GuConvexMesh.obj
 0001:00067410       ??1ConvexMesh@Gu@physx@@UAE@XZ 10068410 f   GuConvexMesh.obj
 0001:00067fc0       ??$PX_UNUSED@G@@YAXABG@Z   10068fc0 f i GuConvexMesh.obj
 0001:00067fd0       ??$deletePxBase@VConvexMesh@Gu@physx@@@Cm@physx@@YAXPAVConvexMesh@Gu@1@@Z 10068fd0 f i GuConvexMesh.obj
 0001:00068060       ??$readExtraData@VBigConvexData@physx@@$0BA@@PxDeserializationContext@physx@@QAEPAVBigConvexData@1@I@Z 10069060 f i GuConvexMesh.obj
 0001:00068090       ??$readExtraData@VBigConvexData@physx@@@PxDeserializationContext@physx@@QAEPAVBigConvexData@1@I@Z 10069090 f i GuConvexMesh.obj
 0001:000680d0       ??0?$PxBitAndDataT@G$0IAAA@@physx@@QAE@G_N@Z 100690d0 f i GuConvexMesh.obj
 0001:00068120       ??0?$PxBitAndDataT@G$0IAAA@@physx@@QAE@XZ 10069120 f i GuConvexMesh.obj
 0001:00068140       ??0?$PxBitAndDataT@I$0IAAAAAAA@@physx@@QAE@I_N@Z 10069140 f i GuConvexMesh.obj
 0001:00068190       ??0?$PxFlags@W4Enum@PxBaseFlag@physx@@G@physx@@QAE@W4Enum@PxBaseFlag@1@@Z 10069190 f i GuConvexMesh.obj
 0001:000681b0       ??0?$ReflectionAllocator@VBigConvexData@physx@@@shdfnd@physx@@QAE@PBD@Z 100691b0 f i GuConvexMesh.obj
 0001:000681d0       ??0CenterExtents@Gu@physx@@QAE@ABVPxBounds3@2@@Z 100691d0 f i GuConvexMesh.obj
 0001:00068240       ??0ConvexHullData@Gu@physx@@QAE@XZ 10069240 f i GuConvexMesh.obj
 0001:00068280       ??0PxBase@physx@@IAE@GV?$PxFlags@W4Enum@PxBaseFlag@physx@@G@1@@Z 10069280 f i GuConvexMesh.obj
 0001:000682c0       ??0PxConvexMesh@physx@@IAE@GV?$PxFlags@W4Enum@PxBaseFlag@physx@@G@1@@Z 100692c0 f i GuConvexMesh.obj
 0001:00068300       ??0RefCountable@Cm@physx@@QAE@I@Z 10069300 f i GuConvexMesh.obj
 0001:00068380       ??1ConvexHullData@Gu@physx@@QAE@XZ 10069380 f i GuConvexMesh.obj
 0001:000683a0       ??2UserAllocated@shdfnd@physx@@SAPAXIPAX@Z 100693a0 f i GuConvexMesh.obj
 0001:000683b0       ??4ConvexHullData@Gu@physx@@QAEAAU012@ABU012@@Z 100693b0 f i GuConvexMesh.obj
 0001:00068470       ??B?$PxBitAndDataT@I$0IAAAAAAA@@physx@@QBEIXZ 10069470 f i GuConvexMesh.obj
 0001:00068490       ??Uphysx@@YA?AV?$PxFlags@W4Enum@PxBaseFlag@physx@@G@0@W4Enum@PxBaseFlag@0@0@Z 10069490 f i GuConvexMesh.obj
 0001:000684d0       ??_5?$PxFlags@W4Enum@PxBaseFlag@physx@@G@physx@@QAEAAV01@W4Enum@PxBaseFlag@1@@Z 100694d0 f i GuConvexMesh.obj
 0001:00068500       ??_GBigConvexData@physx@@QAEPAXI@Z 10069500 f i GuConvexMesh.obj
 0001:00068560       ?ReadDwordBuffer@physx@@YA_NPAII_NAAVPxInputStream@1@@Z 10069560 f i GuConvexMesh.obj
 0001:00068590       ?allocate@?$ReflectionAllocator@VBigConvexData@physx@@@shdfnd@physx@@QAEPAXIPBDH@Z 10069590 f i GuConvexMesh.obj
 0001:000685f0       ?centerExtents@PxBounds3@physx@@SA?AV12@ABVPxVec3@2@0@Z 100695f0 f i GuConvexMesh.obj
 0001:00068640       ?computeBufferSize@Gu@physx@@YAIABUConvexHullData@12@I@Z 10069640 f i GuConvexMesh.obj
 0001:00068730       ?decRefCount@RefCountable@Cm@physx@@QAEXXZ 10069730 f i GuConvexMesh.obj
 0001:000687b0       ?flip@physx@@YAXAAG@Z      100697b0 f i GuConvexMesh.obj
 0001:00068820       ?flip@physx@@YAXAAM@Z      10069820 f i GuConvexMesh.obj
 0001:000688d0       ?flipData@Gu@physx@@YAXAAUHullPolygonData@12@@Z 100698d0 f i GuConvexMesh.obj
 0001:00068930       ?getBaseFlags@PxBase@physx@@QBE?AV?$PxFlags@W4Enum@PxBaseFlag@physx@@G@2@XZ 10069930 f i GuConvexMesh.obj
 0001:00068960       ?getBufferSize@ConvexMesh@Gu@physx@@QBEIXZ 10069960 f i GuConvexMesh.obj
 0001:00068990       ?getHull@ConvexMesh@Gu@physx@@QBEABUConvexHullData@23@XZ 10069990 f i GuConvexMesh.obj
 0001:000689b0       ?getInertia@ConvexMesh@Gu@physx@@QBEABVPxMat33@3@XZ 100699b0 f i GuConvexMesh.obj
 0001:000689d0       ?getMass@ConvexMesh@Gu@physx@@QBEMXZ 100699d0 f i GuConvexMesh.obj
 0001:000689f0       ?getName@?$ReflectionAllocator@VBigConvexData@physx@@@shdfnd@physx@@CAPBDXZ 100699f0 f i GuConvexMesh.obj
 0001:00068a40       ?getNb@ConvexMesh@Gu@physx@@ABEIXZ 10069a40 f i GuConvexMesh.obj
 0001:00068a60       ?getRefCount@RefCountable@Cm@physx@@QBEIXZ 10069a60 f i GuConvexMesh.obj
 0001:00068a80       ?incRefCount@RefCountable@Cm@physx@@QAEXXZ 10069a80 f i GuConvexMesh.obj
 0001:00068af0       ?markSerializedMem@Cm@physx@@YAXPAXI@Z 10069af0 f i GuConvexMesh.obj
 0001:00068b30       ?notifyReleaseConvexMesh@GuMeshFactory@physx@@MAEXABVPxConvexMesh@2@@Z 10069b30 f i GuConvexMesh.obj
 0001:00068b40       ?notifyReleaseHeightField@GuMeshFactory@physx@@MAEXABVPxHeightField@2@@Z 10069b40 f i GuConvexMesh.obj
 0001:00068b50       ?notifyReleaseTriangleMesh@GuMeshFactory@physx@@MAEXABVPxTriangleMesh@2@@Z 10069b50 f i GuConvexMesh.obj
 0001:00068b60       ?resolveReferences@ConvexMesh@Gu@physx@@QAEXAAVPxDeserializationContext@3@@Z 10069b60 f i GuConvexMesh.obj
 0001:00068b70       ?setEmpty@CenterExtents@Gu@physx@@QAEXXZ 10069b70 f i GuConvexMesh.obj
 0001:00068bb0       ?BFFTF@aos@shdfnd@physx@@YA?AT__m128@@XZ 10069bb0 f i GuConvexSupportTable.obj
 0001:00068c00       ?BFTFF@aos@shdfnd@physx@@YA?AT__m128@@XZ 10069c00 f i GuConvexSupportTable.obj
 0001:00068c50       ?BFTTF@aos@shdfnd@physx@@YA?AT__m128@@XZ 10069c50 f i GuConvexSupportTable.obj
 0001:00068ca0       ?BTFFF@aos@shdfnd@physx@@YA?AT__m128@@XZ 10069ca0 f i GuConvexSupportTable.obj
 0001:00068cf0       ?BTFTF@aos@shdfnd@physx@@YA?AT__m128@@XZ 10069cf0 f i GuConvexSupportTable.obj
 0001:00068d40       ?BTTFF@aos@shdfnd@physx@@YA?AT__m128@@XZ 10069d40 f i GuConvexSupportTable.obj
 0001:00068d90       ?computeHullOBB@Gu@physx@@YAXAAVBox@12@ABVPxBounds3@2@MABVMatrix34@Cm@2@2ABVFastVertex2ShapeScaling@62@_N@Z 10069d90 f   GuConvexUtilsInternal.obj
 0001:00068e40       ?computeVertexSpaceOBB@Gu@physx@@YAXAAVBox@12@ABV312@ABVPxTransform@2@ABVPxMeshScale@2@@Z 10069e40 f   GuConvexUtilsInternal.obj
 0001:00068eb0       ?computeOBBAroundConvex@Gu@physx@@YAXAAVBox@12@ABVPxConvexMeshGeometry@2@PBVPxConvexMesh@2@ABVPxTransform@2@@Z 10069eb0 f   GuConvexUtilsInternal.obj
 0001:000690f0       ??DMatrix34@Cm@physx@@QBE?AV012@ABVPxMat33@2@@Z 1006a0f0 f i GuConvexUtilsInternal.obj
 0001:00069130       ??Dphysx@@YA?AVMatrix34@Cm@0@ABVPxMeshScale@0@ABV120@@Z 1006a130 f i GuConvexUtilsInternal.obj
 0001:00069190       ?getLocalBoundsFast@ConvexMesh@Gu@physx@@QBEABVCenterExtents@23@XZ 1006a190 f i GuConvexUtilsInternal.obj
 0001:000691b0       ?transform@physx@@YA?AVBox@Gu@1@ABVMatrix34@Cm@1@ABV231@@Z 1006a1b0 f i GuConvexUtilsInternal.obj
 0001:00069300       ?transformTranspose@Matrix34@Cm@physx@@QBE?AV123@ABV123@@Z 1006a300 f i GuConvexUtilsInternal.obj
 0001:000693a0       ?localSearch@physx@@YAXAAIABVPxVec3@1@PBV21@PBUBigConvexRawData@Gu@1@@Z 1006a3a0 f   GuHillClimbing.obj
 0001:000696f0       ??0PolygonalBox@Gu@physx@@QAE@ABVPxVec3@2@@Z 1006a6f0 f   GuShapeConvex.obj
 0001:00069ee0       ?getPolygonalData@PolygonalBox@Gu@physx@@QBEXPIAUPolygonalData@23@@Z 1006aee0 f   GuShapeConvex.obj
 0001:00069fd0       ?getPolygonalData_Convex@Gu@physx@@YAXPIAUPolygonalData@12@PIBUConvexHullData@12@ABVFastVertex2ShapeScaling@Cm@2@@Z 1006afd0 f   GuShapeConvex.obj
 0001:0006afe0       ??$PX_UNUSED@VFastVertex2ShapeScaling@Cm@physx@@@@YAXABVFastVertex2ShapeScaling@Cm@physx@@@Z 1006bfe0 f i GuShapeConvex.obj
 0001:0006aff0       ??0HullPolygonData@Gu@physx@@QAE@XZ 1006bff0 f i GuShapeConvex.obj
 0001:0006b010       ?getFacesByEdges8@ConvexHullData@Gu@physx@@QBEPBEXZ 1006c010 f i GuShapeConvex.obj
 0001:0006b060       ?getSamples2@BigConvexRawData@Gu@physx@@QBEPBEXZ 1006c060 f i GuShapeConvex.obj
 0001:0006b080       ?distancePointBoxSquared@Gu@physx@@YAMABVPxVec3@2@00ABVPxMat33@2@PAV32@@Z 1006c080 f   GuDistancePointBox.obj
 0001:0006b2f0       ?closestPtPointTriangle@Gu@physx@@YA?AVPxVec3@2@ABV32@000AAM1@Z 1006c2f0 f   GuDistancePointTriangle.obj
 0001:0006b740       ?distancePointTriangleSquared@Gu@physx@@YA?AT__m128@@ABT3@000AAT3@11@Z 1006c740 f   GuDistancePointTriangle.obj
 0001:0006c860       ?distanceSegmentBoxSquared@Gu@physx@@YAMABVPxVec3@2@000ABVPxMat33@2@PAMPAV32@@Z 1006d860 f   GuDistanceSegmentBox.obj
 0001:0006fc80       ?distanceSegmentSegmentSquared@Gu@physx@@YAMABVPxVec3@2@0M00MPAM1@Z 10070c80 f   GuDistanceSegmentSegment.obj
 0001:00070cd0       ?distanceSegmentSegmentSquared@Gu@physx@@YAMABVPxVec3@2@000PAM1@Z 10071cd0 f   GuDistanceSegmentSegment.obj
 0001:00070ee0       ?distanceSegmentSegmentSquared@Gu@physx@@YA?AT__m128@@ABT3@000AAT3@1@Z 10071ee0 f   GuDistanceSegmentSegment.obj
 0001:000713f0       ?distanceSegmentSegmentSquared4@Gu@physx@@YA?AT__m128@@ABT3@000000000AAT3@1@Z 100723f0 f   GuDistanceSegmentSegment.obj
 0001:000728f0       ?FHalf@aos@shdfnd@physx@@YA?AT__m128@@XZ 100738f0 f i GuDistanceSegmentSegment.obj
 0001:00072940       ?FScaleAdd@aos@shdfnd@physx@@YA?AT__m128@@T4@00@Z 10073940 f i GuDistanceSegmentSegment.obj
 0001:00072ab0       ?V3Dot4@aos@shdfnd@physx@@YA?AT__m128@@ABT4@0000000@Z 10073ab0 f i GuDistanceSegmentSegment.obj
 0001:00072d50       ?V4Clamp@aos@shdfnd@physx@@YA?AT__m128@@T4@00@Z 10073d50 f i GuDistanceSegmentSegment.obj
 0001:00072dc0       ?V4Div@aos@shdfnd@physx@@YA?AT__m128@@T4@0@Z 10073dc0 f i GuDistanceSegmentSegment.obj
 0001:00072e10       ?V4Eps@aos@shdfnd@physx@@YA?AT__m128@@XZ 10073e10 f i GuDistanceSegmentSegment.obj
 0001:00072e60       ?V4IsGrtr@aos@shdfnd@physx@@YA?AT__m128@@T4@0@Z 10073e60 f i GuDistanceSegmentSegment.obj
 0001:00072eb0       ?V4IsGrtrOrEq@aos@shdfnd@physx@@YA?AT__m128@@T4@0@Z 10073eb0 f i GuDistanceSegmentSegment.obj
 0001:00072f00       ?V4Max@aos@shdfnd@physx@@YA?AT__m128@@T4@0@Z 10073f00 f i GuDistanceSegmentSegment.obj
 0001:00072f50       ?V4Min@aos@shdfnd@physx@@YA?AT__m128@@T4@0@Z 10073f50 f i GuDistanceSegmentSegment.obj
 0001:00072fa0       ?V4One@aos@shdfnd@physx@@YA?AT__m128@@XZ 10073fa0 f i GuDistanceSegmentSegment.obj
 0001:00072ff0       ?V4Recip@aos@shdfnd@physx@@YA?AT__m128@@T4@@Z 10073ff0 f i GuDistanceSegmentSegment.obj
 0001:00073040       ?V4Splat@aos@shdfnd@physx@@YA?AT__m128@@T4@@Z 10074040 f i GuDistanceSegmentSegment.obj
 0001:000730d0       ?V4Sub@aos@shdfnd@physx@@YA?AT__m128@@T4@0@Z 100740d0 f i GuDistanceSegmentSegment.obj
 0001:00073120       ?V4UnpackXY@aos@shdfnd@physx@@YA?AT__m128@@ABT4@0@Z 10074120 f i GuDistanceSegmentSegment.obj
 0001:00073170       ?V4UnpackZW@aos@shdfnd@physx@@YA?AT__m128@@ABT4@0@Z 10074170 f i GuDistanceSegmentSegment.obj
 0001:000731c0       ?V4Zero@aos@shdfnd@physx@@YA?AT__m128@@XZ 100741c0 f i GuDistanceSegmentSegment.obj
 0001:00073200       ?distanceSegmentTriangleSquared@Gu@physx@@YAMABVPxVec3@2@0000PAM11@Z 10074200 f   GuDistanceSegmentTriangle.obj
 0001:000746b0       ?distanceSegmentTriangleSquared@Gu@physx@@YA?AT__m128@@ABT3@0000AAT3@1@Z 100756b0 f   GuDistanceSegmentTriangle.obj
 0001:000760d0       ?FNeg@aos@shdfnd@physx@@YA?AT__m128@@T4@@Z 100770d0 f i GuDistanceSegmentTriangle.obj
 0001:00076170       ?distancePointTriangleSquared@Gu@physx@@YAMABVPxVec3@2@000PAM1@Z 10077170 f i GuDistanceSegmentTriangle.obj
 0001:00076220       ?isValidTriangleBarycentricCoord@Gu@physx@@YA?AT__m128@@ABT3@0@Z 10077220 f i GuDistanceSegmentTriangle.obj
 0001:00076460       ?sweepBoxBox@Gu@physx@@YA_NABVBox@12@0ABVPxVec3@2@MV?$PxFlags@W4Enum@PxHitFlag@physx@@G@2@AAUPxSweepHit@2@@Z 10077460 f   GuSweepBoxBox.obj
 0001:00076e80       ??0?$PxFlags@W4Enum@PxHitFlag@physx@@G@physx@@QAE@ABV01@@Z 10077e80 f i GuSweepBoxBox.obj
 0001:00076eb0       ??0?$PxFlags@W4Enum@PxHitFlag@physx@@G@physx@@QAE@W4Enum@PxHitFlag@1@@Z 10077eb0 f i GuSweepBoxBox.obj
 0001:00076ed0       ??4?$PxFlags@W4Enum@PxHitFlag@physx@@G@physx@@QAEAAV01@ABV01@@Z 10077ed0 f i GuSweepBoxBox.obj
 0001:00076f00       ??B?$PxFlags@W4Enum@PxHitFlag@physx@@G@physx@@QBE_NXZ 10077f00 f i GuSweepBoxBox.obj
 0001:00076f30       ??I?$PxFlags@W4Enum@PxHitFlag@physx@@G@physx@@QBE?AV01@W4Enum@PxHitFlag@1@@Z 10077f30 f i GuSweepBoxBox.obj
 0001:00076f80       ??U?$PxFlags@W4Enum@PxHitFlag@physx@@G@physx@@QBE?AV01@W4Enum@PxHitFlag@1@@Z 10077f80 f i GuSweepBoxBox.obj
 0001:00076fd0       ??Uphysx@@YA?AV?$PxFlags@W4Enum@PxHitFlag@physx@@G@0@W4Enum@PxHitFlag@0@0@Z 10077fd0 f i GuSweepBoxBox.obj
 0001:00077010       ??_5?$PxFlags@W4Enum@PxHitFlag@physx@@G@physx@@QAEAAV01@W4Enum@PxHitFlag@1@@Z 10078010 f i GuSweepBoxBox.obj
 0001:00077040       ?buildMatrixFromBox@physx@@YAXAAVMatrix34@Cm@1@ABVBox@Gu@1@@Z 10078040 f i GuSweepBoxBox.obj
 0001:00077070       ?computeWorldToBoxMatrix@physx@@YAXAAVMatrix34@Cm@1@ABVBox@Gu@1@@Z 10078070 f i GuSweepBoxBox.obj
 0001:00077110       ?sweepBoxSphere@Gu@physx@@YA_NABVBox@12@MABVPxVec3@2@1MAAMAAV42@V?$PxFlags@W4Enum@PxHitFlag@physx@@G@2@@Z 10078110 f   GuSweepBoxSphere.obj
 0001:00077720       ??0Capsule@Gu@physx@@QAE@ABVPxVec3@2@0M@Z 10078720 f i GuSweepBoxSphere.obj
 0001:00077760       ??0Sphere@Gu@physx@@QAE@ABVPxVec3@2@M@Z 10078760 f i GuSweepBoxSphere.obj
 0001:000777a0       ??1Sphere@Gu@physx@@QAE@XZ 100787a0 f i GuSweepBoxSphere.obj
 0001:000777b0       ?computePoint@Segment@Gu@physx@@QBEXAAVPxVec3@3@M@Z 100787b0 f i GuSweepBoxSphere.obj
 0001:00077820       ?intersectRayCapsule@Gu@physx@@YA_NABVPxVec3@2@000MAAM@Z 10078820 f i GuSweepBoxSphere.obj
 0001:000779f0       ?intersectRayCapsule@Gu@physx@@YA_NABVPxVec3@2@0ABVCapsule@12@AAM@Z 100789f0 f i GuSweepBoxSphere.obj
 0001:00077a80       ?sweepBoxTriangle@Gu@physx@@YA_NABVPxTriangle@2@ABVPxBounds3@2@ABVPxVec3@2@2AAV52@3AAM_N@Z 10078a80 f   GuSweepBoxTriangle_FeatureBased.obj
 0001:00079180       ??0PxTriangle@physx@@QAE@ABV01@@Z 1007a180 f i GuSweepBoxTriangle_FeatureBased.obj
 0001:00079c50       ?triBoxSweepTestBoxSpace@Gu@physx@@YAHABVPxTriangle@2@ABVPxVec3@2@11MAAM_N@Z 1007ac50 f   GuSweepBoxTriangle_SAT.obj
 0001:00079f20       ?cross010@shdfnd@physx@@YA?AVPxVec3@2@ABV32@@Z 1007af20 f i GuSweepBoxTriangle_SAT.obj
 0001:00079f70       ?cross100@shdfnd@physx@@YA?AVPxVec3@2@ABV32@@Z 1007af70 f i GuSweepBoxTriangle_SAT.obj
 0001:00079fc0       ?testSeparationAxes@Gu@physx@@YAHABVPxTriangle@2@ABVPxVec3@2@111MAAM@Z 1007afc0 f i GuSweepBoxTriangle_SAT.obj
 0001:0007a320       ?triBoxSweepTestBoxSpace_inlined@Gu@physx@@YAHABVPxTriangle@2@ABVPxVec3@2@11MAAMI@Z 1007b320 f i GuSweepBoxTriangle_SAT.obj
 0001:0007a3b0       ?sweepCapsuleBox@Gu@physx@@YA_NABVCapsule@12@ABVPxTransform@2@ABVPxVec3@2@2MAAV52@AAM3V?$PxFlags@W4Enum@PxHitFlag@physx@@G@2@@Z 1007b3b0 f   GuSweepCapsuleBox.obj
 0001:0007b180       ??0?$PxFlags@W4Enum@PxHitFlag@physx@@G@physx@@QAE@G@Z 1007c180 f i GuSweepCapsuleBox.obj
 0001:0007b1a0       ??0?$ScopedPointer@VPxTriangle@physx@@VTempAllocator@shdfnd@2@@shdfnd@physx@@QAE@XZ 1007c1a0 f i GuSweepCapsuleBox.obj
 0001:0007b1c0       ??0PxActorShape@physx@@QAE@XZ 1007c1c0 f i GuSweepCapsuleBox.obj
 0001:0007b1f0       ??0PxLocationHit@physx@@QAE@XZ 1007c1f0 f i GuSweepCapsuleBox.obj
 0001:0007b270       ??0PxMat33Padded@Gu@physx@@QAE@ABVPxQuat@2@@Z 1007c270 f i GuSweepCapsuleBox.obj
 0001:0007b330       ??0PxQueryHit@physx@@QAE@XZ 1007c330 f i GuSweepCapsuleBox.obj
 0001:0007b360       ??0PxSweepHit@physx@@QAE@XZ 1007c360 f i GuSweepCapsuleBox.obj
 0001:0007b380       ??1?$ScopedPointer@VPxTriangle@physx@@VTempAllocator@shdfnd@2@@shdfnd@physx@@QAE@XZ 1007c380 f i GuSweepCapsuleBox.obj
 0001:0007b3b0       ??1PxMat33Padded@Gu@physx@@QAE@XZ 1007c3b0 f i GuSweepCapsuleBox.obj
 0001:0007b3c0       ??B?$ScopedPointer@VPxTriangle@physx@@VTempAllocator@shdfnd@2@@shdfnd@physx@@QBEPAVPxTriangle@2@XZ 1007c3c0 f i GuSweepCapsuleBox.obj
 0001:0007b430       ?sweepCapsuleCapsule@Gu@physx@@YA_NABVCapsule@12@0ABVPxVec3@2@MAAMAAV42@3IAAG@Z 1007c430 f   GuSweepCapsuleCapsule.obj
 0001:0007c4c0       ??0Capsule@Gu@physx@@QAE@XZ 1007d4c0 f i GuSweepCapsuleCapsule.obj
 0001:0007c4e0       ??0PxTriangle@physx@@QAE@ABVPxVec3@1@00@Z 1007d4e0 f i GuSweepCapsuleCapsule.obj
 0001:0007c560       ??4Capsule@Gu@physx@@QAEAAV012@ABV012@@Z 1007d560 f i GuSweepCapsuleCapsule.obj
 0001:0007c5a0       ??4Segment@Gu@physx@@QAEAAV012@ABV012@@Z 1007d5a0 f i GuSweepCapsuleCapsule.obj
 0001:0007c5e0       ??B?$PxFlags@W4Enum@PxHitFlag@physx@@G@physx@@QBEGXZ 1007d5e0 f i GuSweepCapsuleCapsule.obj
 0001:0007c600       ??B?$PxFlags@W4Enum@PxHitFlag@physx@@G@physx@@QBEIXZ 1007d600 f i GuSweepCapsuleCapsule.obj
 0001:0007c670       ?sweepCapsuleTriangles_Precise@Gu@physx@@YA_NIPIBVPxTriangle@2@ABVCapsule@12@ABVPxVec3@2@MPIBIAAUPxSweepHit@2@AAV52@V?$PxFlags@W4Enum@PxHitFlag@physx@@G@2@_NPBVBoxPadded@12@@Z 1007d670 f   GuSweepCapsuleTriangle.obj
 0001:0007e080       ??0CapsuleTriangleOverlapData@Gu@physx@@QAE@XZ 1007f080 f i GuSweepCapsuleTriangle.obj
 0001:0007e0a0       ??4PxTriangle@physx@@QAEXABV01@@Z 1007f0a0 f i GuSweepCapsuleTriangle.obj
 0001:0007e120       ?coarseCullingTri@Gu@physx@@YA_NABVPxVec3@2@0MMPIBV32@@Z 1007f120 f i GuSweepCapsuleTriangle.obj
 0001:0007e3e0       ?computeAlignmentValue@Gu@physx@@YAMABVPxVec3@2@0@Z 1007f3e0 f i GuSweepCapsuleTriangle.obj
 0001:0007e430       ?computeSphereTriangleImpactData@Gu@physx@@YA_NAAUPxSweepHit@2@AAVPxVec3@2@IMABV42@22PIBVPxTriangle@2@_N4@Z 1007f430 f i GuSweepCapsuleTriangle.obj
 0001:0007e570       ?cullTriangle@Gu@physx@@YA_NPIBVPxVec3@2@ABV32@MMM@Z 1007f570 f i GuSweepCapsuleTriangle.obj
 0001:0007e6b0       ?getInitIndex@Gu@physx@@YAIPIBII@Z 1007f6b0 f i GuSweepCapsuleTriangle.obj
 0001:0007e740       ?getTriangleIndex@physx@@YAIII@Z 1007f740 f i GuSweepCapsuleTriangle.obj
 0001:0007e780       ?init@CapsuleTriangleOverlapData@Gu@physx@@QAEXABVCapsule@23@@Z 1007f780 f i GuSweepCapsuleTriangle.obj
 0001:0007e830       ?keepTriangle@Gu@physx@@YA_NMMMMMM@Z 1007f830 f i GuSweepCapsuleTriangle.obj
 0001:0007e930       ?rejectTriangle@Gu@physx@@YA_NABVPxVec3@2@0MMPIBV32@M@Z 1007f930 f i GuSweepCapsuleTriangle.obj
 0001:0007e9d0       ?setInitialOverlapResults@Gu@physx@@YA_NAAUPxSweepHit@2@ABVPxVec3@2@I@Z 1007f9d0 f i GuSweepCapsuleTriangle.obj
 0001:0007ea50       ?shouldFlipNormal@Gu@physx@@YA_NABVPxVec3@2@_N100@Z 1007fa50 f i GuSweepCapsuleTriangle.obj
 0001:0007eb30       ?squareDistance@Gu@physx@@YAMABVPxVec3@2@0M0@Z 1007fb30 f i GuSweepCapsuleTriangle.obj
 0001:0007ec40       ?sweepSphereCapsule@Gu@physx@@YA_NABVSphere@12@ABVCapsule@12@ABVPxVec3@2@MAAMAAV52@4V?$PxFlags@W4Enum@PxHitFlag@physx@@G@2@@Z 1007fc40 f   GuSweepSphereCapsule.obj
 0001:0007eff0       ?sweepSphereSphere@Gu@physx@@YA_NABVPxVec3@2@M0M0AAMAAV32@@Z 1007fff0 f   GuSweepSphereSphere.obj
 0001:0007f470       ?sweepSphereVSTri@Gu@physx@@YA_NPIBVPxVec3@2@ABV32@1M1AAMAA_N_N@Z 10080470 f   GuSweepSphereTriangle.obj
 0001:0007f940       ?sweepSphereVSQuad@Gu@physx@@YA_NPIBVPxVec3@2@ABV32@1M1AAM@Z 10080940 f   GuSweepSphereTriangle.obj
 0001:0007ffa0       ?sweepSphereTriangles@Gu@physx@@YA_NIPIBVPxTriangle@2@ABVPxVec3@2@M1MPIBIAAUPxSweepHit@2@AAV42@_N555@Z 10080fa0 f   GuSweepSphereTriangle.obj
 0001:00080b00       ?closestPtPointTriangle2@Gu@physx@@YA?AVPxVec3@2@ABV32@00000@Z 10081b00 f i GuSweepSphereTriangle.obj
 0001:00080f60       ?computeSphereTriImpactData@Gu@physx@@YAXAAVPxVec3@2@0ABV32@1MABVPxTriangle@2@@Z 10081f60 f   GuSweepTriangleUtils.obj
 0001:00081030       ?computeBoxTriImpactData@Gu@physx@@YAXAAVPxVec3@2@0ABV32@1ABVPxTriangle@2@M@Z 10082030 f   GuSweepTriangleUtils.obj
 0001:00081270       ?computeEdgeEdgeNormal@Gu@physx@@YAXAAVPxVec3@2@ABV32@1111M@Z 10082270 f   GuSweepTriangleUtils.obj
 0001:00081a60       ??$getConvex@VBoxV@Gu@physx@@@GjkConvexBase@Gu@physx@@QBEABVBoxV@12@XZ 10082a60 f i GuSweepTriangleUtils.obj
 0001:00081a80       ??$getConvex@VTriangleV@Gu@physx@@@GjkConvexBase@Gu@physx@@QBEABVTriangleV@12@XZ 10082a80 f i GuSweepTriangleUtils.obj
 0001:00081aa0       ??$gjk@U?$LocalConvex@VTriangleV@Gu@physx@@@Gu@physx@@U?$LocalConvex@VBoxV@Gu@physx@@@23@@Gu@physx@@YA?AW4GjkStatus@01@ABU?$LocalConvex@VTriangleV@Gu@physx@@@01@ABU?$LocalConvex@VBoxV@Gu@physx@@@01@ABT__m128@@2AAT5@333@Z 10082aa0 f i GuSweepTriangleUtils.obj
 0001:00082690       ??0?$LocalConvex@VBoxV@Gu@physx@@@Gu@physx@@QAE@ABVBoxV@12@@Z 10083690 f i GuSweepTriangleUtils.obj
 0001:000826c0       ??0?$LocalConvex@VTriangleV@Gu@physx@@@Gu@physx@@QAE@ABVTriangleV@12@@Z 100836c0 f i GuSweepTriangleUtils.obj
 0001:000826f0       ??0BoxV@Gu@physx@@QAE@ABT__m128@@0@Z 100836f0 f i GuSweepTriangleUtils.obj
 0001:000827b0       ??0ConvexV@Gu@physx@@QAE@W4Type@ConvexType@12@@Z 100837b0 f i GuSweepTriangleUtils.obj
 0001:00082850       ??0TriangleV@Gu@physx@@QAE@ABT__m128@@00@Z 10083850 f i GuSweepTriangleUtils.obj
 0001:000829a0       ??1?$LocalConvex@VBoxV@Gu@physx@@@Gu@physx@@UAE@XZ 100839a0 f i GuSweepTriangleUtils.obj
 0001:000829c0       ??1?$LocalConvex@VTriangleV@Gu@physx@@@Gu@physx@@UAE@XZ 100839c0 f i GuSweepTriangleUtils.obj
 0001:000829e0       ??1BoxV@Gu@physx@@QAE@XZ   100839e0 f i GuSweepTriangleUtils.obj
 0001:00082a00       ??1TriangleV@Gu@physx@@QAE@XZ 10083a00 f i GuSweepTriangleUtils.obj
 0001:00082a20       ??_E?$LocalConvex@VBoxV@Gu@physx@@@Gu@physx@@UAEPAXI@Z 10083a20 f i GuSweepTriangleUtils.obj
 0001:00082a20       ??_G?$LocalConvex@VBoxV@Gu@physx@@@Gu@physx@@UAEPAXI@Z 10083a20 f i GuSweepTriangleUtils.obj
 0001:00082a60       ??_E?$LocalConvex@VTriangleV@Gu@physx@@@Gu@physx@@UAEPAXI@Z 10083a60 f i GuSweepTriangleUtils.obj
 0001:00082a60       ??_G?$LocalConvex@VTriangleV@Gu@physx@@@Gu@physx@@UAEPAXI@Z 10083a60 f i GuSweepTriangleUtils.obj
 0001:00082aa0       ?BGetBitMask@aos@shdfnd@physx@@YAIT__m128@@@Z 10083aa0 f i GuSweepTriangleUtils.obj
 0001:00082ae0       ?CalculateBoxMargin@Gu@physx@@YAXABT__m128@@AAM11M@Z 10083ae0 f i GuSweepTriangleUtils.obj
 0001:00082b70       ?V3IsGrtr@aos@shdfnd@physx@@YA?AT__m128@@T4@0@Z 10083b70 f i GuSweepTriangleUtils.obj
 0001:00082c70       ?VecI32V_Sel@aos@shdfnd@physx@@YA?AT__m128@@T4@ABT4@1@Z 10083c70 f i GuSweepTriangleUtils.obj
 0001:00082d60       ?VecI32V_Two@aos@shdfnd@physx@@YA?AT__m128@@XZ 10083d60 f i GuSweepTriangleUtils.obj
 0001:00082da0       ?VecI32V_Zero@aos@shdfnd@physx@@YA?AT__m128@@XZ 10083da0 f i GuSweepTriangleUtils.obj
 0001:00082de0       ?getCenter@?$LocalConvex@VBoxV@Gu@physx@@@Gu@physx@@UBE?AT__m128@@XZ 10083de0 f i GuSweepTriangleUtils.obj
 0001:00082e10       ?getCenter@?$LocalConvex@VTriangleV@Gu@physx@@@Gu@physx@@UBE?AT__m128@@XZ 10083e10 f i GuSweepTriangleUtils.obj
 0001:00082e40       ?getIndex@BoxV@Gu@physx@@QBEXT__m128@@AAH@Z 10083e40 f i GuSweepTriangleUtils.obj
 0001:00082e90       ?getSweepMargin@?$LocalConvex@VBoxV@Gu@physx@@@Gu@physx@@UBE?AT__m128@@XZ 10083e90 f i GuSweepTriangleUtils.obj
 0001:00082ec0       ?getSweepMargin@?$LocalConvex@VTriangleV@Gu@physx@@@Gu@physx@@UBE?AT__m128@@XZ 10083ec0 f i GuSweepTriangleUtils.obj
 0001:00082ef0       ?getSweepMargin@TriangleV@Gu@physx@@QBE?AT__m128@@XZ 10083ef0 f i GuSweepTriangleUtils.obj
 0001:00082f40       ?isZero@PxVec3@physx@@QBE_NXZ 10083f40 f i GuSweepTriangleUtils.obj
 0001:00082fc0       ?support@?$LocalConvex@VBoxV@Gu@physx@@@Gu@physx@@UBE?AT__m128@@ABT4@@Z 10083fc0 f i GuSweepTriangleUtils.obj
 0001:00082ff0       ?support@?$LocalConvex@VBoxV@Gu@physx@@@Gu@physx@@UBE?AT__m128@@ABT4@AAHPAT4@@Z 10083ff0 f i GuSweepTriangleUtils.obj
 0001:00083030       ?support@?$LocalConvex@VTriangleV@Gu@physx@@@Gu@physx@@UBE?AT__m128@@ABT4@@Z 10084030 f i GuSweepTriangleUtils.obj
 0001:00083060       ?support@?$LocalConvex@VTriangleV@Gu@physx@@@Gu@physx@@UBE?AT__m128@@ABT4@AAHPAT4@@Z 10084060 f i GuSweepTriangleUtils.obj
 0001:000830a0       ?supportLocal@BoxV@Gu@physx@@QBE?AT__m128@@ABT4@@Z 100840a0 f i GuSweepTriangleUtils.obj
 0001:00083140       ?supportLocal@BoxV@Gu@physx@@QBE?AT__m128@@ABT4@AAHPAT4@@Z 10084140 f i GuSweepTriangleUtils.obj
 0001:00083200       ?supportLocal@TriangleV@Gu@physx@@QBE?AT__m128@@ABT4@@Z 10084200 f i GuSweepTriangleUtils.obj
 0001:000833e0       ?supportLocal@TriangleV@Gu@physx@@QBE?AT__m128@@ABT4@AAHPAT4@@Z 100843e0 f i GuSweepTriangleUtils.obj
 0001:000836a0       ?supportPoint@?$LocalConvex@VBoxV@Gu@physx@@@Gu@physx@@UBE?AT__m128@@HPAT4@@Z 100846a0 f i GuSweepTriangleUtils.obj
 0001:000836e0       ?supportPoint@?$LocalConvex@VTriangleV@Gu@physx@@@Gu@physx@@UBE?AT__m128@@HPAT4@@Z 100846e0 f i GuSweepTriangleUtils.obj
 0001:00083720       ?supportPoint@BoxV@Gu@physx@@QBE?AT__m128@@HPAT4@@Z 10084720 f i GuSweepTriangleUtils.obj
 0001:000837b0       ?supportPoint@TriangleV@Gu@physx@@QBE?AT__m128@@HPAT4@@Z 100847b0 f i GuSweepTriangleUtils.obj
 0001:000837e0       ?epaPenetration@Gu@physx@@YA?AW4GjkStatus@12@ABUGjkConvex@12@0PIAE1EAAT__m128@@222_N@Z 100847e0 f   GuEPA.obj
 0001:00083d90       ?isValid2@Facet@Gu@physx@@QAE?AT__m128@@IIIPIBT4@0ABT4@@Z 10084d90 f   GuEPA.obj
 0001:00084040       ?silhouette@Facet@Gu@physx@@QAEXABT__m128@@PIBT4@1AAVEdgeBuffer@23@AAV?$InlineDeferredIDPool@$0EA@@Cm@3@@Z 10085040 f   GuEPA.obj
 0001:000840a0       ?PenetrationDepth@EPA@Gu@physx@@QAE?AW4GjkStatus@23@ABUGjkConvex@23@0PIBT__m128@@11HAAT6@222_N@Z 100850a0 f   GuEPA.obj
 0001:00084df0       ?expandPoint@EPA@Gu@physx@@QAE_NABUGjkConvex@23@0AAHABT__m128@@@Z 10085df0 f   GuEPA.obj
 0001:00084ed0       ?expandSegment@EPA@Gu@physx@@QAE_NABUGjkConvex@23@0AAHABT__m128@@@Z 10085ed0 f   GuEPA.obj
 0001:00085150       ?expandTriangle@EPA@Gu@physx@@QAE_NAAHABT__m128@@@Z 10086150 f   GuEPA.obj
 0001:000851e0       ?addFacet@EPA@Gu@physx@@QAEPAVFacet@23@IIIABT__m128@@@Z 100861e0 f   GuEPA.obj
 0001:00085da0       ??0?$DeferredIDPoolBase@V?$InlineFixedArray@I$0EA@@Cm@physx@@@Cm@physx@@QAE@XZ 10086da0 f i GuEPA.obj
 0001:00085dd0       ??0?$IDPoolBase@V?$InlineFixedArray@I$0EA@@Cm@physx@@@Cm@physx@@QAE@XZ 10086dd0 f i GuEPA.obj
 0001:00085e00       ??0?$InlineDeferredIDPool@$0EA@@Cm@physx@@QAE@XZ 10086e00 f i GuEPA.obj
 0001:00085e20       ??0?$InlineFixedArray@I$0EA@@Cm@physx@@QAE@XZ 10086e20 f i GuEPA.obj
 0001:00085e50       ??0?$InlinePriorityQueue@PAVFacet@Gu@physx@@$0EA@UFacetDistanceComparator@23@@Cm@physx@@QAE@ABUFacetDistanceComparator@Gu@2@@Z 10086e50 f i GuEPA.obj
 0001:00085e80       ??0?$PriorityQueueBase@PAVFacet@Gu@physx@@UFacetDistanceComparator@23@@Cm@physx@@QAE@ABUFacetDistanceComparator@Gu@2@PAPAVFacet@42@@Z 10086e80 f i GuEPA.obj
 0001:00085eb0       ??0EPA@Gu@physx@@QAE@XZ    10086eb0 f i GuEPA.obj
 0001:00085f20       ??0Edge@Gu@physx@@QAE@PIAVFacet@12@I@Z 10086f20 f i GuEPA.obj
 0001:00085f50       ??0Edge@Gu@physx@@QAE@XZ   10086f50 f i GuEPA.obj
 0001:00085f70       ??0EdgeBuffer@Gu@physx@@QAE@XZ 10086f70 f i GuEPA.obj
 0001:00085fc0       ??0Facet@Gu@physx@@QAE@III@Z 10086fc0 f i GuEPA.obj
 0001:000860d0       ??0Facet@Gu@physx@@QAE@XZ  100870d0 f i GuEPA.obj
 0001:000860f0       ??1?$DeferredIDPoolBase@V?$InlineFixedArray@I$0EA@@Cm@physx@@@Cm@physx@@QAE@XZ 100870f0 f i GuEPA.obj
 0001:00086120       ??1?$IDPoolBase@V?$InlineFixedArray@I$0EA@@Cm@physx@@@Cm@physx@@QAE@XZ 10087120 f i GuEPA.obj
 0001:00086140       ??1?$InlineDeferredIDPool@$0EA@@Cm@physx@@QAE@XZ 10087140 f i GuEPA.obj
 0001:00086160       ??1?$InlineFixedArray@I$0EA@@Cm@physx@@QAE@XZ 10087160 f i GuEPA.obj
 0001:00086170       ??1?$InlinePriorityQueue@PAVFacet@Gu@physx@@$0EA@UFacetDistanceComparator@23@@Cm@physx@@QAE@XZ 10087170 f i GuEPA.obj
 0001:00086190       ??1?$PriorityQueueBase@PAVFacet@Gu@physx@@UFacetDistanceComparator@23@@Cm@physx@@QAE@XZ 10087190 f i GuEPA.obj
 0001:000861a0       ??1EPA@Gu@physx@@QAE@XZ    100871a0 f i GuEPA.obj
 0001:000861d0       ??4Edge@Gu@physx@@QAEAAV012@ABV012@@Z 100871d0 f i GuEPA.obj
 0001:00086200       ??A?$InlineFixedArray@I$0EA@@Cm@physx@@QAEAAII@Z 10087200 f i GuEPA.obj
 0001:00086270       ??AFacet@Gu@physx@@QBEII@Z 10087270 f i GuEPA.obj
 0001:00086290       ??MFacet@Gu@physx@@QBE_NABV012@@Z 10087290 f i GuEPA.obj
 0001:000862d0       ??RFacetDistanceComparator@Gu@physx@@QBE_NPBVFacet@12@0@Z 100872d0 f i GuEPA.obj
 0001:000862f0       ?FNegScaleSub@aos@shdfnd@physx@@YA?AT__m128@@T4@00@Z 100872f0 f i GuEPA.obj
 0001:00086460       ?FRsqrt@aos@shdfnd@physx@@YA?AT__m128@@T4@@Z 10087460 f i GuEPA.obj
 0001:00086510       ?Get@EdgeBuffer@Gu@physx@@QAEPAVEdge@23@I@Z 10087510 f i GuEPA.obj
 0001:00086580       ?Insert@EdgeBuffer@Gu@physx@@QAEPAVEdge@23@PIAVFacet@23@I@Z 10087580 f i GuEPA.obj
 0001:00086600       ?IsValid@EdgeBuffer@Gu@physx@@QAE_NXZ 10087600 f i GuEPA.obj
 0001:00086650       ?MakeEmpty@EdgeBuffer@Gu@physx@@QAEXXZ 10087650 f i GuEPA.obj
 0001:00086680       ?Size@EdgeBuffer@Gu@physx@@QAEIXZ 10087680 f i GuEPA.obj
 0001:000866a0       ?V3Abs@aos@shdfnd@physx@@YA?AT__m128@@T4@@Z 100876a0 f i GuEPA.obj
 0001:00086750       ?V3Max@aos@shdfnd@physx@@YA?AT__m128@@T4@0@Z 10087750 f i GuEPA.obj
 0001:00086840       ?Valid@Facet@Gu@physx@@QAE_NXZ 10087840 f i GuEPA.obj
 0001:000868e0       ?clear@?$InlineFixedArray@I$0EA@@Cm@physx@@QAEXXZ 100878e0 f i GuEPA.obj
 0001:00086900       ?clear@?$PriorityQueueBase@PAVFacet@Gu@physx@@UFacetDistanceComparator@23@@Cm@physx@@QAEXXZ 10087900 f i GuEPA.obj
 0001:00086920       ?compare@?$PriorityQueueBase@PAVFacet@Gu@physx@@UFacetDistanceComparator@23@@Cm@physx@@IBE_NABQAVFacet@Gu@3@0@Z 10087920 f i GuEPA.obj
 0001:00086950       ?deferredFreeID@?$DeferredIDPoolBase@V?$InlineFixedArray@I$0EA@@Cm@physx@@@Cm@physx@@QAEXI@Z 10087950 f i GuEPA.obj
 0001:00086980       ?empty@?$PriorityQueueBase@PAVFacet@Gu@physx@@UFacetDistanceComparator@23@@Cm@physx@@QBE_NXZ 10087980 f i GuEPA.obj
 0001:000869c0       ?freeID@?$IDPoolBase@V?$InlineFixedArray@I$0EA@@Cm@physx@@@Cm@physx@@QAEXI@Z 100879c0 f i GuEPA.obj
 0001:00086a10       ?getClosestPoint@Facet@Gu@physx@@QAEXPIBT__m128@@0AAT4@1@Z 10087a10 f i GuEPA.obj
 0001:00087050       ?getFacet@Edge@Gu@physx@@QBEPAVFacet@23@XZ 10088050 f i GuEPA.obj
 0001:00087070       ?getIndex@Edge@Gu@physx@@QBEIXZ 10088070 f i GuEPA.obj
 0001:00087090       ?getNewID@?$IDPoolBase@V?$InlineFixedArray@I$0EA@@Cm@physx@@@Cm@physx@@QAEIXZ 10088090 f i GuEPA.obj
 0001:000870f0       ?getNumRemainingIDs@?$InlineDeferredIDPool@$0EA@@Cm@physx@@QAEIXZ 100880f0 f i GuEPA.obj
 0001:00087120       ?getNumUsedID@?$IDPoolBase@V?$InlineFixedArray@I$0EA@@Cm@physx@@@Cm@physx@@QBEIXZ 10088120 f i GuEPA.obj
 0001:00087150       ?getPlaneDist@Facet@Gu@physx@@QBE?AT__m128@@ABT4@PIBT4@1@Z 10088150 f i GuEPA.obj
 0001:00087230       ?getPlaneDist@Facet@Gu@physx@@QBE?AT__m128@@XZ 10088230 f i GuEPA.obj
 0001:00087290       ?getPlaneNormal@Facet@Gu@physx@@QBE?AT__m128@@XZ 10088290 f i GuEPA.obj
 0001:000872c0       ?getSource@Edge@Gu@physx@@QBEIXZ 100882c0 f i GuEPA.obj
 0001:00087340       ?getTarget@Edge@Gu@physx@@QBEIXZ 10088340 f i GuEPA.obj
 0001:000873c0       ?incMod3@Gu@physx@@YAII@Z  100883c0 f i GuEPA.obj
 0001:000873e0       ?isObsolete@Facet@Gu@physx@@QBE_NXZ 100883e0 f i GuEPA.obj
 0001:00087400       ?left@?$PriorityQueueBase@PAVFacet@Gu@physx@@UFacetDistanceComparator@23@@Cm@physx@@KAII@Z 10088400 f i GuEPA.obj
 0001:00087410       ?link@Facet@Gu@physx@@QAE_NIPIAV123@I@Z 10088410 f i GuEPA.obj
 0001:000874f0       ?parent@?$PriorityQueueBase@PAVFacet@Gu@physx@@UFacetDistanceComparator@23@@Cm@physx@@KAII@Z 100884f0 f i GuEPA.obj
 0001:00087500       ?pop@?$PriorityQueueBase@PAVFacet@Gu@physx@@UFacetDistanceComparator@23@@Cm@physx@@QAEPAVFacet@Gu@3@XZ 10088500 f i GuEPA.obj
 0001:00087710       ?popBack@?$InlineFixedArray@I$0EA@@Cm@physx@@QAEIXZ 10088710 f i GuEPA.obj
 0001:000877a0       ?processDeferredIds@?$DeferredIDPoolBase@V?$InlineFixedArray@I$0EA@@Cm@physx@@@Cm@physx@@QAEXXZ 100887a0 f i GuEPA.obj
 0001:00087820       ?push@?$InlinePriorityQueue@PAVFacet@Gu@physx@@$0EA@UFacetDistanceComparator@23@@Cm@physx@@QAEXAAPAVFacet@Gu@3@@Z 10088820 f i GuEPA.obj
 0001:00087890       ?push@?$PriorityQueueBase@PAVFacet@Gu@physx@@UFacetDistanceComparator@23@@Cm@physx@@QAEXABQAVFacet@Gu@3@@Z 10088890 f i GuEPA.obj
 0001:000879b0       ?pushBack@?$InlineFixedArray@I$0EA@@Cm@physx@@QAEXABI@Z 100889b0 f i GuEPA.obj
 0001:00087a50       ?silhouette@Facet@Gu@physx@@QAEXIABT__m128@@PIBT4@1AAVEdgeBuffer@23@AAV?$InlineDeferredIDPool@$0EA@@Cm@3@@Z 10088a50 f i GuEPA.obj
 0001:00087d20       ?size@?$InlineFixedArray@I$0EA@@Cm@physx@@QBEIXZ 10088d20 f i GuEPA.obj
 0001:00087d40       ?size@?$PriorityQueueBase@PAVFacet@Gu@physx@@UFacetDistanceComparator@23@@Cm@physx@@QBEIXZ 10088d40 f i GuEPA.obj
 0001:00087d60       ?toI8@shdfnd@physx@@YACI@Z 10088d60 f i GuEPA.obj
 0001:00087dc0       ?top@?$PriorityQueueBase@PAVFacet@Gu@physx@@UFacetDistanceComparator@23@@Cm@physx@@QAEPAVFacet@Gu@3@XZ 10088dc0 f i GuEPA.obj
 0001:00087df0       ?valid@?$PriorityQueueBase@PAVFacet@Gu@physx@@UFacetDistanceComparator@23@@Cm@physx@@QBE_NXZ 10088df0 f i GuEPA.obj
 0001:00087e70       ?closestPtPointTetrahedron@Gu@physx@@YA?AT__m128@@PIAT3@00AAI@Z 10088e70 f   GuGJKSimplex.obj
 0001:00088260       ?closestPtPointTetrahedron@Gu@physx@@YA?AT__m128@@PIAT3@00PIAH1AAI@Z 10089260 f   GuGJKSimplex.obj
 0001:00088f40       ?BAllEqFFFF@aos@shdfnd@physx@@YAIT__m128@@@Z 10089f40 f i GuGJKSimplex.obj
 0001:00088fa0       ?BGetW@aos@shdfnd@physx@@YA?AT__m128@@T4@@Z 10089fa0 f i GuGJKSimplex.obj
 0001:00088ff0       ?BGetX@aos@shdfnd@physx@@YA?AT__m128@@T4@@Z 10089ff0 f i GuGJKSimplex.obj
 0001:00089040       ?BGetY@aos@shdfnd@physx@@YA?AT__m128@@T4@@Z 1008a040 f i GuGJKSimplex.obj
 0001:00089090       ?BGetZ@aos@shdfnd@physx@@YA?AT__m128@@T4@@Z 1008a090 f i GuGJKSimplex.obj
 0001:000890e0       ?PointOutsideOfPlane4@Gu@physx@@YA?AT__m128@@ABT3@000@Z 1008a0e0 f i GuGJKSimplex.obj
 0001:00089500       ?V4Merge@aos@shdfnd@physx@@YA?AT__m128@@ABT4@000@Z 1008a500 f i GuGJKSimplex.obj
 0001:000896f0       ?closestPtPointTriangle@Gu@physx@@YA?AT__m128@@PIAT3@PAT3@1PIAH2AAI@Z 1008a6f0 f i GuGJKSimplex.obj
 0001:00089b20       ?testGjk@Gu@physx@@YA?AW4GjkStatus@12@AAUGjkConvex@12@0ABT__m128@@1AAT5@222@Z 1008ab20 f   GuGJKTest.obj
 0001:00089b50       ?testGjkPenetration@Gu@physx@@YA?AW4GjkStatus@12@AAUGjkConvex@12@0ABT__m128@@1AAT5@222@Z 1008ab50 f   GuGJKTest.obj
 0001:00089bd0       ?testGjkPenetration@Gu@physx@@YA?AW4GjkStatus@12@AAUGjkConvex@12@0ABT__m128@@1AAT5@222PAE3E@Z 1008abd0 f   GuGJKTest.obj
 0001:00089c40       ?testEpaPenetration@Gu@physx@@YA?AW4GjkStatus@12@AAUGjkConvex@12@0AAT__m128@@111@Z 1008ac40 f   GuGJKTest.obj
 0001:00089cb0       ?testEpaPenetration@Gu@physx@@YA?AW4GjkStatus@12@AAUGjkConvex@12@0AAT__m128@@111PAE2E@Z 1008acb0 f   GuGJKTest.obj
 0001:00089d20       ?testGjkRaycast@Gu@physx@@YA_NAAUGjkConvex@12@0ABT__m128@@111AAT4@22M@Z 1008ad20 f   GuGJKTest.obj
 0001:00089df0       ??$PX_UNUSED@T__m128@@@@YAXABT__m128@@@Z 1008adf0 f i GuGJKTest.obj
 0001:00089e00       ??$gjk@UGjkConvex@Gu@physx@@U123@@Gu@physx@@YA?AW4GjkStatus@01@ABUGjkConvex@01@0ABT__m128@@1AAT4@222@Z 1008ae00 f i GuGJKTest.obj
 0001:0008a9f0       ??$gjkPenetration@UGjkConvex@Gu@physx@@U123@@Gu@physx@@YA?AW4GjkStatus@01@ABUGjkConvex@01@0ABT__m128@@1AAT4@222PIAE3AAE_N@Z 1008b9f0 f i GuGJKTest.obj
 0001:0008bb40       ??$gjkRaycast@UGjkConvex@Gu@physx@@U123@@Gu@physx@@YA_NABUGjkConvex@01@0ABT__m128@@111AAT3@22M@Z 1008cb40 f i GuGJKTest.obj
 0001:0008ca40       ?GJKCPairDoSimplex@Gu@physx@@YA?AT__m128@@PIAT3@00PIAH1ABT3@AAI@Z 1008da40 f i GuGJKTest.obj
 0001:0008cba0       ?V3NormalizeSafe@aos@shdfnd@physx@@YA?AT__m128@@T4@0@Z 1008dba0 f i GuGJKTest.obj
 0001:0008ccd0       ?assignWarmStartValue@Gu@physx@@YAXPIAE0AAEPIAH2I@Z 1008dcd0 f i GuGJKTest.obj
 0001:0008cdb0       ?getMarginIsRadius@ConvexV@Gu@physx@@QBE_NXZ 1008ddb0 f i GuGJKTest.obj
 0001:0008cdd0       ?getMarginIsRadius@GjkConvexBase@Gu@physx@@QBE_NXZ 1008ddd0 f i GuGJKTest.obj
 0001:0008cdf0       ?to8@shdfnd@physx@@YAEH@Z  1008ddf0 f i GuGJKTest.obj
 0001:0008ce90       ?intersectOBBOBB@Gu@physx@@YA_NABVPxVec3@2@0ABVPxMat33@2@001_N@Z 1008de90 f   GuIntersectionBoxBox.obj
 0001:0008e290       ?intersectCapsuleTriangle@Gu@physx@@YA_NABVPxVec3@2@000ABVCapsule@12@ABUCapsuleTriangleOverlapData@12@@Z 1008f290 f   GuIntersectionCapsuleTriangle.obj
 0001:0008e510       ??$PxClamp@M@physx@@YAMMMM@Z 1008f510 f i GuIntersectionCapsuleTriangle.obj
 0001:0008e5b0       ??9PxVec3@physx@@QBE_NABV01@@Z 1008f5b0 f i GuIntersectionCapsuleTriangle.obj
 0001:0008e630       ?computeEdgeAxis@Gu@physx@@YA?AVPxVec3@2@ABV32@000MM@Z 1008f630 f i GuIntersectionCapsuleTriangle.obj
 0001:0008e8b0       ?testAxis@Gu@physx@@YAIABVPxVec3@2@00ABVCapsule@12@0@Z 1008f8b0 f i GuIntersectionCapsuleTriangle.obj
 0001:0008ea30       ?intersectEdgeEdge@Gu@physx@@YA_NABVPxVec3@2@0000AAMAAV32@@Z 1008fa30 f   GuIntersectionEdgeEdge.obj
 0001:0008ee00       ?rayAABBIntersect@Gu@physx@@YA_NABVPxVec3@2@000AAV32@@Z 1008fe00 f   GuIntersectionRayBox.obj
 0001:0008f120       ?rayAABBIntersect2@Gu@physx@@YAIABVPxVec3@2@000AAV32@AAM@Z 10090120 f   GuIntersectionRayBox.obj
 0001:0008f460       ?intersectRayAABB@Gu@physx@@YAHABVPxVec3@2@000AAM1@Z 10090460 f   GuIntersectionRayBox.obj
 0001:0008f670       ?intersectRayAABB@Gu@physx@@YAHABVPxVec3@2@0000AAM1@Z 10090670 f   GuIntersectionRayBox.obj
 0001:0008f990       ?intersectRayAABB2@Gu@physx@@YA_NABVPxVec3@2@000MAAM1@Z 10090990 f   GuIntersectionRayBox.obj
 0001:0008fe40       ?intersectRayAABB2@Gu@physx@@YA_NABT__m128@@0000AAT3@1@Z 10090e40 f   GuIntersectionRayBox.obj
 0001:00090620       ?V3IsGrtrOrEq@aos@shdfnd@physx@@YA?AT__m128@@T4@0@Z 10091620 f i GuIntersectionRayBox.obj
 0001:00090720       ?V3Min@aos@shdfnd@physx@@YA?AT__m128@@T4@0@Z 10091720 f i GuIntersectionRayBox.obj
 0001:00090810       ?V3Sign@aos@shdfnd@physx@@YA?AT__m128@@T4@@Z 10091810 f i GuIntersectionRayBox.obj
 0001:00090920       ?recip@intrinsics@physx@@YAMM@Z 10091920 f i GuIntersectionRayBox.obj
 0001:00090950       ?intersectRayCapsuleInternal@Gu@physx@@YAIABVPxVec3@2@000MQAM@Z 10091950 f   GuIntersectionRayCapsule.obj
 0001:00091720       ?intersectRaySphereBasic@Gu@physx@@YA_NABVPxVec3@2@0M0MAAMPAV32@@Z 10092720 f   GuIntersectionRaySphere.obj
 0001:00091860       ?intersectRaySphere@Gu@physx@@YA_NABVPxVec3@2@0M0MAAMPAV32@@Z 10092860 f   GuIntersectionRaySphere.obj
 0001:000919f0       ?intersectSphereBox@Gu@physx@@YA_NABVSphere@12@ABVBox@12@@Z 100929f0 f   GuIntersectionSphereBox.obj
 0001:00091bd0       ?intersectTriangleBox_ReferenceCode@Gu@physx@@YAHABVPxVec3@2@0000@Z 10092bd0 f   GuIntersectionTriangleBox.obj
 0001:000926c0       ?intersectTriangleBox_Unsafe@Gu@physx@@YAHABVPxVec3@2@0000@Z 100936c0 f   GuIntersectionTriangleBox.obj
 0001:000927a0       ?intersectTriangleBox@Gu@physx@@YAHABVBoxPadded@12@ABVPxVec3@2@11@Z 100937a0 f   GuIntersectionTriangleBox.obj
 0001:00093310       ?intersectTriangleBoxBV4@@YAHABVPxVec3@physx@@00ABVPxMat33@2@00@Z 10094310 f   GuIntersectionTriangleBox.obj
 0001:00093a60       ?BAnyTrue3_R@internalWindowsSimd@aos@shdfnd@physx@@YAIT__m128@@@Z 10094a60 f i GuIntersectionTriangleBox.obj
 0001:00093ac0       ?U4LoadXYZW@aos@shdfnd@physx@@YA?AT__m128@@IIII@Z 10094ac0 f i GuIntersectionTriangleBox.obj
 0001:00093b40       ?V4Abs@aos@shdfnd@physx@@YA?AT__m128@@T4@@Z 10094b40 f i GuIntersectionTriangleBox.obj
 0001:00093ba0       ?V4AllGrtrOrEq3@aos@shdfnd@physx@@YAIT__m128@@0@Z 10094ba0 f i GuIntersectionTriangleBox.obj
 0001:00093c00       ?V4AnyGrtr3@aos@shdfnd@physx@@YAIT__m128@@0@Z 10094c00 f i GuIntersectionTriangleBox.obj
 0001:00093c60       ?V4Cross@aos@shdfnd@physx@@YA?AT__m128@@T4@0@Z 10094c60 f i GuIntersectionTriangleBox.obj
 0001:00093d60       ?V4Dot3@aos@shdfnd@physx@@YA?AT__m128@@T4@0@Z 10094d60 f i GuIntersectionTriangleBox.obj
 0001:00093e40       ?V4NegMulSub@aos@shdfnd@physx@@YA?AT__m128@@T4@00@Z 10094e40 f i GuIntersectionTriangleBox.obj
 0001:00093eb0       ?V4PermYZXW@aos@shdfnd@physx@@YA?AT__m128@@T4@@Z 10094eb0 f i GuIntersectionTriangleBox.obj
 0001:00093f00       ?V4Scale@aos@shdfnd@physx@@YA?AT__m128@@T4@0@Z 10094f00 f i GuIntersectionTriangleBox.obj
 0001:00093f50       ?V4U32and@aos@shdfnd@physx@@YA?AT__m128@@T4@0@Z 10094f50 f i GuIntersectionTriangleBox.obj
 0001:00093fd0       ?V4U32or@aos@shdfnd@physx@@YA?AT__m128@@T4@0@Z 10094fd0 f i GuIntersectionTriangleBox.obj
 0001:00094050       ?V4U32xor@aos@shdfnd@physx@@YA?AT__m128@@T4@0@Z 10095050 f i GuIntersectionTriangleBox.obj
 0001:000940d0       ?Vec4V_From_FloatV@aos@shdfnd@physx@@YA?AT__m128@@T4@@Z 100950d0 f i GuIntersectionTriangleBox.obj
 0001:00094110       ?Vec4V_ReinterpretFrom_VecU32V@aos@shdfnd@physx@@YA?AT__m128@@T4@@Z 10095110 f i GuIntersectionTriangleBox.obj
 0001:00094150       ?VecU32V_ReinterpretFrom_Vec4V@aos@shdfnd@physx@@YA?AT__m128@@T4@@Z 10095150 f i GuIntersectionTriangleBox.obj
 0001:00094190       ??0BV32Tree@Gu@physx@@QAE@W4PxEMPTY@2@@Z 10095190 f   GuBV32.obj
 0001:000941c0       ?exportExtraData@BV32Tree@Gu@physx@@QAEXAAVPxSerializationContext@3@@Z 100951c0 f   GuBV32.obj
 0001:00094200       ?importExtraData@BV32Tree@Gu@physx@@QAEXAAVPxDeserializationContext@3@@Z 10095200 f   GuBV32.obj
 0001:00094230       ??0BV32Tree@Gu@physx@@QAE@XZ 10095230 f   GuBV32.obj
 0001:00094260       ??0BV32Tree@Gu@physx@@QAE@PAVSourceMesh@12@ABVPxBounds3@2@@Z 10095260 f   GuBV32.obj
 0001:000942a0       ??1BV32Tree@Gu@physx@@QAE@XZ 100952a0 f   GuBV32.obj
 0001:000942c0       ?load@BV32Tree@Gu@physx@@QAE_NAAVPxInputStream@3@_N@Z 100952c0 f   GuBV32.obj
 0001:00094580       ?calculateLeafNode@BV32Tree@Gu@physx@@QAEXAAUBV32Data@23@@Z 10095580 f   GuBV32.obj
 0001:00094650       ?createSOAformatNode@BV32Tree@Gu@physx@@QAEXAAUBV32DataPacked@23@ABUBV32Data@23@IAAI2@Z 10095650 f   GuBV32.obj
 0001:00094870       ?reset@BV32Tree@Gu@physx@@QAEXXZ 10095870 f   GuBV32.obj
 0001:000948c0       ??4BV32Tree@Gu@physx@@QAEXAAV012@@Z 100958c0 f   GuBV32.obj
 0001:00094930       ?init@BV32Tree@Gu@physx@@QAE_NPAVSourceMesh@23@ABVPxBounds3@3@@Z 10095930 f   GuBV32.obj
 0001:00094960       ?release@BV32Tree@Gu@physx@@QAEXXZ 10095960 f   GuBV32.obj
 0001:00094bf0       ??$readExtraData@UBV32Data@Gu@physx@@@PxDeserializationContext@physx@@QAEPAUBV32Data@Gu@1@I@Z 10095bf0 f i GuBV32.obj
 0001:00094c30       ??0LocalBounds@Gu@physx@@QAE@XZ 10095c30 f i GuBV32.obj
 0001:00094c70       ??4LocalBounds@Gu@physx@@QAEAAU012@ABU012@@Z 10095c70 f i GuBV32.obj
 0001:00094cb0       ?flip@physx@@YAXAAI@Z      10095cb0 f i GuBV32.obj
 0001:00094d60       ?getChildOffset@BV32Data@Gu@physx@@QBEIXZ 10095d60 f i GuBV32.obj
 0001:00094dd0       ?getNbChildren@BV32Data@Gu@physx@@QBEIXZ 10095dd0 f i GuBV32.obj
 0001:00094e40       ?init@LocalBounds@Gu@physx@@QAEXABVPxBounds3@3@@Z 10095e40 f i GuBV32.obj
 0001:00094e90       ?isLeaf@BV32Data@Gu@physx@@QBEIXZ 10095e90 f i GuBV32.obj
 0001:00094eb0       ?littleEndian@shdfnd@physx@@YADXZ 10095eb0 f i GuBV32.obj
 0001:00094ed0       ?readBigEndianVersionNumber@physx@@YA_NAAVPxInputStream@1@_NAAIAA_N@Z 10095ed0 f i GuBV32.obj
 0001:00095090       ?BuildBV32Ex@Gu@physx@@YA_NAAVBV32Tree@12@AAVSourceMesh@12@MI@Z 10096090 f   GuBV32Build.obj
 0001:00096100       ??$?2V?$ReflectionAllocator@UBV32Node@@@shdfnd@physx@@@UserAllocated@shdfnd@physx@@SAPAXIV?$ReflectionAllocator@UBV32Node@@@12@PBDH@Z 10097100 f i GuBV32Build.obj
 0001:00096120       ??$?_UV?$ReflectionAllocator@UBV32Data@Gu@physx@@@shdfnd@physx@@@UserAllocated@shdfnd@physx@@SAPAXIV?$ReflectionAllocator@UBV32Data@Gu@physx@@@12@PBDH@Z 10097120 f i GuBV32Build.obj
 0001:00096140       ??$swap@PAVAABBTreeNode@Gu@physx@@@shdfnd@physx@@YAXAAPAVAABBTreeNode@Gu@1@0@Z 10097140 f i GuBV32Build.obj
 0001:00096170       ??$swap@VAABBTreeNode@Gu@physx@@@shdfnd@physx@@YAXAAVAABBTreeNode@Gu@1@0@Z 10097170 f i GuBV32Build.obj
 0001:000961c0       ??0?$ReflectionAllocator@UBV32Data@Gu@physx@@@shdfnd@physx@@QAE@PBD@Z 100971c0 f i GuBV32Build.obj
 0001:000961e0       ??0?$ReflectionAllocator@UBV32Node@@@shdfnd@physx@@QAE@PBD@Z 100971e0 f i GuBV32Build.obj
 0001:00096200       ??0AABBTreeNode@Gu@physx@@QAE@ABV012@@Z 10097200 f i GuBV32Build.obj
 0001:00096250       ??0BV32Data@Gu@physx@@QAE@XZ 10097250 f i GuBV32Build.obj
 0001:000962a0       ??0BV32Node@@QAE@XZ        100972a0 f i GuBV32Build.obj
 0001:000962e0       ??0PxBounds3@physx@@QAE@ABV01@@Z 100972e0 f i GuBV32Build.obj
 0001:00096320       ??1AABBTreeNode@Gu@physx@@QAE@XZ 10097320 f i GuBV32Build.obj
 0001:00096360       ??4AABBTreeNode@Gu@physx@@QAEAAV012@ABV012@@Z 10097360 f i GuBV32Build.obj
 0001:00096900       ?allocate@?$ReflectionAllocator@UBV32Data@Gu@physx@@@shdfnd@physx@@QAEPAXIPBDH@Z 10097900 f i GuBV32Build.obj
 0001:00096960       ?allocate@?$ReflectionAllocator@UBV32Node@@@shdfnd@physx@@QAEPAXIPBDH@Z 10097960 f i GuBV32Build.obj
 0001:000969c0       ?getAABB@AABBTreeNode@Gu@physx@@QBEABVPxBounds3@3@XZ 100979c0 f i GuBV32Build.obj
 0001:000969e0       ?getBV@AABBTree@Gu@physx@@QBEABVPxBounds3@3@XZ 100979e0 f i GuBV32Build.obj
 0001:00096a00       ?getChild@BV32Node@@QBEPBU1@I@Z 10097a00 f i GuBV32Build.obj
 0001:00096a20       ?getIndices@AABBTree@Gu@physx@@QBEPBIXZ 10097a20 f i GuBV32Build.obj
 0001:00096a40       ?getName@?$ReflectionAllocator@UBV32Data@Gu@physx@@@shdfnd@physx@@CAPBDXZ 10097a40 f i GuBV32Build.obj
 0001:00096a90       ?getName@?$ReflectionAllocator@UBV32Node@@@shdfnd@physx@@CAPBDXZ 10097a90 f i GuBV32Build.obj
 0001:00096ae0       ?getNbPrimitives@AABBTreeNode@Gu@physx@@QBEIXZ 10097ae0 f i GuBV32Build.obj
 0001:00096b00       ?getNbTriangles@SourceMesh@Gu@physx@@QBEIXZ 10097b00 f i GuBV32Build.obj
 0001:00096b20       ?getNeg@AABBTreeNode@Gu@physx@@QBEPBV123@XZ 10097b20 f i GuBV32Build.obj
 0001:00096b60       ?getNodes@AABBTree@Gu@physx@@QBEPBVAABBTreeNode@23@XZ 10097b60 f i GuBV32Build.obj
 0001:00096b80       ?getPos@AABBTreeNode@Gu@physx@@QBEPBV123@XZ 10097b80 f i GuBV32Build.obj
 0001:00096ba0       ?getPrimitives@AABBTreeNode@Gu@physx@@QBEPBIXZ 10097ba0 f i GuBV32Build.obj
 0001:00096bc0       ?isLeaf@AABBTreeNode@Gu@physx@@QBE_NXZ 10097bc0 f i GuBV32Build.obj
 0001:00096c00       ?isLeaf@BV32Node@@QBEII@Z  10097c00 f i GuBV32Build.obj
 0001:00096c30       ?setEmpty@BV32Data@Gu@physx@@QAEXXZ 10097c30 f i GuBV32Build.obj
 0001:00096cd0       ??0SourceMesh@Gu@physx@@QAE@XZ 10097cd0 f   GuBV4.obj
 0001:00096cf0       ??1SourceMesh@Gu@physx@@QAE@XZ 10097cf0 f   GuBV4.obj
 0001:00096d20       ?reset@SourceMesh@Gu@physx@@QAEXXZ 10097d20 f   GuBV4.obj
 0001:00096d70       ??4SourceMesh@Gu@physx@@QAEXAAV012@@Z 10097d70 f   GuBV4.obj
 0001:00096dd0       ?remapTopology@SourceMesh@Gu@physx@@QAEXPBI@Z 10097dd0 f   GuBV4.obj
 0001:00097130       ?isValid@SourceMesh@Gu@physx@@QBE_NXZ 10098130 f   GuBV4.obj
 0001:00097180       ??0BV4Tree@Gu@physx@@QAE@W4PxEMPTY@2@@Z 10098180 f   GuBV4.obj
 0001:000971c0       ?exportExtraData@BV4Tree@Gu@physx@@QAEXAAVPxSerializationContext@3@@Z 100981c0 f   GuBV4.obj
 0001:00097210       ?importExtraData@BV4Tree@Gu@physx@@QAEXAAVPxDeserializationContext@3@@Z 10098210 f   GuBV4.obj
 0001:00097250       ??0BV4Tree@Gu@physx@@QAE@XZ 10098250 f   GuBV4.obj
 0001:00097290       ??0BV4Tree@Gu@physx@@QAE@PAVSourceMesh@12@ABVPxBounds3@2@@Z 10098290 f   GuBV4.obj
 0001:000972e0       ??1BV4Tree@Gu@physx@@QAE@XZ 100982e0 f   GuBV4.obj
 0001:00097300       ?load@BV4Tree@Gu@physx@@QAE_NAAVPxInputStream@3@_N@Z 10098300 f   GuBV4.obj
 0001:000975e0       ?reset@BV4Tree@Gu@physx@@QAEXXZ 100985e0 f   GuBV4.obj
 0001:00097660       ??4BV4Tree@Gu@physx@@QAEXAAV012@@Z 10098660 f   GuBV4.obj
 0001:000976f0       ?init@BV4Tree@Gu@physx@@QAE_NPAVSourceMesh@23@ABVPxBounds3@3@@Z 100986f0 f   GuBV4.obj
 0001:00097720       ?release@BV4Tree@Gu@physx@@QAEXXZ 10098720 f   GuBV4.obj
 0001:00097a20       ??$?_UV?$ReflectionAllocator@VIndTri16@Gu@physx@@@shdfnd@physx@@@UserAllocated@shdfnd@physx@@SAPAXIV?$ReflectionAllocator@VIndTri16@Gu@physx@@@12@PBDH@Z 10098a20 f i GuBV4.obj
 0001:00097a40       ??$?_UV?$ReflectionAllocator@VIndTri32@Gu@physx@@@shdfnd@physx@@@UserAllocated@shdfnd@physx@@SAPAXIV?$ReflectionAllocator@VIndTri32@Gu@physx@@@12@PBDH@Z 10098a40 f i GuBV4.obj
 0001:00097a60       ??$readExtraData@UBVDataPacked@Gu@physx@@@PxDeserializationContext@physx@@QAEPAUBVDataPacked@Gu@1@I@Z 10098a60 f i GuBV4.obj
 0001:00097aa0       ??0?$ReflectionAllocator@VIndTri16@Gu@physx@@@shdfnd@physx@@QAE@PBD@Z 10098aa0 f i GuBV4.obj
 0001:00097ac0       ??0?$ReflectionAllocator@VIndTri32@Gu@physx@@@shdfnd@physx@@QAE@PBD@Z 10098ac0 f i GuBV4.obj
 0001:00097ae0       ??0IndTri16@Gu@physx@@QAE@XZ 10098ae0 f i GuBV4.obj
 0001:00097b00       ??0IndTri32@Gu@physx@@QAE@XZ 10098b00 f i GuBV4.obj
 0001:00097b20       ??0LocalBounds@Gu@physx@@QAE@W4PxEMPTY@2@@Z 10098b20 f i GuBV4.obj
 0001:00097b40       ??1IndTri16@Gu@physx@@QAE@XZ 10098b40 f i GuBV4.obj
 0001:00097b50       ??1IndTri32@Gu@physx@@QAE@XZ 10098b50 f i GuBV4.obj
 0001:00097b60       ??_EIndTri16@Gu@physx@@QAEPAXI@Z 10098b60 f i GuBV4.obj
 0001:00097c40       ??_EIndTri32@Gu@physx@@QAEPAXI@Z 10098c40 f i GuBV4.obj
 0001:00097d20       ?allocate@?$ReflectionAllocator@VIndTri16@Gu@physx@@@shdfnd@physx@@QAEPAXIPBDH@Z 10098d20 f i GuBV4.obj
 0001:00097d80       ?allocate@?$ReflectionAllocator@VIndTri32@Gu@physx@@@shdfnd@physx@@QAEPAXIPBDH@Z 10098d80 f i GuBV4.obj
 0001:00097de0       ?flip@physx@@YAXAAF@Z      10098de0 f i GuBV4.obj
 0001:00097e50       ?getName@?$ReflectionAllocator@VIndTri16@Gu@physx@@@shdfnd@physx@@CAPBDXZ 10098e50 f i GuBV4.obj
 0001:00097ea0       ?getName@?$ReflectionAllocator@VIndTri32@Gu@physx@@@shdfnd@physx@@CAPBDXZ 10098ea0 f i GuBV4.obj
 0001:00097ef0       ??0AABBTree@Gu@physx@@QAE@XZ 10098ef0 f   GuBV4Build.obj
 0001:00097f20       ??1AABBTree@Gu@physx@@QAE@XZ 10098f20 f   GuBV4Build.obj
 0001:00097f40       ?buildFromMesh@AABBTree@Gu@physx@@QAE_NAAVSourceMesh@23@I@Z 10098f40 f   GuBV4Build.obj
 0001:00098350       ?release@AABBTree@Gu@physx@@QAEXXZ 10099350 f   GuBV4Build.obj
 0001:000983c0       ?walk@AABBTree@Gu@physx@@QBEIP6A_NPBVAABBTreeNode@23@IPAX@Z1@Z 100993c0 f   GuBV4Build.obj
 0001:00098400       ?BuildBV4Ex@Gu@physx@@YA_NAAVBV4Tree@12@AAVSourceMesh@12@MI@Z 10099400 f   GuBV4Build.obj
 0001:00099420       ??0BVData@@QAE@XZ          1009a420 f   GuBV4Build.obj
 0001:00099460       ??1BV4BuildParams@@QAE@XZ  1009a460 f   GuBV4Build.obj
 0001:00099480       ?allocateNode@BV4BuildParams@@QAEPAUBV4Node@@XZ 1009a480 f   GuBV4Build.obj
 0001:00099550       ?releaseNodes@BV4BuildParams@@QAEXXZ 1009a550 f   GuBV4Build.obj
 0001:0009aeb0       ??$?2V?$ReflectionAllocator@USlab@BV4BuildParams@@@shdfnd@physx@@@UserAllocated@shdfnd@physx@@SAPAXIV?$ReflectionAllocator@USlab@BV4BuildParams@@@12@PBDH@Z 1009beb0 f i GuBV4Build.obj
 0001:0009aed0       ??$?_UV?$ReflectionAllocator@UBVDataPacked@Gu@physx@@@shdfnd@physx@@@UserAllocated@shdfnd@physx@@SAPAXIV?$ReflectionAllocator@UBVDataPacked@Gu@physx@@@12@PBDH@Z 1009bed0 f i GuBV4Build.obj
 0001:0009aef0       ??$?_UV?$ReflectionAllocator@VAABBTreeNode@Gu@physx@@@shdfnd@physx@@@UserAllocated@shdfnd@physx@@SAPAXIV?$ReflectionAllocator@VAABBTreeNode@Gu@physx@@@12@PBDH@Z 1009bef0 f i GuBV4Build.obj
 0001:0009af10       ??0?$ReflectionAllocator@UBVDataPacked@Gu@physx@@@shdfnd@physx@@QAE@PBD@Z 1009bf10 f i GuBV4Build.obj
 0001:0009af30       ??0?$ReflectionAllocator@USlab@BV4BuildParams@@@shdfnd@physx@@QAE@PBD@Z 1009bf30 f i GuBV4Build.obj
 0001:0009af50       ??0?$ReflectionAllocator@VAABBTreeNode@Gu@physx@@@shdfnd@physx@@QAE@PBD@Z 1009bf50 f i GuBV4Build.obj
 0001:0009af70       ??0AABBTreeNode@Gu@physx@@QAE@XZ 1009bf70 f i GuBV4Build.obj
 0001:0009afc0       ??0BV4BuildParams@@QAE@M@Z 1009bfc0 f i GuBV4Build.obj
 0001:0009aff0       ??0BV4Node@@QAE@XZ         1009bff0 f i GuBV4Build.obj
 0001:0009b020       ??0BuildStats@Gu@physx@@QAE@XZ 1009c020 f i GuBV4Build.obj
 0001:0009b050       ??0Slab@BV4BuildParams@@QAE@XZ 1009c050 f i GuBV4Build.obj
 0001:0009b080       ??1BV4Node@@QAE@XZ         1009c080 f i GuBV4Build.obj
 0001:0009b0b0       ??1BVData@@QAE@XZ          1009c0b0 f i GuBV4Build.obj
 0001:0009b0d0       ??1Slab@BV4BuildParams@@QAE@XZ 1009c0d0 f i GuBV4Build.obj
 0001:0009b100       ??_EAABBTreeNode@Gu@physx@@QAEPAXI@Z 1009c100 f i GuBV4Build.obj
 0001:0009b1e0       ??_GSlab@BV4BuildParams@@QAEPAXI@Z 1009c1e0 f i GuBV4Build.obj
 0001:0009be10       ?allocate@?$ReflectionAllocator@UBVDataPacked@Gu@physx@@@shdfnd@physx@@QAEPAXIPBDH@Z 1009ce10 f i GuBV4Build.obj
 0001:0009be70       ?allocate@?$ReflectionAllocator@USlab@BV4BuildParams@@@shdfnd@physx@@QAEPAXIPBDH@Z 1009ce70 f i GuBV4Build.obj
 0001:0009bed0       ?allocate@?$ReflectionAllocator@VAABBTreeNode@Gu@physx@@@shdfnd@physx@@QAEPAXIPBDH@Z 1009ced0 f i GuBV4Build.obj
 0001:0009bf30       ?encodePNS@BVDataPacked@Gu@physx@@QAEXI@Z 1009cf30 f i GuBV4Build.obj
 0001:0009bfb0       ?getCenter@PxBounds3@physx@@QBEMI@Z 1009cfb0 f i GuBV4Build.obj
 0001:0009c060       ?getChild@BV4Node@@QBEPBU1@I@Z 1009d060 f i GuBV4Build.obj
 0001:0009c080       ?getCount@BuildStats@Gu@physx@@QBEIXZ 1009d080 f i GuBV4Build.obj
 0001:0009c0a0       ?getName@?$ReflectionAllocator@UBVDataPacked@Gu@physx@@@shdfnd@physx@@CAPBDXZ 1009d0a0 f i GuBV4Build.obj
 0001:0009c0f0       ?getName@?$ReflectionAllocator@USlab@BV4BuildParams@@@shdfnd@physx@@CAPBDXZ 1009d0f0 f i GuBV4Build.obj
 0001:0009c140       ?getName@?$ReflectionAllocator@VAABBTreeNode@Gu@physx@@@shdfnd@physx@@CAPBDXZ 1009d140 f i GuBV4Build.obj
 0001:0009c190       ?getTriangle@SourceMesh@Gu@physx@@QBEXAAUVertexPointers@23@I@Z 1009d190 f i GuBV4Build.obj
 0001:0009c230       ?getType@BV4Node@@QBEIXZ   1009d230 f i GuBV4Build.obj
 0001:0009c290       ?getVertexReferences@Gu@physx@@YAXAAI00IPBVIndTri32@12@PBVIndTri16@12@@Z 1009d290 f i GuBV4Build.obj
 0001:0009c350       ?increaseCount@BuildStats@Gu@physx@@QAEXI@Z 1009d350 f i GuBV4Build.obj
 0001:0009c370       ?isLeaf@BV4Node@@QBEII@Z   1009d370 f i GuBV4Build.obj
 0001:0009c3a0       ?setCount@BuildStats@Gu@physx@@QAEXI@Z 1009d3a0 f i GuBV4Build.obj
 0001:0009d980       ?Sweep_AABB_BV4@@YAHABVBox@Gu@physx@@ABVPxVec3@3@MABVBV4Tree@23@PIAVSweepHit@23@I@Z 1009e980 f   GuBV4_AABBSweep.obj
 0001:0009ffa0       ?Sweep_AABB_BV4_CB@@YAXABVBox@Gu@physx@@ABVPxVec3@3@MABVBV4Tree@23@PIBVPxMat44@3@P6A_NPAXABVSweepHit@23@@Z4I_N@Z 100a0fa0 f   GuBV4_AABBSweep.obj
 0001:000a25f0       ?GenericSweep_AABB_CB@@YAXABVBox@Gu@physx@@ABVPxVec3@3@MABVBV4Tree@23@P6A_NPAX111IAAM@Z3I@Z 100a35f0 f   GuBV4_AABBSweep.obj
 0001:000a6dd0       ??$V4SplatElement@$00@aos@shdfnd@physx@@YA?AT__m128@@T3@@Z 100a7dd0 f i GuBV4_AABBSweep.obj
 0001:000a6e30       ??$V4SplatElement@$01@aos@shdfnd@physx@@YA?AT__m128@@T3@@Z 100a7e30 f i GuBV4_AABBSweep.obj
 0001:000a6e90       ??$V4SplatElement@$0A@@aos@shdfnd@physx@@YA?AT__m128@@T3@@Z 100a7e90 f i GuBV4_AABBSweep.obj
 0001:000a7580       ??0RayParams@@QAE@XZ       100a8580 f i GuBV4_AABBSweep.obj
 0001:000a75c0       ??0RaycastHitInternal@Gu@physx@@QAE@XZ 100a85c0 f i GuBV4_AABBSweep.obj
 0001:000a75e0       ??0SweepHit@Gu@physx@@QAE@XZ 100a85e0 f i GuBV4_AABBSweep.obj
 0001:000a7690       ??1RayParams@@QAE@XZ       100a8690 f i GuBV4_AABBSweep.obj
 0001:000a76d0       ??1RaycastHitInternal@Gu@physx@@QAE@XZ 100a86d0 f i GuBV4_AABBSweep.obj
 0001:000a76e0       ??1SweepHit@Gu@physx@@QAE@XZ 100a86e0 f i GuBV4_AABBSweep.obj
 0001:000a76f0       ??I?$PxFlags@W4Enum@PxHitFlag@physx@@G@physx@@QBE?AV01@ABV01@@Z 100a86f0 f i GuBV4_AABBSweep.obj
 0001:000a7740       ?V4LoadA@aos@shdfnd@physx@@YA?AT__m128@@QBM@Z 100a8740 f i GuBV4_AABBSweep.obj
 0001:000a77e0       ?V4RecipFast@aos@shdfnd@physx@@YA?AT__m128@@T4@@Z 100a87e0 f i GuBV4_AABBSweep.obj
 0001:000a7820       ?computeBoxLocalImpact@Gu@physx@@YAXAAVPxVec3@2@0AAV?$PxFlags@W4Enum@PxHitFlag@physx@@G@2@ABVBox@12@ABV32@ABVPxTriangle@2@V42@_N6M@Z 100a8820 f i GuBV4_AABBSweep.obj
 0001:000a79f0       ?decodePNSNoShift@BVDataSwizzled@Gu@physx@@QBEII@Z 100a89f0 f i GuBV4_AABBSweep.obj
 0001:000a7fa0       ?getChildData@BVDataSwizzled@Gu@physx@@QBEII@Z 100a8fa0 f i GuBV4_AABBSweep.obj
 0001:000a7fc0       ?getNbPrimitives@Gu@physx@@YAIAAI@Z 100a8fc0 f i GuBV4_AABBSweep.obj
 0001:000a7ff0       ?getPrimitive@BVDataSwizzled@Gu@physx@@QBEII@Z 100a8ff0 f i GuBV4_AABBSweep.obj
 0001:000a8010       ?getTris16@SourceMesh@Gu@physx@@QBEPBVIndTri16@23@XZ 100a9010 f i GuBV4_AABBSweep.obj
 0001:000a8030       ?getTris32@SourceMesh@Gu@physx@@QBEPBVIndTri32@23@XZ 100a9030 f i GuBV4_AABBSweep.obj
 0001:000a8050       ?getVerts@SourceMesh@Gu@physx@@QBEPBVPxVec3@3@XZ 100a9050 f i GuBV4_AABBSweep.obj
 0001:000a8070       ?invertBoxMatrix@Gu@physx@@YAXAAVPxMat33@2@AAVPxVec3@2@ABVBox@12@@Z 100a9070 f i GuBV4_AABBSweep.obj
 0001:000a82a0       ?isLeaf@BVDataSwizzled@Gu@physx@@QBEII@Z 100a92a0 f i GuBV4_AABBSweep.obj
 0001:000a82c0       ?shouldFlipNormal@Gu@physx@@YA_NABVPxVec3@2@_N1ABVPxTriangle@2@0PBVPxTransform@2@@Z 100a92c0 f i GuBV4_AABBSweep.obj
 0001:000a8450       ?BV4_OverlapBoxAny@@YAHABVBox@Gu@physx@@ABVBV4Tree@23@PIBVPxMat44@3@@Z 100a9450 f   GuBV4_BoxOverlap.obj
 0001:000a8730       ?BV4_OverlapBoxAll@@YAIABVBox@Gu@physx@@ABVBV4Tree@23@PIBVPxMat44@3@PAIIAA_N@Z 100a9730 f   GuBV4_BoxOverlap.obj
 0001:000a8a30       ?BV4_OverlapBoxCB@@YAXABVBox@Gu@physx@@ABVBV4Tree@23@P6A_NPAXABVPxVec3@3@33IPBI@Z2@Z 100a9a30 f   GuBV4_BoxOverlap.obj
 0001:000a8f50       ?BV4_OverlapCapsuleAny@@YAHABVCapsule@Gu@physx@@ABVBV4Tree@23@PIBVPxMat44@3@@Z 100a9f50 f   GuBV4_BoxOverlap.obj
 0001:000a9200       ?BV4_OverlapCapsuleAll@@YAIABVCapsule@Gu@physx@@ABVBV4Tree@23@PIBVPxMat44@3@PAIIAA_N@Z 100aa200 f   GuBV4_BoxOverlap.obj
 0001:000a94e0       ?BV4_OverlapCapsuleCB@@YAXABVCapsule@Gu@physx@@ABVBV4Tree@23@PIBVPxMat44@3@P6A_NPAXABVPxVec3@3@44IPBI@Z3@Z 100aa4e0 f   GuBV4_BoxOverlap.obj
 0001:000a9e30       ??$BV4_ProcessNodeNoOrder_Swizzled@VLeafFunction_BoxOverlapAll@?A0x06de466b@@$00UOBBParamsAll@@@@YAHPIAIAAIPIBUBVDataSwizzled@Gu@physx@@PIAUOBBParamsAll@@@Z 100aae30 f i GuBV4_BoxOverlap.obj
 0001:000aa160       ??$BV4_ProcessNodeNoOrder_Swizzled@VLeafFunction_BoxOverlapAll@?A0x06de466b@@$01UOBBParamsAll@@@@YAHPIAIAAIPIBUBVDataSwizzled@Gu@physx@@PIAUOBBParamsAll@@@Z 100ab160 f i GuBV4_BoxOverlap.obj
 0001:000aa490       ??$BV4_ProcessNodeNoOrder_Swizzled@VLeafFunction_BoxOverlapAll@?A0x06de466b@@$02UOBBParamsAll@@@@YAHPIAIAAIPIBUBVDataSwizzled@Gu@physx@@PIAUOBBParamsAll@@@Z 100ab490 f i GuBV4_BoxOverlap.obj
 0001:000aa7c0       ??$BV4_ProcessNodeNoOrder_Swizzled@VLeafFunction_BoxOverlapAll@?A0x06de466b@@$0A@UOBBParamsAll@@@@YAHPIAIAAIPIBUBVDataSwizzled@Gu@physx@@PIAUOBBParamsAll@@@Z 100ab7c0 f i GuBV4_BoxOverlap.obj
 0001:000aaaf0       ??$BV4_ProcessNodeNoOrder_Swizzled@VLeafFunction_BoxOverlapAny@?A0x06de466b@@$00UOBBParams@@@@YAHPIAIAAIPIBUBVDataSwizzled@Gu@physx@@PIAUOBBParams@@@Z 100abaf0 f i GuBV4_BoxOverlap.obj
 0001:000aae20       ??$BV4_ProcessNodeNoOrder_Swizzled@VLeafFunction_BoxOverlapAny@?A0x06de466b@@$01UOBBParams@@@@YAHPIAIAAIPIBUBVDataSwizzled@Gu@physx@@PIAUOBBParams@@@Z 100abe20 f i GuBV4_BoxOverlap.obj
 0001:000ab150       ??$BV4_ProcessNodeNoOrder_Swizzled@VLeafFunction_BoxOverlapAny@?A0x06de466b@@$02UOBBParams@@@@YAHPIAIAAIPIBUBVDataSwizzled@Gu@physx@@PIAUOBBParams@@@Z 100ac150 f i GuBV4_BoxOverlap.obj
 0001:000ab480       ??$BV4_ProcessNodeNoOrder_Swizzled@VLeafFunction_BoxOverlapAny@?A0x06de466b@@$0A@UOBBParams@@@@YAHPIAIAAIPIBUBVDataSwizzled@Gu@physx@@PIAUOBBParams@@@Z 100ac480 f i GuBV4_BoxOverlap.obj
 0001:000ab7b0       ??$BV4_ProcessNodeNoOrder_Swizzled@VLeafFunction_BoxOverlapCB@?A0x06de466b@@$00UOBBParamsCB@@@@YAHPIAIAAIPIBUBVDataSwizzled@Gu@physx@@PIAUOBBParamsCB@@@Z 100ac7b0 f i GuBV4_BoxOverlap.obj
 0001:000abae0       ??$BV4_ProcessNodeNoOrder_Swizzled@VLeafFunction_BoxOverlapCB@?A0x06de466b@@$01UOBBParamsCB@@@@YAHPIAIAAIPIBUBVDataSwizzled@Gu@physx@@PIAUOBBParamsCB@@@Z 100acae0 f i GuBV4_BoxOverlap.obj
 0001:000abe10       ??$BV4_ProcessNodeNoOrder_Swizzled@VLeafFunction_BoxOverlapCB@?A0x06de466b@@$02UOBBParamsCB@@@@YAHPIAIAAIPIBUBVDataSwizzled@Gu@physx@@PIAUOBBParamsCB@@@Z 100ace10 f i GuBV4_BoxOverlap.obj
 0001:000ac140       ??$BV4_ProcessNodeNoOrder_Swizzled@VLeafFunction_BoxOverlapCB@?A0x06de466b@@$0A@UOBBParamsCB@@@@YAHPIAIAAIPIBUBVDataSwizzled@Gu@physx@@PIAUOBBParamsCB@@@Z 100ad140 f i GuBV4_BoxOverlap.obj
 0001:000ac470       ??$BV4_ProcessNodeNoOrder_Swizzled@VLeafFunction_CapsuleOverlapAll@?A0x06de466b@@$00UCapsuleParamsAll@@@@YAHPIAIAAIPIBUBVDataSwizzled@Gu@physx@@PIAUCapsuleParamsAll@@@Z 100ad470 f i GuBV4_BoxOverlap.obj
 0001:000ac7a0       ??$BV4_ProcessNodeNoOrder_Swizzled@VLeafFunction_CapsuleOverlapAll@?A0x06de466b@@$01UCapsuleParamsAll@@@@YAHPIAIAAIPIBUBVDataSwizzled@Gu@physx@@PIAUCapsuleParamsAll@@@Z 100ad7a0 f i GuBV4_BoxOverlap.obj
 0001:000acad0       ??$BV4_ProcessNodeNoOrder_Swizzled@VLeafFunction_CapsuleOverlapAll@?A0x06de466b@@$02UCapsuleParamsAll@@@@YAHPIAIAAIPIBUBVDataSwizzled@Gu@physx@@PIAUCapsuleParamsAll@@@Z 100adad0 f i GuBV4_BoxOverlap.obj
 0001:000ace00       ??$BV4_ProcessNodeNoOrder_Swizzled@VLeafFunction_CapsuleOverlapAll@?A0x06de466b@@$0A@UCapsuleParamsAll@@@@YAHPIAIAAIPIBUBVDataSwizzled@Gu@physx@@PIAUCapsuleParamsAll@@@Z 100ade00 f i GuBV4_BoxOverlap.obj
 0001:000ad130       ??$BV4_ProcessNodeNoOrder_Swizzled@VLeafFunction_CapsuleOverlapAny@?A0x06de466b@@$00UCapsuleParamsAny@@@@YAHPIAIAAIPIBUBVDataSwizzled@Gu@physx@@PIAUCapsuleParamsAny@@@Z 100ae130 f i GuBV4_BoxOverlap.obj
 0001:000ad460       ??$BV4_ProcessNodeNoOrder_Swizzled@VLeafFunction_CapsuleOverlapAny@?A0x06de466b@@$01UCapsuleParamsAny@@@@YAHPIAIAAIPIBUBVDataSwizzled@Gu@physx@@PIAUCapsuleParamsAny@@@Z 100ae460 f i GuBV4_BoxOverlap.obj
 0001:000ad790       ??$BV4_ProcessNodeNoOrder_Swizzled@VLeafFunction_CapsuleOverlapAny@?A0x06de466b@@$02UCapsuleParamsAny@@@@YAHPIAIAAIPIBUBVDataSwizzled@Gu@physx@@PIAUCapsuleParamsAny@@@Z 100ae790 f i GuBV4_BoxOverlap.obj
 0001:000adac0       ??$BV4_ProcessNodeNoOrder_Swizzled@VLeafFunction_CapsuleOverlapAny@?A0x06de466b@@$0A@UCapsuleParamsAny@@@@YAHPIAIAAIPIBUBVDataSwizzled@Gu@physx@@PIAUCapsuleParamsAny@@@Z 100aeac0 f i GuBV4_BoxOverlap.obj
 0001:000addf0       ??$BV4_ProcessNodeNoOrder_Swizzled@VLeafFunction_CapsuleOverlapCB@?A0x06de466b@@$00UCapsuleParamsCB@@@@YAHPIAIAAIPIBUBVDataSwizzled@Gu@physx@@PIAUCapsuleParamsCB@@@Z 100aedf0 f i GuBV4_BoxOverlap.obj
 0001:000ae120       ??$BV4_ProcessNodeNoOrder_Swizzled@VLeafFunction_CapsuleOverlapCB@?A0x06de466b@@$01UCapsuleParamsCB@@@@YAHPIAIAAIPIBUBVDataSwizzled@Gu@physx@@PIAUCapsuleParamsCB@@@Z 100af120 f i GuBV4_BoxOverlap.obj
 0001:000ae450       ??$BV4_ProcessNodeNoOrder_Swizzled@VLeafFunction_CapsuleOverlapCB@?A0x06de466b@@$02UCapsuleParamsCB@@@@YAHPIAIAAIPIBUBVDataSwizzled@Gu@physx@@PIAUCapsuleParamsCB@@@Z 100af450 f i GuBV4_BoxOverlap.obj
 0001:000ae780       ??$BV4_ProcessNodeNoOrder_Swizzled@VLeafFunction_CapsuleOverlapCB@?A0x06de466b@@$0A@UCapsuleParamsCB@@@@YAHPIAIAAIPIBUBVDataSwizzled@Gu@physx@@PIAUCapsuleParamsCB@@@Z 100af780 f i GuBV4_BoxOverlap.obj
 0001:000aeab0       ??$precomputeData@UOBBTestParams@@@@YAXPIAUOBBTestParams@@PIAVPxMat33@physx@@PIBV12@@Z 100afab0 f i GuBV4_BoxOverlap.obj
 0001:000aee80       ??$setupBoxData@UOBBTestParams@@@@YAXPIAUOBBTestParams@@ABVPxVec3@physx@@PIBVPxMat33@2@@Z 100afe80 f i GuBV4_BoxOverlap.obj
 0001:000aefc0       ??$setupMeshPointersAndQuantizedCoeffs@UCapsuleParamsAll@@@Gu@physx@@YAXPIAUCapsuleParamsAll@@PIBVSourceMesh@01@PIBVBV4Tree@01@@Z 100affc0 f i GuBV4_BoxOverlap.obj
 0001:000af090       ??$setupMeshPointersAndQuantizedCoeffs@UCapsuleParamsAny@@@Gu@physx@@YAXPIAUCapsuleParamsAny@@PIBVSourceMesh@01@PIBVBV4Tree@01@@Z 100b0090 f i GuBV4_BoxOverlap.obj
 0001:000af160       ??$setupMeshPointersAndQuantizedCoeffs@UCapsuleParamsCB@@@Gu@physx@@YAXPIAUCapsuleParamsCB@@PIBVSourceMesh@01@PIBVBV4Tree@01@@Z 100b0160 f i GuBV4_BoxOverlap.obj
 0001:000af230       ??$setupMeshPointersAndQuantizedCoeffs@UOBBParams@@@Gu@physx@@YAXPIAUOBBParams@@PIBVSourceMesh@01@PIBVBV4Tree@01@@Z 100b0230 f i GuBV4_BoxOverlap.obj
 0001:000af300       ??$setupMeshPointersAndQuantizedCoeffs@UOBBParamsAll@@@Gu@physx@@YAXPIAUOBBParamsAll@@PIBVSourceMesh@01@PIBVBV4Tree@01@@Z 100b0300 f i GuBV4_BoxOverlap.obj
 0001:000af3d0       ??$setupMeshPointersAndQuantizedCoeffs@UOBBParamsCB@@@Gu@physx@@YAXPIAUOBBParamsCB@@PIBVSourceMesh@01@PIBVBV4Tree@01@@Z 100b03d0 f i GuBV4_BoxOverlap.obj
 0001:000af4a0       ??0CapsuleParamsAll@@QAE@XZ 100b04a0 f i GuBV4_BoxOverlap.obj
 0001:000af4c0       ??0CapsuleParamsAny@@QAE@XZ 100b04c0 f i GuBV4_BoxOverlap.obj
 0001:000af500       ??0CapsuleParamsCB@@QAE@XZ 100b0500 f i GuBV4_BoxOverlap.obj
 0001:000af520       ??0OBBParams@@QAE@XZ       100b0520 f i GuBV4_BoxOverlap.obj
 0001:000af560       ??0OBBParamsAll@@QAE@XZ    100b0560 f i GuBV4_BoxOverlap.obj
 0001:000af580       ??0OBBParamsCB@@QAE@XZ     100b0580 f i GuBV4_BoxOverlap.obj
 0001:000af5a0       ??0OBBTestParams@@QAE@XZ   100b05a0 f i GuBV4_BoxOverlap.obj
 0001:000af650       ??0PxMat44@physx@@QAE@XZ   100b0650 f i GuBV4_BoxOverlap.obj
 0001:000af6a0       ??1CapsuleParamsAll@@QAE@XZ 100b06a0 f i GuBV4_BoxOverlap.obj
 0001:000af6c0       ??1CapsuleParamsAny@@QAE@XZ 100b06c0 f i GuBV4_BoxOverlap.obj
 0001:000af6f0       ??1CapsuleParamsCB@@QAE@XZ 100b06f0 f i GuBV4_BoxOverlap.obj
 0001:000af710       ??1OBBParams@@QAE@XZ       100b0710 f i GuBV4_BoxOverlap.obj
 0001:000af740       ??1OBBParamsAll@@QAE@XZ    100b0740 f i GuBV4_BoxOverlap.obj
 0001:000af760       ??1OBBParamsCB@@QAE@XZ     100b0760 f i GuBV4_BoxOverlap.obj
 0001:000af780       ??1OBBTestParams@@QAE@XZ   100b0780 f i GuBV4_BoxOverlap.obj
 0001:000af830       ?BV4_BoxBoxOverlap@@YAHT__m128@@0PIBUOBBTestParams@@@Z 100b0830 f i GuBV4_BoxOverlap.obj
 0001:000afd70       ?computeLocalBox@Gu@physx@@YAXAAVBox@12@ABV312@PIBVPxMat44@2@@Z 100b0d70 f i GuBV4_BoxOverlap.obj
 0001:000afdd0       ?computeLocalCapsule@Gu@physx@@YAXAAVCapsule@12@ABV312@PIBVPxMat44@2@@Z 100b0dd0 f i GuBV4_BoxOverlap.obj
 0001:000b04c0       ?inverseTransform@Gu@physx@@YA?AVPxVec3@2@PIBVPxMat44@2@ABV32@@Z 100b14c0 f i GuBV4_BoxOverlap.obj
 0001:000b0700       ?invertPRMatrix@Gu@physx@@YAXPIAVPxMat44@2@PIBV32@@Z 100b1700 f i GuBV4_BoxOverlap.obj
 0001:000b0970       ?precomputeBoxData@OBBTestParams@@QAEXABVPxVec3@physx@@PIBVPxMat33@3@@Z 100b1970 f i GuBV4_BoxOverlap.obj
 0001:000b09c0       ?rotateBox@Gu@physx@@YAXAAVBox@12@ABVPxMat44@2@ABV312@@Z 100b19c0 f i GuBV4_BoxOverlap.obj
 0001:000b1df0       ?BV4_CapsuleSweepSingle@@YAHABVCapsule@Gu@physx@@ABVPxVec3@3@MABVBV4Tree@23@PIAVSweepHit@23@I@Z 100b2df0 f   GuBV4_CapsuleSweep.obj
 0001:000b2bf0       ?BV4_CapsuleSweepCB@@YAXABVCapsule@Gu@physx@@ABVPxVec3@3@MABVBV4Tree@23@PIBVPxMat44@3@P6A_NPAXABVSweepHit@23@@Z4I_N@Z 100b3bf0 f   GuBV4_CapsuleSweep.obj
 0001:000b72a0       ??$PX_UNUSED@_N@@YAXAB_N@Z 100b82a0 f i GuBV4_CapsuleSweep.obj
 0001:000b7ef0       ?coarseCullingQuad@Gu@physx@@YA_NABVPxVec3@2@0MMPIBV32@@Z 100b8ef0 f i GuBV4_CapsuleSweep.obj
 0001:000b8110       ?computeBasis@shdfnd@physx@@YAXABVPxVec3@2@0AAV32@11@Z 100b9110 f i GuBV4_CapsuleSweep.obj
 0001:000b8170       ?computeBasis@shdfnd@physx@@YAXABVPxVec3@2@AAV32@1@Z 100b9170 f i GuBV4_CapsuleSweep.obj
 0001:000b85e0       ?cullQuad@Gu@physx@@YA_NPIBVPxVec3@2@ABV32@MMM@Z 100b95e0 f i GuBV4_CapsuleSweep.obj
 0001:000b89e0       ?rejectQuad@Gu@physx@@YA_NABVPxVec3@2@0MMPIBV32@M@Z 100b99e0 f i GuBV4_CapsuleSweep.obj
 0001:000b9ce0       ?BV4_CapsuleSweepSingleAA@@YAHABVCapsule@Gu@physx@@ABVPxVec3@3@MABVBV4Tree@23@PIAVSweepHit@23@I@Z 100bace0 f   GuBV4_CapsuleSweepAA.obj
 0001:000bd890       ?abs@PxVec3@physx@@QBE?AV12@XZ 100be890 f i GuBV4_CapsuleSweepAA.obj
 0001:000bf2e0       ?Sweep_OBB_BV4@@YAHABVBox@Gu@physx@@ABVPxVec3@3@MABVBV4Tree@23@PIAVSweepHit@23@I@Z 100c02e0 f   GuBV4_OBBSweep.obj
 0001:000bfc30       ?Sweep_OBB_BV4_CB@@YAXABVBox@Gu@physx@@ABVPxVec3@3@MABVBV4Tree@23@PIBVPxMat44@3@P6A_NPAXABVSweepHit@23@@Z4I_N@Z 100c0c30 f   GuBV4_OBBSweep.obj
 0001:000c05b0       ?GenericSweep_OBB_CB@@YAXABVBox@Gu@physx@@ABVPxVec3@3@MABVBV4Tree@23@P6A_NPAX111IAAM@Z3I@Z 100c15b0 f   GuBV4_OBBSweep.obj
 0001:000c1060       ?BV4_BoxSweepSingle@@YAHABVBox@Gu@physx@@ABVPxVec3@3@MABVBV4Tree@23@PIBVPxMat44@3@PIAVSweepHit@23@I@Z 100c2060 f   GuBV4_OBBSweep.obj
 0001:000c1160       ?BV4_BoxSweepCB@@YAXABVBox@Gu@physx@@ABVPxVec3@3@MABVBV4Tree@23@PIBVPxMat44@3@P6A_NPAXABVSweepHit@23@@Z4I_N@Z 100c2160 f   GuBV4_OBBSweep.obj
 0001:000c1220       ?BV4_GenericSweepCB@@YAXABVBox@Gu@physx@@ABVPxVec3@3@MABVBV4Tree@23@P6A_NPAX111IAAM@Z3_N@Z 100c2220 f   GuBV4_OBBSweep.obj
 0001:000c8530       ?BV4_RaycastSingle@@YAHABVPxVec3@physx@@0ABVBV4Tree@Gu@2@PIBVPxMat44@2@PIAUPxRaycastHit@2@MMIV?$PxFlags@W4Enum@PxHitFlag@physx@@G@2@@Z 100c9530 f   GuBV4_Raycast.obj
 0001:000caad0       ?BV4_RaycastCB@@YAXABVPxVec3@physx@@0ABVBV4Tree@Gu@2@PIBVPxMat44@2@MMIP6A?AW4HitCode@42@PAX000IMMM@Z3@Z 100cbad0 f   GuBV4_Raycast.obj
 0001:000cbb70       ?BV4_RaycastAll@@YAIABVPxVec3@physx@@0ABVBV4Tree@Gu@2@PIBVPxMat44@2@PIAUPxRaycastHit@2@IMMIV?$PxFlags@W4Enum@PxHitFlag@physx@@G@2@@Z 100ccb70 f   GuBV4_Raycast.obj
 0001:000cdf60       ??$RayTriOverlapT@URayParams@@@@YAHAAUPxRaycastHit@physx@@ABVPxVec3@1@11PIBURayParams@@@Z 100cef60 f i GuBV4_Raycast.obj
 0001:000ce330       ??$doBruteForceTests@VLeafFunction_RaycastAny@?A0xf8b88c9c@@VLeafFunction_RaycastClosest@2@URayParams@@@Gu@physx@@YAXIPIAURayParams@@@Z 100cf330 f i GuBV4_Raycast.obj
 0001:000ce3c0       ??$setupMeshPointersAndQuantizedCoeffs@URayParams@@@Gu@physx@@YAXPIAURayParams@@PIBVSourceMesh@01@PIBVBV4Tree@01@@Z 100cf3c0 f i GuBV4_Raycast.obj
 0001:000ce600       ??$setupParamsFlags@URayParams@@@Gu@physx@@YAXPIAURayParams@@I@Z 100cf600 f i GuBV4_Raycast.obj
 0001:000ce6f0       ??0?$PxFlags@W4Enum@PxHitFlag@physx@@G@physx@@QAE@XZ 100cf6f0 f i GuBV4_Raycast.obj
 0001:000ce760       ??0RaycastHitInternalUV@@QAE@XZ 100cf760 f i GuBV4_Raycast.obj
 0001:000ce7c0       ??1RaycastHitInternalUV@@QAE@XZ 100cf7c0 f i GuBV4_Raycast.obj
 0001:000ce7e0       ?computeLocalRay@Gu@physx@@YAXAAVPxVec3@2@0ABV32@1PIBVPxMat44@2@@Z 100cf7e0 f i GuBV4_Raycast.obj
 0001:000cedb0       ?inverseRotate@Gu@physx@@YA?AVPxVec3@2@PIBVPxMat44@2@ABV32@@Z 100cfdb0 f i GuBV4_Raycast.obj
 0001:000cf200       ?BV4_OverlapSphereAny@@YAHABVSphere@Gu@physx@@ABVBV4Tree@23@PIBVPxMat44@3@@Z 100d0200 f   GuBV4_SphereOverlap.obj
 0001:000cf490       ?BV4_OverlapSphereAll@@YAIABVSphere@Gu@physx@@ABVBV4Tree@23@PIBVPxMat44@3@PAIIAA_N@Z 100d0490 f   GuBV4_SphereOverlap.obj
 0001:000cf760       ?BV4_OverlapSphereCB@@YAXABVSphere@Gu@physx@@ABVBV4Tree@23@PIBVPxMat44@3@P6A_NPAXABVPxVec3@3@44IPBI@Z3@Z 100d0760 f   GuBV4_SphereOverlap.obj
 0001:000cfc90       ??$BV4_ProcessNodeNoOrder_Swizzled@VLeafFunction_SphereOverlapAll@?A0xdbc6abac@@$00USphereParamsAll@@@@YAHPIAIAAIPIBUBVDataSwizzled@Gu@physx@@PIAUSphereParamsAll@@@Z 100d0c90 f i GuBV4_SphereOverlap.obj
 0001:000cff50       ??$BV4_ProcessNodeNoOrder_Swizzled@VLeafFunction_SphereOverlapAll@?A0xdbc6abac@@$01USphereParamsAll@@@@YAHPIAIAAIPIBUBVDataSwizzled@Gu@physx@@PIAUSphereParamsAll@@@Z 100d0f50 f i GuBV4_SphereOverlap.obj
 0001:000d0210       ??$BV4_ProcessNodeNoOrder_Swizzled@VLeafFunction_SphereOverlapAll@?A0xdbc6abac@@$02USphereParamsAll@@@@YAHPIAIAAIPIBUBVDataSwizzled@Gu@physx@@PIAUSphereParamsAll@@@Z 100d1210 f i GuBV4_SphereOverlap.obj
 0001:000d04d0       ??$BV4_ProcessNodeNoOrder_Swizzled@VLeafFunction_SphereOverlapAll@?A0xdbc6abac@@$0A@USphereParamsAll@@@@YAHPIAIAAIPIBUBVDataSwizzled@Gu@physx@@PIAUSphereParamsAll@@@Z 100d14d0 f i GuBV4_SphereOverlap.obj
 0001:000d0790       ??$BV4_ProcessNodeNoOrder_Swizzled@VLeafFunction_SphereOverlapAny@?A0xdbc6abac@@$00USphereParams@@@@YAHPIAIAAIPIBUBVDataSwizzled@Gu@physx@@PIAUSphereParams@@@Z 100d1790 f i GuBV4_SphereOverlap.obj
 0001:000d0a50       ??$BV4_ProcessNodeNoOrder_Swizzled@VLeafFunction_SphereOverlapAny@?A0xdbc6abac@@$01USphereParams@@@@YAHPIAIAAIPIBUBVDataSwizzled@Gu@physx@@PIAUSphereParams@@@Z 100d1a50 f i GuBV4_SphereOverlap.obj
 0001:000d0d10       ??$BV4_ProcessNodeNoOrder_Swizzled@VLeafFunction_SphereOverlapAny@?A0xdbc6abac@@$02USphereParams@@@@YAHPIAIAAIPIBUBVDataSwizzled@Gu@physx@@PIAUSphereParams@@@Z 100d1d10 f i GuBV4_SphereOverlap.obj
 0001:000d0fd0       ??$BV4_ProcessNodeNoOrder_Swizzled@VLeafFunction_SphereOverlapAny@?A0xdbc6abac@@$0A@USphereParams@@@@YAHPIAIAAIPIBUBVDataSwizzled@Gu@physx@@PIAUSphereParams@@@Z 100d1fd0 f i GuBV4_SphereOverlap.obj
 0001:000d1290       ??$BV4_ProcessNodeNoOrder_Swizzled@VLeafFunction_SphereOverlapCB@?A0xdbc6abac@@$00USphereParamsCB@@@@YAHPIAIAAIPIBUBVDataSwizzled@Gu@physx@@PIAUSphereParamsCB@@@Z 100d2290 f i GuBV4_SphereOverlap.obj
 0001:000d1550       ??$BV4_ProcessNodeNoOrder_Swizzled@VLeafFunction_SphereOverlapCB@?A0xdbc6abac@@$01USphereParamsCB@@@@YAHPIAIAAIPIBUBVDataSwizzled@Gu@physx@@PIAUSphereParamsCB@@@Z 100d2550 f i GuBV4_SphereOverlap.obj
 0001:000d1810       ??$BV4_ProcessNodeNoOrder_Swizzled@VLeafFunction_SphereOverlapCB@?A0xdbc6abac@@$02USphereParamsCB@@@@YAHPIAIAAIPIBUBVDataSwizzled@Gu@physx@@PIAUSphereParamsCB@@@Z 100d2810 f i GuBV4_SphereOverlap.obj
 0001:000d1ad0       ??$BV4_ProcessNodeNoOrder_Swizzled@VLeafFunction_SphereOverlapCB@?A0xdbc6abac@@$0A@USphereParamsCB@@@@YAHPIAIAAIPIBUBVDataSwizzled@Gu@physx@@PIAUSphereParamsCB@@@Z 100d2ad0 f i GuBV4_SphereOverlap.obj
 0001:000d1d90       ??$setupMeshPointersAndQuantizedCoeffs@USphereParams@@@Gu@physx@@YAXPIAUSphereParams@@PIBVSourceMesh@01@PIBVBV4Tree@01@@Z 100d2d90 f i GuBV4_SphereOverlap.obj
 0001:000d1e50       ??$setupMeshPointersAndQuantizedCoeffs@USphereParamsAll@@@Gu@physx@@YAXPIAUSphereParamsAll@@PIBVSourceMesh@01@PIBVBV4Tree@01@@Z 100d2e50 f i GuBV4_SphereOverlap.obj
 0001:000d1f10       ??$setupMeshPointersAndQuantizedCoeffs@USphereParamsCB@@@Gu@physx@@YAXPIAUSphereParamsCB@@PIBVSourceMesh@01@PIBVBV4Tree@01@@Z 100d2f10 f i GuBV4_SphereOverlap.obj
 0001:000d1fd0       ??0SphereParams@@QAE@XZ    100d2fd0 f i GuBV4_SphereOverlap.obj
 0001:000d2020       ??0SphereParamsAll@@QAE@XZ 100d3020 f i GuBV4_SphereOverlap.obj
 0001:000d2040       ??0SphereParamsCB@@QAE@XZ  100d3040 f i GuBV4_SphereOverlap.obj
 0001:000d2060       ??1SphereParams@@QAE@XZ    100d3060 f i GuBV4_SphereOverlap.obj
 0001:000d2090       ??1SphereParamsAll@@QAE@XZ 100d3090 f i GuBV4_SphereOverlap.obj
 0001:000d20b0       ??1SphereParamsCB@@QAE@XZ  100d30b0 f i GuBV4_SphereOverlap.obj
 0001:000d20d0       ?computeLocalSphere@Gu@physx@@YAXAAMAAVPxVec3@2@ABVSphere@12@PIBVPxMat44@2@@Z 100d30d0 f i GuBV4_SphereOverlap.obj
 0001:000d2630       ?BV4_SphereSweepSingle@@YAHABVSphere@Gu@physx@@ABVPxVec3@3@MABVBV4Tree@23@PIBVPxMat44@3@PIAVSweepHit@23@I@Z 100d3630 f   GuBV4_SphereSweep.obj
 0001:000d5060       ?BV4_SphereSweepCB@@YAXABVSphere@Gu@physx@@ABVPxVec3@3@MABVBV4Tree@23@PIBVPxMat44@3@P6A_NPAXABVSweepHit@23@@Z4I_N@Z 100d6060 f   GuBV4_SphereSweep.obj
 0001:000d76e0       ?BV4_GenericSweepCB_Old@@YAXABVPxVec3@physx@@00MABVBV4Tree@Gu@2@PIBVPxMat44@2@P6A_NPAX000IAAM@Z3@Z 100d86e0 f   GuBV4_SphereSweep.obj
 0001:000dacf0       ??0Sphere@Gu@physx@@QAE@XZ 100dbcf0 f i GuBV4_SphereSweep.obj
 0001:000daea0       ??4Sphere@Gu@physx@@QAEAAV012@ABV012@@Z 100dbea0 f i GuBV4_SphereSweep.obj
 0001:000db290       ?getTriangle@PxMeshQuery@physx@@SAXABVPxTriangleMeshGeometry@2@ABVPxTransform@2@IAAVPxTriangle@2@PAI3@Z 100dc290 f   GuMeshQuery.obj
 0001:000db360       ?getTriangle@PxMeshQuery@physx@@SAXABVPxHeightFieldGeometry@2@ABVPxTransform@2@IAAVPxTriangle@2@PAI3@Z 100dc360 f   GuMeshQuery.obj
 0001:000db3a0       ?findOverlapTriangleMesh@PxMeshQuery@physx@@SAIABVPxGeometry@2@ABVPxTransform@2@ABVPxTriangleMeshGeometry@2@1PAIIIAA_N@Z 100dc3a0 f   GuMeshQuery.obj
 0001:000db570       ?findOverlapHeightField@PxMeshQuery@physx@@SAIABVPxGeometry@2@ABVPxTransform@2@ABVPxHeightFieldGeometry@2@1PAIIIAA_N@Z 100dc570 f   GuMeshQuery.obj
 0001:000db7f0       ?sweep@PxMeshQuery@physx@@SA_NABVPxVec3@2@MABVPxGeometry@2@ABVPxTransform@2@IPBVPxTriangle@2@AAUPxSweepHit@2@V?$PxFlags@W4Enum@PxHitFlag@physx@@G@2@PBIM_N@Z 100dc7f0 f   GuMeshQuery.obj
 0001:000dbc90       ?intersectOBB_Particles@Gu@physx@@YAXPBVTriangleMesh@12@ABVBox@12@AAU?$MeshHitCallback@UPxRaycastHit@physx@@@12@_N3@Z 100dcc90 f   GuMeshQuery.obj
 0001:000dbfd0       ??0LimitedResults@Gu@physx@@QAE@PAIII@Z 100dcfd0 f i GuMeshQuery.obj
 0001:000dc010       ??0PxBoxGeometry@physx@@QAE@XZ 100dd010 f i GuMeshQuery.obj
 0001:000dc060       ??0PxCapsuleGeometry@physx@@QAE@MM@Z 100dd060 f i GuMeshQuery.obj
 0001:000dc0b0       ??0PxProfileScoped@physx@@QAE@PBD_N_K@Z 100dd0b0 f i GuMeshQuery.obj
 0001:000dc150       ??0SIMDGuard@shdfnd@physx@@QAE@XZ 100dd150 f i GuMeshQuery.obj
 0001:000dc1b0       ??1PxProfileScoped@physx@@QAE@XZ 100dd1b0 f i GuMeshQuery.obj
 0001:000dc210       ??1SIMDGuard@shdfnd@physx@@QAE@XZ 100dd210 f i GuMeshQuery.obj
 0001:000dc240       ??4PxBoxGeometry@physx@@QAEAAV01@ABV01@@Z 100dd240 f i GuMeshQuery.obj
 0001:000dc280       ??Dphysx@@YA?AVMatrix34@Cm@0@ABVPxTransform@0@ABVPxMeshScale@0@@Z 100dd280 f i GuMeshQuery.obj
 0001:000dc320       ?add@LimitedResults@Gu@physx@@QAE_NI@Z 100dd320 f i GuMeshQuery.obj
 0001:000dc3a0       ?computeWorldTriangle@TriangleMesh@Gu@physx@@QBEXAAVPxTriangle@3@IABVMatrix34@Cm@3@_NPIAI3@Z 100dd3a0 f i GuMeshQuery.obj
 0001:000dc6a0       ?getAdjacencies@TriangleMesh@Gu@physx@@QBEPBIXZ 100dd6a0 f i GuMeshQuery.obj
 0001:000dc6c0       ?getCapsule@Gu@physx@@YAXAAVCapsule@12@ABVPxCapsuleGeometry@2@ABVPxTransform@2@@Z 100dd6c0 f i GuMeshQuery.obj
 0001:000dc6f0       ?getTrianglesFast@TriangleMesh@Gu@physx@@QBEPBXXZ 100dd6f0 f i GuMeshQuery.obj
 0001:000dc710       ?getVerticesFast@TriangleMesh@Gu@physx@@QBEPBVPxVec3@3@XZ 100dd710 f i GuMeshQuery.obj
 0001:000dc730       ?has16BitIndices@TriangleMesh@Gu@physx@@QBE_NXZ 100dd730 f i GuMeshQuery.obj
 0001:000dc760       ?hasNegativeDeterminant@PxMeshScale@physx@@QBE_NXZ 100dd760 f i GuMeshQuery.obj
 0001:000dc7b0       ?intersectBoxVsMesh@Midphase@Gu@physx@@YA_NABVBox@23@ABVTriangleMesh@23@ABVPxTransform@3@ABVPxMeshScale@3@PAULimitedResults@23@@Z 100dd7b0 f i GuMeshQuery.obj
 0001:000dc800       ?intersectCapsuleVsMesh@Midphase@Gu@physx@@YA_NABVCapsule@23@ABVTriangleMesh@23@ABVPxTransform@3@ABVPxMeshScale@3@PAULimitedResults@23@@Z 100dd800 f i GuMeshQuery.obj
 0001:000dc850       ?intersectSphereVsMesh@Midphase@Gu@physx@@YA_NABVSphere@23@ABVTriangleMesh@23@ABVPxTransform@3@ABVPxMeshScale@3@PAULimitedResults@23@@Z 100dd850 f i GuMeshQuery.obj
 0001:000dc8a0       ?isValid@PxTransform@physx@@QBE_NXZ 100dd8a0 f i GuMeshQuery.obj
 0001:000dca90       ?poseExtent@PxBounds3@physx@@SA?AV12@ABVPxTransform@2@ABVPxVec3@2@@Z 100dda90 f i GuMeshQuery.obj
 0001:000dcad0       ?reset@LimitedResults@Gu@physx@@QAEXXZ 100ddad0 f i GuMeshQuery.obj
 0001:000dcbe0       ?raycast_triangleMesh_BV4@Gu@physx@@YAIPBVTriangleMesh@12@ABVPxTriangleMeshGeometry@2@ABVPxTransform@2@ABVPxVec3@2@3MV?$PxFlags@W4Enum@PxHitFlag@physx@@G@2@IPIAUPxRaycastHit@2@@Z 100ddbe0 f   GuMidphaseBV4.obj
 0001:000dd160       ?intersectSphereVsMesh_BV4@Gu@physx@@YA_NABVSphere@12@ABVTriangleMesh@12@ABVPxTransform@2@ABVPxMeshScale@2@PAULimitedResults@12@@Z 100de160 f   GuMidphaseBV4.obj
 0001:000dd360       ?intersectBoxVsMesh_BV4@Gu@physx@@YA_NABVBox@12@ABVTriangleMesh@12@ABVPxTransform@2@ABVPxMeshScale@2@PAULimitedResults@12@@Z 100de360 f   GuMidphaseBV4.obj
 0001:000dd520       ?intersectCapsuleVsMesh_BV4@Gu@physx@@YA_NABVCapsule@12@ABVTriangleMesh@12@ABVPxTransform@2@ABVPxMeshScale@2@PAULimitedResults@12@@Z 100de520 f   GuMidphaseBV4.obj
 0001:000dd710       ?intersectOBB_BV4@Gu@physx@@YAXPBVTriangleMesh@12@ABVBox@12@AAU?$MeshHitCallback@UPxRaycastHit@physx@@@12@_N3@Z 100de710 f   GuMidphaseBV4.obj
 0001:000dd750       ?sweepCapsule_MeshGeom_BV4@Gu@physx@@YA_NPBVTriangleMesh@12@ABVPxTriangleMeshGeometry@2@ABVPxTransform@2@ABVCapsule@12@ABVPxVec3@2@MAAUPxSweepHit@2@V?$PxFlags@W4Enum@PxHitFlag@physx@@G@2@M@Z 100de750 f   GuMidphaseBV4.obj
 0001:000ddda0       ?sweepBox_MeshGeom_BV4@Gu@physx@@YA_NPBVTriangleMesh@12@ABVPxTriangleMeshGeometry@2@ABVPxTransform@2@ABVBox@12@ABVPxVec3@2@MAAUPxSweepHit@2@V?$PxFlags@W4Enum@PxHitFlag@physx@@G@2@M@Z 100deda0 f   GuMidphaseBV4.obj
 0001:000de580       ?sweepConvex_MeshGeom_BV4@Gu@physx@@YAXPBVTriangleMesh@12@ABVBox@12@ABVPxVec3@2@MAAUSweepConvexMeshHitCallback@12@_N@Z 100df580 f   GuMidphaseBV4.obj
 0001:000dff40       ??0?$PxFlags@W4Enum@PxMeshGeometryFlag@physx@@E@physx@@QAE@ABV01@@Z 100e0f40 f i GuMidphaseBV4.obj
 0001:000dff60       ??0BV4RaycastCBParams@@QAE@PAUPxRaycastHit@physx@@IPBVPxMeshScale@2@PBVPxTransform@2@PBVMatrix34@Cm@2@IABVPxVec3@2@_NM@Z 100e0f60 f i GuMidphaseBV4.obj
 0001:000dfff0       ??0CapsuleV@Gu@physx@@QAE@XZ 100e0ff0 f i GuMidphaseBV4.obj
 0001:000e03a0       ??0Matrix34Padded@Gu@physx@@QAE@ABVMatrix34@Cm@2@@Z 100e13a0 f i GuMidphaseBV4.obj
 0001:000e03d0       ??0PxRaycastHit@physx@@QAE@XZ 100e13d0 f i GuMidphaseBV4.obj
 0001:000e0460       ??1Matrix34Padded@Gu@physx@@QAE@XZ 100e1460 f i GuMidphaseBV4.obj
 0001:000e0470       ??1SweepBoxMeshHitCallback@Gu@physx@@UAE@XZ 100e1470 f i GuMidphaseBV4.obj
 0001:000e04a0       ??1SweepCapsuleMeshHitCallback@Gu@physx@@UAE@XZ 100e14a0 f i GuMidphaseBV4.obj
 0001:000e04c0       ??1SweepShapeMeshHitCallback@Gu@physx@@UAE@XZ 100e14c0 f i GuMidphaseBV4.obj
 0001:000e04e0       ??4PxLocationHit@physx@@QAEAAU01@ABU01@@Z 100e14e0 f i GuMidphaseBV4.obj
 0001:000e0570       ??4PxRaycastHit@physx@@QAEAAU01@ABU01@@Z 100e1570 f i GuMidphaseBV4.obj
 0001:000e05f0       ??B?$PxFlags@W4Enum@PxMeshGeometryFlag@physx@@E@physx@@QBE_NXZ 100e15f0 f i GuMidphaseBV4.obj
 0001:000e0620       ??I?$PxFlags@W4Enum@PxMeshGeometryFlag@physx@@E@physx@@QBE?AV01@W4Enum@PxMeshGeometryFlag@1@@Z 100e1620 f i GuMidphaseBV4.obj
 0001:000e0670       ??_ESweepBoxMeshHitCallback@Gu@physx@@UAEPAXI@Z 100e1670 f i GuMidphaseBV4.obj
 0001:000e0670       ??_GSweepBoxMeshHitCallback@Gu@physx@@UAEPAXI@Z 100e1670 f i GuMidphaseBV4.obj
 0001:000e06b0       ?basisExtent@Cm@physx@@YA?AVPxVec3@2@ABV32@000@Z 100e16b0 f i GuMidphaseBV4.obj
 0001:000e08c0       ?computeSweepData@physx@@YAMABVPxTriangleMeshGeometry@1@AAVPxVec3@1@11M@Z 100e18c0 f i GuMidphaseBV4.obj
 0001:000e0a90       ?getBV4Tree@BV4TriangleMesh@Gu@physx@@QBEABVBV4Tree@23@XZ 100e1a90 f i GuMidphaseBV4.obj
 0001:000e0ab0       ?getGeomEpsilon@TriangleMesh@Gu@physx@@QBEMXZ 100e1ab0 f i GuMidphaseBV4.obj
 0001:000e0ad0       ?getInverse@physx@@YAXAAVPxMat33@1@AAVPxVec3@1@ABV21@ABV31@@Z 100e1ad0 f i GuMidphaseBV4.obj
 0001:000e0b30       ?initialize@CapsuleV@Gu@physx@@QAEXABT__m128@@00@Z 100e1b30 f i GuMidphaseBV4.obj
 0001:000e0c30       ?isSet@?$PxFlags@W4Enum@PxMeshGeometryFlag@physx@@E@physx@@QBE_NW4Enum@PxMeshGeometryFlag@2@@Z 100e1c30 f i GuMidphaseBV4.obj
 0001:000e0c80       ?multiply@PxVec3@physx@@QBE?AV12@ABV12@@Z 100e1c80 f i GuMidphaseBV4.obj
 0001:000e0cf0       ?normalizeSafe@PxVec3@physx@@QAEMXZ 100e1cf0 f i GuMidphaseBV4.obj
 0001:000e11f0       ?setupSweepHitForMTD@Gu@physx@@YAXAAUPxSweepHit@2@_NABVPxVec3@2@@Z 100e21f0 f i GuMidphaseBV4.obj
 0001:000e12c0       ?transform@PxMeshScale@physx@@QBE?AVPxVec3@2@ABV32@@Z 100e22c0 f i GuMidphaseBV4.obj
 0001:000e1400       ?raycast_triangleMesh_RTREE@Gu@physx@@YAIPBVTriangleMesh@12@ABVPxTriangleMeshGeometry@2@ABVPxTransform@2@ABVPxVec3@2@3MV?$PxFlags@W4Enum@PxHitFlag@physx@@G@2@IPIAUPxRaycastHit@2@@Z 100e2400 f   GuMidphaseRTree.obj
 0001:000e16a0       ?intersectSphereVsMesh_RTREE@Gu@physx@@YA_NABVSphere@12@ABVTriangleMesh@12@ABVPxTransform@2@ABVPxMeshScale@2@PAULimitedResults@12@@Z 100e26a0 f   GuMidphaseRTree.obj
 0001:000e16d0       ?intersectBoxVsMesh_RTREE@Gu@physx@@YA_NABVBox@12@ABVTriangleMesh@12@ABVPxTransform@2@ABVPxMeshScale@2@PAULimitedResults@12@@Z 100e26d0 f   GuMidphaseRTree.obj
 0001:000e1700       ?intersectCapsuleVsMesh_RTREE@Gu@physx@@YA_NABVCapsule@12@ABVTriangleMesh@12@ABVPxTransform@2@ABVPxMeshScale@2@PAULimitedResults@12@@Z 100e2700 f   GuMidphaseRTree.obj
 0001:000e1730       ?intersectOBB_RTREE@Gu@physx@@YAXPBVTriangleMesh@12@ABVBox@12@AAU?$MeshHitCallback@UPxRaycastHit@physx@@@12@_N3@Z 100e2730 f   GuMidphaseRTree.obj
 0001:000e1760       ?sweepCapsule_MeshGeom_RTREE@Gu@physx@@YA_NPBVTriangleMesh@12@ABVPxTriangleMeshGeometry@2@ABVPxTransform@2@ABVCapsule@12@ABVPxVec3@2@MAAUPxSweepHit@2@V?$PxFlags@W4Enum@PxHitFlag@physx@@G@2@M@Z 100e2760 f   GuMidphaseRTree.obj
 0001:000e1a40       ?sweepBox_MeshGeom_RTREE@Gu@physx@@YA_NPBVTriangleMesh@12@ABVPxTriangleMeshGeometry@2@ABVPxTransform@2@ABVBox@12@ABVPxVec3@2@MAAUPxSweepHit@2@V?$PxFlags@W4Enum@PxHitFlag@physx@@G@2@M@Z 100e2a40 f   GuMidphaseRTree.obj
 0001:000e2000       ?sweepConvex_MeshGeom_RTREE@Gu@physx@@YAXPBVTriangleMesh@12@ABVBox@12@ABVPxVec3@2@MAAUSweepConvexMeshHitCallback@12@_N@Z 100e3000 f   GuMidphaseRTree.obj
 0001:000e20b0       ?collideOBB@MeshRayCollider@@SAXABVBox@Gu@physx@@_NPBVRTreeTriangleMesh@34@AAU?$MeshHitCallback@UPxRaycastHit@physx@@@34@1@Z 100e30b0 f   GuMidphaseRTree.obj
 0001:000e5ea0       ??$collide@$00$00@MeshRayCollider@@SAXABVPxVec3@physx@@0M_NPBVRTreeTriangleMesh@Gu@2@AAU?$MeshHitCallback@UPxRaycastHit@physx@@@42@PBV12@@Z 100e6ea0 f i GuMidphaseRTree.obj
 0001:000e60f0       ??$collide@$00$0A@@MeshRayCollider@@SAXABVPxVec3@physx@@0M_NPBVRTreeTriangleMesh@Gu@2@AAU?$MeshHitCallback@UPxRaycastHit@physx@@@42@PBV12@@Z 100e70f0 f i GuMidphaseRTree.obj
 0001:000e6340       ??$collide@$0A@$00@MeshRayCollider@@SAXABVPxVec3@physx@@0M_NPBVRTreeTriangleMesh@Gu@2@AAU?$MeshHitCallback@UPxRaycastHit@physx@@@42@PBV12@@Z 100e7340 f i GuMidphaseRTree.obj
 0001:000e6580       ??$collide@$0A@$0A@@MeshRayCollider@@SAXABVPxVec3@physx@@0M_NPBVRTreeTriangleMesh@Gu@2@AAU?$MeshHitCallback@UPxRaycastHit@physx@@@42@PBV12@@Z 100e7580 f i GuMidphaseRTree.obj
 0001:000e6a00       ??0?$RayRTreeCallback@$00$00@@QAE@MAAU?$MeshHitCallback@UPxRaycastHit@physx@@@Gu@physx@@HPBXPBVPxVec3@3@ABV43@3M_N2@Z 100e7a00 f i GuMidphaseRTree.obj
 0001:000e6c20       ??0?$RayRTreeCallback@$00$0A@@@QAE@MAAU?$MeshHitCallback@UPxRaycastHit@physx@@@Gu@physx@@HPBXPBVPxVec3@3@ABV43@3M_N2@Z 100e7c20 f i GuMidphaseRTree.obj
 0001:000e6e40       ??0?$RayRTreeCallback@$0A@$00@@QAE@MAAU?$MeshHitCallback@UPxRaycastHit@physx@@@Gu@physx@@HPBXPBVPxVec3@3@ABV43@3M_N2@Z 100e7e40 f i GuMidphaseRTree.obj
 0001:000e7060       ??0?$RayRTreeCallback@$0A@$0A@@@QAE@MAAU?$MeshHitCallback@UPxRaycastHit@physx@@@Gu@physx@@HPBXPBVPxVec3@3@ABV43@3M_N2@Z 100e8060 f i GuMidphaseRTree.obj
 0001:000e7280       ??0Callback@RTree@Gu@physx@@QAE@XZ 100e8280 f i GuMidphaseRTree.obj
 0001:000e72a0       ??0CallbackRaycast@RTree@Gu@physx@@QAE@XZ 100e82a0 f i GuMidphaseRTree.obj
 0001:000e7320       ??0PxLocationHit@physx@@QAE@ABU01@@Z 100e8320 f i GuMidphaseRTree.obj
 0001:000e73b0       ??0PxRaycastHit@physx@@QAE@ABU01@@Z 100e83b0 f i GuMidphaseRTree.obj
 0001:000e7420       ??0RayMeshColliderCallback@@QAE@W4Enum@CallbackMode@Gu@physx@@PAUPxRaycastHit@4@IPBVPxMeshScale@4@PBVPxTransform@4@PBVMatrix34@Cm@4@IABVPxVec3@4@_NM@Z 100e8420 f i GuMidphaseRTree.obj
 0001:000e74d0       ??0SimpleRayTriOverlap@@QAE@ABVPxVec3@physx@@0_NM@Z 100e84d0 f i GuMidphaseRTree.obj
 0001:000e7670       ??1?$RayRTreeCallback@$00$00@@UAE@XZ 100e8670 f i GuMidphaseRTree.obj
 0001:000e7780       ??1?$RayRTreeCallback@$00$0A@@@UAE@XZ 100e8780 f i GuMidphaseRTree.obj
 0001:000e7890       ??1?$RayRTreeCallback@$0A@$00@@UAE@XZ 100e8890 f i GuMidphaseRTree.obj
 0001:000e79a0       ??1?$RayRTreeCallback@$0A@$0A@@@UAE@XZ 100e89a0 f i GuMidphaseRTree.obj
 0001:000e7ab0       ??1Callback@RTree@Gu@physx@@UAE@XZ 100e8ab0 f i GuMidphaseRTree.obj
 0001:000e7ad0       ??1CallbackRaycast@RTree@Gu@physx@@UAE@XZ 100e8ad0 f i GuMidphaseRTree.obj
 0001:000e7b20       ??1RayMeshColliderCallback@@UAE@XZ 100e8b20 f i GuMidphaseRTree.obj
 0001:000e7b37       ??_E?$RayRTreeCallback@$00$00@@W3AEPAXI@Z 100e8b37 f i GuMidphaseRTree.obj
 0001:000e7b41       ??_E?$RayRTreeCallback@$00$0A@@@W3AEPAXI@Z 100e8b41 f i GuMidphaseRTree.obj
 0001:000e7b4b       ??_E?$RayRTreeCallback@$0A@$00@@W3AEPAXI@Z 100e8b4b f i GuMidphaseRTree.obj
 0001:000e7b55       ??_E?$RayRTreeCallback@$0A@$0A@@@W3AEPAXI@Z 100e8b55 f i GuMidphaseRTree.obj
 0001:000e7ce0       ??_G?$RayRTreeCallback@$00$00@@UAEPAXI@Z 100e8ce0 f i GuMidphaseRTree.obj
 0001:000e7ce0       ??_E?$RayRTreeCallback@$00$00@@UAEPAXI@Z 100e8ce0 f i GuMidphaseRTree.obj
 0001:000e7d20       ??_G?$RayRTreeCallback@$00$0A@@@UAEPAXI@Z 100e8d20 f i GuMidphaseRTree.obj
 0001:000e7d20       ??_E?$RayRTreeCallback@$00$0A@@@UAEPAXI@Z 100e8d20 f i GuMidphaseRTree.obj
 0001:000e7d60       ??_E?$RayRTreeCallback@$0A@$00@@UAEPAXI@Z 100e8d60 f i GuMidphaseRTree.obj
 0001:000e7d60       ??_G?$RayRTreeCallback@$0A@$00@@UAEPAXI@Z 100e8d60 f i GuMidphaseRTree.obj
 0001:000e7da0       ??_G?$RayRTreeCallback@$0A@$0A@@@UAEPAXI@Z 100e8da0 f i GuMidphaseRTree.obj
 0001:000e7da0       ??_E?$RayRTreeCallback@$0A@$0A@@@UAEPAXI@Z 100e8da0 f i GuMidphaseRTree.obj
 0001:000e7de0       ??_ECallback@RTree@Gu@physx@@UAEPAXI@Z 100e8de0 f i GuMidphaseRTree.obj
 0001:000e7de0       ??_GCallback@RTree@Gu@physx@@UAEPAXI@Z 100e8de0 f i GuMidphaseRTree.obj
 0001:000e7e20       ??_GCallbackRaycast@RTree@Gu@physx@@UAEPAXI@Z 100e8e20 f i GuMidphaseRTree.obj
 0001:000e7e20       ??_ECallbackRaycast@RTree@Gu@physx@@UAEPAXI@Z 100e8e20 f i GuMidphaseRTree.obj
 0001:000e7ea0       ??_ERayMeshColliderCallback@@UAEPAXI@Z 100e8ea0 f i GuMidphaseRTree.obj
 0001:000e7ea0       ??_GRayMeshColliderCallback@@UAEPAXI@Z 100e8ea0 f i GuMidphaseRTree.obj
 0001:000e7ee0       ?GetNbTriangles@LeafTriangles@Gu@physx@@QBEIXZ 100e8ee0 f i GuMidphaseRTree.obj
 0001:000e7f00       ?GetTriangleIndex@LeafTriangles@Gu@physx@@QBEIXZ 100e8f00 f i GuMidphaseRTree.obj
 0001:000e7f20       ?LeafGetNbTriangles@Gu@physx@@YAII@Z 100e8f20 f i GuMidphaseRTree.obj
 0001:000e7f40       ?LeafGetTriangleIndex@Gu@physx@@YAII@Z 100e8f40 f i GuMidphaseRTree.obj
 0001:000e7f50       ?getRTree@RTreeTriangleMesh@Gu@physx@@QBEABURTree@23@XZ 100e8f50 f i GuMidphaseRTree.obj
 0001:000e7f70       ?getVertIndices@?$RayRTreeCallback@$00$00@@QAEXIAAI00@Z 100e8f70 f i GuMidphaseRTree.obj
 0001:000e8050       ?getVertIndices@?$RayRTreeCallback@$00$0A@@@QAEXIAAI00@Z 100e9050 f i GuMidphaseRTree.obj
 0001:000e8130       ?getVertIndices@?$RayRTreeCallback@$0A@$00@@QAEXIAAI00@Z 100e9130 f i GuMidphaseRTree.obj
 0001:000e8210       ?getVertIndices@?$RayRTreeCallback@$0A@$0A@@@QAEXIAAI00@Z 100e9210 f i GuMidphaseRTree.obj
 0001:000e82f0       ?inAnyMode@?$MeshHitCallback@UPxRaycastHit@physx@@@Gu@physx@@QBE_NXZ 100e92f0 f i GuMidphaseRTree.obj
 0001:000e8330       ?inClosestMode@?$MeshHitCallback@UPxRaycastHit@physx@@@Gu@physx@@QBE_NXZ 100e9330 f i GuMidphaseRTree.obj
 0001:000e8370       ?largestAxis@shdfnd@physx@@YAIABVPxVec3@2@AAI1@Z 100e9370 f i GuMidphaseRTree.obj
 0001:000e8430       ?overlap@SimpleRayTriOverlap@@QBEHABVPxVec3@physx@@00AAUPxRaycastHit@3@@Z 100e9430 f i GuMidphaseRTree.obj
 0001:000e9270       ?processHit@RayMeshColliderCallback@@UAE_NABUPxRaycastHit@physx@@ABVPxVec3@3@11AAMPBI@Z 100ea270 f i GuMidphaseRTree.obj
 0001:000e95c0       ?processResults@?$RayRTreeCallback@$00$00@@UAE_NIPAI@Z 100ea5c0 f i GuMidphaseRTree.obj
 0001:000e95f0       ?processResults@?$RayRTreeCallback@$00$00@@UAE_NIPAIAAM@Z 100ea5f0 f i GuMidphaseRTree.obj
 0001:000e9c70       ?processResults@?$RayRTreeCallback@$00$0A@@@UAE_NIPAI@Z 100eac70 f i GuMidphaseRTree.obj
 0001:000e9ca0       ?processResults@?$RayRTreeCallback@$00$0A@@@UAE_NIPAIAAM@Z 100eaca0 f i GuMidphaseRTree.obj
 0001:000ea310       ?processResults@?$RayRTreeCallback@$0A@$00@@UAE_NIPAI@Z 100eb310 f i GuMidphaseRTree.obj
 0001:000ea340       ?processResults@?$RayRTreeCallback@$0A@$00@@UAE_NIPAIAAM@Z 100eb340 f i GuMidphaseRTree.obj
 0001:000ea9b0       ?processResults@?$RayRTreeCallback@$0A@$0A@@@UAE_NIPAI@Z 100eb9b0 f i GuMidphaseRTree.obj
 0001:000ea9e0       ?processResults@?$RayRTreeCallback@$0A@$0A@@@UAE_NIPAIAAM@Z 100eb9e0 f i GuMidphaseRTree.obj
 0001:000eb050       ?profile@Callback@RTree@Gu@physx@@UAEXXZ 100ec050 f i GuMidphaseRTree.obj
 0001:000eb0b0       ?transformBoxOrthonormal@physx@@YA?AVBox@Gu@1@ABV231@ABVPxTransform@1@@Z 100ec0b0 f i GuMidphaseRTree.obj
 0001:000eb190       ?checkOverlapAABB_triangleGeom@Gu@physx@@YA_NABVPxGeometry@2@ABVPxTransform@2@ABVPxBounds3@2@@Z 100ec190 f   GuOverlapTestsMesh.obj
 0001:000eb2e0       ?GeomOverlapCallback_SphereMesh@@YA_NABVPxGeometry@physx@@ABVPxTransform@2@01PAUTriggerCache@Gu@2@@Z 100ec2e0 f   GuOverlapTestsMesh.obj
 0001:000eb3d0       ?GeomOverlapCallback_CapsuleMesh@@YA_NABVPxGeometry@physx@@ABVPxTransform@2@01PAUTriggerCache@Gu@2@@Z 100ec3d0 f   GuOverlapTestsMesh.obj
 0001:000eb4c0       ?GeomOverlapCallback_BoxMesh@@YA_NABVPxGeometry@physx@@ABVPxTransform@2@01PAUTriggerCache@Gu@2@@Z 100ec4c0 f   GuOverlapTestsMesh.obj
 0001:000eb5c0       ?GeomOverlapCallback_ConvexMesh@@YA_NABVPxGeometry@physx@@ABVPxTransform@2@01PAUTriggerCache@Gu@2@@Z 100ec5c0 f   GuOverlapTestsMesh.obj
 0001:000eb9d0       ??$PX_UNUSED@PAUTriggerCache@Gu@physx@@@@YAXABQAUTriggerCache@Gu@physx@@@Z 100ec9d0 f i GuOverlapTestsMesh.obj
 0001:000eb9e0       ??$gjk@U?$RelativeConvex@VTriangleV@Gu@physx@@@Gu@physx@@U?$LocalConvex@VConvexHullV@Gu@physx@@@23@@Gu@physx@@YA?AW4GjkStatus@01@ABU?$RelativeConvex@VTriangleV@Gu@physx@@@01@ABU?$LocalConvex@VConvexHullV@Gu@physx@@@01@ABT__m128@@2AAT5@333@Z 100ec9e0 f i GuOverlapTestsMesh.obj
 0001:000ec5d0       ??0?$RelativeConvex@VTriangleV@Gu@physx@@@Gu@physx@@QAE@ABVTriangleV@12@ABVPsMatTransformV@aos@shdfnd@2@@Z 100ed5d0 f i GuOverlapTestsMesh.obj
 0001:000ec650       ??0ConvexHullV@Gu@physx@@QAE@XZ 100ed650 f i GuOverlapTestsMesh.obj
 0001:000ec690       ??0ConvexVsMeshOverlapCallback@@QAE@ABVConvexMesh@Gu@physx@@ABVPxMeshScale@3@ABVFastVertex2ShapeScaling@Cm@3@ABVPxTransform@3@3_NABVBox@23@@Z 100ed690 f i GuOverlapTestsMesh.obj
 0001:000eca80       ??0PsMatTransformV@aos@shdfnd@physx@@QAE@ABT__m128@@ABUMat33V@123@@Z 100eda80 f i GuOverlapTestsMesh.obj
 0001:000ecad0       ??0PsMatTransformV@aos@shdfnd@physx@@QAE@XZ 100edad0 f i GuOverlapTestsMesh.obj
 0001:000ecb50       ??1?$RelativeConvex@VTriangleV@Gu@physx@@@Gu@physx@@UAE@XZ 100edb50 f i GuOverlapTestsMesh.obj
 0001:000ecb70       ??1ConvexVsMeshOverlapCallback@@UAE@XZ 100edb70 f i GuOverlapTestsMesh.obj
 0001:000ecba0       ??_G?$RelativeConvex@VTriangleV@Gu@physx@@@Gu@physx@@UAEPAXI@Z 100edba0 f i GuOverlapTestsMesh.obj
 0001:000ecba0       ??_E?$RelativeConvex@VTriangleV@Gu@physx@@@Gu@physx@@UAEPAXI@Z 100edba0 f i GuOverlapTestsMesh.obj
 0001:000ecbe0       ??_EConvexVsMeshOverlapCallback@@UAEPAXI@Z 100edbe0 f i GuOverlapTestsMesh.obj
 0001:000ecbe0       ??_GConvexVsMeshOverlapCallback@@UAEPAXI@Z 100edbe0 f i GuOverlapTestsMesh.obj
 0001:000ecc20       ?BAnyTrue3@aos@shdfnd@physx@@YA?AT__m128@@T4@@Z 100edc20 f i GuOverlapTestsMesh.obj
 0001:000eccc0       ?BOr@aos@shdfnd@physx@@YA?AT__m128@@T4@0@Z 100edcc0 f i GuOverlapTestsMesh.obj
 0001:000ecd10       ?getCenter@?$RelativeConvex@VTriangleV@Gu@physx@@@Gu@physx@@UBE?AT__m128@@XZ 100edd10 f i GuOverlapTestsMesh.obj
 0001:000ecd70       ?getSweepMargin@?$RelativeConvex@VTriangleV@Gu@physx@@@Gu@physx@@UBE?AT__m128@@XZ 100edd70 f i GuOverlapTestsMesh.obj
 0001:000ecda0       ?processHit@ConvexVsMeshOverlapCallback@@UAE_NABUPxRaycastHit@physx@@ABVPxVec3@3@11AAMPBI@Z 100edda0 f i GuOverlapTestsMesh.obj
 0001:000ed1e0       ?support@?$RelativeConvex@VTriangleV@Gu@physx@@@Gu@physx@@UBE?AT__m128@@ABT4@@Z 100ee1e0 f i GuOverlapTestsMesh.obj
 0001:000ed230       ?support@?$RelativeConvex@VTriangleV@Gu@physx@@@Gu@physx@@UBE?AT__m128@@ABT4@AAHPAT4@@Z 100ee230 f i GuOverlapTestsMesh.obj
 0001:000ed280       ?supportPoint@?$RelativeConvex@VTriangleV@Gu@physx@@@Gu@physx@@UBE?AT__m128@@HPAT4@@Z 100ee280 f i GuOverlapTestsMesh.obj
 0001:000ed2f0       ?supportRelative@TriangleV@Gu@physx@@QBE?AT__m128@@ABT4@ABVPsMatTransformV@aos@shdfnd@3@1@Z 100ee2f0 f i GuOverlapTestsMesh.obj
 0001:000ed360       ?supportRelative@TriangleV@Gu@physx@@QBE?AT__m128@@ABT4@ABVPsMatTransformV@aos@shdfnd@3@1AAHPAT4@@Z 100ee360 f i GuOverlapTestsMesh.obj
 0001:000ed3e0       ?transform@PsMatTransformV@aos@shdfnd@physx@@QBE?AT__m128@@ABT5@@Z 100ee3e0 f i GuOverlapTestsMesh.obj
 0001:000ed460       ??0RTree@Gu@physx@@QAE@W4PxEMPTY@2@@Z 100ee460 f   GuRTree.obj
 0001:000ed4b0       ?exportExtraData@RTree@Gu@physx@@QAEXAAVPxSerializationContext@3@@Z 100ee4b0 f   GuRTree.obj
 0001:000ed4f0       ?importExtraData@RTree@Gu@physx@@QAEXAAVPxDeserializationContext@3@@Z 100ee4f0 f   GuRTree.obj
 0001:000ed520       ?load@RTree@Gu@physx@@QAE_NAAVPxInputStream@3@I_N@Z 100ee520 f   GuRTree.obj
 0001:000ed810       ?refitAllStaticTree@RTree@Gu@physx@@QAEXAAUCallbackRefit@123@PAVPxBounds3@3@@Z 100ee810 f   GuRTree.obj
 0001:000edcf0       ?validate@RTree@Gu@physx@@QAEXPAUCallbackRefit@123@@Z 100eecf0 f   GuRTree.obj
 0001:000edd60       ?computeBottomLevelCount@RTree@Gu@physx@@QBEII@Z 100eed60 f   GuRTree.obj
 0001:000eded0       ?validateRecursive@RTree@Gu@physx@@IAEXIURTreeNodeQ@23@PAURTreePage@23@PAUCallbackRefit@123@@Z 100eeed0 f   GuRTree.obj
 0001:000ee9d0       ??$PX_UNUSED@URTreeNodeQ@Gu@physx@@@@YAXABURTreeNodeQ@Gu@physx@@@Z 100ef9d0 f i GuRTree.obj
 0001:000ee9e0       ??$readExtraData@URTreePage@Gu@physx@@@PxDeserializationContext@physx@@QAEPAURTreePage@Gu@1@I@Z 100ef9e0 f i GuRTree.obj
 0001:000eea20       ??0?$AlignedAllocator@$0IA@VNonTrackingAllocator@shdfnd@physx@@@shdfnd@physx@@QAE@ABVNonTrackingAllocator@12@@Z 100efa20 f i GuRTree.obj
 0001:000eea40       ?allocate@?$AlignedAllocator@$0IA@VNonTrackingAllocator@shdfnd@physx@@@shdfnd@physx@@QAEPAXIPBDH@Z 100efa40 f i GuRTree.obj
 0001:000eeac0       ?computeBounds@RTreePage@Gu@physx@@QAEXAAURTreeNodeQ@23@@Z 100efac0 f i GuRTree.obj
 0001:000eed10       ?deallocate@?$AlignedAllocator@$0IA@VNonTrackingAllocator@shdfnd@physx@@@shdfnd@physx@@QAEXPAX@Z 100efd10 f i GuRTree.obj
 0001:000eed60       ?getNode@RTreePage@Gu@physx@@QBEXIAAURTreeNodeQ@23@@Z 100efd60 f i GuRTree.obj
 0001:000eee50       ?isEmpty@RTreePage@Gu@physx@@QBE_NI@Z 100efe50 f i GuRTree.obj
 0001:000eeea0       ?isLeaf@RTreeNodeQ@Gu@physx@@QBEIXZ 100efea0 f i GuRTree.obj
 0001:000eeec0       ?isLeaf@RTreePage@Gu@physx@@QBEII@Z 100efec0 f i GuRTree.obj
 0001:000eeee0       ?maximum@PxVec3@physx@@QBE?AV12@ABV12@@Z 100efee0 f i GuRTree.obj
 0001:000eef90       ?minimum@PxVec3@physx@@QBE?AV12@ABV12@@Z 100eff90 f i GuRTree.obj
 0001:000ef040       ?nodeCount@RTreePage@Gu@physx@@QBEIXZ 100f0040 f i GuRTree.obj
 0001:000ef0a0       ?release@RTree@Gu@physx@@QAEXXZ 100f00a0 f i GuRTree.obj
 0001:000ef100       ?traverseAABB@RTree@Gu@physx@@QBEXABVPxVec3@3@0IPAIPAUCallback@123@@Z 100f0100 f   GuRTreeQueries.obj
 0001:000ef7a0       ?traverseOBB@RTree@Gu@physx@@QBEXABVBox@23@IPAIPAUCallback@123@@Z 100f07a0 f   GuRTreeQueries.obj
 0001:000f1af0       ??$PX_UNUSED@PAI@@YAXABQAI@Z 100f2af0 f i GuRTreeQueries.obj
 0001:000f1b00       ??$traverseRay@$00@RTree@Gu@physx@@QBEXABVPxVec3@2@0IPAIPAUCallbackRaycast@012@PBV32@M@Z 100f2b00 f i GuRTreeQueries.obj
 0001:000f2a00       ??$traverseRay@$0A@@RTree@Gu@physx@@QBEXABVPxVec3@2@0IPAIPAUCallbackRaycast@012@PBV32@M@Z 100f3a00 f i GuRTreeQueries.obj
 0001:000f38f0       ?U4Load@aos@shdfnd@physx@@YA?AT__m128@@I@Z 100f48f0 f i GuRTreeQueries.obj
 0001:000f3930       ?U4StoreA@aos@shdfnd@physx@@YAXT__m128@@PAI@Z 100f4930 f i GuRTreeQueries.obj
 0001:000f39d0       ?V4Andc@aos@shdfnd@physx@@YA?AT__m128@@T4@0@Z 100f49d0 f i GuRTreeQueries.obj
 0001:000f3a40       ?V4IsGrtrV32u@aos@shdfnd@physx@@YA?AT__m128@@T4@0@Z 100f4a40 f i GuRTreeQueries.obj
 0001:000f3a90       ?V4U32Andc@aos@shdfnd@physx@@YA?AT__m128@@T4@0@Z 100f4a90 f i GuRTreeQueries.obj
 0001:000f3b10       ?V4U32StoreAligned@aos@shdfnd@physx@@YAXT__m128@@PAT4@@Z 100f4b10 f i GuRTreeQueries.obj
 0001:000f3b50       ?Vec4V_From_PxVec3_WUndefined@aos@shdfnd@physx@@YA?AT__m128@@ABVPxVec3@3@@Z 100f4b50 f i GuRTreeQueries.obj
 0001:000f3bb0       ?VecU32V_From_BoolV@aos@shdfnd@physx@@YA?AT__m128@@ABT4@@Z 100f4bb0 f i GuRTreeQueries.obj
 0001:000f3c50       ??0SweepShapeMeshHitCallback@Gu@physx@@QAE@W4Enum@CallbackMode@12@ABV?$PxFlags@W4Enum@PxHitFlag@physx@@G@2@_NM@Z 100f4c50 f   GuSweepsMesh.obj
 0001:000f3cb0       ??0SweepCapsuleMeshHitCallback@Gu@physx@@QAE@AAUPxSweepHit@2@ABVMatrix34@Cm@2@M_NABVCapsule@12@ABVPxVec3@2@ABV?$PxFlags@W4Enum@PxHitFlag@physx@@G@2@2M@Z 100f4cb0 f   GuSweepsMesh.obj
 0001:000f3d70       ?processHit@SweepCapsuleMeshHitCallback@Gu@physx@@UAE_NABUPxRaycastHit@3@ABVPxVec3@3@11AAMPBI@Z 100f4d70 f   GuSweepsMesh.obj
 0001:000f40f0       ?finalizeHit@SweepCapsuleMeshHitCallback@Gu@physx@@QBE_NAAUPxSweepHit@3@ABVCapsule@23@ABVPxTriangleMeshGeometry@3@ABVPxTransform@3@_N@Z 100f50f0 f   GuSweepsMesh.obj
 0001:000f4280       ??0SweepBoxMeshHitCallback@Gu@physx@@QAE@W4Enum@CallbackMode@12@ABVMatrix34Padded@12@M_NABVBox@12@ABVPxVec3@2@44ABV?$PxFlags@W4Enum@PxHitFlag@physx@@G@2@M2M@Z 100f5280 f   GuSweepsMesh.obj
 0001:000f4470       ?processHit@SweepBoxMeshHitCallback@Gu@physx@@UAE_NABUPxRaycastHit@3@ABVPxVec3@3@11AAMPBI@Z 100f5470 f   GuSweepsMesh.obj
 0001:000f4c10       ?finalizeHit@SweepBoxMeshHitCallback@Gu@physx@@QBE_NAAUPxSweepHit@3@ABVPxTriangleMeshGeometry@3@ABVPxTransform@3@2ABVPxVec3@3@_N4@Z 100f5c10 f   GuSweepsMesh.obj
 0001:000f4ed0       ??0SweepConvexMeshHitCallback@Gu@physx@@QAE@ABUConvexHullData@12@ABVPxMeshScale@2@ABVFastVertex2ShapeScaling@Cm@2@ABVPxTransform@2@3ABVPxVec3@2@MV?$PxFlags@W4Enum@PxHitFlag@physx@@G@2@_NM6M@Z 100f5ed0 f   GuSweepsMesh.obj
 0001:000f5240       ?processHit@SweepConvexMeshHitCallback@Gu@physx@@UAE_NABUPxRaycastHit@3@ABVPxVec3@3@11AAMPBI@Z 100f6240 f   GuSweepsMesh.obj
 0001:000f5420       ?finalizeHit@SweepConvexMeshHitCallback@Gu@physx@@QAE_NAAUPxSweepHit@3@ABVPxTriangleMeshGeometry@3@ABVPxTransform@3@ABVPxConvexMeshGeometry@3@2ABVPxVec3@3@M_N555@Z 100f6420 f   GuSweepsMesh.obj
 0001:000f5ae0       ?sweepCapsule_MeshGeom@@YA_NABVPxGeometry@physx@@ABVPxTransform@2@ABVPxCapsuleGeometry@2@1ABVCapsule@Gu@2@ABVPxVec3@2@MAAUPxSweepHit@2@V?$PxFlags@W4Enum@PxHitFlag@physx@@G@2@M@Z 100f6ae0 f   GuSweepsMesh.obj
 0001:000f5cd0       ?sweepBox_MeshGeom@@YA_NABVPxGeometry@physx@@ABVPxTransform@2@ABVPxBoxGeometry@2@1ABVBox@Gu@2@ABVPxVec3@2@MAAUPxSweepHit@2@V?$PxFlags@W4Enum@PxHitFlag@physx@@G@2@M@Z 100f6cd0 f   GuSweepsMesh.obj
 0001:000f5d90       ?sweepConvex_MeshGeom@@YA_NABVPxGeometry@physx@@ABVPxTransform@2@ABVPxConvexMeshGeometry@2@1ABVPxVec3@2@MAAUPxSweepHit@2@V?$PxFlags@W4Enum@PxHitFlag@physx@@G@2@M@Z 100f6d90 f   GuSweepsMesh.obj
 0001:000f6ac0       ??$PX_UNUSED@VPxBoxGeometry@physx@@@@YAXABVPxBoxGeometry@physx@@@Z 100f7ac0 f i GuSweepsMesh.obj
 0001:000f6ad0       ??$PX_UNUSED@VPxCapsuleGeometry@physx@@@@YAXABVPxCapsuleGeometry@physx@@@Z 100f7ad0 f i GuSweepsMesh.obj
 0001:000f6ae0       ??$PX_UNUSED@VPxTransform@physx@@@@YAXABVPxTransform@physx@@@Z 100f7ae0 f i GuSweepsMesh.obj
 0001:000f6af0       ??$getConvex@VShrunkBoxV@Gu@physx@@@GjkConvexBase@Gu@physx@@QBEABVShrunkBoxV@12@XZ 100f7af0 f i GuSweepsMesh.obj
 0001:000f6b10       ??$getConvex@VShrunkConvexHullV@Gu@physx@@@GjkConvexBase@Gu@physx@@QBEABVShrunkConvexHullV@12@XZ 100f7b10 f i GuSweepsMesh.obj
 0001:000f6b30       ??$gjkPenetration@U?$LocalConvex@VTriangleV@Gu@physx@@@Gu@physx@@U?$LocalConvex@VShrunkBoxV@Gu@physx@@@23@@Gu@physx@@YA?AW4GjkStatus@01@ABU?$LocalConvex@VTriangleV@Gu@physx@@@01@ABU?$LocalConvex@VShrunkBoxV@Gu@physx@@@01@ABT__m128@@2AAT5@333PIAE4AAE_N@Z 100f7b30 f i GuSweepsMesh.obj
 0001:000f7c80       ??$gjkPenetration@U?$LocalConvex@VTriangleV@Gu@physx@@@Gu@physx@@U?$LocalConvex@VShrunkConvexHullV@Gu@physx@@@23@@Gu@physx@@YA?AW4GjkStatus@01@ABU?$LocalConvex@VTriangleV@Gu@physx@@@01@ABU?$LocalConvex@VShrunkConvexHullV@Gu@physx@@@01@ABT__m128@@2AAT5@333PIAE4AAE_N@Z 100f8c80 f i GuSweepsMesh.obj
 0001:000f8dd0       ??$gjkRaycast@U?$LocalConvex@VTriangleV@Gu@physx@@@Gu@physx@@U?$LocalConvex@VBoxV@Gu@physx@@@23@@Gu@physx@@YA_NABU?$LocalConvex@VTriangleV@Gu@physx@@@01@ABU?$LocalConvex@VBoxV@Gu@physx@@@01@ABT__m128@@222AAT4@33M@Z 100f9dd0 f i GuSweepsMesh.obj
 0001:000f9cd0       ??$gjkRaycast@U?$LocalConvex@VTriangleV@Gu@physx@@@Gu@physx@@U?$LocalConvex@VConvexHullV@Gu@physx@@@23@@Gu@physx@@YA_NABU?$LocalConvex@VTriangleV@Gu@physx@@@01@ABU?$LocalConvex@VConvexHullV@Gu@physx@@@01@ABT__m128@@222AAT4@33M@Z 100facd0 f i GuSweepsMesh.obj
 0001:000fabd0       ??$gjkRaycastPenetration@U?$LocalConvex@VTriangleV@Gu@physx@@@Gu@physx@@U?$LocalConvex@VBoxV@Gu@physx@@@23@@Gu@physx@@YA_NABU?$LocalConvex@VTriangleV@Gu@physx@@@01@ABU?$LocalConvex@VBoxV@Gu@physx@@@01@ABT__m128@@222AAT4@33M_N@Z 100fbbd0 f i GuSweepsMesh.obj
 0001:000faeb0       ??$gjkRaycastPenetration@U?$LocalConvex@VTriangleV@Gu@physx@@@Gu@physx@@U?$LocalConvex@VConvexHullV@Gu@physx@@@23@@Gu@physx@@YA_NABU?$LocalConvex@VTriangleV@Gu@physx@@@01@ABU?$LocalConvex@VConvexHullV@Gu@physx@@@01@ABT__m128@@222AAT4@33M_N@Z 100fbeb0 f i GuSweepsMesh.obj
 0001:000fb190       ??0?$LocalConvex@VShrunkBoxV@Gu@physx@@@Gu@physx@@QAE@ABVShrunkBoxV@12@@Z 100fc190 f i GuSweepsMesh.obj
 0001:000fb1c0       ??0?$LocalConvex@VShrunkConvexHullV@Gu@physx@@@Gu@physx@@QAE@ABVShrunkConvexHullV@12@@Z 100fc1c0 f i GuSweepsMesh.obj
 0001:000fb1f0       ??0PsTransformV@aos@shdfnd@physx@@QAE@ABT__m128@@0@Z 100fc1f0 f i GuSweepsMesh.obj
 0001:000fb280       ??1?$LocalConvex@VShrunkBoxV@Gu@physx@@@Gu@physx@@UAE@XZ 100fc280 f i GuSweepsMesh.obj
 0001:000fb2a0       ??1?$LocalConvex@VShrunkConvexHullV@Gu@physx@@@Gu@physx@@UAE@XZ 100fc2a0 f i GuSweepsMesh.obj
 0001:000fb2c0       ??1SweepConvexMeshHitCallback@Gu@physx@@UAE@XZ 100fc2c0 f i GuSweepsMesh.obj
 0001:000fb300       ??4PxSweepHit@physx@@QAEAAU01@ABU01@@Z 100fc300 f i GuSweepsMesh.obj
 0001:000fb340       ??_5?$PxFlags@W4Enum@PxHitFlag@physx@@G@physx@@QAEAAV01@ABV01@@Z 100fc340 f i GuSweepsMesh.obj
 0001:000fb370       ??_E?$LocalConvex@VShrunkBoxV@Gu@physx@@@Gu@physx@@UAEPAXI@Z 100fc370 f i GuSweepsMesh.obj
 0001:000fb370       ??_G?$LocalConvex@VShrunkBoxV@Gu@physx@@@Gu@physx@@UAEPAXI@Z 100fc370 f i GuSweepsMesh.obj
 0001:000fb3b0       ??_E?$LocalConvex@VShrunkConvexHullV@Gu@physx@@@Gu@physx@@UAEPAXI@Z 100fc3b0 f i GuSweepsMesh.obj
 0001:000fb3b0       ??_G?$LocalConvex@VShrunkConvexHullV@Gu@physx@@@Gu@physx@@UAEPAXI@Z 100fc3b0 f i GuSweepsMesh.obj
 0001:000fb3f0       ??_ESweepCapsuleMeshHitCallback@Gu@physx@@UAEPAXI@Z 100fc3f0 f i GuSweepsMesh.obj
 0001:000fb3f0       ??_GSweepCapsuleMeshHitCallback@Gu@physx@@UAEPAXI@Z 100fc3f0 f i GuSweepsMesh.obj
 0001:000fb430       ??_GSweepConvexMeshHitCallback@Gu@physx@@UAEPAXI@Z 100fc430 f i GuSweepsMesh.obj
 0001:000fb430       ??_ESweepConvexMeshHitCallback@Gu@physx@@UAEPAXI@Z 100fc430 f i GuSweepsMesh.obj
 0001:000fb470       ??_GSweepShapeMeshHitCallback@Gu@physx@@UAEPAXI@Z 100fc470 f i GuSweepsMesh.obj
 0001:000fb470       ??_ESweepShapeMeshHitCallback@Gu@physx@@UAEPAXI@Z 100fc470 f i GuSweepsMesh.obj
 0001:000fb4b0       ?QuatConjugate@aos@shdfnd@physx@@YA?AT__m128@@T4@@Z 100fc4b0 f i GuSweepsMesh.obj
 0001:000fb520       ?QuatIdentity@aos@shdfnd@physx@@YA?AT__m128@@XZ 100fc520 f i GuSweepsMesh.obj
 0001:000fb580       ?QuatLength@aos@shdfnd@physx@@YA?AT__m128@@T4@@Z 100fc580 f i GuSweepsMesh.obj
 0001:000fb5d0       ?QuatMul@aos@shdfnd@physx@@YA?AT__m128@@T4@0@Z 100fc5d0 f i GuSweepsMesh.obj
 0001:000fb800       ?QuatRotate@aos@shdfnd@physx@@YA?AT__m128@@T4@0@Z 100fc800 f i GuSweepsMesh.obj
 0001:000fb9e0       ?QuatRotateInv@aos@shdfnd@physx@@YA?AT__m128@@T4@0@Z 100fc9e0 f i GuSweepsMesh.obj
 0001:000fbbc0       ?QuatTransform@aos@shdfnd@physx@@YA?AT__m128@@T4@00@Z 100fcbc0 f i GuSweepsMesh.obj
 0001:000fbdd0       ?V4Dot@aos@shdfnd@physx@@YA?AT__m128@@T4@0@Z 100fcdd0 f i GuSweepsMesh.obj
 0001:000fbed0       ?V4Length@aos@shdfnd@physx@@YA?AT__m128@@T4@@Z 100fced0 f i GuSweepsMesh.obj
 0001:000fbf30       ?V4ScaleAdd@aos@shdfnd@physx@@YA?AT__m128@@T4@00@Z 100fcf30 f i GuSweepsMesh.obj
 0001:000fbff0       ?V4SetW@aos@shdfnd@physx@@YA?AT__m128@@T4@0@Z 100fcff0 f i GuSweepsMesh.obj
 0001:000fc0b0       ?getCenter@?$LocalConvex@VShrunkBoxV@Gu@physx@@@Gu@physx@@UBE?AT__m128@@XZ 100fd0b0 f i GuSweepsMesh.obj
 0001:000fc0e0       ?getCenter@?$LocalConvex@VShrunkConvexHullV@Gu@physx@@@Gu@physx@@UBE?AT__m128@@XZ 100fd0e0 f i GuSweepsMesh.obj
 0001:000fc110       ?getFacesByVertices8@ConvexHullData@Gu@physx@@QBEPBEXZ 100fd110 f i GuSweepsMesh.obj
 0001:000fc180       ?getMarginF@ConvexV@Gu@physx@@QBEMXZ 100fd180 f i GuSweepsMesh.obj
 0001:000fc1a0       ?getShape2VertexSkew@FastVertex2ShapeScaling@Cm@physx@@QBEABVPxMat33@3@XZ 100fd1a0 f i GuSweepsMesh.obj
 0001:000fc1c0       ?getShrunkConvex@?$LocalConvex@VBoxV@Gu@physx@@@Gu@physx@@QBE?AU?$LocalConvex@VShrunkBoxV@Gu@physx@@@23@XZ 100fd1c0 f i GuSweepsMesh.obj
 0001:000fc1f0       ?getShrunkConvex@?$LocalConvex@VConvexHullV@Gu@physx@@@Gu@physx@@QBE?AU?$LocalConvex@VShrunkConvexHullV@Gu@physx@@@23@XZ 100fd1f0 f i GuSweepsMesh.obj
 0001:000fc220       ?getShrunkConvex@?$LocalConvex@VTriangleV@Gu@physx@@@Gu@physx@@QBE?AU123@XZ 100fd220 f i GuSweepsMesh.obj
 0001:000fc250       ?getSweepContactEps@Gu@physx@@YA?AT__m128@@ABT3@0@Z 100fd250 f i GuSweepsMesh.obj
 0001:000fc2f0       ?getSweepMargin@?$LocalConvex@VShrunkBoxV@Gu@physx@@@Gu@physx@@UBE?AT__m128@@XZ 100fd2f0 f i GuSweepsMesh.obj
 0001:000fc320       ?getSweepMargin@?$LocalConvex@VShrunkConvexHullV@Gu@physx@@@Gu@physx@@UBE?AT__m128@@XZ 100fd320 f i GuSweepsMesh.obj
 0001:000fc350       ?initialize@ConvexHullV@Gu@physx@@QAEXPBUConvexHullData@23@ABT__m128@@11_N@Z 100fd350 f i GuSweepsMesh.obj
 0001:000fc4a0       ?intersectPlanes@Gu@physx@@YA?AT__m128@@ABT3@00000@Z 100fd4a0 f i GuSweepsMesh.obj
 0001:000fc5d0       ?isFinite@PsTransformV@aos@shdfnd@physx@@QBE_NXZ 100fd5d0 f i GuSweepsMesh.obj
 0001:000fc610       ?isFiniteQuatV@aos@shdfnd@physx@@YA_NT__m128@@@Z 100fd610 f i GuSweepsMesh.obj
 0001:000fc650       ?isFiniteVec3V@aos@shdfnd@physx@@YA_NT__m128@@@Z 100fd650 f i GuSweepsMesh.obj
 0001:000fc730       ?isFiniteVec4V@aos@shdfnd@physx@@YA_NT__m128@@@Z 100fd730 f i GuSweepsMesh.obj
 0001:000fc840       ?isSane@PsTransformV@aos@shdfnd@physx@@QBE_NXZ 100fd840 f i GuSweepsMesh.obj
 0001:000fc880       ?isSaneQuatV@aos@shdfnd@physx@@YA_NT__m128@@@Z 100fd880 f i GuSweepsMesh.obj
 0001:000fc9a0       ?planeShift@ShrunkConvexHullV@Gu@physx@@QBE?AT__m128@@IABT4@PAT4@@Z 100fd9a0 f i GuSweepsMesh.obj
 0001:000fcd80       ?rotate@PsTransformV@aos@shdfnd@physx@@QBE?AT__m128@@ABT5@@Z 100fdd80 f i GuSweepsMesh.obj
 0001:000fce30       ?rotateInv@PsTransformV@aos@shdfnd@physx@@QBE?AT__m128@@ABT5@@Z 100fde30 f i GuSweepsMesh.obj
 0001:000fcee0       ?support@?$LocalConvex@VShrunkBoxV@Gu@physx@@@Gu@physx@@UBE?AT__m128@@ABT4@@Z 100fdee0 f i GuSweepsMesh.obj
 0001:000fcf10       ?support@?$LocalConvex@VShrunkBoxV@Gu@physx@@@Gu@physx@@UBE?AT__m128@@ABT4@AAHPAT4@@Z 100fdf10 f i GuSweepsMesh.obj
 0001:000fcf50       ?support@?$LocalConvex@VShrunkConvexHullV@Gu@physx@@@Gu@physx@@UBE?AT__m128@@ABT4@@Z 100fdf50 f i GuSweepsMesh.obj
 0001:000fcf80       ?support@?$LocalConvex@VShrunkConvexHullV@Gu@physx@@@Gu@physx@@UBE?AT__m128@@ABT4@AAHPAT4@@Z 100fdf80 f i GuSweepsMesh.obj
 0001:000fcfc0       ?supportLocal@ShrunkBoxV@Gu@physx@@QBE?AT__m128@@ABT4@@Z 100fdfc0 f i GuSweepsMesh.obj
 0001:000fd0c0       ?supportLocal@ShrunkBoxV@Gu@physx@@QBE?AT__m128@@ABT4@AAHPAT4@@Z 100fe0c0 f i GuSweepsMesh.obj
 0001:000fd1e0       ?supportLocal@ShrunkConvexHullV@Gu@physx@@QBE?AT__m128@@ABT4@@Z 100fe1e0 f i GuSweepsMesh.obj
 0001:000fd230       ?supportLocal@ShrunkConvexHullV@Gu@physx@@QBE?AT__m128@@ABT4@AAHPAT4@@Z 100fe230 f i GuSweepsMesh.obj
 0001:000fd350       ?supportPoint@?$LocalConvex@VShrunkBoxV@Gu@physx@@@Gu@physx@@UBE?AT__m128@@HPAT4@@Z 100fe350 f i GuSweepsMesh.obj
 0001:000fd390       ?supportPoint@?$LocalConvex@VShrunkConvexHullV@Gu@physx@@@Gu@physx@@UBE?AT__m128@@HPAT4@@Z 100fe390 f i GuSweepsMesh.obj
 0001:000fd3d0       ?supportPoint@ShrunkBoxV@Gu@physx@@QBE?AT__m128@@HPAT4@@Z 100fe3d0 f i GuSweepsMesh.obj
 0001:000fd4b0       ?supportPoint@ShrunkConvexHullV@Gu@physx@@QBE?AT__m128@@HPAT4@@Z 100fe4b0 f i GuSweepsMesh.obj
 0001:000fd580       ?sweepBoxVsMesh@Midphase@Gu@physx@@YA_NPBVTriangleMesh@23@ABVPxTriangleMeshGeometry@3@ABVPxTransform@3@ABVBox@23@ABVPxVec3@3@MAAUPxSweepHit@3@V?$PxFlags@W4Enum@PxHitFlag@physx@@G@3@M@Z 100fe580 f i GuSweepsMesh.obj
 0001:000fd600       ?sweepCapsuleVsMesh@Midphase@Gu@physx@@YA_NPBVTriangleMesh@23@ABVPxTriangleMeshGeometry@3@ABVPxTransform@3@ABVCapsule@23@ABVPxVec3@3@MAAUPxSweepHit@3@V?$PxFlags@W4Enum@PxHitFlag@physx@@G@3@M@Z 100fe600 f i GuSweepsMesh.obj
 0001:000fd680       ?sweepConvexVsMesh@Midphase@Gu@physx@@YAXPBVTriangleMesh@23@ABVBox@23@ABVPxVec3@3@MAAUSweepConvexMeshHitCallback@23@_N@Z 100fe680 f i GuSweepsMesh.obj
 0001:000fd6e0       ?transform@PsTransformV@aos@shdfnd@physx@@QBE?AT__m128@@ABT5@@Z 100fe6e0 f i GuSweepsMesh.obj
 0001:000fd7a0       ?transformInv@PsTransformV@aos@shdfnd@physx@@QBE?AV1234@ABV1234@@Z 100fe7a0 f i GuSweepsMesh.obj
 0001:000fd9a0       ?exportExtraData@TriangleMesh@Gu@physx@@UAEXAAVPxSerializationContext@3@@Z 100fe9a0 f   GuTriangleMesh.obj
 0001:000fdb20       ?importExtraData@TriangleMesh@Gu@physx@@QAEXAAVPxDeserializationContext@3@@Z 100feb20 f   GuTriangleMesh.obj
 0001:000fdc30       ?release@TriangleMesh@Gu@physx@@UAEXXZ 100fec30 f   GuTriangleMesh.obj
 0001:000fdc50       ?onRefCountZero@TriangleMesh@Gu@physx@@UAEXXZ 100fec50 f   GuTriangleMesh.obj
 0001:000fdce0       ??0TriangleMesh@Gu@physx@@QAE@AAVGuMeshFactory@2@AAVTriangleMeshData@12@@Z 100fece0 f   GuTriangleMesh.obj
 0001:000fde60       ??1TriangleMesh@Gu@physx@@UAE@XZ 100fee60 f   GuTriangleMesh.obj
 0001:000fe040       ?getVerticesForModification@TriangleMesh@Gu@physx@@UAEPAVPxVec3@3@XZ 100ff040 f   GuTriangleMesh.obj
 0001:000fe070       ?refitBVH@TriangleMesh@Gu@physx@@UAE?AVPxBounds3@3@XZ 100ff070 f   GuTriangleMesh.obj
 0001:000fe2c0       ??$deletePxBase@VTriangleMesh@Gu@physx@@@Cm@physx@@YAXPAVTriangleMesh@Gu@1@@Z 100ff2c0 f i GuTriangleMesh.obj
 0001:000fe350       ??$readExtraData@G$0BA@@PxDeserializationContext@physx@@QAEPAGI@Z 100ff350 f i GuTriangleMesh.obj
 0001:000fe380       ??$readExtraData@G@PxDeserializationContext@physx@@QAEPAGI@Z 100ff380 f i GuTriangleMesh.obj
 0001:000fe3c0       ??$readExtraData@I$0BA@@PxDeserializationContext@physx@@QAEPAII@Z 100ff3c0 f i GuTriangleMesh.obj
 0001:000fe3f0       ??$readExtraData@I@PxDeserializationContext@physx@@QAEPAII@Z 100ff3f0 f i GuTriangleMesh.obj
 0001:000fe430       ??$readExtraData@VPxVec3@physx@@$0BA@@PxDeserializationContext@physx@@QAEPAVPxVec3@1@I@Z 100ff430 f i GuTriangleMesh.obj
 0001:000fe460       ??$readExtraData@VPxVec3@physx@@@PxDeserializationContext@physx@@QAEPAVPxVec3@1@I@Z 100ff460 f i GuTriangleMesh.obj
 0001:000fe4a0       ??0?$PxFlags@W4Enum@PxTriangleMeshFlag@physx@@E@physx@@QAE@E@Z 100ff4a0 f i GuTriangleMesh.obj
 0001:000fe4c0       ??0PxTriangleMesh@physx@@IAE@GV?$PxFlags@W4Enum@PxBaseFlag@physx@@G@1@@Z 100ff4c0 f i GuTriangleMesh.obj
 0001:000fe500       ??1PxTriangleMesh@physx@@MAE@XZ 100ff500 f i GuTriangleMesh.obj
 0001:000fe523       ??_ETriangleMesh@Gu@physx@@W7AEPAXI@Z 100ff523 f i GuTriangleMesh.obj
 0001:000fe530       ??_GBV32Tree@Gu@physx@@QAEPAXI@Z 100ff530 f i GuTriangleMesh.obj
 0001:000fe590       ??_EPxTriangleMesh@physx@@MAEPAXI@Z 100ff590 f i GuTriangleMesh.obj
 0001:000fe590       ??_GPxTriangleMesh@physx@@MAEPAXI@Z 100ff590 f i GuTriangleMesh.obj
 0001:000fe5d0       ??_GTriangleMesh@Gu@physx@@UAEPAXI@Z 100ff5d0 f i GuTriangleMesh.obj
 0001:000fe5d0       ??_ETriangleMesh@Gu@physx@@UAEPAXI@Z 100ff5d0 f i GuTriangleMesh.obj
 0001:000fe630       ?acquireReference@TriangleMesh@Gu@physx@@UAEXXZ 100ff630 f i GuTriangleMesh.obj
 0001:000fe650       ?getLocalBounds@TriangleMesh@Gu@physx@@UBE?AVPxBounds3@3@XZ 100ff650 f i GuTriangleMesh.obj
 0001:000fe6e0       ?getMaterials@TriangleMesh@Gu@physx@@QBEPBGXZ 100ff6e0 f i GuTriangleMesh.obj
 0001:000fe700       ?getMax@CenterExtents@Gu@physx@@QBE?AVPxVec3@3@XZ 100ff700 f i GuTriangleMesh.obj
 0001:000fe730       ?getMin@CenterExtents@Gu@physx@@QBE?AVPxVec3@3@XZ 100ff730 f i GuTriangleMesh.obj
 0001:000fe760       ?getNbTriangles@TriangleMesh@Gu@physx@@UBEIXZ 100ff760 f i GuTriangleMesh.obj
 0001:000fe780       ?getNbVertices@TriangleMesh@Gu@physx@@UBEIXZ 100ff780 f i GuTriangleMesh.obj
 0001:000fe7a0       ?getReferenceCount@TriangleMesh@Gu@physx@@UBEIXZ 100ff7a0 f i GuTriangleMesh.obj
 0001:000fe7c0       ?getTriangleMaterialIndex@TriangleMesh@Gu@physx@@UBEGI@Z 100ff7c0 f i GuTriangleMesh.obj
 0001:000fe810       ?getTriangleMeshFlags@TriangleMesh@Gu@physx@@UBE?AV?$PxFlags@W4Enum@PxTriangleMeshFlag@physx@@E@3@XZ 100ff810 f i GuTriangleMesh.obj
 0001:000fe840       ?getTriangles@TriangleMesh@Gu@physx@@UBEPBXXZ 100ff840 f i GuTriangleMesh.obj
 0001:000fe860       ?getTrianglesRemap@TriangleMesh@Gu@physx@@UBEPBIXZ 100ff860 f i GuTriangleMesh.obj
 0001:000fe880       ?getVertices@TriangleMesh@Gu@physx@@UBEPBVPxVec3@3@XZ 100ff880 f i GuTriangleMesh.obj
 0001:000fe8a0       ?hasPerTriangleMaterials@TriangleMesh@Gu@physx@@QBE_NXZ 100ff8a0 f i GuTriangleMesh.obj
 0001:000fe8e0       ?isKindOf@PxTriangleMesh@physx@@MBE_NPBD@Z 100ff8e0 f i GuTriangleMesh.obj
 0001:000fe940       ?requiresObjects@TriangleMesh@Gu@physx@@UAEXAAVPxProcessPxBaseCallback@3@@Z 100ff940 f i GuTriangleMesh.obj
 0001:000fe9e0       ?exportExtraData@BV4TriangleMesh@Gu@physx@@UAEXAAVPxSerializationContext@3@@Z 100ff9e0 f   GuTriangleMeshBV4.obj
 0001:000fea10       ?importExtraData@BV4TriangleMesh@Gu@physx@@QAEXAAVPxDeserializationContext@3@@Z 100ffa10 f   GuTriangleMeshBV4.obj
 0001:000feaa0       ?createObject@BV4TriangleMesh@Gu@physx@@SAPAVTriangleMesh@23@AAPAEAAVPxDeserializationContext@3@@Z 100ffaa0 f   GuTriangleMeshBV4.obj
 0001:000feb20       ??0BV4TriangleMesh@Gu@physx@@QAE@AAVGuMeshFactory@2@AAVTriangleMeshData@12@@Z 100ffb20 f   GuTriangleMeshBV4.obj
 0001:000fec80       ??0BV4TriangleMesh@Gu@physx@@QAE@V?$PxFlags@W4Enum@PxBaseFlag@physx@@G@2@@Z 100ffc80 f i GuTriangleMeshBV4.obj
 0001:000fecf0       ??0PxTriangleMesh@physx@@IAE@V?$PxFlags@W4Enum@PxBaseFlag@physx@@G@1@@Z 100ffcf0 f i GuTriangleMeshBV4.obj
 0001:000fed30       ??0SourceMesh@Gu@physx@@QAE@W4PxEMPTY@2@@Z 100ffd30 f i GuTriangleMeshBV4.obj
 0001:000fed50       ??0TriangleMesh@Gu@physx@@QAE@V?$PxFlags@W4Enum@PxBaseFlag@physx@@G@2@@Z 100ffd50 f i GuTriangleMeshBV4.obj
 0001:000fedc0       ??1BV4TriangleMesh@Gu@physx@@UAE@XZ 100ffdc0 f i GuTriangleMeshBV4.obj
 0001:000fee0b       ??_EBV4TriangleMesh@Gu@physx@@W7AEPAXI@Z 100ffe0b f i GuTriangleMeshBV4.obj
 0001:000fee20       ??_EBV4TriangleMesh@Gu@physx@@UAEPAXI@Z 100ffe20 f i GuTriangleMeshBV4.obj
 0001:000fee20       ??_GBV4TriangleMesh@Gu@physx@@UAEPAXI@Z 100ffe20 f i GuTriangleMeshBV4.obj
 0001:000fee80       ?getConcreteTypeName@BV4TriangleMesh@Gu@physx@@UBEPBDXZ 100ffe80 f i GuTriangleMeshBV4.obj
 0001:000feea0       ?getMidphaseID@BV4TriangleMesh@Gu@physx@@UBE?AW4Enum@PxMeshMidPhase@3@XZ 100ffea0 f i GuTriangleMeshBV4.obj
 0001:000feec0       ?resolveReferences@TriangleMesh@Gu@physx@@QAEXAAVPxDeserializationContext@3@@Z 100ffec0 f i GuTriangleMeshBV4.obj
 0001:000feed0       ?setPointers@SourceMesh@Gu@physx@@QAEXPAVIndTri32@23@PAVIndTri16@23@PBVPxVec3@3@@Z 100ffed0 f i GuTriangleMeshBV4.obj
 0001:000fefa0       ?exportExtraData@RTreeTriangleMesh@Gu@physx@@UAEXAAVPxSerializationContext@3@@Z 100fffa0 f   GuTriangleMeshRTree.obj
 0001:000fefd0       ?importExtraData@RTreeTriangleMesh@Gu@physx@@QAEXAAVPxDeserializationContext@3@@Z 100fffd0 f   GuTriangleMeshRTree.obj
 0001:000ff000       ?createObject@RTreeTriangleMesh@Gu@physx@@SAPAVTriangleMesh@23@AAPAEAAVPxDeserializationContext@3@@Z 10100000 f   GuTriangleMeshRTree.obj
 0001:000ff080       ??0RTreeTriangleMesh@Gu@physx@@QAE@AAVGuMeshFactory@2@AAVTriangleMeshData@12@@Z 10100080 f   GuTriangleMeshRTree.obj
 0001:000ff120       ?getVerticesForModification@RTreeTriangleMesh@Gu@physx@@UAEPAVPxVec3@3@XZ 10100120 f   GuTriangleMeshRTree.obj
 0001:000ff140       ?refitBVH@RTreeTriangleMesh@Gu@physx@@UAE?AVPxBounds3@3@XZ 10100140 f   GuTriangleMeshRTree.obj
 0001:000ff350       ??0?$RefitCallback@G@physx@@QAE@PBVPxVec3@1@PBG@Z 10100350 f i GuTriangleMeshRTree.obj
 0001:000ff390       ??0?$RefitCallback@I@physx@@QAE@PBVPxVec3@1@PBI@Z 10100390 f i GuTriangleMeshRTree.obj
 0001:000ff3d0       ??0CallbackRefit@RTree@Gu@physx@@QAE@XZ 101003d0 f i GuTriangleMeshRTree.obj
 0001:000ff3f0       ??0PxBounds3@physx@@QAE@$$QAV01@@Z 101003f0 f i GuTriangleMeshRTree.obj
 0001:000ff430       ??0RTree@Gu@physx@@QAE@XZ  10100430 f i GuTriangleMeshRTree.obj
 0001:000ff4c0       ??0RTreeTriangleMesh@Gu@physx@@QAE@V?$PxFlags@W4Enum@PxBaseFlag@physx@@G@2@@Z 101004c0 f i GuTriangleMeshRTree.obj
 0001:000ff520       ??1?$RefitCallback@G@physx@@UAE@XZ 10100520 f i GuTriangleMeshRTree.obj
 0001:000ff550       ??1?$RefitCallback@I@physx@@UAE@XZ 10100550 f i GuTriangleMeshRTree.obj
 0001:000ff580       ??1CallbackRefit@RTree@Gu@physx@@UAE@XZ 10100580 f i GuTriangleMeshRTree.obj
 0001:000ff5a0       ??1RTree@Gu@physx@@QAE@XZ  101005a0 f i GuTriangleMeshRTree.obj
 0001:000ff5c0       ??1RTreeTriangleMesh@Gu@physx@@UAE@XZ 101005c0 f i GuTriangleMeshRTree.obj
 0001:000ff600       ??4RTree@Gu@physx@@QAEAAU012@ABU012@@Z 10100600 f i GuTriangleMeshRTree.obj
 0001:000ff6cf       ??_ERTreeTriangleMesh@Gu@physx@@W7AEPAXI@Z 101006cf f i GuTriangleMeshRTree.obj
 0001:000ff6e0       ??_E?$RefitCallback@G@physx@@UAEPAXI@Z 101006e0 f i GuTriangleMeshRTree.obj
 0001:000ff6e0       ??_G?$RefitCallback@G@physx@@UAEPAXI@Z 101006e0 f i GuTriangleMeshRTree.obj
 0001:000ff720       ??_E?$RefitCallback@I@physx@@UAEPAXI@Z 10100720 f i GuTriangleMeshRTree.obj
 0001:000ff720       ??_G?$RefitCallback@I@physx@@UAEPAXI@Z 10100720 f i GuTriangleMeshRTree.obj
 0001:000ff760       ??_GCallbackRefit@RTree@Gu@physx@@UAEPAXI@Z 10100760 f i GuTriangleMeshRTree.obj
 0001:000ff760       ??_ECallbackRefit@RTree@Gu@physx@@UAEPAXI@Z 10100760 f i GuTriangleMeshRTree.obj
 0001:000ff7a0       ??_GRTreeTriangleMesh@Gu@physx@@UAEPAXI@Z 101007a0 f i GuTriangleMeshRTree.obj
 0001:000ff7a0       ??_ERTreeTriangleMesh@Gu@physx@@UAEPAXI@Z 101007a0 f i GuTriangleMeshRTree.obj
 0001:000ff800       ?getConcreteTypeName@RTreeTriangleMesh@Gu@physx@@UBEPBDXZ 10100800 f i GuTriangleMeshRTree.obj
 0001:000ff820       ?getMidphaseID@RTreeTriangleMesh@Gu@physx@@UBE?AW4Enum@PxMeshMidPhase@3@XZ 10100820 f i GuTriangleMeshRTree.obj
 0001:000ff830       ?recomputeBounds@?$RefitCallback@G@physx@@UAEXIAAT__m128@@0@Z 10100830 f i GuTriangleMeshRTree.obj
 0001:000ffc50       ?recomputeBounds@?$RefitCallback@I@physx@@UAEXIAAT__m128@@0@Z 10100c50 f i GuTriangleMeshRTree.obj
 0001:00100050       ?exportExtraData@HeightField@Gu@physx@@UAEXAAVPxSerializationContext@3@@Z 10101050 f   GuHeightField.obj
 0001:001000a0       ?importExtraData@HeightField@Gu@physx@@QAEXAAVPxDeserializationContext@3@@Z 101010a0 f   GuHeightField.obj
 0001:001000d0       ?createObject@HeightField@Gu@physx@@SAPAV123@AAPAEAAVPxDeserializationContext@3@@Z 101010d0 f   GuHeightField.obj
 0001:00100140       ??0HeightField@Gu@physx@@QAE@PAVGuMeshFactory@2@@Z 10101140 f   GuHeightField.obj
 0001:00100230       ??0HeightField@Gu@physx@@QAE@AAVGuMeshFactory@2@AAUHeightFieldData@12@@Z 10101230 f   GuHeightField.obj
 0001:001002e0       ?release@HeightField@Gu@physx@@UAEXXZ 101012e0 f   GuHeightField.obj
 0001:00100300       ?saveCells@HeightField@Gu@physx@@UBEIPAXI@Z 10101300 f   GuHeightField.obj
 0001:00100350       ?modifySamples@HeightField@Gu@physx@@UAE_NHHABVPxHeightFieldDesc@3@_N@Z 10101350 f   GuHeightField.obj
 0001:00100650       ?acquireReference@HeightField@Gu@physx@@UAEXXZ 10101650 f   GuHeightField.obj
 0001:00100670       ?getReferenceCount@HeightField@Gu@physx@@UBEIXZ 10101670 f   GuHeightField.obj
 0001:00100690       ?onRefCountZero@HeightField@Gu@physx@@UAEXXZ 10101690 f   GuHeightField.obj
 0001:00100740       ?loadFromDesc@HeightField@Gu@physx@@QAE_NABVPxHeightFieldDesc@3@@Z 10101740 f   GuHeightField.obj
 0001:00100b40       ?load@HeightField@Gu@physx@@QAE_NAAVPxInputStream@3@@Z 10101b40 f   GuHeightField.obj
 0001:00100e50       ?computeCellCoordinates@HeightField@Gu@physx@@QBEIMMAAM0@Z 10101e50 f   GuHeightField.obj
 0001:00101100       ?isSolidVertex@HeightField@Gu@physx@@QBE_NIIIGAA_N@Z 10102100 f   GuHeightField.obj
 0001:00101290       ?isCollisionVertexPreca@HeightField@Gu@physx@@QBE_NIIIG@Z 10102290 f   GuHeightField.obj
 0001:001013e0       ?parseTrianglesForCollisionVertices@HeightField@Gu@physx@@QAEXG@Z 101023e0 f   GuHeightField.obj
 0001:001016b0       ?computeExtreme@HeightField@Gu@physx@@QBEMIIII@Z 101026b0 f   GuHeightField.obj
 0001:001017e0       ?releaseMemory@HeightField@Gu@physx@@QAEXXZ 101027e0 f   GuHeightField.obj
 0001:00101840       ??1HeightField@Gu@physx@@UAE@XZ 10102840 f   GuHeightField.obj
 0001:00101890       ?getVertexEdgeIndices@physx@@YAIABVHeightField@Gu@1@IIIQAUEdgeData@1@@Z 10102890 f   GuHeightField.obj
 0001:00101c90       ?getEdgeTriangleIndices@physx@@YAIABVHeightField@Gu@1@ABUEdgeData@1@PIAI@Z 10102c90 f   GuHeightField.obj
 0001:001026d0       ??$PxMax@H@physx@@YAHHH@Z  101036d0 f i GuHeightField.obj
 0001:00102700       ??$deletePxBase@VHeightField@Gu@physx@@@Cm@physx@@YAXPAVHeightField@Gu@1@@Z 10103700 f i GuHeightField.obj
 0001:00102790       ??$readExtraData@UPxHeightFieldSample@physx@@$0BA@@PxDeserializationContext@physx@@QAEPAUPxHeightFieldSample@1@I@Z 10103790 f i GuHeightField.obj
 0001:001027c0       ??$readExtraData@UPxHeightFieldSample@physx@@@PxDeserializationContext@physx@@QAEPAUPxHeightFieldSample@1@I@Z 101037c0 f i GuHeightField.obj
 0001:00102800       ??0?$BitMapBase@VNonTrackingAllocator@shdfnd@physx@@@Cm@physx@@QAE@XZ 10103800 f i GuHeightField.obj
 0001:00102840       ??0?$PxFlags@W4Enum@PxHeightFieldFlag@physx@@G@physx@@QAE@G@Z 10103840 f i GuHeightField.obj
 0001:00102860       ??0HeightField@Gu@physx@@QAE@V?$PxFlags@W4Enum@PxBaseFlag@physx@@G@2@@Z 10103860 f i GuHeightField.obj
 0001:001028e0       ??0PxHeightField@physx@@IAE@GV?$PxFlags@W4Enum@PxBaseFlag@physx@@G@1@@Z 101038e0 f i GuHeightField.obj
 0001:00102920       ??0PxHeightField@physx@@IAE@V?$PxFlags@W4Enum@PxBaseFlag@physx@@G@1@@Z 10103920 f i GuHeightField.obj
 0001:00102960       ??1?$BitMapBase@VNonTrackingAllocator@shdfnd@physx@@@Cm@physx@@QAE@XZ 10103960 f i GuHeightField.obj
 0001:001029b0       ??9?$PxFlags@W4Enum@PxHeightFieldFlag@physx@@G@physx@@QBE_NABV01@@Z 101039b0 f i GuHeightField.obj
 0001:001029f0       ??_EHeightField@Gu@physx@@UAEPAXI@Z 101039f0 f i GuHeightField.obj
 0001:00102ac4       ??_EHeightField@Gu@physx@@W7AEPAXI@Z 10103ac4 f i GuHeightField.obj
 0001:00102ad0       ?PxMemSet@physx@@YAPAXPAXHI@Z 10103ad0 f i GuHeightField.obj
 0001:00102af0       ?anyHole@@YAIIG@Z          10103af0 f i GuHeightField.obj
 0001:00102b60       ?clear@?$BitMapBase@VNonTrackingAllocator@shdfnd@physx@@@Cm@physx@@QAEXXZ 10103b60 f i GuHeightField.obj
 0001:00102b90       ?clearBit@?$PxBitAndDataT@E$0IA@@physx@@QAEXXZ 10103b90 f i GuHeightField.obj
 0001:00102bc0       ?extendUninitialized@?$BitMapBase@VNonTrackingAllocator@shdfnd@physx@@@Cm@physx@@IAEXI@Z 10103bc0 f i GuHeightField.obj
 0001:00102c60       ?getMaterialIndex01@HeightField@Gu@physx@@QBEII@Z 10103c60 f i GuHeightField.obj
 0001:00102cc0       ?getMaxHeight@HeightField@Gu@physx@@QBEMXZ 10103cc0 f i GuHeightField.obj
 0001:00102ce0       ?getMinHeight@HeightField@Gu@physx@@QBEMXZ 10103ce0 f i GuHeightField.obj
 0001:00102d00       ?getWordCount@?$BitMapBase@VNonTrackingAllocator@shdfnd@physx@@@Cm@physx@@QBEIXZ 10103d00 f i GuHeightField.obj
 0001:00102d20       ?isConvexVertex@HeightField@Gu@physx@@QBE_NIII@Z 10103d20 f i GuHeightField.obj
 0001:00102f90       ?isInUserMemory@?$BitMapBase@VNonTrackingAllocator@shdfnd@physx@@@Cm@physx@@QBEIXZ 10103f90 f i GuHeightField.obj
 0001:00102fb0       ?isValid@PxHeightFieldDesc@physx@@QBE_NXZ 10103fb0 f i GuHeightField.obj
 0001:00103080       ?requiresObjects@HeightField@Gu@physx@@UAEXAAVPxProcessPxBaseCallback@3@@Z 10104080 f i GuHeightField.obj
 0001:00103090       ?resizeAndClear@?$BitMapBase@VNonTrackingAllocator@shdfnd@physx@@@Cm@physx@@QAEXI@Z 10104090 f i GuHeightField.obj
 0001:001030e0       ?resolveReferences@HeightField@Gu@physx@@QAEXAAVPxDeserializationContext@3@@Z 101040e0 f i GuHeightField.obj
 0001:001030f0       ?set@?$BitMapBase@VNonTrackingAllocator@shdfnd@physx@@@Cm@physx@@QAEXI@Z 101040f0 f i GuHeightField.obj
 0001:00103190       ?setBit@?$PxBitAndDataT@E$0IA@@physx@@QAEXXZ 10104190 f i GuHeightField.obj
 0001:001031c0       ?test@?$BitMapBase@VNonTrackingAllocator@shdfnd@physx@@@Cm@physx@@QBEHI@Z 101041c0 f i GuHeightField.obj
 0001:001032a0       ?computeLocalBounds@HeightFieldUtil@Gu@physx@@QBEXAAVPxBounds3@3@@Z 101042a0 f   GuHeightFieldUtil.obj
 0001:001033d0       ?getFaceIndexAtShapePoint@HeightFieldUtil@Gu@physx@@QBEIMM@Z 101043d0 f   GuHeightFieldUtil.obj
 0001:00103470       ?getFaceIndexAtShapePointNoTest@HeightFieldUtil@Gu@physx@@QBEIMM@Z 10104470 f   GuHeightFieldUtil.obj
 0001:00103540       ?getFaceIndexAtShapePointNoTest2@HeightFieldUtil@Gu@physx@@QBEIIMM@Z 10104540 f   GuHeightFieldUtil.obj
 0001:001035a0       ?getVertexNormal@HeightFieldUtil@Gu@physx@@QBE?AVPxVec3@3@III@Z 101045a0 f   GuHeightFieldUtil.obj
 0001:00103760       ?getVertexFaceIndex@HeightFieldUtil@Gu@physx@@QBEIIII@Z 10104760 f   GuHeightFieldUtil.obj
 0001:001038a0       ?getEdge@HeightFieldUtil@Gu@physx@@QBEXIIIIAAVPxVec3@3@0@Z 101048a0 f   GuHeightFieldUtil.obj
 0001:00103eb0       ?getEdgeFaceIndex@HeightFieldUtil@Gu@physx@@QBEII@Z 10104eb0 f   GuHeightFieldUtil.obj
 0001:00103f70       ?getEdgeFaceIndex@HeightFieldUtil@Gu@physx@@QBEIIIII@Z 10104f70 f   GuHeightFieldUtil.obj
 0001:00104040       ?getEdgeFaceIndex@HeightFieldUtil@Gu@physx@@QBEIIIPIBI@Z 10105040 f   GuHeightFieldUtil.obj
 0001:00104100       ?findClosestPointsOnCell@HeightFieldUtil@Gu@physx@@QBEIIIVPxVec3@3@PIAV43@PIAI_N33@Z 10105100 f   GuHeightFieldUtil.obj
 0001:00104ad0       ?findProjectionOnTriangle@HeightFieldUtil@Gu@physx@@QBE_NIIIABVPxVec3@3@AAV43@@Z 10105ad0 f   GuHeightFieldUtil.obj
 0001:00105180       ?findClosestPointOnEdge@HeightFieldUtil@Gu@physx@@QBEMIIIIABVPxVec3@3@AAV43@@Z 10106180 f   GuHeightFieldUtil.obj
 0001:001059f0       ?getTriangle@HeightFieldUtil@Gu@physx@@QBEIABVPxTransform@3@AAVPxTriangle@3@PAI2I_N3@Z 101069f0 f   GuHeightFieldUtil.obj
 0001:00105dd0       ?overlapAABBTriangles@HeightFieldUtil@Gu@physx@@QBE_NABVPxTransform@3@ABVPxBounds3@3@IPAV?$EntityReport@I@23@@Z 10106dd0 f   GuHeightFieldUtil.obj
 0001:00106f30       ?getEdgeTriangleIndices@HeightField@Gu@physx@@QBEIIQAIIII@Z 10107f30 f i GuHeightFieldUtil.obj
 0001:001070f0       ?getTriangleAdjacencyIndices@HeightField@Gu@physx@@QBEXIIIIAAI00@Z 101080f0 f i GuHeightFieldUtil.obj
 0001:00107480       ?getTriangleIndex2@HeightField@Gu@physx@@QBEIIMM@Z 10108480 f i GuHeightFieldUtil.obj
 0001:00107510       ?getTriangleIndex@HeightField@Gu@physx@@QBEIMM@Z 10108510 f i GuHeightFieldUtil.obj
 0001:00107580       ?getVertex@HeightField@Gu@physx@@QBE?AVPxVec3@3@I@Z 10108580 f i GuHeightFieldUtil.obj
 0001:00107640       ?isEmpty@PxBounds3@physx@@QBE_NXZ 10108640 f i GuHeightFieldUtil.obj
 0001:001076d0       ?isValidTriangle@HeightField@Gu@physx@@QBE_NI@Z 101086d0 f i GuHeightFieldUtil.obj
 0001:00107740       ?checkOverlapAABB_heightFieldGeom@Gu@physx@@YA_NABVPxGeometry@2@ABVPxTransform@2@ABVPxBounds3@2@@Z 10108740 f   GuOverlapTestsHF.obj
 0001:00109420       ?GeomOverlapCallback_SphereHeightfield@@YA_NABVPxGeometry@physx@@ABVPxTransform@2@01PAUTriggerCache@Gu@2@@Z 1010a420 f   GuOverlapTestsHF.obj
 0001:00109520       ?GeomOverlapCallback_CapsuleHeightfield@@YA_NABVPxGeometry@physx@@ABVPxTransform@2@01PAUTriggerCache@Gu@2@@Z 1010a520 f   GuOverlapTestsHF.obj
 0001:00109600       ?GeomOverlapCallback_BoxHeightfield@@YA_NABVPxGeometry@physx@@ABVPxTransform@2@01PAUTriggerCache@Gu@2@@Z 1010a600 f   GuOverlapTestsHF.obj
 0001:00109710       ?GeomOverlapCallback_ConvexHeightfield@@YA_NABVPxGeometry@physx@@ABVPxTransform@2@01PAUTriggerCache@Gu@2@@Z 1010a710 f   GuOverlapTestsHF.obj
 0001:0010a020       ??$traceSegment@UTriggerTraceSegmentCallback@Gu@physx@@$0A@$0A@@HeightFieldTraceUtil@Gu@physx@@QBEXABVPxVec3@2@0MPAUTriggerTraceSegmentCallback@12@ABVPxBounds3@2@_NPBV32@@Z 1010b020 f i GuOverlapTestsHF.obj
 0001:0010c2c0       ??0?$OverlapTraceSegment@UTriggerTraceSegmentCallback@Gu@physx@@@HeightFieldTraceUtil@Gu@physx@@QAE@ABVHeightFieldUtil@23@ABVHeightField@23@@Z 1010d2c0 f i GuOverlapTestsHF.obj
 0001:0010c310       ??0Matrix34@Cm@physx@@QAE@ABVPxMat33@2@@Z 1010d310 f i GuOverlapTestsHF.obj
 0001:0010c350       ??0OverlapHeightfieldTraceSegmentHelper@Gu@physx@@QAE@ABVHeightFieldTraceUtil@12@@Z 1010d350 f i GuOverlapTestsHF.obj
 0001:0010c3a0       ??0TriggerTraceSegmentCallback@Gu@physx@@QAE@XZ 1010d3a0 f i GuOverlapTestsHF.obj
 0001:0010c3c0       ?V4AllGrtr@aos@shdfnd@physx@@YAIT__m128@@0@Z 1010d3c0 f i GuOverlapTestsHF.obj
 0001:0010c420       ?addIndex@?$OverlapTraceSegment@UTriggerTraceSegmentCallback@Gu@physx@@@HeightFieldTraceUtil@Gu@physx@@QAE_NI@Z 1010d420 f i GuOverlapTestsHF.obj
 0001:0010c490       ?computeRectangleDifference@?$OverlapTraceSegment@UTriggerTraceSegmentCallback@Gu@physx@@@HeightFieldTraceUtil@Gu@physx@@QAEXABUOverlapRectangle@1234@0AAUOverlapLine@1234@@Z 1010d490 f i GuOverlapTestsHF.obj
 0001:0010c580       ?faceHit@TriggerTraceSegmentCallback@Gu@physx@@QAE_NABVHeightFieldUtil@23@ABVPxVec3@3@IMM@Z 1010d580 f i GuOverlapTestsHF.obj
 0001:0010c5a0       ?getInverse@PsTransformV@aos@shdfnd@physx@@QBE?AV1234@XZ 1010d5a0 f i GuOverlapTestsHF.obj
 0001:0010c680       ?init@?$OverlapTraceSegment@UTriggerTraceSegmentCallback@Gu@physx@@@HeightFieldTraceUtil@Gu@physx@@QAE_NHHHHHPAUTriggerTraceSegmentCallback@34@@Z 1010d680 f i GuOverlapTestsHF.obj
 0001:0010c7a0       ?initialized@?$OverlapTraceSegment@UTriggerTraceSegmentCallback@Gu@physx@@@HeightFieldTraceUtil@Gu@physx@@QBE_NXZ 1010d7a0 f i GuOverlapTestsHF.obj
 0001:0010c7c0       ?invalidate@OverlapRectangle@?$OverlapTraceSegment@UTriggerTraceSegmentCallback@Gu@physx@@@HeightFieldTraceUtil@Gu@physx@@QAEXXZ 1010d7c0 f i GuOverlapTestsHF.obj
 0001:0010c800       ?onEvent@TriggerTraceSegmentCallback@Gu@physx@@QAE_NIPAI@Z 1010d800 f i GuOverlapTestsHF.obj
 0001:0010c820       ?prepare@?$OverlapTraceSegment@UTriggerTraceSegmentCallback@Gu@physx@@@HeightFieldTraceUtil@Gu@physx@@QAEXABVPxVec3@4@00AAM1@Z 1010d820 f i GuOverlapTestsHF.obj
 0001:0010cbb0       ?reportOverlaps@?$OverlapTraceSegment@UTriggerTraceSegmentCallback@Gu@physx@@@HeightFieldTraceUtil@Gu@physx@@QAE_NXZ 1010dbb0 f i GuOverlapTestsHF.obj
 0001:0010cc10       ?step@?$OverlapTraceSegment@UTriggerTraceSegmentCallback@Gu@physx@@@HeightFieldTraceUtil@Gu@physx@@QAE_NHH@Z 1010dc10 f i GuOverlapTestsHF.obj
 0001:0010ccf0       ?testVertexIndex@?$OverlapTraceSegment@UTriggerTraceSegmentCallback@Gu@physx@@@HeightFieldTraceUtil@Gu@physx@@QAE_NI@Z 1010dcf0 f i GuOverlapTestsHF.obj
 0001:0010ce90       ?traceSegment@OverlapHeightfieldTraceSegmentHelper@Gu@physx@@QBEXABVPxVec3@3@0PAUTriggerTraceSegmentCallback@23@@Z 1010de90 f i GuOverlapTestsHF.obj
 0001:0010cef0       ?underFaceHit@TriggerTraceSegmentCallback@Gu@physx@@QAE_NABVHeightFieldUtil@23@ABVPxVec3@3@1MMMI@Z 1010def0 f i GuOverlapTestsHF.obj
 0001:0010cf10       ?visitCells@?$OverlapTraceSegment@UTriggerTraceSegmentCallback@Gu@physx@@@HeightFieldTraceUtil@Gu@physx@@QAE_NABUOverlapLine@1234@@Z 1010df10 f i GuOverlapTestsHF.obj
 0001:0010d0e0       ?visitCells@?$OverlapTraceSegment@UTriggerTraceSegmentCallback@Gu@physx@@@HeightFieldTraceUtil@Gu@physx@@QAE_NABUOverlapRectangle@1234@@Z 1010e0e0 f i GuOverlapTestsHF.obj
 0001:0010d690       ?sweepCapsule_HeightFieldGeom@@YA_NABVPxGeometry@physx@@ABVPxTransform@2@ABVPxCapsuleGeometry@2@1ABVCapsule@Gu@2@ABVPxVec3@2@MAAUPxSweepHit@2@V?$PxFlags@W4Enum@PxHitFlag@physx@@G@2@M@Z 1010e690 f   GuSweepsHF.obj
 0001:0010d8a0       ?sweepConvex_HeightFieldGeom@@YA_NABVPxGeometry@physx@@ABVPxTransform@2@ABVPxConvexMeshGeometry@2@1ABVPxVec3@2@MAAUPxSweepHit@2@V?$PxFlags@W4Enum@PxHitFlag@physx@@G@2@M@Z 1010e8a0 f   GuSweepsHF.obj
 0001:0010db80       ?sweepBox_HeightFieldGeom@@YA_NABVPxGeometry@physx@@ABVPxTransform@2@ABVPxBoxGeometry@2@1ABVBox@Gu@2@ABVPxVec3@2@MAAUPxSweepHit@2@V?$PxFlags@W4Enum@PxHitFlag@physx@@G@2@M@Z 1010eb80 f   GuSweepsHF.obj
 0001:0010e1a0       ??$PX_UNUSED@V?$PxFlags@W4Enum@PxHitFlag@physx@@G@physx@@@@YAXABV?$PxFlags@W4Enum@PxHitFlag@physx@@G@physx@@@Z 1010f1a0 f i GuSweepsHF.obj
 0001:0010e1b0       ??$traceSegment@VBoxTraceSegmentReport@@$0A@$00@HeightFieldTraceUtil@Gu@physx@@QBEXABVPxVec3@2@0MPAVBoxTraceSegmentReport@@ABVPxBounds3@2@_NPBV32@@Z 1010f1b0 f i GuSweepsHF.obj
 0001:00110460       ??$traceSegment@VBoxTraceSegmentReport@@@HeightFieldTraceSegmentSweepHelper@@QBEXABVPxVec3@physx@@0MPAVBoxTraceSegmentReport@@@Z 10111460 f i GuSweepsHF.obj
 0001:001104b0       ??$traceSegment@VCapsuleTraceSegmentReport@@$0A@$00@HeightFieldTraceUtil@Gu@physx@@QBEXABVPxVec3@2@0MPAVCapsuleTraceSegmentReport@@ABVPxBounds3@2@_NPBV32@@Z 101114b0 f i GuSweepsHF.obj
 0001:00112760       ??$traceSegment@VCapsuleTraceSegmentReport@@@HeightFieldTraceSegmentSweepHelper@@QBEXABVPxVec3@physx@@0MPAVCapsuleTraceSegmentReport@@@Z 10113760 f i GuSweepsHF.obj
 0001:001127b0       ??$traceSegment@VConvexTraceSegmentReport@@$0A@$00@HeightFieldTraceUtil@Gu@physx@@QBEXABVPxVec3@2@0MPAVConvexTraceSegmentReport@@ABVPxBounds3@2@_NPBV32@@Z 101137b0 f i GuSweepsHF.obj
 0001:00114a60       ??$traceSegment@VConvexTraceSegmentReport@@@HeightFieldTraceSegmentSweepHelper@@QBEXABVPxVec3@physx@@0MPAVConvexTraceSegmentReport@@@Z 10115a60 f i GuSweepsHF.obj
 0001:00114ab0       ??0?$OverlapTraceSegment@VBoxTraceSegmentReport@@@HeightFieldTraceUtil@Gu@physx@@QAE@ABVHeightFieldUtil@23@ABVHeightField@23@@Z 10115ab0 f i GuSweepsHF.obj
 0001:00114b00       ??0?$OverlapTraceSegment@VCapsuleTraceSegmentReport@@@HeightFieldTraceUtil@Gu@physx@@QAE@ABVHeightFieldUtil@23@ABVHeightField@23@@Z 10115b00 f i GuSweepsHF.obj
 0001:00114b50       ??0?$OverlapTraceSegment@VConvexTraceSegmentReport@@@HeightFieldTraceUtil@Gu@physx@@QAE@ABVHeightFieldUtil@23@ABVHeightField@23@@Z 10115b50 f i GuSweepsHF.obj
 0001:00114ba0       ??0BoxTraceSegmentReport@@QAE@ABVHeightFieldUtil@Gu@physx@@V?$PxFlags@W4Enum@PxHitFlag@physx@@G@3@ABVPsTransformV@aos@shdfnd@3@ABVPxTransform@3@ABVBoxV@23@ABVPxVec3@3@AAUPxSweepHit@3@M@Z 10115ba0 f i GuSweepsHF.obj
 0001:00114c80       ??0CapsuleTraceSegmentReport@@QAE@ABVHeightFieldUtil@Gu@physx@@V?$PxFlags@W4Enum@PxHitFlag@physx@@G@3@ABVCapsule@23@ABVPxVec3@3@AAUPxSweepHit@3@ABVPxTransform@3@M@Z 10115c80 f i GuSweepsHF.obj
 0001:00114d10       ??0ConvexTraceSegmentReport@@QAE@ABVHeightFieldUtil@Gu@physx@@ABUConvexHullData@23@ABVPxMeshScale@3@ABVPxTransform@3@3ABVPxVec3@3@MV?$PxFlags@W4Enum@PxHitFlag@physx@@G@3@M@Z 10115d10 f i GuSweepsHF.obj
 0001:00115100       ??0HeightFieldTraceSegmentReport@@QAE@ABVHeightFieldUtil@Gu@physx@@V?$PxFlags@W4Enum@PxHitFlag@physx@@G@3@@Z 10116100 f i GuSweepsHF.obj
 0001:001151f0       ??0HeightFieldTraceSegmentSweepHelper@@QAE@ABVHeightFieldTraceUtil@Gu@physx@@ABVPxVec3@3@@Z 101161f0 f i GuSweepsHF.obj
 0001:00115290       ??0PxTransform@physx@@QAE@XZ 10116290 f i GuSweepsHF.obj
 0001:001152c0       ??1BoxTraceSegmentReport@@UAE@XZ 101162c0 f i GuSweepsHF.obj
 0001:001152e0       ??1CapsuleTraceSegmentReport@@UAE@XZ 101162e0 f i GuSweepsHF.obj
 0001:00115300       ??1ConvexTraceSegmentReport@@UAE@XZ 10116300 f i GuSweepsHF.obj
 0001:00115330       ??1HeightFieldTraceSegmentReport@@UAE@XZ 10116330 f i GuSweepsHF.obj
 0001:00115350       ??_EBoxTraceSegmentReport@@UAEPAXI@Z 10116350 f i GuSweepsHF.obj
 0001:00115350       ??_GBoxTraceSegmentReport@@UAEPAXI@Z 10116350 f i GuSweepsHF.obj
 0001:00115390       ??_GCapsuleTraceSegmentReport@@UAEPAXI@Z 10116390 f i GuSweepsHF.obj
 0001:00115390       ??_ECapsuleTraceSegmentReport@@UAEPAXI@Z 10116390 f i GuSweepsHF.obj
 0001:001153d0       ??_EConvexTraceSegmentReport@@UAEPAXI@Z 101163d0 f i GuSweepsHF.obj
 0001:001153d0       ??_GConvexTraceSegmentReport@@UAEPAXI@Z 101163d0 f i GuSweepsHF.obj
 0001:00115410       ??_GHeightFieldTraceSegmentReport@@UAEPAXI@Z 10116410 f i GuSweepsHF.obj
 0001:00115410       ??_EHeightFieldTraceSegmentReport@@UAEPAXI@Z 10116410 f i GuSweepsHF.obj
 0001:00115450       ?QuatVLoadA@aos@shdfnd@physx@@YA?AT__m128@@PBM@Z 10116450 f i GuSweepsHF.obj
 0001:001154a0       ?V3LoadA@aos@shdfnd@physx@@YA?AT__m128@@PBM@Z 101164a0 f i GuSweepsHF.obj
 0001:00115550       ?addIndex@?$OverlapTraceSegment@VBoxTraceSegmentReport@@@HeightFieldTraceUtil@Gu@physx@@QAE_NI@Z 10116550 f i GuSweepsHF.obj
 0001:001155c0       ?addIndex@?$OverlapTraceSegment@VCapsuleTraceSegmentReport@@@HeightFieldTraceUtil@Gu@physx@@QAE_NI@Z 101165c0 f i GuSweepsHF.obj
 0001:00115630       ?addIndex@?$OverlapTraceSegment@VConvexTraceSegmentReport@@@HeightFieldTraceUtil@Gu@physx@@QAE_NI@Z 10116630 f i GuSweepsHF.obj
 0001:001156a0       ?computeRectangleDifference@?$OverlapTraceSegment@VBoxTraceSegmentReport@@@HeightFieldTraceUtil@Gu@physx@@QAEXABUOverlapRectangle@1234@0AAUOverlapLine@1234@@Z 101166a0 f i GuSweepsHF.obj
 0001:00115790       ?computeRectangleDifference@?$OverlapTraceSegment@VCapsuleTraceSegmentReport@@@HeightFieldTraceUtil@Gu@physx@@QAEXABUOverlapRectangle@1234@0AAUOverlapLine@1234@@Z 10116790 f i GuSweepsHF.obj
 0001:00115880       ?computeRectangleDifference@?$OverlapTraceSegment@VConvexTraceSegmentReport@@@HeightFieldTraceUtil@Gu@physx@@QAEXABUOverlapRectangle@1234@0AAUOverlapLine@1234@@Z 10116880 f i GuSweepsHF.obj
 0001:00115970       ?faceHit@HeightFieldTraceSegmentReport@@QAE_NABVHeightFieldUtil@Gu@physx@@ABVPxVec3@4@IMM@Z 10116970 f i GuSweepsHF.obj
 0001:00115990       ?finalizeHit@BoxTraceSegmentReport@@QAE_NAAUPxSweepHit@physx@@ABVPxHeightFieldGeometry@3@ABVPxTransform@3@2ABVBox@Gu@3@ABVPxVec3@3@MM@Z 10116990 f i GuSweepsHF.obj
 0001:00115bf0       ?finalizeHit@CapsuleTraceSegmentReport@@QAE_NAAUPxSweepHit@physx@@ABVPxHeightFieldGeometry@3@ABVPxTransform@3@ABVCapsule@Gu@3@3ABVPxVec3@3@@Z 10116bf0 f i GuSweepsHF.obj
 0001:00115e70       ?finalizeHit@ConvexTraceSegmentReport@@QAE_NAAUPxSweepHit@physx@@ABVPxHeightFieldGeometry@3@ABVPxTransform@3@ABVPxConvexMeshGeometry@3@2ABVPxVec3@3@M@Z 10116e70 f i GuSweepsHF.obj
 0001:00116020       ?init@?$OverlapTraceSegment@VBoxTraceSegmentReport@@@HeightFieldTraceUtil@Gu@physx@@QAE_NHHHHHPAVBoxTraceSegmentReport@@@Z 10117020 f i GuSweepsHF.obj
 0001:00116140       ?init@?$OverlapTraceSegment@VCapsuleTraceSegmentReport@@@HeightFieldTraceUtil@Gu@physx@@QAE_NHHHHHPAVCapsuleTraceSegmentReport@@@Z 10117140 f i GuSweepsHF.obj
 0001:00116260       ?init@?$OverlapTraceSegment@VConvexTraceSegmentReport@@@HeightFieldTraceUtil@Gu@physx@@QAE_NHHHHHPAVConvexTraceSegmentReport@@@Z 10117260 f i GuSweepsHF.obj
 0001:00116380       ?initialized@?$OverlapTraceSegment@VBoxTraceSegmentReport@@@HeightFieldTraceUtil@Gu@physx@@QBE_NXZ 10117380 f i GuSweepsHF.obj
 0001:001163a0       ?initialized@?$OverlapTraceSegment@VCapsuleTraceSegmentReport@@@HeightFieldTraceUtil@Gu@physx@@QBE_NXZ 101173a0 f i GuSweepsHF.obj
 0001:001163c0       ?initialized@?$OverlapTraceSegment@VConvexTraceSegmentReport@@@HeightFieldTraceUtil@Gu@physx@@QBE_NXZ 101173c0 f i GuSweepsHF.obj
 0001:001163e0       ?invalidate@OverlapRectangle@?$OverlapTraceSegment@VBoxTraceSegmentReport@@@HeightFieldTraceUtil@Gu@physx@@QAEXXZ 101173e0 f i GuSweepsHF.obj
 0001:00116420       ?invalidate@OverlapRectangle@?$OverlapTraceSegment@VCapsuleTraceSegmentReport@@@HeightFieldTraceUtil@Gu@physx@@QAEXXZ 10117420 f i GuSweepsHF.obj
 0001:00116460       ?invalidate@OverlapRectangle@?$OverlapTraceSegment@VConvexTraceSegmentReport@@@HeightFieldTraceUtil@Gu@physx@@QAEXXZ 10117460 f i GuSweepsHF.obj
 0001:001164a0       ?onEvent@BoxTraceSegmentReport@@UAE_NIPAI@Z 101174a0 f i GuSweepsHF.obj
 0001:00116a20       ?onEvent@CapsuleTraceSegmentReport@@UAE_NIPAI@Z 10117a20 f i GuSweepsHF.obj
 0001:00116c40       ?onEvent@ConvexTraceSegmentReport@@UAE_NIPAI@Z 10117c40 f i GuSweepsHF.obj
 0001:00116e00       ?prepare@?$OverlapTraceSegment@VBoxTraceSegmentReport@@@HeightFieldTraceUtil@Gu@physx@@QAEXABVPxVec3@4@00AAM1@Z 10117e00 f i GuSweepsHF.obj
 0001:00117190       ?prepare@?$OverlapTraceSegment@VCapsuleTraceSegmentReport@@@HeightFieldTraceUtil@Gu@physx@@QAEXABVPxVec3@4@00AAM1@Z 10118190 f i GuSweepsHF.obj
 0001:00117520       ?prepare@?$OverlapTraceSegment@VConvexTraceSegmentReport@@@HeightFieldTraceUtil@Gu@physx@@QAEXABVPxVec3@4@00AAM1@Z 10118520 f i GuSweepsHF.obj
 0001:001178b0       ?reportOverlaps@?$OverlapTraceSegment@VBoxTraceSegmentReport@@@HeightFieldTraceUtil@Gu@physx@@QAE_NXZ 101188b0 f i GuSweepsHF.obj
 0001:00117920       ?reportOverlaps@?$OverlapTraceSegment@VCapsuleTraceSegmentReport@@@HeightFieldTraceUtil@Gu@physx@@QAE_NXZ 10118920 f i GuSweepsHF.obj
 0001:00117990       ?reportOverlaps@?$OverlapTraceSegment@VConvexTraceSegmentReport@@@HeightFieldTraceUtil@Gu@physx@@QAE_NXZ 10118990 f i GuSweepsHF.obj
 0001:00117a00       ?step@?$OverlapTraceSegment@VBoxTraceSegmentReport@@@HeightFieldTraceUtil@Gu@physx@@QAE_NHH@Z 10118a00 f i GuSweepsHF.obj
 0001:00117ae0       ?step@?$OverlapTraceSegment@VCapsuleTraceSegmentReport@@@HeightFieldTraceUtil@Gu@physx@@QAE_NHH@Z 10118ae0 f i GuSweepsHF.obj
 0001:00117bc0       ?step@?$OverlapTraceSegment@VConvexTraceSegmentReport@@@HeightFieldTraceUtil@Gu@physx@@QAE_NHH@Z 10118bc0 f i GuSweepsHF.obj
 0001:00117ca0       ?testVertexIndex@?$OverlapTraceSegment@VBoxTraceSegmentReport@@@HeightFieldTraceUtil@Gu@physx@@QAE_NI@Z 10118ca0 f i GuSweepsHF.obj
 0001:00117e40       ?testVertexIndex@?$OverlapTraceSegment@VCapsuleTraceSegmentReport@@@HeightFieldTraceUtil@Gu@physx@@QAE_NI@Z 10118e40 f i GuSweepsHF.obj
 0001:00117fe0       ?testVertexIndex@?$OverlapTraceSegment@VConvexTraceSegmentReport@@@HeightFieldTraceUtil@Gu@physx@@QAE_NI@Z 10118fe0 f i GuSweepsHF.obj
 0001:00118180       ?underFaceHit@HeightFieldTraceSegmentReport@@QAE_NABVHeightFieldUtil@Gu@physx@@ABVPxVec3@4@1MMMI@Z 10119180 f i GuSweepsHF.obj
 0001:001181a0       ?visitCells@?$OverlapTraceSegment@VBoxTraceSegmentReport@@@HeightFieldTraceUtil@Gu@physx@@QAE_NABUOverlapLine@1234@@Z 101191a0 f i GuSweepsHF.obj
 0001:00118370       ?visitCells@?$OverlapTraceSegment@VBoxTraceSegmentReport@@@HeightFieldTraceUtil@Gu@physx@@QAE_NABUOverlapRectangle@1234@@Z 10119370 f i GuSweepsHF.obj
 0001:00118470       ?visitCells@?$OverlapTraceSegment@VCapsuleTraceSegmentReport@@@HeightFieldTraceUtil@Gu@physx@@QAE_NABUOverlapLine@1234@@Z 10119470 f i GuSweepsHF.obj
 0001:00118640       ?visitCells@?$OverlapTraceSegment@VCapsuleTraceSegmentReport@@@HeightFieldTraceUtil@Gu@physx@@QAE_NABUOverlapRectangle@1234@@Z 10119640 f i GuSweepsHF.obj
 0001:00118740       ?visitCells@?$OverlapTraceSegment@VConvexTraceSegmentReport@@@HeightFieldTraceUtil@Gu@physx@@QAE_NABUOverlapLine@1234@@Z 10119740 f i GuSweepsHF.obj
 0001:00118910       ?visitCells@?$OverlapTraceSegment@VConvexTraceSegmentReport@@@HeightFieldTraceUtil@Gu@physx@@QAE_NABUOverlapRectangle@1234@@Z 10119910 f i GuSweepsHF.obj
 0001:00118a10       ?pcmContactBoxBox@Gu@physx@@YA_NABVGeometryUnion@12@0ABVPxTransform@2@1ABUNarrowPhaseParams@12@AAUCache@12@AAVContactBuffer@12@PAVRenderOutput@Cm@2@@Z 10119a10 f   GuPCMContactBoxBox.obj
 0001:0011e940       ??$PX_UNUSED@PAVMeshPersistentContact@Gu@physx@@@@YAXABQAVMeshPersistentContact@Gu@physx@@@Z 1011f940 f i GuPCMContactBoxBox.obj
 0001:0011e950       ??$gjkPenetration@U?$RelativeConvex@VBoxV@Gu@physx@@@Gu@physx@@U?$LocalConvex@VBoxV@Gu@physx@@@23@@Gu@physx@@YA?AW4GjkStatus@01@ABU?$RelativeConvex@VBoxV@Gu@physx@@@01@ABU?$LocalConvex@VBoxV@Gu@physx@@@01@ABT__m128@@2AAT5@333PIAE4AAE_N@Z 1011f950 f i GuPCMContactBoxBox.obj
 0001:0011faa0       ??0?$RelativeConvex@VBoxV@Gu@physx@@@Gu@physx@@QAE@ABVBoxV@12@ABVPsMatTransformV@aos@shdfnd@2@@Z 10120aa0 f i GuPCMContactBoxBox.obj
 0001:0011fb20       ??0MeshPersistentContact@Gu@physx@@QAE@XZ 10120b20 f i GuPCMContactBoxBox.obj
 0001:0011fb40       ??0MultiplePersistentContactManifold@Gu@physx@@QAE@XZ 10120b40 f i GuPCMContactBoxBox.obj
 0001:0011fbe0       ??0PersistentContact@Gu@physx@@QAE@XZ 10120be0 f i GuPCMContactBoxBox.obj
 0001:0011fc00       ??0SinglePersistentContactManifold@Gu@physx@@QAE@XZ 10120c00 f i GuPCMContactBoxBox.obj
 0001:0011fc40       ??1?$RelativeConvex@VBoxV@Gu@physx@@@Gu@physx@@UAE@XZ 10120c40 f i GuPCMContactBoxBox.obj
 0001:0011fc60       ??4MultiplePersistentContactManifold@Gu@physx@@QAEAAV012@$$QAV012@@Z 10120c60 f i GuPCMContactBoxBox.obj
 0001:0011fd70       ??4MultiplePersistentContactManifold@Gu@physx@@QAEAAV012@ABV012@@Z 10120d70 f i GuPCMContactBoxBox.obj
 0001:0011fda0       ??_E?$RelativeConvex@VBoxV@Gu@physx@@@Gu@physx@@UAEPAXI@Z 10120da0 f i GuPCMContactBoxBox.obj
 0001:0011fda0       ??_G?$RelativeConvex@VBoxV@Gu@physx@@@Gu@physx@@UAEPAXI@Z 10120da0 f i GuPCMContactBoxBox.obj
 0001:0011fde0       ?BTTFT@aos@shdfnd@physx@@YA?AT__m128@@XZ 10120de0 f i GuPCMContactBoxBox.obj
 0001:0011fe30       ?CalculatePCMBoxMargin@Gu@physx@@YA?AT__m128@@ABT3@MM@Z 10120e30 f i GuPCMContactBoxBox.obj
 0001:0011ff00       ?Invalidate@PsTransformV@aos@shdfnd@physx@@QAEXXZ 10120f00 f i GuPCMContactBoxBox.obj
 0001:0011ff70       ?QuatDot@aos@shdfnd@physx@@YA?AT__m128@@T4@0@Z 10120f70 f i GuPCMContactBoxBox.obj
 0001:0011ffc0       ?V3ExtractMax@aos@shdfnd@physx@@YA?AT__m128@@T4@@Z 10120fc0 f i GuPCMContactBoxBox.obj
 0001:001200d0       ?V3Merge@aos@shdfnd@physx@@YA?AT__m128@@ABT4@00@Z 101210d0 f i GuPCMContactBoxBox.obj
 0001:00120270       ?V3RecipFast@aos@shdfnd@physx@@YA?AT__m128@@T4@@Z 10121270 f i GuPCMContactBoxBox.obj
 0001:00120360       ?V3SetZ@aos@shdfnd@physx@@YA?AT__m128@@T4@0@Z 10121360 f i GuPCMContactBoxBox.obj
 0001:00120470       ?V4ExtractMax@aos@shdfnd@physx@@YA?AT__m128@@T4@@Z 10121470 f i GuPCMContactBoxBox.obj
 0001:00120530       ?Vec3V_From_FloatV@aos@shdfnd@physx@@YA?AT__m128@@T4@@Z 10121530 f i GuPCMContactBoxBox.obj
 0001:00120590       ?clearManifold@MultiplePersistentContactManifold@Gu@physx@@QAEXXZ 10121590 f i GuPCMContactBoxBox.obj
 0001:00120600       ?clearManifold@SinglePersistentContactManifold@Gu@physx@@QAEXXZ 10121600 f i GuPCMContactBoxBox.obj
 0001:00120620       ?contains@Gu@physx@@YA_NPAT__m128@@IABT3@11@Z 10121620 f i GuPCMContactBoxBox.obj
 0001:00120c50       ?getCenter@?$RelativeConvex@VBoxV@Gu@physx@@@Gu@physx@@UBE?AT__m128@@XZ 10121c50 f i GuPCMContactBoxBox.obj
 0001:00120cb0       ?getCol0@PsMatTransformV@aos@shdfnd@physx@@QBE?AT__m128@@XZ 10121cb0 f i GuPCMContactBoxBox.obj
 0001:00120ce0       ?getCol1@PsMatTransformV@aos@shdfnd@physx@@QBE?AT__m128@@XZ 10121ce0 f i GuPCMContactBoxBox.obj
 0001:00120d10       ?getCol2@PsMatTransformV@aos@shdfnd@physx@@QBE?AT__m128@@XZ 10121d10 f i GuPCMContactBoxBox.obj
 0001:00120d40       ?getEmptyManifold@MultiplePersistentContactManifold@Gu@physx@@QAEPAVSinglePersistentContactManifold@23@XZ 10121d40 f i GuPCMContactBoxBox.obj
 0001:00120d90       ?getManifold@Cache@Gu@physx@@QAEAAVPersistentContactManifold@23@XZ 10121d90 f i GuPCMContactBoxBox.obj
 0001:00120e90       ?getManifold@MultiplePersistentContactManifold@Gu@physx@@QAEPAVSinglePersistentContactManifold@23@I@Z 10121e90 f i GuPCMContactBoxBox.obj
 0001:00120f10       ?getNumContacts@PersistentContactManifold@Gu@physx@@QBEIXZ 10121f10 f i GuPCMContactBoxBox.obj
 0001:00120f30       ?getSweepMargin@?$RelativeConvex@VBoxV@Gu@physx@@@Gu@physx@@UBE?AT__m128@@XZ 10121f30 f i GuPCMContactBoxBox.obj
 0001:00120f60       ?getWorldNormal@PersistentContactManifold@Gu@physx@@QAE?AT__m128@@ABVPsTransformV@aos@shdfnd@3@@Z 10121f60 f i GuPCMContactBoxBox.obj
 0001:00121110       ?initialize@MultiplePersistentContactManifold@Gu@physx@@QAEXXZ 10122110 f i GuPCMContactBoxBox.obj
 0001:00121190       ?initialize@SinglePersistentContactManifold@Gu@physx@@QAEXXZ 10122190 f i GuPCMContactBoxBox.obj
 0001:001211b0       ?invalidate@MultiplePersistentContactManifold@Gu@physx@@QAEIABVPsTransformV@aos@shdfnd@3@ABT__m128@@1@Z 101221b0 f i GuPCMContactBoxBox.obj
 0001:001212e0       ?invalidate@MultiplePersistentContactManifold@Gu@physx@@QAEIABVPsTransformV@aos@shdfnd@3@ABT__m128@@@Z 101222e0 f i GuPCMContactBoxBox.obj
 0001:00121350       ?invalidate_BoxConvex@PersistentContactManifold@Gu@physx@@QAEIABVPsTransformV@aos@shdfnd@3@ABT__m128@@@Z 10122350 f i GuPCMContactBoxBox.obj
 0001:00121520       ?isEmpty@SinglePersistentContactManifold@Gu@physx@@QAE_NXZ 10122520 f i GuPCMContactBoxBox.obj
 0001:00121560       ?isManifold@Cache@Gu@physx@@QBEEXZ 10122560 f i GuPCMContactBoxBox.obj
 0001:00121580       ?isMultiManifold@Cache@Gu@physx@@QBEEXZ 10122580 f i GuPCMContactBoxBox.obj
 0001:001215a0       ?loadTransformA@aos@shdfnd@physx@@YA?AVPsTransformV@123@ABVPxTransform@3@@Z 101225a0 f i GuPCMContactBoxBox.obj
 0001:00121620       ?maxTransformPositionDelta@MultiplePersistentContactManifold@Gu@physx@@QAE?AT__m128@@ABT4@@Z 10122620 f i GuPCMContactBoxBox.obj
 0001:001216c0       ?maxTransformPositionDelta@PersistentContactManifold@Gu@physx@@QAE?AT__m128@@ABT4@@Z 101226c0 f i GuPCMContactBoxBox.obj
 0001:00121760       ?maxTransformQuatDelta@MultiplePersistentContactManifold@Gu@physx@@QAE?AT__m128@@ABT4@@Z 10122760 f i GuPCMContactBoxBox.obj
 0001:001217f0       ?reduceManifoldContactsInDifferentPatches@MultiplePersistentContactManifold@Gu@physx@@QAEIPAPAUPCMContactPatch@23@IPAVMeshPersistentContact@23@IABT__m128@@@Z 101227f0 f i GuPCMContactBoxBox.obj
 0001:001219d0       ?refineContactPatchConnective@MultiplePersistentContactManifold@Gu@physx@@QAEXPAPAUPCMContactPatch@23@IPAVMeshPersistentContact@23@ABT__m128@@@Z 101229d0 f i GuPCMContactBoxBox.obj
 0001:00121b50       ?refreshContactPoints@PersistentContactManifold@Gu@physx@@QAEXABVPsMatTransformV@aos@shdfnd@3@ABT__m128@@1@Z 10122b50 f i GuPCMContactBoxBox.obj
 0001:00121db0       ?refreshManifold@MultiplePersistentContactManifold@Gu@physx@@QAEXABVPsMatTransformV@aos@shdfnd@3@ABT__m128@@1@Z 10122db0 f i GuPCMContactBoxBox.obj
 0001:00121ff0       ?removeContactPoint@PersistentContactManifold@Gu@physx@@QAEXI@Z 10122ff0 f i GuPCMContactBoxBox.obj
 0001:00122050       ?rotateInv@PsMatTransformV@aos@shdfnd@physx@@QBE?AT__m128@@ABT5@@Z 10123050 f i GuPCMContactBoxBox.obj
 0001:001220b0       ?setRelativeTransform@MultiplePersistentContactManifold@Gu@physx@@QAEXABVPsTransformV@aos@shdfnd@3@@Z 101230b0 f i GuPCMContactBoxBox.obj
 0001:001220e0       ?setRelativeTransform@PersistentContactManifold@Gu@physx@@QAEXABVPsTransformV@aos@shdfnd@3@@Z 101230e0 f i GuPCMContactBoxBox.obj
 0001:00122110       ?support@?$RelativeConvex@VBoxV@Gu@physx@@@Gu@physx@@UBE?AT__m128@@ABT4@@Z 10123110 f i GuPCMContactBoxBox.obj
 0001:00122160       ?support@?$RelativeConvex@VBoxV@Gu@physx@@@Gu@physx@@UBE?AT__m128@@ABT4@AAHPAT4@@Z 10123160 f i GuPCMContactBoxBox.obj
 0001:001221b0       ?supportPoint@?$RelativeConvex@VBoxV@Gu@physx@@@Gu@physx@@UBE?AT__m128@@HPAT4@@Z 101231b0 f i GuPCMContactBoxBox.obj
 0001:00122220       ?supportRelative@BoxV@Gu@physx@@QBE?AT__m128@@ABT4@ABVPsMatTransformV@aos@shdfnd@3@1@Z 10123220 f i GuPCMContactBoxBox.obj
 0001:00122290       ?supportRelative@BoxV@Gu@physx@@QBE?AT__m128@@ABT4@ABVPsMatTransformV@aos@shdfnd@3@1AAHPAT4@@Z 10123290 f i GuPCMContactBoxBox.obj
 0001:00122310       ?toBuffer@MultiplePersistentContactManifold@Gu@physx@@QAEXPIAE@Z 10123310 f i GuPCMContactBoxBox.obj
 0001:001225e0       ?transformInv@PsMatTransformV@aos@shdfnd@physx@@QBE?AT__m128@@ABT5@@Z 101235e0 f i GuPCMContactBoxBox.obj
 0001:00122660       ?transformInv@PsMatTransformV@aos@shdfnd@physx@@QBE?AV1234@ABV1234@@Z 10123660 f i GuPCMContactBoxBox.obj
 0001:00122720       ?pcmContactBoxConvex@Gu@physx@@YA_NABVGeometryUnion@12@0ABVPxTransform@2@1ABUNarrowPhaseParams@12@AAUCache@12@AAVContactBuffer@12@PAVRenderOutput@Cm@2@@Z 10123720 f   GuPCMContactBoxConvex.obj
 0001:00123820       ??$getConvex@VShrunkConvexHullNoScaleV@Gu@physx@@@GjkConvexBase@Gu@physx@@QBEABVShrunkConvexHullNoScaleV@12@XZ 10124820 f i GuPCMContactBoxConvex.obj
 0001:00123840       ??$gjkPenetration@U?$RelativeConvex@VBoxV@Gu@physx@@@Gu@physx@@U?$LocalConvex@VShrunkConvexHullNoScaleV@Gu@physx@@@23@@Gu@physx@@YA?AW4GjkStatus@01@ABU?$RelativeConvex@VBoxV@Gu@physx@@@01@ABU?$LocalConvex@VShrunkConvexHullNoScaleV@Gu@physx@@@01@ABT__m128@@2AAT5@333PIAE4AAE_N@Z 10124840 f i GuPCMContactBoxConvex.obj
 0001:00124990       ??$gjkPenetration@U?$RelativeConvex@VBoxV@Gu@physx@@@Gu@physx@@U?$LocalConvex@VShrunkConvexHullV@Gu@physx@@@23@@Gu@physx@@YA?AW4GjkStatus@01@ABU?$RelativeConvex@VBoxV@Gu@physx@@@01@ABU?$LocalConvex@VShrunkConvexHullV@Gu@physx@@@01@ABT__m128@@2AAT5@333PIAE4AAE_N@Z 10125990 f i GuPCMContactBoxConvex.obj
 0001:00125ae0       ??0?$LocalConvex@VShrunkConvexHullNoScaleV@Gu@physx@@@Gu@physx@@QAE@ABVShrunkConvexHullNoScaleV@12@@Z 10126ae0 f i GuPCMContactBoxConvex.obj
 0001:00125b10       ??0?$SupportLocalImpl@VBoxV@Gu@physx@@@Gu@physx@@QAE@ABVBoxV@12@ABVPsTransformV@aos@shdfnd@2@ABUMat33V@562@2_N@Z 10126b10 f i GuPCMContactBoxConvex.obj
 0001:00125b60       ??0?$SupportLocalImpl@VConvexHullNoScaleV@Gu@physx@@@Gu@physx@@QAE@ABVConvexHullNoScaleV@12@ABVPsTransformV@aos@shdfnd@2@ABUMat33V@562@2_N@Z 10126b60 f i GuPCMContactBoxConvex.obj
 0001:00125bb0       ??0?$SupportLocalImpl@VConvexHullV@Gu@physx@@@Gu@physx@@QAE@ABVConvexHullV@12@ABVPsTransformV@aos@shdfnd@2@ABUMat33V@562@2_N@Z 10126bb0 f i GuPCMContactBoxConvex.obj
 0001:00125c00       ??0ShrunkConvexHullV@Gu@physx@@QAE@PBUConvexHullData@12@ABT__m128@@11_N@Z 10126c00 f i GuPCMContactBoxConvex.obj
 0001:00125c40       ??0SupportLocal@Gu@physx@@QAE@ABVPsTransformV@aos@shdfnd@2@ABUMat33V@452@1_N@Z 10126c40 f i GuPCMContactBoxConvex.obj
 0001:00125c90       ??1?$LocalConvex@VShrunkConvexHullNoScaleV@Gu@physx@@@Gu@physx@@UAE@XZ 10126c90 f i GuPCMContactBoxConvex.obj
 0001:00125cb0       ??1?$SupportLocalImpl@VBoxV@Gu@physx@@@Gu@physx@@UAE@XZ 10126cb0 f i GuPCMContactBoxConvex.obj
 0001:00125cd0       ??1?$SupportLocalImpl@VConvexHullNoScaleV@Gu@physx@@@Gu@physx@@UAE@XZ 10126cd0 f i GuPCMContactBoxConvex.obj
 0001:00125cf0       ??1?$SupportLocalImpl@VConvexHullV@Gu@physx@@@Gu@physx@@UAE@XZ 10126cf0 f i GuPCMContactBoxConvex.obj
 0001:00125d10       ??1ShrunkConvexHullV@Gu@physx@@QAE@XZ 10126d10 f i GuPCMContactBoxConvex.obj
 0001:00125d30       ??1SupportLocal@Gu@physx@@UAE@XZ 10126d30 f i GuPCMContactBoxConvex.obj
 0001:00125d50       ??_E?$LocalConvex@VShrunkConvexHullNoScaleV@Gu@physx@@@Gu@physx@@UAEPAXI@Z 10126d50 f i GuPCMContactBoxConvex.obj
 0001:00125d50       ??_G?$LocalConvex@VShrunkConvexHullNoScaleV@Gu@physx@@@Gu@physx@@UAEPAXI@Z 10126d50 f i GuPCMContactBoxConvex.obj
 0001:00125d90       ??_G?$SupportLocalImpl@VBoxV@Gu@physx@@@Gu@physx@@UAEPAXI@Z 10126d90 f i GuPCMContactBoxConvex.obj
 0001:00125d90       ??_E?$SupportLocalImpl@VBoxV@Gu@physx@@@Gu@physx@@UAEPAXI@Z 10126d90 f i GuPCMContactBoxConvex.obj
 0001:00125dd0       ??_G?$SupportLocalImpl@VConvexHullNoScaleV@Gu@physx@@@Gu@physx@@UAEPAXI@Z 10126dd0 f i GuPCMContactBoxConvex.obj
 0001:00125dd0       ??_E?$SupportLocalImpl@VConvexHullNoScaleV@Gu@physx@@@Gu@physx@@UAEPAXI@Z 10126dd0 f i GuPCMContactBoxConvex.obj
 0001:00125e10       ??_G?$SupportLocalImpl@VConvexHullV@Gu@physx@@@Gu@physx@@UAEPAXI@Z 10126e10 f i GuPCMContactBoxConvex.obj
 0001:00125e10       ??_E?$SupportLocalImpl@VConvexHullV@Gu@physx@@@Gu@physx@@UAEPAXI@Z 10126e10 f i GuPCMContactBoxConvex.obj
 0001:00125e50       ??_GSupportLocal@Gu@physx@@UAEPAXI@Z 10126e50 f i GuPCMContactBoxConvex.obj
 0001:00125e50       ??_ESupportLocal@Gu@physx@@UAEPAXI@Z 10126e50 f i GuPCMContactBoxConvex.obj
 0001:00125e90       ?CalculatePCMConvexMargin@Gu@physx@@YA?AT__m128@@PBUConvexHullData@12@ABT3@MM@Z 10126e90 f i GuPCMContactBoxConvex.obj
 0001:00125fa0       ?bruteForceSearchMinMax@ConvexHullNoScaleV@Gu@physx@@QBEXABT__m128@@AAT4@1@Z 10126fa0 f i GuPCMContactBoxConvex.obj
 0001:00126140       ?bruteForceSearchMinMax@ConvexHullV@Gu@physx@@QBEXABT__m128@@AAT4@1@Z 10127140 f i GuPCMContactBoxConvex.obj
 0001:001262a0       ?doSupport@?$SupportLocalImpl@VBoxV@Gu@physx@@@Gu@physx@@UBE?AT__m128@@ABT4@@Z 101272a0 f i GuPCMContactBoxConvex.obj
 0001:001262d0       ?doSupport@?$SupportLocalImpl@VBoxV@Gu@physx@@@Gu@physx@@UBEXABT__m128@@AAT4@1@Z 101272d0 f i GuPCMContactBoxConvex.obj
 0001:00126300       ?doSupport@?$SupportLocalImpl@VConvexHullNoScaleV@Gu@physx@@@Gu@physx@@UBE?AT__m128@@ABT4@@Z 10127300 f i GuPCMContactBoxConvex.obj
 0001:00126330       ?doSupport@?$SupportLocalImpl@VConvexHullNoScaleV@Gu@physx@@@Gu@physx@@UBEXABT__m128@@AAT4@1@Z 10127330 f i GuPCMContactBoxConvex.obj
 0001:00126360       ?doSupport@?$SupportLocalImpl@VConvexHullV@Gu@physx@@@Gu@physx@@UBE?AT__m128@@ABT4@@Z 10127360 f i GuPCMContactBoxConvex.obj
 0001:00126390       ?doSupport@?$SupportLocalImpl@VConvexHullV@Gu@physx@@@Gu@physx@@UBEXABT__m128@@AAT4@1@Z 10127390 f i GuPCMContactBoxConvex.obj
 0001:001263c0       ?getCenter@?$LocalConvex@VShrunkConvexHullNoScaleV@Gu@physx@@@Gu@physx@@UBE?AT__m128@@XZ 101273c0 f i GuPCMContactBoxConvex.obj
 0001:001263f0       ?getLocalNormal@PersistentContactManifold@Gu@physx@@QAE?AT__m128@@XZ 101273f0 f i GuPCMContactBoxConvex.obj
 0001:001264c0       ?getSweepMargin@?$LocalConvex@VShrunkConvexHullNoScaleV@Gu@physx@@@Gu@physx@@UBE?AT__m128@@XZ 101274c0 f i GuPCMContactBoxConvex.obj
 0001:001264f0       ?planeShift@ShrunkConvexHullNoScaleV@Gu@physx@@QBE?AT__m128@@IABT4@PAT4@@Z 101274f0 f i GuPCMContactBoxConvex.obj
 0001:001267e0       ?populateVerts@?$SupportLocalImpl@VBoxV@Gu@physx@@@Gu@physx@@UBEXPBEIPBVPxVec3@3@PAT__m128@@@Z 101277e0 f i GuPCMContactBoxConvex.obj
 0001:00126820       ?populateVerts@?$SupportLocalImpl@VConvexHullNoScaleV@Gu@physx@@@Gu@physx@@UBEXPBEIPBVPxVec3@3@PAT__m128@@@Z 10127820 f i GuPCMContactBoxConvex.obj
 0001:00126860       ?populateVerts@?$SupportLocalImpl@VConvexHullV@Gu@physx@@@Gu@physx@@UBEXPBEIPBVPxVec3@3@PAT__m128@@@Z 10127860 f i GuPCMContactBoxConvex.obj
 0001:001268a0       ?populateVerts@BoxV@Gu@physx@@QBEXPBEIPBVPxVec3@3@PAT__m128@@@Z 101278a0 f i GuPCMContactBoxConvex.obj
 0001:00126930       ?populateVerts@ConvexHullNoScaleV@Gu@physx@@QBEXPBEIPBVPxVec3@3@PAT__m128@@@Z 10127930 f i GuPCMContactBoxConvex.obj
 0001:001269c0       ?populateVerts@ConvexHullV@Gu@physx@@QBEXPBEIPBVPxVec3@3@PAT__m128@@@Z 101279c0 f i GuPCMContactBoxConvex.obj
 0001:00126a70       ?setMaxMargin@ConvexV@Gu@physx@@QAEXM@Z 10127a70 f i GuPCMContactBoxConvex.obj
 0001:00126ad0       ?support@?$LocalConvex@VShrunkConvexHullNoScaleV@Gu@physx@@@Gu@physx@@UBE?AT__m128@@ABT4@@Z 10127ad0 f i GuPCMContactBoxConvex.obj
 0001:00126b00       ?support@?$LocalConvex@VShrunkConvexHullNoScaleV@Gu@physx@@@Gu@physx@@UBE?AT__m128@@ABT4@AAHPAT4@@Z 10127b00 f i GuPCMContactBoxConvex.obj
 0001:00126b40       ?supportLocal@BoxV@Gu@physx@@QBEXABT__m128@@AAT4@1@Z 10127b40 f i GuPCMContactBoxConvex.obj
 0001:00126c20       ?supportLocal@ConvexHullNoScaleV@Gu@physx@@QBE?AT__m128@@ABT4@@Z 10127c20 f i GuPCMContactBoxConvex.obj
 0001:00126ca0       ?supportLocal@ConvexHullNoScaleV@Gu@physx@@QBEXABT__m128@@AAT4@1@Z 10127ca0 f i GuPCMContactBoxConvex.obj
 0001:00126cd0       ?supportLocal@ConvexHullV@Gu@physx@@QBEXABT__m128@@AAT4@1@Z 10127cd0 f i GuPCMContactBoxConvex.obj
 0001:00126d00       ?supportLocal@ShrunkConvexHullNoScaleV@Gu@physx@@QBE?AT__m128@@ABT4@@Z 10127d00 f i GuPCMContactBoxConvex.obj
 0001:00126d50       ?supportLocal@ShrunkConvexHullNoScaleV@Gu@physx@@QBE?AT__m128@@ABT4@AAHPAT4@@Z 10127d50 f i GuPCMContactBoxConvex.obj
 0001:00126e20       ?supportPoint@?$LocalConvex@VShrunkConvexHullNoScaleV@Gu@physx@@@Gu@physx@@UBE?AT__m128@@HPAT4@@Z 10127e20 f i GuPCMContactBoxConvex.obj
 0001:00126e60       ?supportPoint@ShrunkConvexHullNoScaleV@Gu@physx@@QBE?AT__m128@@HPAT4@@Z 10127e60 f i GuPCMContactBoxConvex.obj
 0001:00126f10       ?supportVertexMinMax@ConvexHullNoScaleV@Gu@physx@@QBEXABT__m128@@AAT4@1@Z 10127f10 f i GuPCMContactBoxConvex.obj
 0001:00127050       ?supportVertexMinMax@ConvexHullV@Gu@physx@@QBEXABT__m128@@AAT4@1@Z 10128050 f i GuPCMContactBoxConvex.obj
 0001:00127210       ?pcmContactCapsuleBox@Gu@physx@@YA_NABVGeometryUnion@12@0ABVPxTransform@2@1ABUNarrowPhaseParams@12@AAUCache@12@AAVContactBuffer@12@PAVRenderOutput@Cm@2@@Z 10128210 f   GuPCMContactCapsuleBox.obj
 0001:001280a0       ??$gjkPenetration@U?$LocalConvex@VCapsuleV@Gu@physx@@@Gu@physx@@U?$LocalConvex@VBoxV@Gu@physx@@@23@@Gu@physx@@YA?AW4GjkStatus@01@ABU?$LocalConvex@VCapsuleV@Gu@physx@@@01@ABU?$LocalConvex@VBoxV@Gu@physx@@@01@ABT__m128@@2AAT5@333PIAE4AAE_N@Z 101290a0 f i GuPCMContactCapsuleBox.obj
 0001:001291f0       ?invalidate_SphereCapsule@PersistentContactManifold@Gu@physx@@QAEIABVPsTransformV@aos@shdfnd@3@ABT__m128@@@Z 1012a1f0 f i GuPCMContactCapsuleBox.obj
 0001:001293c0       ?transformInv@PsTransformV@aos@shdfnd@physx@@QBE?AT__m128@@ABT5@@Z 1012a3c0 f i GuPCMContactCapsuleBox.obj
 0001:00129490       ?pcmContactCapsuleCapsule@Gu@physx@@YA_NABVGeometryUnion@12@0ABVPxTransform@2@1ABUNarrowPhaseParams@12@AAUCache@12@AAVContactBuffer@12@PAVRenderOutput@Cm@2@@Z 1012a490 f   GuPCMContactCapsuleCapsule.obj
 0001:0012b1e0       ?BFTTT@aos@shdfnd@physx@@YA?AT__m128@@XZ 1012c1e0 f i GuPCMContactCapsuleCapsule.obj
 0001:0012b230       ?FSqrt@aos@shdfnd@physx@@YA?AT__m128@@T4@@Z 1012c230 f i GuPCMContactCapsuleCapsule.obj
 0001:0012b2d0       ?QuatGetBasisVector0@aos@shdfnd@physx@@YA?AT__m128@@T4@@Z 1012c2d0 f i GuPCMContactCapsuleCapsule.obj
 0001:0012b520       ?V3SetX@aos@shdfnd@physx@@YA?AT__m128@@T4@0@Z 1012c520 f i GuPCMContactCapsuleCapsule.obj
 0001:0012b630       ?V3StoreA@aos@shdfnd@physx@@YAXT__m128@@AAVPxVec3@3@@Z 1012c630 f i GuPCMContactCapsuleCapsule.obj
 0001:0012b720       ?pcmContactCapsuleConvex@Gu@physx@@YA_NABVGeometryUnion@12@0ABVPxTransform@2@1ABUNarrowPhaseParams@12@AAUCache@12@AAVContactBuffer@12@PAVRenderOutput@Cm@2@@Z 1012c720 f   GuPCMContactCapsuleConvex.obj
 0001:0012c7b0       ??$getConvex@VConvexHullNoScaleV@Gu@physx@@@GjkConvexBase@Gu@physx@@QBEABVConvexHullNoScaleV@12@XZ 1012d7b0 f i GuPCMContactCapsuleConvex.obj
 0001:0012c7d0       ??$gjkPenetration@U?$LocalConvex@VCapsuleV@Gu@physx@@@Gu@physx@@U?$LocalConvex@VConvexHullNoScaleV@Gu@physx@@@23@@Gu@physx@@YA?AW4GjkStatus@01@ABU?$LocalConvex@VCapsuleV@Gu@physx@@@01@ABU?$LocalConvex@VConvexHullNoScaleV@Gu@physx@@@01@ABT__m128@@2AAT5@333PIAE4AAE_N@Z 1012d7d0 f i GuPCMContactCapsuleConvex.obj
 0001:0012d920       ??$gjkPenetration@U?$LocalConvex@VCapsuleV@Gu@physx@@@Gu@physx@@U?$LocalConvex@VConvexHullV@Gu@physx@@@23@@Gu@physx@@YA?AW4GjkStatus@01@ABU?$LocalConvex@VCapsuleV@Gu@physx@@@01@ABU?$LocalConvex@VConvexHullV@Gu@physx@@@01@ABT__m128@@2AAT5@333PIAE4AAE_N@Z 1012e920 f i GuPCMContactCapsuleConvex.obj
 0001:0012ea70       ??0?$LocalConvex@VConvexHullNoScaleV@Gu@physx@@@Gu@physx@@QAE@ABVConvexHullNoScaleV@12@@Z 1012fa70 f i GuPCMContactCapsuleConvex.obj
 0001:0012eaa0       ??1?$LocalConvex@VConvexHullNoScaleV@Gu@physx@@@Gu@physx@@UAE@XZ 1012faa0 f i GuPCMContactCapsuleConvex.obj
 0001:0012eac0       ??_E?$LocalConvex@VConvexHullNoScaleV@Gu@physx@@@Gu@physx@@UAEPAXI@Z 1012fac0 f i GuPCMContactCapsuleConvex.obj
 0001:0012eac0       ??_G?$LocalConvex@VConvexHullNoScaleV@Gu@physx@@@Gu@physx@@UAEPAXI@Z 1012fac0 f i GuPCMContactCapsuleConvex.obj
 0001:0012eb00       ?CalculateCapsuleMinMargin@Gu@physx@@YA?AT__m128@@ABT3@@Z 1012fb00 f i GuPCMContactCapsuleConvex.obj
 0001:0012eb70       ?getCenter@?$LocalConvex@VConvexHullNoScaleV@Gu@physx@@@Gu@physx@@UBE?AT__m128@@XZ 1012fb70 f i GuPCMContactCapsuleConvex.obj
 0001:0012eba0       ?getSweepMargin@?$LocalConvex@VConvexHullNoScaleV@Gu@physx@@@Gu@physx@@UBE?AT__m128@@XZ 1012fba0 f i GuPCMContactCapsuleConvex.obj
 0001:0012ebd0       ?setMargin@ConvexV@Gu@physx@@QAEXM@Z 1012fbd0 f i GuPCMContactCapsuleConvex.obj
 0001:0012ec30       ?support@?$LocalConvex@VConvexHullNoScaleV@Gu@physx@@@Gu@physx@@UBE?AT__m128@@ABT4@@Z 1012fc30 f i GuPCMContactCapsuleConvex.obj
 0001:0012ec60       ?support@?$LocalConvex@VConvexHullNoScaleV@Gu@physx@@@Gu@physx@@UBE?AT__m128@@ABT4@AAHPAT4@@Z 1012fc60 f i GuPCMContactCapsuleConvex.obj
 0001:0012eca0       ?supportLocal@ConvexHullNoScaleV@Gu@physx@@QBE?AT__m128@@ABT4@AAHPAT4@@Z 1012fca0 f i GuPCMContactCapsuleConvex.obj
 0001:0012ed20       ?supportPoint@?$LocalConvex@VConvexHullNoScaleV@Gu@physx@@@Gu@physx@@UBE?AT__m128@@HPAT4@@Z 1012fd20 f i GuPCMContactCapsuleConvex.obj
 0001:0012ed60       ?supportPoint@ConvexHullNoScaleV@Gu@physx@@QBE?AT__m128@@HPAT4@@Z 1012fd60 f i GuPCMContactCapsuleConvex.obj
 0001:0012edc0       ?pcmContactCapsuleHeightField@Gu@physx@@YA_NABVGeometryUnion@12@0ABVPxTransform@2@1ABUNarrowPhaseParams@12@AAUCache@12@AAVContactBuffer@12@PAVRenderOutput@Cm@2@@Z 1012fdc0 f   GuPCMContactCapsuleHeightField.obj
 0001:0012f340       ??$processTriangleCache@$0BA@@PCMCapsuleVsHeightfieldContactGenerationCallback@physx@@QAEXAAU?$TriangleCache@$0BA@@Gu@1@@Z 10130340 f i GuPCMContactCapsuleHeightField.obj
 0001:0012f370       ??$processTriangleCache@$0BA@VPCMCapsuleVsMeshContactGeneration@Gu@physx@@@PCMMeshContactGeneration@Gu@physx@@QAE_NAAU?$TriangleCache@$0BA@@12@@Z 10130370 f i GuPCMContactCapsuleHeightField.obj
 0001:0012f440       ??0?$PCMHeightfieldContactGenerationCallback@UPCMCapsuleVsHeightfieldContactGenerationCallback@physx@@@Gu@physx@@QAE@ABVHeightFieldUtil@12@ABVPxTransform@2@@Z 10130440 f i GuPCMContactCapsuleHeightField.obj
 0001:0012f4f0       ??0?$TriangleCache@$0BA@@Gu@physx@@QAE@XZ 101304f0 f i GuPCMContactCapsuleHeightField.obj
 0001:0012f530       ??0PCMCapsuleVsHeightfieldContactGenerationCallback@physx@@QAE@ABVCapsuleV@Gu@1@ABT__m128@@1ABVPsTransformV@aos@shdfnd@1@2ABVPxTransform@1@AAVMultiplePersistentContactManifold@31@AAVContactBuffer@31@PAV?$InlineArray@I$0EEA@VNamedAllocator@shdfnd@physx@@@71@AAVHeightFieldUtil@31@@Z 10130530 f i GuPCMContactCapsuleHeightField.obj
 0001:0012f5a0       ??0PCMCapsuleVsMeshContactGeneration@Gu@physx@@QAE@ABVCapsuleV@12@ABT__m128@@1ABVPsTransformV@aos@shdfnd@2@2AAVMultiplePersistentContactManifold@12@AAVContactBuffer@12@PAV?$InlineArray@I$0EEA@VNamedAllocator@shdfnd@physx@@@72@PAVRenderOutput@Cm@2@@Z 101305a0 f i GuPCMContactCapsuleHeightField.obj
 0001:0012f680       ??0PCMContactPatch@Gu@physx@@QAE@XZ 10130680 f i GuPCMContactCapsuleHeightField.obj
 0001:0012f6f0       ??0PCMMeshContactGeneration@Gu@physx@@QAE@ABT__m128@@0ABVPsTransformV@aos@shdfnd@2@1AAVMultiplePersistentContactManifold@12@AAVContactBuffer@12@PAV?$InlineArray@I$0EEA@VNamedAllocator@shdfnd@physx@@@62@PAVRenderOutput@Cm@2@@Z 101306f0 f i GuPCMContactCapsuleHeightField.obj
 0001:0012f910       ??1?$PCMHeightfieldContactGenerationCallback@UPCMCapsuleVsHeightfieldContactGenerationCallback@physx@@@Gu@physx@@UAE@XZ 10130910 f i GuPCMContactCapsuleHeightField.obj
 0001:0012f930       ??1PCMCapsuleVsHeightfieldContactGenerationCallback@physx@@UAE@XZ 10130930 f i GuPCMContactCapsuleHeightField.obj
 0001:0012f950       ??_G?$PCMHeightfieldContactGenerationCallback@UPCMCapsuleVsHeightfieldContactGenerationCallback@physx@@@Gu@physx@@UAEPAXI@Z 10130950 f i GuPCMContactCapsuleHeightField.obj
 0001:0012f950       ??_E?$PCMHeightfieldContactGenerationCallback@UPCMCapsuleVsHeightfieldContactGenerationCallback@physx@@@Gu@physx@@UAEPAXI@Z 10130950 f i GuPCMContactCapsuleHeightField.obj
 0001:0012f990       ??_GPCMCapsuleVsHeightfieldContactGenerationCallback@physx@@UAEPAXI@Z 10130990 f i GuPCMContactCapsuleHeightField.obj
 0001:0012f990       ??_EPCMCapsuleVsHeightfieldContactGenerationCallback@physx@@UAEPAXI@Z 10130990 f i GuPCMContactCapsuleHeightField.obj
 0001:0012f9d0       ?addTriangle@?$TriangleCache@$0BA@@Gu@physx@@QAEXPBVPxVec3@3@PBIIE@Z 101309d0 f i GuPCMContactCapsuleHeightField.obj
 0001:0012fb60       ?getMultipleManifold@Cache@Gu@physx@@QAEAAVMultiplePersistentContactManifold@23@XZ 10130b60 f i GuPCMContactCapsuleHeightField.obj
 0001:0012fc60       ?onEvent@?$PCMHeightfieldContactGenerationCallback@UPCMCapsuleVsHeightfieldContactGenerationCallback@physx@@@Gu@physx@@UAE_NIPAI@Z 10130c60 f i GuPCMContactCapsuleHeightField.obj
 0001:00130140       ?prioritizeContactPatches@PCMMeshContactGeneration@Gu@physx@@QAEXXZ 10131140 f i GuPCMContactCapsuleHeightField.obj
 0001:001302d0       ?processContacts@PCMMeshContactGeneration@Gu@physx@@QAEXE_N@Z 101312d0 f i GuPCMContactCapsuleHeightField.obj
 0001:00130460       ?pcmContactCapsuleMesh@Gu@physx@@YA_NABVGeometryUnion@12@0ABVPxTransform@2@1ABUNarrowPhaseParams@12@AAUCache@12@AAVContactBuffer@12@PAVRenderOutput@Cm@2@@Z 10131460 f   GuPCMContactCapsuleMesh.obj
 0001:00130ad0       ??$processTriangleCache@$0BA@@PCMCapsuleVsMeshContactGenerationCallback@physx@@QAEXAAU?$TriangleCache@$0BA@@Gu@1@@Z 10131ad0 f i GuPCMContactCapsuleMesh.obj
 0001:00130b00       ??0?$PCMMeshContactGenerationCallback@UPCMCapsuleVsMeshContactGenerationCallback@physx@@@Gu@physx@@QAE@ABVFastVertex2ShapeScaling@Cm@2@PBE_N@Z 10131b00 f i GuPCMContactCapsuleMesh.obj
 0001:00130b60       ??0PCMCapsuleVsMeshContactGenerationCallback@physx@@QAE@ABVCapsuleV@Gu@1@ABT__m128@@1ABVPsTransformV@aos@shdfnd@1@2AAVMultiplePersistentContactManifold@31@AAVContactBuffer@31@PBEABVFastVertex2ShapeScaling@Cm@1@_NPAV?$InlineArray@I$0EEA@VNamedAllocator@shdfnd@physx@@@71@PAVRenderOutput@Cm@1@@Z 10131b60 f i GuPCMContactCapsuleMesh.obj
 0001:00130be0       ??1?$PCMMeshContactGenerationCallback@UPCMCapsuleVsMeshContactGenerationCallback@physx@@@Gu@physx@@UAE@XZ 10131be0 f i GuPCMContactCapsuleMesh.obj
 0001:00130c00       ??1PCMCapsuleVsMeshContactGenerationCallback@physx@@UAE@XZ 10131c00 f i GuPCMContactCapsuleMesh.obj
 0001:00130c20       ??_E?$PCMMeshContactGenerationCallback@UPCMCapsuleVsMeshContactGenerationCallback@physx@@@Gu@physx@@UAEPAXI@Z 10131c20 f i GuPCMContactCapsuleMesh.obj
 0001:00130c20       ??_G?$PCMMeshContactGenerationCallback@UPCMCapsuleVsMeshContactGenerationCallback@physx@@@Gu@physx@@UAEPAXI@Z 10131c20 f i GuPCMContactCapsuleMesh.obj
 0001:00130c60       ??_EPCMCapsuleVsMeshContactGenerationCallback@physx@@UAEPAXI@Z 10131c60 f i GuPCMContactCapsuleMesh.obj
 0001:00130c60       ??_GPCMCapsuleVsMeshContactGenerationCallback@physx@@UAEPAXI@Z 10131c60 f i GuPCMContactCapsuleMesh.obj
 0001:00130ca0       ?doTest@PCMCapsuleVsMeshContactGenerationCallback@physx@@QAE_NABVPxVec3@2@00@Z 10131ca0 f i GuPCMContactCapsuleMesh.obj
 0001:00130cc0       ?flushCache@?$PCMMeshContactGenerationCallback@UPCMCapsuleVsMeshContactGenerationCallback@physx@@@Gu@physx@@QAEXXZ 10131cc0 f i GuPCMContactCapsuleMesh.obj
 0001:00130d10       ?isEmpty@?$TriangleCache@$0BA@@Gu@physx@@QBE_NXZ 10131d10 f i GuPCMContactCapsuleMesh.obj
 0001:00130d50       ?isFull@?$TriangleCache@$0BA@@Gu@physx@@QBE_NXZ 10131d50 f i GuPCMContactCapsuleMesh.obj
 0001:00130d90       ?processHit@?$PCMMeshContactGenerationCallback@UPCMCapsuleVsMeshContactGenerationCallback@physx@@@Gu@physx@@UAE_NABUPxRaycastHit@3@ABVPxVec3@3@11AAMPBI@Z 10131d90 f i GuPCMContactCapsuleMesh.obj
 0001:00130f90       ?reset@?$TriangleCache@$0BA@@Gu@physx@@QAEXXZ 10131f90 f i GuPCMContactCapsuleMesh.obj
 0001:00130fb0       ?generateLastContacts@PCMConvexVsMeshContactGeneration@Gu@physx@@QAEXXZ 10131fb0 f   GuPCMContactConvexCommon.obj
 0001:00131410       ?addContactsToPatch@PCMConvexVsMeshContactGeneration@Gu@physx@@QAEXABT__m128@@I@Z 10132410 f   GuPCMContactConvexCommon.obj
 0001:00131750       ?processTriangle@PCMConvexVsMeshContactGeneration@Gu@physx@@QAE_NPBVPxVec3@3@IEPBI@Z 10132750 f   GuPCMContactConvexCommon.obj
 0001:00131be0       ?processTriangle@PCMConvexVsMeshContactGeneration@Gu@physx@@SA_NABUPolygonalData@23@PAVSupportLocal@23@PBVPxVec3@3@IEABT__m128@@_NABVPsTransformV@aos@shdfnd@3@ABVPsMatTransformV@9shdfnd@3@PAVMeshPersistentContact@23@AAI@Z 10132be0 f   GuPCMContactConvexCommon.obj
 0001:00131e80       ?processTriangle@PCMSphereVsMeshContactGeneration@Gu@physx@@QAE_NPBVPxVec3@3@IEPBI@Z 10132e80 f   GuPCMContactConvexCommon.obj
 0001:001323a0       ?generateLastContacts@PCMSphereVsMeshContactGeneration@Gu@physx@@QAEXXZ 101333a0 f   GuPCMContactConvexCommon.obj
 0001:00132600       ?addToPatch@PCMSphereVsMeshContactGeneration@Gu@physx@@QAEXABT__m128@@0T4@I@Z 10133600 f   GuPCMContactConvexCommon.obj
 0001:001329c0       ?generateEEContacts@PCMCapsuleVsMeshContactGeneration@Gu@physx@@QAEXABT__m128@@000I000PAVMeshPersistentContact@23@AAI@Z 101339c0 f   GuPCMContactConvexCommon.obj
 0001:00132a60       ?generateEE@PCMCapsuleVsMeshContactGeneration@Gu@physx@@QAEXABT__m128@@000I00PAVMeshPersistentContact@23@AAI@Z 10133a60 f   GuPCMContactConvexCommon.obj
 0001:00132f20       ?generateContacts@PCMCapsuleVsMeshContactGeneration@Gu@physx@@SA_NABT__m128@@0000I000PAVMeshPersistentContact@23@AAI@Z 10133f20 f   GuPCMContactConvexCommon.obj
 0001:001337b0       ?generateEEContactsMTD@PCMCapsuleVsMeshContactGeneration@Gu@physx@@SAXABT__m128@@000I000PAVMeshPersistentContact@23@AAI@Z 101347b0 f   GuPCMContactConvexCommon.obj
 0001:00133840       ?generateEEMTD@PCMCapsuleVsMeshContactGeneration@Gu@physx@@SAXABT__m128@@000I00PAVMeshPersistentContact@23@AAI@Z 10134840 f   GuPCMContactConvexCommon.obj
 0001:00133c70       ?processTriangle@PCMCapsuleVsMeshContactGeneration@Gu@physx@@QAE_NPBVPxVec3@3@IEPBI@Z 10134c70 f   GuPCMContactConvexCommon.obj
 0001:00134450       ?processTriangle@PCMCapsuleVsMeshContactGeneration@Gu@physx@@SA_NABVTriangleV@23@IABVCapsuleV@23@ABT__m128@@EPAVMeshPersistentContact@23@AAI@Z 10135450 f   GuPCMContactConvexCommon.obj
 0001:001353d0       ?pcmDistanceSegmentTriangleSquared@Gu@physx@@YA?AT__m128@@ABT3@0000AAT3@11@Z 101363d0 f   GuPCMContactConvexCommon.obj
 0001:001379e0       ??$PX_UNUSED@PBI@@YAXABQBI@Z 101389e0 f i GuPCMContactConvexCommon.obj
 0001:001379f0       ??$median3@USortedTriangle@Gu@physx@@$$CBU?$Less@USortedTriangle@Gu@physx@@@shdfnd@3@@internal@shdfnd@physx@@YAXPAUSortedTriangle@Gu@2@HHABU?$Less@USortedTriangle@Gu@physx@@@12@@Z 101389f0 f i GuPCMContactConvexCommon.obj
 0001:00137b20       ??$partition@USortedTriangle@Gu@physx@@$$CBU?$Less@USortedTriangle@Gu@physx@@@shdfnd@3@@internal@shdfnd@physx@@YAHPAUSortedTriangle@Gu@2@HHABU?$Less@USortedTriangle@Gu@physx@@@12@@Z 10138b20 f i GuPCMContactConvexCommon.obj
 0001:00137ce0       ??$smallSort@USortedTriangle@Gu@physx@@$$CBU?$Less@USortedTriangle@Gu@physx@@@shdfnd@3@@internal@shdfnd@physx@@YAXPAUSortedTriangle@Gu@2@HHABU?$Less@USortedTriangle@Gu@physx@@@12@@Z 10138ce0 f i GuPCMContactConvexCommon.obj
 0001:00137da0       ??$sort@USortedTriangle@Gu@physx@@U?$Less@USortedTriangle@Gu@physx@@@shdfnd@3@@shdfnd@physx@@YAXPAUSortedTriangle@Gu@1@IABU?$Less@USortedTriangle@Gu@physx@@@01@@Z 10138da0 f i GuPCMContactConvexCommon.obj
 0001:00137de0       ??$sort@USortedTriangle@Gu@physx@@U?$Less@USortedTriangle@Gu@physx@@@shdfnd@3@VNamedAllocator@53@@shdfnd@physx@@YAXPAUSortedTriangle@Gu@1@IABU?$Less@USortedTriangle@Gu@physx@@@01@ABVNamedAllocator@01@I@Z 10138de0 f i GuPCMContactConvexCommon.obj
 0001:001380a0       ??$swap@USortedTriangle@Gu@physx@@@shdfnd@physx@@YAXAAUSortedTriangle@Gu@1@0@Z 101390a0 f i GuPCMContactConvexCommon.obj
 0001:00138100       ??0?$Stack@VNamedAllocator@shdfnd@physx@@@internal@shdfnd@physx@@QAE@PAHIABVNamedAllocator@23@@Z 10139100 f i GuPCMContactConvexCommon.obj
 0001:00138150       ??0?$SupportLocalImpl@VTriangleV@Gu@physx@@@Gu@physx@@QAE@ABVTriangleV@12@ABVPsTransformV@aos@shdfnd@2@ABUMat33V@562@2_N@Z 10139150 f i GuPCMContactConvexCommon.obj
 0001:001381a0       ??0TriangleV@Gu@physx@@QAE@PBVPxVec3@2@@Z 101391a0 f i GuPCMContactConvexCommon.obj
 0001:00138370       ??1?$Stack@VNamedAllocator@shdfnd@physx@@@internal@shdfnd@physx@@QAE@XZ 10139370 f i GuPCMContactConvexCommon.obj
 0001:001383b0       ??1?$SupportLocalImpl@VTriangleV@Gu@physx@@@Gu@physx@@UAE@XZ 101393b0 f i GuPCMContactConvexCommon.obj
 0001:001383d0       ??A?$Array@USortedTriangle@Gu@physx@@V?$InlineAllocator@$0IAA@VNamedAllocator@shdfnd@physx@@@shdfnd@3@@shdfnd@physx@@QAEAAUSortedTriangle@Gu@2@I@Z 101393d0 f i GuPCMContactConvexCommon.obj
 0001:00138450       ??MSortedTriangle@Gu@physx@@QBE_NABU012@@Z 10139450 f i GuPCMContactConvexCommon.obj
 0001:001384a0       ??R?$Less@USortedTriangle@Gu@physx@@@shdfnd@physx@@QBE_NABUSortedTriangle@Gu@2@0@Z 101394a0 f i GuPCMContactConvexCommon.obj
 0001:001384c0       ??_G?$SupportLocalImpl@VTriangleV@Gu@physx@@@Gu@physx@@UAEPAXI@Z 101394c0 f i GuPCMContactConvexCommon.obj
 0001:001384c0       ??_E?$SupportLocalImpl@VTriangleV@Gu@physx@@@Gu@physx@@UAEPAXI@Z 101394c0 f i GuPCMContactConvexCommon.obj
 0001:00138500       ?V4PermXZXZ@aos@shdfnd@physx@@YA?AT__m128@@T4@@Z 10139500 f i GuPCMContactConvexCommon.obj
 0001:00138550       ?V4PermYWYW@aos@shdfnd@physx@@YA?AT__m128@@T4@@Z 10139550 f i GuPCMContactConvexCommon.obj
 0001:001385a0       ?V4PermYXWZ@aos@shdfnd@physx@@YA?AT__m128@@T4@@Z 101395a0 f i GuPCMContactConvexCommon.obj
 0001:001385f0       ?addManifoldPointToPatch@PCMMeshContactGeneration@Gu@physx@@QAEXABT__m128@@0I@Z 101395f0 f i GuPCMContactConvexCommon.obj
 0001:00138980       ?allocate@?$Array@USortedTriangle@Gu@physx@@V?$InlineAllocator@$0IAA@VNamedAllocator@shdfnd@physx@@@shdfnd@3@@shdfnd@physx@@IAEPAUSortedTriangle@Gu@3@I@Z 10139980 f i GuPCMContactConvexCommon.obj
 0001:00138a00       ?allocate@?$InlineAllocator@$0IAA@VNamedAllocator@shdfnd@physx@@@shdfnd@physx@@QAEPAXIPBDH@Z 10139a00 f i GuPCMContactConvexCommon.obj
 0001:00138a60       ?begin@?$Array@USortedTriangle@Gu@physx@@V?$InlineAllocator@$0IAA@VNamedAllocator@shdfnd@physx@@@shdfnd@3@@shdfnd@physx@@QAEPAUSortedTriangle@Gu@3@XZ 10139a60 f i GuPCMContactConvexCommon.obj
 0001:00138a80       ?capacity@?$Array@USortedTriangle@Gu@physx@@V?$InlineAllocator@$0IAA@VNamedAllocator@shdfnd@physx@@@shdfnd@3@@shdfnd@physx@@QBEIXZ 10139a80 f i GuPCMContactConvexCommon.obj
 0001:00138aa0       ?capacityIncrement@?$Array@USortedTriangle@Gu@physx@@V?$InlineAllocator@$0IAA@VNamedAllocator@shdfnd@physx@@@shdfnd@3@@shdfnd@physx@@IBEIXZ 10139aa0 f i GuPCMContactConvexCommon.obj
 0001:00138ae0       ?copy@?$Array@USortedTriangle@Gu@physx@@V?$InlineAllocator@$0IAA@VNamedAllocator@shdfnd@physx@@@shdfnd@3@@shdfnd@physx@@KAXPAUSortedTriangle@Gu@3@0PBU453@@Z 10139ae0 f i GuPCMContactConvexCommon.obj
 0001:00138b50       ?deallocate@?$Array@USortedTriangle@Gu@physx@@V?$InlineAllocator@$0IAA@VNamedAllocator@shdfnd@physx@@@shdfnd@3@@shdfnd@physx@@IAEXPAX@Z 10139b50 f i GuPCMContactConvexCommon.obj
 0001:00138b70       ?deallocate@?$InlineAllocator@$0IAA@VNamedAllocator@shdfnd@physx@@@shdfnd@physx@@QAEXPAX@Z 10139b70 f i GuPCMContactConvexCommon.obj
 0001:00138bb0       ?destroy@?$Array@USortedTriangle@Gu@physx@@V?$InlineAllocator@$0IAA@VNamedAllocator@shdfnd@physx@@@shdfnd@3@@shdfnd@physx@@KAXPAUSortedTriangle@Gu@3@0@Z 10139bb0 f i GuPCMContactConvexCommon.obj
 0001:00138bd0       ?doSupport@?$SupportLocalImpl@VTriangleV@Gu@physx@@@Gu@physx@@UBE?AT__m128@@ABT4@@Z 10139bd0 f i GuPCMContactConvexCommon.obj
 0001:00138c00       ?doSupport@?$SupportLocalImpl@VTriangleV@Gu@physx@@@Gu@physx@@UBEXABT__m128@@AAT4@1@Z 10139c00 f i GuPCMContactConvexCommon.obj
 0001:00138c30       ?empty@?$Stack@VNamedAllocator@shdfnd@physx@@@internal@shdfnd@physx@@QAE_NXZ 10139c30 f i GuPCMContactConvexCommon.obj
 0001:00138c70       ?get@?$CacheMap@UCachedEdge@Gu@physx@@$0IA@@Gu@physx@@QBEPBUCachedEdge@23@ABU423@@Z 10139c70 f i GuPCMContactConvexCommon.obj
 0001:00138d10       ?grow@?$Stack@VNamedAllocator@shdfnd@physx@@@internal@shdfnd@physx@@QAEXXZ 10139d10 f i GuPCMContactConvexCommon.obj
 0001:00138dc0       ?growAndPushBack@?$Array@USortedTriangle@Gu@physx@@V?$InlineAllocator@$0IAA@VNamedAllocator@shdfnd@physx@@@shdfnd@3@@shdfnd@physx@@IAEAAUSortedTriangle@Gu@3@ABU453@@Z 10139dc0 f i GuPCMContactConvexCommon.obj
 0001:00138f70       ?isInUserMemory@?$Array@USortedTriangle@Gu@physx@@V?$InlineAllocator@$0IAA@VNamedAllocator@shdfnd@physx@@@shdfnd@3@@shdfnd@physx@@QBEIXZ 10139f70 f i GuPCMContactConvexCommon.obj
 0001:00138f90       ?isValidTriangleBarycentricCoord2@Gu@physx@@YA?AT__m128@@ABT3@@Z 10139f90 f i GuPCMContactConvexCommon.obj
 0001:001391e0       ?normal@TriangleV@Gu@physx@@QBE?AT__m128@@XZ 1013a1e0 f i GuPCMContactConvexCommon.obj
 0001:001392d0       ?pcmDistanceSegmentSegmentSquared4@Gu@physx@@YA?AT__m128@@ABT3@000000000AAT3@1@Z 1013a2d0 f i GuPCMContactConvexCommon.obj
 0001:0013a270       ?pop@?$Stack@VNamedAllocator@shdfnd@physx@@@internal@shdfnd@physx@@QAEXAAH0@Z 1013b270 f i GuPCMContactConvexCommon.obj
 0001:0013a340       ?populateVerts@?$SupportLocalImpl@VTriangleV@Gu@physx@@@Gu@physx@@UBEXPBEIPBVPxVec3@3@PAT__m128@@@Z 1013b340 f i GuPCMContactConvexCommon.obj
 0001:0013a380       ?populateVerts@TriangleV@Gu@physx@@QBEXPBEIPBVPxVec3@3@PAT__m128@@@Z 1013b380 f i GuPCMContactConvexCommon.obj
 0001:0013a410       ?push@?$Stack@VNamedAllocator@shdfnd@physx@@@internal@shdfnd@physx@@QAEXHH@Z 1013b410 f i GuPCMContactConvexCommon.obj
 0001:0013a4a0       ?pushBack@?$Array@USortedTriangle@Gu@physx@@V?$InlineAllocator@$0IAA@VNamedAllocator@shdfnd@physx@@@shdfnd@3@@shdfnd@physx@@QAEAAUSortedTriangle@Gu@3@ABU453@@Z 1013b4a0 f i GuPCMContactConvexCommon.obj
 0001:0013a560       ?size@?$Array@USortedTriangle@Gu@physx@@V?$InlineAllocator@$0IAA@VNamedAllocator@shdfnd@physx@@@shdfnd@3@@shdfnd@physx@@QBEIXZ 1013b560 f i GuPCMContactConvexCommon.obj
 0001:0013a580       ?supportLocal@TriangleV@Gu@physx@@QBEXABT__m128@@AAT4@1@Z 1013b580 f i GuPCMContactConvexCommon.obj
 0001:0013a700       ?pcmContactConvexConvex@Gu@physx@@YA_NABVGeometryUnion@12@0ABVPxTransform@2@1ABUNarrowPhaseParams@12@AAUCache@12@AAVContactBuffer@12@PAVRenderOutput@Cm@2@@Z 1013b700 f   GuPCMContactConvexConvex.obj
 0001:0013bac0       ??$gjkPenetration@U?$RelativeConvex@VShrunkConvexHullNoScaleV@Gu@physx@@@Gu@physx@@U?$LocalConvex@VShrunkConvexHullNoScaleV@Gu@physx@@@23@@Gu@physx@@YA?AW4GjkStatus@01@ABU?$RelativeConvex@VShrunkConvexHullNoScaleV@Gu@physx@@@01@ABU?$LocalConvex@VShrunkConvexHullNoScaleV@Gu@physx@@@01@ABT__m128@@2AAT5@333PIAE4AAE_N@Z 1013cac0 f i GuPCMContactConvexConvex.obj
 0001:0013cc10       ??$gjkPenetration@U?$RelativeConvex@VShrunkConvexHullNoScaleV@Gu@physx@@@Gu@physx@@U?$LocalConvex@VShrunkConvexHullV@Gu@physx@@@23@@Gu@physx@@YA?AW4GjkStatus@01@ABU?$RelativeConvex@VShrunkConvexHullNoScaleV@Gu@physx@@@01@ABU?$LocalConvex@VShrunkConvexHullV@Gu@physx@@@01@ABT__m128@@2AAT5@333PIAE4AAE_N@Z 1013dc10 f i GuPCMContactConvexConvex.obj
 0001:0013dd60       ??$gjkPenetration@U?$RelativeConvex@VShrunkConvexHullV@Gu@physx@@@Gu@physx@@U?$LocalConvex@VShrunkConvexHullNoScaleV@Gu@physx@@@23@@Gu@physx@@YA?AW4GjkStatus@01@ABU?$RelativeConvex@VShrunkConvexHullV@Gu@physx@@@01@ABU?$LocalConvex@VShrunkConvexHullNoScaleV@Gu@physx@@@01@ABT__m128@@2AAT5@333PIAE4AAE_N@Z 1013ed60 f i GuPCMContactConvexConvex.obj
 0001:0013eeb0       ??$gjkPenetration@U?$RelativeConvex@VShrunkConvexHullV@Gu@physx@@@Gu@physx@@U?$LocalConvex@VShrunkConvexHullV@Gu@physx@@@23@@Gu@physx@@YA?AW4GjkStatus@01@ABU?$RelativeConvex@VShrunkConvexHullV@Gu@physx@@@01@ABU?$LocalConvex@VShrunkConvexHullV@Gu@physx@@@01@ABT__m128@@2AAT5@333PIAE4AAE_N@Z 1013feb0 f i GuPCMContactConvexConvex.obj
 0001:00140000       ??0?$RelativeConvex@VConvexHullV@Gu@physx@@@Gu@physx@@QAE@ABVConvexHullV@12@ABVPsMatTransformV@aos@shdfnd@2@@Z 10141000 f i GuPCMContactConvexConvex.obj
 0001:00140080       ??0?$RelativeConvex@VShrunkConvexHullNoScaleV@Gu@physx@@@Gu@physx@@QAE@ABVShrunkConvexHullNoScaleV@12@ABVPsMatTransformV@aos@shdfnd@2@@Z 10141080 f i GuPCMContactConvexConvex.obj
 0001:00140100       ??0?$RelativeConvex@VShrunkConvexHullV@Gu@physx@@@Gu@physx@@QAE@ABVShrunkConvexHullV@12@ABVPsMatTransformV@aos@shdfnd@2@@Z 10141100 f i GuPCMContactConvexConvex.obj
 0001:00140180       ??1?$RelativeConvex@VConvexHullV@Gu@physx@@@Gu@physx@@UAE@XZ 10141180 f i GuPCMContactConvexConvex.obj
 0001:001401a0       ??1?$RelativeConvex@VShrunkConvexHullNoScaleV@Gu@physx@@@Gu@physx@@UAE@XZ 101411a0 f i GuPCMContactConvexConvex.obj
 0001:001401c0       ??1?$RelativeConvex@VShrunkConvexHullV@Gu@physx@@@Gu@physx@@UAE@XZ 101411c0 f i GuPCMContactConvexConvex.obj
 0001:001401e0       ??_E?$RelativeConvex@VConvexHullV@Gu@physx@@@Gu@physx@@UAEPAXI@Z 101411e0 f i GuPCMContactConvexConvex.obj
 0001:001401e0       ??_G?$RelativeConvex@VConvexHullV@Gu@physx@@@Gu@physx@@UAEPAXI@Z 101411e0 f i GuPCMContactConvexConvex.obj
 0001:00140220       ??_E?$RelativeConvex@VShrunkConvexHullNoScaleV@Gu@physx@@@Gu@physx@@UAEPAXI@Z 10141220 f i GuPCMContactConvexConvex.obj
 0001:00140220       ??_G?$RelativeConvex@VShrunkConvexHullNoScaleV@Gu@physx@@@Gu@physx@@UAEPAXI@Z 10141220 f i GuPCMContactConvexConvex.obj
 0001:00140260       ??_E?$RelativeConvex@VShrunkConvexHullV@Gu@physx@@@Gu@physx@@UAEPAXI@Z 10141260 f i GuPCMContactConvexConvex.obj
 0001:00140260       ??_G?$RelativeConvex@VShrunkConvexHullV@Gu@physx@@@Gu@physx@@UAEPAXI@Z 10141260 f i GuPCMContactConvexConvex.obj
 0001:001402a0       ?getCenter@?$RelativeConvex@VConvexHullV@Gu@physx@@@Gu@physx@@UBE?AT__m128@@XZ 101412a0 f i GuPCMContactConvexConvex.obj
 0001:00140300       ?getCenter@?$RelativeConvex@VShrunkConvexHullNoScaleV@Gu@physx@@@Gu@physx@@UBE?AT__m128@@XZ 10141300 f i GuPCMContactConvexConvex.obj
 0001:00140360       ?getCenter@?$RelativeConvex@VShrunkConvexHullV@Gu@physx@@@Gu@physx@@UBE?AT__m128@@XZ 10141360 f i GuPCMContactConvexConvex.obj
 0001:001403c0       ?getSweepMargin@?$RelativeConvex@VConvexHullV@Gu@physx@@@Gu@physx@@UBE?AT__m128@@XZ 101413c0 f i GuPCMContactConvexConvex.obj
 0001:001403f0       ?getSweepMargin@?$RelativeConvex@VShrunkConvexHullNoScaleV@Gu@physx@@@Gu@physx@@UBE?AT__m128@@XZ 101413f0 f i GuPCMContactConvexConvex.obj
 0001:00140420       ?getSweepMargin@?$RelativeConvex@VShrunkConvexHullV@Gu@physx@@@Gu@physx@@UBE?AT__m128@@XZ 10141420 f i GuPCMContactConvexConvex.obj
 0001:00140450       ?support@?$RelativeConvex@VConvexHullV@Gu@physx@@@Gu@physx@@UBE?AT__m128@@ABT4@@Z 10141450 f i GuPCMContactConvexConvex.obj
 0001:001404a0       ?support@?$RelativeConvex@VConvexHullV@Gu@physx@@@Gu@physx@@UBE?AT__m128@@ABT4@AAHPAT4@@Z 101414a0 f i GuPCMContactConvexConvex.obj
 0001:001404f0       ?support@?$RelativeConvex@VShrunkConvexHullNoScaleV@Gu@physx@@@Gu@physx@@UBE?AT__m128@@ABT4@@Z 101414f0 f i GuPCMContactConvexConvex.obj
 0001:00140540       ?support@?$RelativeConvex@VShrunkConvexHullNoScaleV@Gu@physx@@@Gu@physx@@UBE?AT__m128@@ABT4@AAHPAT4@@Z 10141540 f i GuPCMContactConvexConvex.obj
 0001:00140590       ?support@?$RelativeConvex@VShrunkConvexHullV@Gu@physx@@@Gu@physx@@UBE?AT__m128@@ABT4@@Z 10141590 f i GuPCMContactConvexConvex.obj
 0001:001405e0       ?support@?$RelativeConvex@VShrunkConvexHullV@Gu@physx@@@Gu@physx@@UBE?AT__m128@@ABT4@AAHPAT4@@Z 101415e0 f i GuPCMContactConvexConvex.obj
 0001:00140630       ?supportPoint@?$RelativeConvex@VConvexHullV@Gu@physx@@@Gu@physx@@UBE?AT__m128@@HPAT4@@Z 10141630 f i GuPCMContactConvexConvex.obj
 0001:001406a0       ?supportPoint@?$RelativeConvex@VShrunkConvexHullNoScaleV@Gu@physx@@@Gu@physx@@UBE?AT__m128@@HPAT4@@Z 101416a0 f i GuPCMContactConvexConvex.obj
 0001:00140710       ?supportPoint@?$RelativeConvex@VShrunkConvexHullV@Gu@physx@@@Gu@physx@@UBE?AT__m128@@HPAT4@@Z 10141710 f i GuPCMContactConvexConvex.obj
 0001:00140780       ?supportRelative@ConvexHullV@Gu@physx@@QBE?AT__m128@@ABT4@ABVPsMatTransformV@aos@shdfnd@3@1@Z 10141780 f i GuPCMContactConvexConvex.obj
 0001:001407f0       ?supportRelative@ConvexHullV@Gu@physx@@QBE?AT__m128@@ABT4@ABVPsMatTransformV@aos@shdfnd@3@1AAHPAT4@@Z 101417f0 f i GuPCMContactConvexConvex.obj
 0001:00140870       ?supportRelative@ShrunkConvexHullNoScaleV@Gu@physx@@QBE?AT__m128@@ABT4@ABVPsMatTransformV@aos@shdfnd@3@1@Z 10141870 f i GuPCMContactConvexConvex.obj
 0001:001408d0       ?supportRelative@ShrunkConvexHullNoScaleV@Gu@physx@@QBE?AT__m128@@ABT4@ABVPsMatTransformV@aos@shdfnd@3@1AAHPAT4@@Z 101418d0 f i GuPCMContactConvexConvex.obj
 0001:00140950       ?supportRelative@ShrunkConvexHullV@Gu@physx@@QBE?AT__m128@@ABT4@ABVPsMatTransformV@aos@shdfnd@3@1@Z 10141950 f i GuPCMContactConvexConvex.obj
 0001:001409b0       ?supportRelative@ShrunkConvexHullV@Gu@physx@@QBE?AT__m128@@ABT4@ABVPsMatTransformV@aos@shdfnd@3@1AAHPAT4@@Z 101419b0 f i GuPCMContactConvexConvex.obj
 0001:00140a30       ?pcmContactBoxHeightField@Gu@physx@@YA_NABVGeometryUnion@12@0ABVPxTransform@2@1ABUNarrowPhaseParams@12@AAUCache@12@AAVContactBuffer@12@PAVRenderOutput@Cm@2@@Z 10141a30 f   GuPCMContactConvexHeightField.obj
 0001:00140c70       ?pcmContactConvexHeightField@Gu@physx@@YA_NABVGeometryUnion@12@0ABVPxTransform@2@1ABUNarrowPhaseParams@12@AAUCache@12@AAVContactBuffer@12@PAVRenderOutput@Cm@2@@Z 10141c70 f   GuPCMContactConvexHeightField.obj
 0001:00140f70       ?PCMContactConvexHeightfield@Gu@physx@@YA_NABUPolygonalData@12@PAVSupportLocal@12@ABT__m128@@ABVPxBounds3@2@ABVPxHeightFieldGeometry@2@ABVPxTransform@2@5MAAVContactBuffer@12@ABVFastVertex2ShapeScaling@Cm@2@_NAAVMultiplePersistentContactManifold@12@PAVRenderOutput@Cm@2@@Z 10141f70 f   GuPCMContactConvexHeightField.obj
 0001:001415d0       ??$processTriangleCache@$0BA@@PCMConvexVsHeightfieldContactGenerationCallback@physx@@QAEXAAU?$TriangleCache@$0BA@@Gu@1@@Z 101425d0 f i GuPCMContactConvexHeightField.obj
 0001:00141600       ??$processTriangleCache@$0BA@VPCMConvexVsMeshContactGeneration@Gu@physx@@@PCMMeshContactGeneration@Gu@physx@@QAE_NAAU?$TriangleCache@$0BA@@12@@Z 10142600 f i GuPCMContactConvexHeightField.obj
 0001:001416d0       ??0?$PCMHeightfieldContactGenerationCallback@UPCMConvexVsHeightfieldContactGenerationCallback@physx@@@Gu@physx@@QAE@ABVHeightFieldUtil@12@ABVPxTransform@2@@Z 101426d0 f i GuPCMContactConvexHeightField.obj
 0001:00141780       ??0PCMConvexVsHeightfieldContactGenerationCallback@physx@@QAE@ABT__m128@@0ABUPolygonalData@Gu@1@PAVSupportLocal@41@ABVFastVertex2ShapeScaling@Cm@1@_NABVPsTransformV@aos@shdfnd@1@5ABVPxTransform@1@AAVMultiplePersistentContactManifold@41@AAVContactBuffer@41@AAVHeightFieldUtil@41@PAV?$InlineArray@I$0EEA@VNamedAllocator@shdfnd@physx@@@shdfnd@1@4PAVRenderOutput@71@@Z 10142780 f i GuPCMContactConvexHeightField.obj
 0001:00141810       ??0PCMConvexVsMeshContactGeneration@Gu@physx@@QAE@ABT__m128@@0ABVPsTransformV@aos@shdfnd@2@1AAVMultiplePersistentContactManifold@12@AAVContactBuffer@12@ABUPolygonalData@12@PAVSupportLocal@12@PAV?$InlineArray@I$0EEA@VNamedAllocator@shdfnd@physx@@@62@ABVFastVertex2ShapeScaling@Cm@2@_N8PAVRenderOutput@Cm@2@@Z 10142810 f i GuPCMContactConvexHeightField.obj
 0001:00141930       ??1?$PCMHeightfieldContactGenerationCallback@UPCMConvexVsHeightfieldContactGenerationCallback@physx@@@Gu@physx@@UAE@XZ 10142930 f i GuPCMContactConvexHeightField.obj
 0001:00141950       ??1PCMConvexVsHeightfieldContactGenerationCallback@physx@@UAE@XZ 10142950 f i GuPCMContactConvexHeightField.obj
 0001:00141970       ??_E?$PCMHeightfieldContactGenerationCallback@UPCMConvexVsHeightfieldContactGenerationCallback@physx@@@Gu@physx@@UAEPAXI@Z 10142970 f i GuPCMContactConvexHeightField.obj
 0001:00141970       ??_G?$PCMHeightfieldContactGenerationCallback@UPCMConvexVsHeightfieldContactGenerationCallback@physx@@@Gu@physx@@UAEPAXI@Z 10142970 f i GuPCMContactConvexHeightField.obj
 0001:001419b0       ??_EPCMConvexVsHeightfieldContactGenerationCallback@physx@@UAEPAXI@Z 101429b0 f i GuPCMContactConvexHeightField.obj
 0001:001419b0       ??_GPCMConvexVsHeightfieldContactGenerationCallback@physx@@UAEPAXI@Z 101429b0 f i GuPCMContactConvexHeightField.obj
 0001:001419f0       ?onEvent@?$PCMHeightfieldContactGenerationCallback@UPCMConvexVsHeightfieldContactGenerationCallback@physx@@@Gu@physx@@UAE_NIPAI@Z 101429f0 f i GuPCMContactConvexHeightField.obj
 0001:00141ed0       ?pcmContactBoxMesh@Gu@physx@@YA_NABVGeometryUnion@12@0ABVPxTransform@2@1ABUNarrowPhaseParams@12@AAUCache@12@AAVContactBuffer@12@PAVRenderOutput@Cm@2@@Z 10142ed0 f   GuPCMContactConvexMesh.obj
 0001:001420f0       ?pcmContactConvexMesh@Gu@physx@@YA_NABVGeometryUnion@12@0ABVPxTransform@2@1ABUNarrowPhaseParams@12@AAUCache@12@AAVContactBuffer@12@PAVRenderOutput@Cm@2@@Z 101430f0 f   GuPCMContactConvexMesh.obj
 0001:001423f0       ?PCMContactConvexMesh@Gu@physx@@YA_NABUPolygonalData@12@PAVSupportLocal@12@ABT__m128@@ABVPxBounds3@2@ABUPxTriangleMeshGeometryLL@2@ABVPxTransform@2@5MAAVContactBuffer@12@ABVFastVertex2ShapeScaling@Cm@2@7_N8AAVMultiplePersistentContactManifold@12@PAVRenderOutput@Cm@2@@Z 101433f0 f   GuPCMContactConvexMesh.obj
 0001:00142a50       ??$processTriangleCache@$0BA@@PCMConvexVsMeshContactGenerationCallback@physx@@QAEXAAU?$TriangleCache@$0BA@@Gu@1@@Z 10143a50 f i GuPCMContactConvexMesh.obj
 0001:00142a80       ??0?$PCMMeshContactGenerationCallback@UPCMConvexVsMeshContactGenerationCallback@physx@@@Gu@physx@@QAE@ABVFastVertex2ShapeScaling@Cm@2@PBE_N@Z 10143a80 f i GuPCMContactConvexMesh.obj
 0001:00142ae0       ??0PCMConvexVsMeshContactGenerationCallback@physx@@QAE@ABT__m128@@0ABVPsTransformV@aos@shdfnd@1@1AAVMultiplePersistentContactManifold@Gu@1@AAVContactBuffer@71@ABUPolygonalData@71@PAVSupportLocal@71@PAV?$InlineArray@I$0EEA@VNamedAllocator@shdfnd@physx@@@51@ABVFastVertex2ShapeScaling@Cm@1@_N7PBE88ABVBoxPadded@71@PAVRenderOutput@Cm@1@@Z 10143ae0 f i GuPCMContactConvexMesh.obj
 0001:00142b80       ??1?$PCMMeshContactGenerationCallback@UPCMConvexVsMeshContactGenerationCallback@physx@@@Gu@physx@@UAE@XZ 10143b80 f i GuPCMContactConvexMesh.obj
 0001:00142ba0       ??1PCMConvexVsMeshContactGenerationCallback@physx@@UAE@XZ 10143ba0 f i GuPCMContactConvexMesh.obj
 0001:00142bc0       ??_G?$PCMMeshContactGenerationCallback@UPCMConvexVsMeshContactGenerationCallback@physx@@@Gu@physx@@UAEPAXI@Z 10143bc0 f i GuPCMContactConvexMesh.obj
 0001:00142bc0       ??_E?$PCMMeshContactGenerationCallback@UPCMConvexVsMeshContactGenerationCallback@physx@@@Gu@physx@@UAEPAXI@Z 10143bc0 f i GuPCMContactConvexMesh.obj
 0001:00142c00       ??_GPCMConvexVsMeshContactGenerationCallback@physx@@UAEPAXI@Z 10143c00 f i GuPCMContactConvexMesh.obj
 0001:00142c00       ??_EPCMConvexVsMeshContactGenerationCallback@physx@@UAEPAXI@Z 10143c00 f i GuPCMContactConvexMesh.obj
 0001:00142c40       ?doTest@PCMConvexVsMeshContactGenerationCallback@physx@@QAEHABVPxVec3@2@00@Z 10143c40 f i GuPCMContactConvexMesh.obj
 0001:00142c80       ?flushCache@?$PCMMeshContactGenerationCallback@UPCMConvexVsMeshContactGenerationCallback@physx@@@Gu@physx@@QAEXXZ 10143c80 f i GuPCMContactConvexMesh.obj
 0001:00142cd0       ?processHit@?$PCMMeshContactGenerationCallback@UPCMConvexVsMeshContactGenerationCallback@physx@@@Gu@physx@@UAE_NABUPxRaycastHit@3@ABVPxVec3@3@11AAMPBI@Z 10143cd0 f i GuPCMContactConvexMesh.obj
 0001:00142ed0       ?generateFullContactManifold@Gu@physx@@YA_NAAUPolygonalData@12@0PAVSupportLocal@12@1PAVPersistentContact@12@AAIABT__m128@@444MM_NPAVRenderOutput@Cm@2@M@Z 10143ed0 f   GuPCMContactGenBoxConvex.obj
 0001:001436d0       ?computeMTD@Gu@physx@@YA_NAAUPolygonalData@12@0PAVSupportLocal@12@1AAT__m128@@2@Z 101446d0 f   GuPCMContactGenBoxConvex.obj
 0001:00143900       ?buildPartialHull@Gu@physx@@YAXABUPolygonalData@12@PAVSupportLocal@12@AAVSeparatingAxes@12@ABT__m128@@3@Z 10144900 f   GuPCMContactGenBoxConvex.obj
 0001:00144bd0       ?generatedContacts@Gu@physx@@YAXAAUPolygonalData@12@0ABUHullPolygonData@12@1PAVSupportLocal@12@2ABVPsMatTransformV@aos@shdfnd@2@PAVPersistentContact@12@AAIABT__m128@@PAVRenderOutput@Cm@2@@Z 10145bd0 f   GuPCMContactGenBoxConvex.obj
 0001:00146670       ??$PX_UNUSED@UPolygonalData@Gu@physx@@@@YAXABUPolygonalData@Gu@physx@@@Z 10147670 f i GuPCMContactGenBoxConvex.obj
 0001:00146680       ??4PxPlane@physx@@QAEAAV01@ABV01@@Z 10147680 f i GuPCMContactGenBoxConvex.obj
 0001:001466c0       ?getPolygonIndex@Gu@physx@@YAHABUPolygonalData@12@PAVSupportLocal@12@ABT__m128@@@Z 101476c0 f i GuPCMContactGenBoxConvex.obj
 0001:00146c80       ?getWitnessPolygonIndex@Gu@physx@@YAIABUPolygonalData@12@PAVSupportLocal@12@ABT__m128@@2M@Z 10147c80 f i GuPCMContactGenBoxConvex.obj
 0001:00147100       ?signed2DTriArea@Gu@physx@@YA?AT__m128@@ABT3@00@Z 10148100 f i GuPCMContactGenBoxConvex.obj
 0001:00147240       ?generateFullContactManifold@Gu@physx@@YA_NABVCapsuleV@12@AAUPolygonalData@12@PAVSupportLocal@12@ABVPsMatTransformV@aos@shdfnd@2@PAVPersistentContact@12@AAIABT__m128@@AAT__m128@@6M_NM@Z 10148240 f   GuPCMContactGenSphereCapsule.obj
 0001:00147450       ?generateCapsuleBoxFullContactManifold@Gu@physx@@YA_NABVCapsuleV@12@AAUPolygonalData@12@PAVSupportLocal@12@ABVPsMatTransformV@aos@shdfnd@2@PAVPersistentContact@12@AAIABT__m128@@AAT__m128@@6M_NM@Z 10148450 f   GuPCMContactGenSphereCapsule.obj
 0001:001475f0       ?computeMTD@Gu@physx@@YA_NABVCapsuleV@12@AAUPolygonalData@12@PAVSupportLocal@12@AAT__m128@@3@Z 101485f0 f   GuPCMContactGenSphereCapsule.obj
 0001:00147680       ?generateSphereFullContactManifold@Gu@physx@@YA_NABVCapsuleV@12@AAUPolygonalData@12@PAVSupportLocal@12@PAVPersistentContact@12@AAIABT__m128@@AAT7@_N@Z 10148680 f   GuPCMContactGenSphereCapsule.obj
 0001:00147d80       ?generatedCapsuleBoxFaceContacts@Gu@physx@@YAXABVCapsuleV@12@AAUPolygonalData@12@ABUHullPolygonData@12@PAVSupportLocal@12@ABVPsMatTransformV@aos@shdfnd@2@PAVPersistentContact@12@AAIABT__m128@@7@Z 10148d80 f   GuPCMContactGenSphereCapsule.obj
 0001:00148b40       ?generatedContactsEEContacts@Gu@physx@@YAXABVCapsuleV@12@AAUPolygonalData@12@ABUHullPolygonData@12@PAVSupportLocal@12@ABVPsMatTransformV@aos@shdfnd@2@PAVPersistentContact@12@AAIABT__m128@@7@Z 10149b40 f   GuPCMContactGenSphereCapsule.obj
 0001:001492d0       ?BAndNot@aos@shdfnd@physx@@YA?AT__m128@@T4@0@Z 1014a2d0 f i GuPCMContactGenSphereCapsule.obj
 0001:00149320       ?intersectSegmentPolyhedron@Gu@physx@@YA_NABT__m128@@0ABUPolygonalData@12@AAT3@2@Z 1014a320 f i GuPCMContactGenSphereCapsule.obj
 0001:001496d0       ?testPolyDataAxis@Gu@physx@@YA_NABVCapsuleV@12@ABUPolygonalData@12@PAVSupportLocal@12@ABT__m128@@AAT6@4@Z 1014a6d0 f i GuPCMContactGenSphereCapsule.obj
 0001:00149b80       ?pcmContactPlaneBox@Gu@physx@@YA_NABVGeometryUnion@12@0ABVPxTransform@2@1ABUNarrowPhaseParams@12@AAUCache@12@AAVContactBuffer@12@PAVRenderOutput@Cm@2@@Z 1014ab80 f   GuPCMContactPlaneBox.obj
 0001:0014aed0       ?invalidate_PrimitivesPlane@PersistentContactManifold@Gu@physx@@QAEIABVPsTransformV@aos@shdfnd@3@ABT__m128@@1@Z 1014bed0 f i GuPCMContactPlaneBox.obj
 0001:0014b000       ?pcmContactPlaneCapsule@Gu@physx@@YA_NABVGeometryUnion@12@0ABVPxTransform@2@1ABUNarrowPhaseParams@12@AAUCache@12@AAVContactBuffer@12@PAVRenderOutput@Cm@2@@Z 1014c000 f   GuPCMContactPlaneCapsule.obj
 0001:0014b740       ?pcmContactPlaneConvex@Gu@physx@@YA_NABVGeometryUnion@12@0ABVPxTransform@2@1ABUNarrowPhaseParams@12@AAUCache@12@AAVContactBuffer@12@PAVRenderOutput@Cm@2@@Z 1014c740 f   GuPCMContactPlaneConvex.obj
 0001:0014be30       ?ConstructVertex2ShapeMatrix@Gu@physx@@YA?AUMat33V@aos@shdfnd@2@ABT__m128@@0@Z 1014ce30 f i GuPCMContactPlaneConvex.obj
 0001:0014bf70       ?pcmContactSphereBox@Gu@physx@@YA_NABVGeometryUnion@12@0ABVPxTransform@2@1ABUNarrowPhaseParams@12@AAUCache@12@AAVContactBuffer@12@PAVRenderOutput@Cm@2@@Z 1014cf70 f   GuPCMContactSphereBox.obj
 0001:0014c9d0       ?BAllTrue3@aos@shdfnd@physx@@YA?AT__m128@@T4@@Z 1014d9d0 f i GuPCMContactSphereBox.obj
 0001:0014ca70       ?V3Clamp@aos@shdfnd@physx@@YA?AT__m128@@T4@00@Z 1014da70 f i GuPCMContactSphereBox.obj
 0001:0014cbe0       ?pcmContactSphereCapsule@Gu@physx@@YA_NABVGeometryUnion@12@0ABVPxTransform@2@1ABUNarrowPhaseParams@12@AAUCache@12@AAVContactBuffer@12@PAVRenderOutput@Cm@2@@Z 1014dbe0 f   GuPCMContactSphereCapsule.obj
 0001:0014d170       ?PxcDistancePointSegmentSquared@Gu@physx@@YA?AT__m128@@ABT3@00AAT3@@Z 1014e170 f i GuPCMContactSphereCapsule.obj
 0001:0014d390       ?pcmContactSphereConvex@Gu@physx@@YA_NABVGeometryUnion@12@0ABVPxTransform@2@1ABUNarrowPhaseParams@12@AAUCache@12@AAVContactBuffer@12@PAVRenderOutput@Cm@2@@Z 1014e390 f   GuPCMContactSphereConvex.obj
 0001:0014e530       ??0CapsuleV@Gu@physx@@QAE@ABT__m128@@0@Z 1014f530 f i GuPCMContactSphereConvex.obj
 0001:0014e5f0       ?getContactPoint@PersistentContactManifold@Gu@physx@@QAEAAVPersistentContact@23@I@Z 1014f5f0 f i GuPCMContactSphereConvex.obj
 0001:0014e660       ?pcmContactSphereHeightField@Gu@physx@@YA_NABVGeometryUnion@12@0ABVPxTransform@2@1ABUNarrowPhaseParams@12@AAUCache@12@AAVContactBuffer@12@PAVRenderOutput@Cm@2@@Z 1014f660 f   GuPCMContactSphereHeightField.obj
 0001:0014ec20       ??$processTriangleCache@$0BA@@PCMSphereVsHeightfieldContactGenerationCallback@physx@@QAEXAAU?$TriangleCache@$0BA@@Gu@1@@Z 1014fc20 f i GuPCMContactSphereHeightField.obj
 0001:0014ec50       ??$processTriangleCache@$0BA@VPCMSphereVsMeshContactGeneration@Gu@physx@@@PCMMeshContactGeneration@Gu@physx@@QAE_NAAU?$TriangleCache@$0BA@@12@@Z 1014fc50 f i GuPCMContactSphereHeightField.obj
 0001:0014ed20       ??0?$Array@USortedTriangle@Gu@physx@@V?$InlineAllocator@$0IAA@VNamedAllocator@shdfnd@physx@@@shdfnd@3@@shdfnd@physx@@QAE@ABV?$InlineAllocator@$0IAA@VNamedAllocator@shdfnd@physx@@@12@@Z 1014fd20 f i GuPCMContactSphereHeightField.obj
 0001:0014ed80       ??0?$InlineAllocator@$0IAA@VNamedAllocator@shdfnd@physx@@@shdfnd@physx@@QAE@ABV012@@Z 1014fd80 f i GuPCMContactSphereHeightField.obj
 0001:0014edb0       ??0?$InlineAllocator@$0IAA@VNamedAllocator@shdfnd@physx@@@shdfnd@physx@@QAE@ABVNamedAllocator@12@@Z 1014fdb0 f i GuPCMContactSphereHeightField.obj
 0001:0014ede0       ??0?$InlineArray@USortedTriangle@Gu@physx@@$0EA@VNamedAllocator@shdfnd@3@@shdfnd@physx@@QAE@ABVNamedAllocator@12@@Z 1014fde0 f i GuPCMContactSphereHeightField.obj
 0001:0014ee60       ??0?$PCMHeightfieldContactGenerationCallback@UPCMSphereVsHeightfieldContactGenerationCallback@physx@@@Gu@physx@@QAE@ABVHeightFieldUtil@12@ABVPxTransform@2@@Z 1014fe60 f i GuPCMContactSphereHeightField.obj
 0001:0014ef10       ??0PCMSphereVsHeightfieldContactGenerationCallback@physx@@QAE@ABT__m128@@000ABVPsTransformV@aos@shdfnd@1@1ABVPxTransform@1@AAVMultiplePersistentContactManifold@Gu@1@AAVContactBuffer@81@PAV?$InlineArray@I$0EEA@VNamedAllocator@shdfnd@physx@@@51@AAVHeightFieldUtil@81@@Z 1014ff10 f i GuPCMContactSphereHeightField.obj
 0001:0014ef80       ??0PCMSphereVsMeshContactGeneration@Gu@physx@@QAE@ABT__m128@@000ABVPsTransformV@aos@shdfnd@2@1AAVMultiplePersistentContactManifold@12@AAVContactBuffer@12@PAV?$InlineArray@I$0EEA@VNamedAllocator@shdfnd@physx@@@62@PAVRenderOutput@Cm@2@@Z 1014ff80 f i GuPCMContactSphereHeightField.obj
 0001:0014f080       ??1?$Array@USortedTriangle@Gu@physx@@V?$InlineAllocator@$0IAA@VNamedAllocator@shdfnd@physx@@@shdfnd@3@@shdfnd@physx@@QAE@XZ 10150080 f i GuPCMContactSphereHeightField.obj
 0001:0014f100       ??1?$InlineAllocator@$0IAA@VNamedAllocator@shdfnd@physx@@@shdfnd@physx@@QAE@XZ 10150100 f i GuPCMContactSphereHeightField.obj
 0001:0014f120       ??1?$InlineArray@USortedTriangle@Gu@physx@@$0EA@VNamedAllocator@shdfnd@3@@shdfnd@physx@@QAE@XZ 10150120 f i GuPCMContactSphereHeightField.obj
 0001:0014f140       ??1?$PCMHeightfieldContactGenerationCallback@UPCMSphereVsHeightfieldContactGenerationCallback@physx@@@Gu@physx@@UAE@XZ 10150140 f i GuPCMContactSphereHeightField.obj
 0001:0014f160       ??1PCMSphereVsHeightfieldContactGenerationCallback@physx@@UAE@XZ 10150160 f i GuPCMContactSphereHeightField.obj
 0001:0014f190       ??1PCMSphereVsMeshContactGeneration@Gu@physx@@QAE@XZ 10150190 f i GuPCMContactSphereHeightField.obj
 0001:0014f1b0       ??_E?$PCMHeightfieldContactGenerationCallback@UPCMSphereVsHeightfieldContactGenerationCallback@physx@@@Gu@physx@@UAEPAXI@Z 101501b0 f i GuPCMContactSphereHeightField.obj
 0001:0014f1b0       ??_G?$PCMHeightfieldContactGenerationCallback@UPCMSphereVsHeightfieldContactGenerationCallback@physx@@@Gu@physx@@UAEPAXI@Z 101501b0 f i GuPCMContactSphereHeightField.obj
 0001:0014f1f0       ??_GPCMSphereVsHeightfieldContactGenerationCallback@physx@@UAEPAXI@Z 101501f0 f i GuPCMContactSphereHeightField.obj
 0001:0014f1f0       ??_EPCMSphereVsHeightfieldContactGenerationCallback@physx@@UAEPAXI@Z 101501f0 f i GuPCMContactSphereHeightField.obj
 0001:0014f230       ?onEvent@?$PCMHeightfieldContactGenerationCallback@UPCMSphereVsHeightfieldContactGenerationCallback@physx@@@Gu@physx@@UAE_NIPAI@Z 10150230 f i GuPCMContactSphereHeightField.obj
 0001:0014f710       ?pcmContactSphereMesh@Gu@physx@@YA_NABVGeometryUnion@12@0ABVPxTransform@2@1ABUNarrowPhaseParams@12@AAUCache@12@AAVContactBuffer@12@PAVRenderOutput@Cm@2@@Z 10150710 f   GuPCMContactSphereMesh.obj
 0001:0014fd70       ??$processTriangleCache@$0BA@@PCMSphereVsMeshContactGenerationCallback@physx@@QAEXAAU?$TriangleCache@$0BA@@Gu@1@@Z 10150d70 f i GuPCMContactSphereMesh.obj
 0001:0014fda0       ??0?$PCMMeshContactGenerationCallback@UPCMSphereVsMeshContactGenerationCallback@physx@@@Gu@physx@@QAE@ABVFastVertex2ShapeScaling@Cm@2@PBE_N@Z 10150da0 f i GuPCMContactSphereMesh.obj
 0001:0014fe00       ??0PCMSphereVsMeshContactGenerationCallback@physx@@QAE@ABT__m128@@000ABVPsTransformV@aos@shdfnd@1@1AAVMultiplePersistentContactManifold@Gu@1@AAVContactBuffer@71@PBEABVFastVertex2ShapeScaling@Cm@1@_NPAV?$InlineArray@I$0EEA@VNamedAllocator@shdfnd@physx@@@51@PAVRenderOutput@Cm@1@@Z 10150e00 f i GuPCMContactSphereMesh.obj
 0001:0014fe80       ??1?$PCMMeshContactGenerationCallback@UPCMSphereVsMeshContactGenerationCallback@physx@@@Gu@physx@@UAE@XZ 10150e80 f i GuPCMContactSphereMesh.obj
 0001:0014fea0       ??1PCMSphereVsMeshContactGenerationCallback@physx@@UAE@XZ 10150ea0 f i GuPCMContactSphereMesh.obj
 0001:0014fed0       ??_G?$PCMMeshContactGenerationCallback@UPCMSphereVsMeshContactGenerationCallback@physx@@@Gu@physx@@UAEPAXI@Z 10150ed0 f i GuPCMContactSphereMesh.obj
 0001:0014fed0       ??_E?$PCMMeshContactGenerationCallback@UPCMSphereVsMeshContactGenerationCallback@physx@@@Gu@physx@@UAEPAXI@Z 10150ed0 f i GuPCMContactSphereMesh.obj
 0001:0014ff10       ??_GPCMSphereVsMeshContactGenerationCallback@physx@@UAEPAXI@Z 10150f10 f i GuPCMContactSphereMesh.obj
 0001:0014ff10       ??_EPCMSphereVsMeshContactGenerationCallback@physx@@UAEPAXI@Z 10150f10 f i GuPCMContactSphereMesh.obj
 0001:0014ff50       ?doTest@PCMSphereVsMeshContactGenerationCallback@physx@@QAE_NABVPxVec3@2@00@Z 10150f50 f i GuPCMContactSphereMesh.obj
 0001:0014ff70       ?flushCache@?$PCMMeshContactGenerationCallback@UPCMSphereVsMeshContactGenerationCallback@physx@@@Gu@physx@@QAEXXZ 10150f70 f i GuPCMContactSphereMesh.obj
 0001:0014ffc0       ?processHit@?$PCMMeshContactGenerationCallback@UPCMSphereVsMeshContactGenerationCallback@physx@@@Gu@physx@@UAE_NABUPxRaycastHit@3@ABVPxVec3@3@11AAMPBI@Z 10150fc0 f i GuPCMContactSphereMesh.obj
 0001:001501c0       ?pcmContactSpherePlane@Gu@physx@@YA_NABVGeometryUnion@12@0ABVPxTransform@2@1ABUNarrowPhaseParams@12@AAUCache@12@AAVContactBuffer@12@PAVRenderOutput@Cm@2@@Z 101511c0 f   GuPCMContactSpherePlane.obj
 0001:001504a0       ?pcmContactSphereSphere@Gu@physx@@YA_NABVGeometryUnion@12@0ABVPxTransform@2@1ABUNarrowPhaseParams@12@AAUCache@12@AAVContactBuffer@12@PAVRenderOutput@Cm@2@@Z 101514a0 f   GuPCMContactSphereSphere.obj
 0001:00150930       ??0PCMPolygonalBox@Gu@physx@@QAE@ABVPxVec3@2@@Z 10151930 f   GuPCMShapeConvex.obj
 0001:00151110       ?getPolygonalData@PCMPolygonalBox@Gu@physx@@QBEXPIAUPolygonalData@23@@Z 10152110 f   GuPCMShapeConvex.obj
 0001:001511f0       ?getPCMConvexData@Gu@physx@@YAXABVConvexHullV@12@_NAAUPolygonalData@12@@Z 101521f0 f   GuPCMShapeConvex.obj
 0001:00151280       ?getPCMConvexData@Gu@physx@@YA_NABVGeometryUnion@12@AAVFastVertex2ShapeScaling@Cm@2@AAVPxBounds3@2@AAUPolygonalData@12@@Z 10152280 f   GuPCMShapeConvex.obj
 0001:001518d0       ?getVerticesByEdges16@ConvexHullData@Gu@physx@@QBEPBGXZ 101528d0 f i GuPCMShapeConvex.obj
 0001:00151970       ?generateTriangleFullContactManifold@PCMConvexVsMeshContactGeneration@Gu@physx@@QAE_NAAVTriangleV@23@IPBIEABUPolygonalData@23@PAV?$SupportLocalImpl@VTriangleV@Gu@physx@@@23@PAVSupportLocal@23@PAVMeshPersistentContact@23@AAIABT__m128@@AAT9@@Z 10152970 f   GuPCMTriangleContactGen.obj
 0001:00151e00       ?generatePolyDataContactManifold@PCMConvexVsMeshContactGeneration@Gu@physx@@QAE_NAAVTriangleV@23@IIEPAVMeshPersistentContact@23@AAIABT__m128@@AAT6@@Z 10152e00 f   GuPCMTriangleContactGen.obj
 0001:00151ef0       ?generateTriangleFullContactManifold@PCMConvexVsMeshContactGeneration@Gu@physx@@SA_NAAVTriangleV@23@IEABUPolygonalData@23@PAV?$SupportLocalImpl@VTriangleV@Gu@physx@@@23@PAVSupportLocal@23@PAVMeshPersistentContact@23@AAIABT__m128@@AAT9@PAVRenderOutput@Cm@3@@Z 10152ef0 f   GuPCMTriangleContactGen.obj
 0001:00155a70       ??$PX_UNUSED@E@@YAXABE@Z   10156a70 f i GuPCMTriangleContactGen.obj
 0001:00155a80       ??$PX_UNUSED@PAV?$SupportLocalImpl@VTriangleV@Gu@physx@@@Gu@physx@@@@YAXABQAV?$SupportLocalImpl@VTriangleV@Gu@physx@@@Gu@physx@@@Z 10156a80 f i GuPCMTriangleContactGen.obj
 0001:00155a90       ??$PX_UNUSED@VTriangleV@Gu@physx@@@@YAXABVTriangleV@Gu@physx@@@Z 10156a90 f i GuPCMTriangleContactGen.obj
 0001:00155aa0       ?FRsqrtFast@aos@shdfnd@physx@@YA?AT__m128@@T4@@Z 10156aa0 f i GuPCMTriangleContactGen.obj
 0001:00155b40       ?V3AllGrtr@aos@shdfnd@physx@@YAIT__m128@@0@Z 10156b40 f i GuPCMTriangleContactGen.obj
 0001:00155c40       ?V3LengthSq@aos@shdfnd@physx@@YA?AT__m128@@T4@@Z 10156c40 f i GuPCMTriangleContactGen.obj
 0001:00155ce0       ?findRotationMatrixFromZAxis@Gu@physx@@YA?AUMat33V@aos@shdfnd@2@ABT__m128@@@Z 10156ce0 f   GuPersistentContactManifold.obj
 0001:00156500       ?replaceManifoldPoint@PersistentContactManifold@Gu@physx@@QAE_NABT__m128@@000@Z 10157500 f   GuPersistentContactManifold.obj
 0001:00156680       ?addManifoldPoint@PersistentContactManifold@Gu@physx@@QAEIABT__m128@@000@Z 10157680 f   GuPersistentContactManifold.obj
 0001:00156750       ?addManifoldPoint2@PersistentContactManifold@Gu@physx@@QAEIABT__m128@@000@Z 10157750 f   GuPersistentContactManifold.obj
 0001:00156860       ?addBatchManifoldContactsCluster@PersistentContactManifold@Gu@physx@@QAEXPBVPersistentContact@23@I@Z 10157860 f   GuPersistentContactManifold.obj
 0001:00156910       ?addBatchManifoldContacts2@PersistentContactManifold@Gu@physx@@QAEXPBVPersistentContact@23@I@Z 10157910 f   GuPersistentContactManifold.obj
 0001:001569c0       ?addBatchManifoldContacts@PersistentContactManifold@Gu@physx@@QAEXPBVPersistentContact@23@IM@Z 101579c0 f   GuPersistentContactManifold.obj
 0001:00156a80       ?reduceBatchContactsCluster@PersistentContactManifold@Gu@physx@@QAEXPBVPersistentContact@23@I@Z 10157a80 f   GuPersistentContactManifold.obj
 0001:00157280       ?reduceBatchContacts2@PersistentContactManifold@Gu@physx@@QAEXPBVPersistentContact@23@I@Z 10158280 f   GuPersistentContactManifold.obj
 0001:00157650       ?reduceBatchContacts@PersistentContactManifold@Gu@physx@@QAEXPBVPersistentContact@23@IM@Z 10158650 f   GuPersistentContactManifold.obj
 0001:00157f70       ?reduceContactsForPCM@PersistentContactManifold@Gu@physx@@QAEIABT__m128@@00@Z 10158f70 f   GuPersistentContactManifold.obj
 0001:00158580       ?reduceContactSegment@PersistentContactManifold@Gu@physx@@QAEIABT__m128@@00@Z 10159580 f   GuPersistentContactManifold.obj
 0001:00158710       ?addManifoldContactsToContactBuffer@PersistentContactManifold@Gu@physx@@QAEXAAVContactBuffer@23@ABT__m128@@ABVPsMatTransformV@aos@shdfnd@3@@Z 10159710 f   GuPersistentContactManifold.obj
 0001:00158940       ?addManifoldContactsToContactBuffer@PersistentContactManifold@Gu@physx@@QAEXAAVContactBuffer@23@ABT__m128@@ABVPsTransformV@aos@shdfnd@3@1@Z 10159940 f   GuPersistentContactManifold.obj
 0001:00158b70       ?addManifoldContactsToContactBuffer@PersistentContactManifold@Gu@physx@@QAEXAAVContactBuffer@23@ABT__m128@@1ABVPsTransformV@aos@shdfnd@3@11@Z 10159b70 f   GuPersistentContactManifold.obj
 0001:00158d00       ?drawManifold@PersistentContactManifold@Gu@physx@@QAEXAAVRenderOutput@Cm@3@ABVPsTransformV@aos@shdfnd@3@1@Z 10159d00 f   GuPersistentContactManifold.obj
 0001:00158da0       ?drawManifold@PersistentContactManifold@Gu@physx@@QAEXAAVRenderOutput@Cm@3@ABVPsTransformV@aos@shdfnd@3@1ABT__m128@@@Z 10159da0 f   GuPersistentContactManifold.obj
 0001:00158e40       ?drawManifold@PersistentContactManifold@Gu@physx@@QAEXABVPersistentContact@23@AAVRenderOutput@Cm@3@ABVPsTransformV@aos@shdfnd@3@2@Z 10159e40 f   GuPersistentContactManifold.obj
 0001:00158e80       ?drawPoint@PersistentContactManifold@Gu@physx@@SAXAAVRenderOutput@Cm@3@ABT__m128@@MI@Z 10159e80 f   GuPersistentContactManifold.obj
 0001:00159020       ?drawLine@PersistentContactManifold@Gu@physx@@SAXAAVRenderOutput@Cm@3@ABT__m128@@1I@Z 1015a020 f   GuPersistentContactManifold.obj
 0001:001590c0       ?drawTriangle@PersistentContactManifold@Gu@physx@@SAXAAVRenderOutput@Cm@3@ABT__m128@@11I@Z 1015a0c0 f   GuPersistentContactManifold.obj
 0001:00159190       ?drawPolygon@PersistentContactManifold@Gu@physx@@SAXAAVRenderOutput@Cm@3@ABVPsTransformV@aos@shdfnd@3@PAT__m128@@II@Z 1015a190 f   GuPersistentContactManifold.obj
 0001:00159240       ?drawPolygon@PersistentContactManifold@Gu@physx@@SAXAAVRenderOutput@Cm@3@ABVPsMatTransformV@aos@shdfnd@3@PAT__m128@@II@Z 1015a240 f   GuPersistentContactManifold.obj
 0001:001592f0       ?reduceBatchContactsConvex@SinglePersistentContactManifold@Gu@physx@@QAE?AT__m128@@PBVMeshPersistentContact@23@IAAUPCMContactPatch@23@@Z 1015a2f0 f   GuPersistentContactManifold.obj
 0001:00159c20       ?reduceBatchContactsSphere@SinglePersistentContactManifold@Gu@physx@@QAE?AT__m128@@PBVMeshPersistentContact@23@IAAUPCMContactPatch@23@@Z 1015ac20 f   GuPersistentContactManifold.obj
 0001:00159d50       ?reduceBatchContactsCapsule@SinglePersistentContactManifold@Gu@physx@@QAE?AT__m128@@PBVMeshPersistentContact@23@IAAUPCMContactPatch@23@@Z 1015ad50 f   GuPersistentContactManifold.obj
 0001:0015a140       ?addBatchManifoldContactsConvex@SinglePersistentContactManifold@Gu@physx@@QAE?AT__m128@@PBVMeshPersistentContact@23@IAAUPCMContactPatch@23@ABT4@@Z 1015b140 f   GuPersistentContactManifold.obj
 0001:0015a240       ?addBatchManifoldContactsSphere@SinglePersistentContactManifold@Gu@physx@@QAE?AT__m128@@PBVMeshPersistentContact@23@IAAUPCMContactPatch@23@ABT4@@Z 1015b240 f   GuPersistentContactManifold.obj
 0001:0015a2b0       ?addBatchManifoldContactsCapsule@SinglePersistentContactManifold@Gu@physx@@QAE?AT__m128@@PBVMeshPersistentContact@23@IAAUPCMContactPatch@23@ABT4@@Z 1015b2b0 f   GuPersistentContactManifold.obj
 0001:0015a3b0       ?reduceContacts@SinglePersistentContactManifold@Gu@physx@@SAIPAVMeshPersistentContact@23@I@Z 1015b3b0 f   GuPersistentContactManifold.obj
 0001:0015ac10       ?refreshContactPoints@SinglePersistentContactManifold@Gu@physx@@QAE?AT__m128@@ABVPsMatTransformV@aos@shdfnd@3@ABT4@1@Z 1015bc10 f   GuPersistentContactManifold.obj
 0001:0015ae40       ?drawManifold@SinglePersistentContactManifold@Gu@physx@@QAEXAAVRenderOutput@Cm@3@ABVPsTransformV@aos@shdfnd@3@1@Z 1015be40 f   GuPersistentContactManifold.obj
 0001:0015aee0       ?addManifoldContactPoints@MultiplePersistentContactManifold@Gu@physx@@QAEXPAVMeshPersistentContact@23@IPAPAUPCMContactPatch@23@IABT__m128@@2E@Z 1015bee0 f   GuPersistentContactManifold.obj
 0001:0015b490       ?addManifoldContactsToContactBuffer@MultiplePersistentContactManifold@Gu@physx@@QAE_NAAVContactBuffer@23@ABVPsTransformV@aos@shdfnd@3@@Z 1015c490 f   GuPersistentContactManifold.obj
 0001:0015b6f0       ?addManifoldContactsToContactBuffer@MultiplePersistentContactManifold@Gu@physx@@QAE_NAAVContactBuffer@23@ABVPsTransformV@aos@shdfnd@3@1ABT__m128@@@Z 1015c6f0 f   GuPersistentContactManifold.obj
 0001:0015b990       ?drawManifold@MultiplePersistentContactManifold@Gu@physx@@QAEXAAVRenderOutput@Cm@3@ABVPsTransformV@aos@shdfnd@3@1@Z 1015c990 f   GuPersistentContactManifold.obj
 0001:0015b9f0       ?fromBuffer@MultiplePersistentContactManifold@Gu@physx@@QAEXPIAE@Z 1015c9f0 f   GuPersistentContactManifold.obj
 0001:0015bcd0       ?drawLine@MultiplePersistentContactManifold@Gu@physx@@SAXAAVRenderOutput@Cm@3@ABT__m128@@1I@Z 1015ccd0 f   GuPersistentContactManifold.obj
 0001:0015bd70       ?drawLine@MultiplePersistentContactManifold@Gu@physx@@SAXAAVRenderOutput@Cm@3@VPxVec3@3@1I@Z 1015cd70 f   GuPersistentContactManifold.obj
 0001:0015bdd0       ?drawPoint@MultiplePersistentContactManifold@Gu@physx@@SAXAAVRenderOutput@Cm@3@ABT__m128@@MI@Z 1015cdd0 f   GuPersistentContactManifold.obj
 0001:0015bf70       ?drawPolygon@MultiplePersistentContactManifold@Gu@physx@@SAXAAVRenderOutput@Cm@3@ABVPsTransformV@aos@shdfnd@3@PAT__m128@@II@Z 1015cf70 f   GuPersistentContactManifold.obj
 0001:0015f710       ?BTFTT@aos@shdfnd@physx@@YA?AT__m128@@XZ 10160710 f i GuPersistentContactManifold.obj
 0001:0015f760       ?V3SetY@aos@shdfnd@physx@@YA?AT__m128@@T4@0@Z 10160760 f i GuPersistentContactManifold.obj
 0001:0015f870       ?getContactPoint@SinglePersistentContactManifold@Gu@physx@@QAEAAVMeshPersistentContact@23@I@Z 10160870 f i GuPersistentContactManifold.obj
 0001:0015f8e0       ?getLocalNormal@SinglePersistentContactManifold@Gu@physx@@QAE?AT__m128@@XZ 101608e0 f i GuPersistentContactManifold.obj
 0001:0015f9b0       ?getNumContacts@SinglePersistentContactManifold@Gu@physx@@QBEIXZ 101609b0 f i GuPersistentContactManifold.obj
 0001:0015f9d0       ?getWorldNormal@SinglePersistentContactManifold@Gu@physx@@QAE?AT__m128@@ABVPsTransformV@aos@shdfnd@3@@Z 101609d0 f i GuPersistentContactManifold.obj
 0001:0015fac0       ?removeContactPoint@SinglePersistentContactManifold@Gu@physx@@QAEXI@Z 10160ac0 f i GuPersistentContactManifold.obj
 0001:0015fb20       ?SweepEstimateAnyShapeHeightfield@Gu@physx@@YAMABUCCDShape@12@0ABVPxTransform@2@111MM@Z 10160b20 f   GuCCDSweepConvexMesh.obj
 0001:0015ff20       ?SweepEstimateAnyShapeMesh@Gu@physx@@YAMABUCCDShape@12@0ABVPxTransform@2@111MM@Z 10160f20 f   GuCCDSweepConvexMesh.obj
 0001:001605b0       ?SweepAnyShapeHeightfield@Gu@physx@@YAMABUCCDShape@12@0ABVPxTransform@2@111MAAVPxVec3@2@2MAAIM@Z 101615b0 f   GuCCDSweepConvexMesh.obj
 0001:00161080       ?SweepAnyShapeMesh@Gu@physx@@YAMABUCCDShape@12@0ABVPxTransform@2@111MAAVPxVec3@2@2MAAIM@Z 10162080 f   GuCCDSweepConvexMesh.obj
 0001:001623f0       ??0?$Array@IV?$InlineAllocator@$0BAA@VNamedAllocator@shdfnd@physx@@@shdfnd@physx@@@shdfnd@physx@@QAE@ABV?$InlineAllocator@$0BAA@VNamedAllocator@shdfnd@physx@@@12@@Z 101633f0 f i GuCCDSweepConvexMesh.obj
 0001:00162450       ??0?$Array@IVNamedAllocator@shdfnd@physx@@@shdfnd@physx@@QAE@IABIABVNamedAllocator@12@@Z 10163450 f i GuCCDSweepConvexMesh.obj
 0001:001624b0       ??0?$InlineAllocator@$0BAA@VNamedAllocator@shdfnd@physx@@@shdfnd@physx@@QAE@ABV012@@Z 101634b0 f i GuCCDSweepConvexMesh.obj
 0001:001624e0       ??0?$InlineAllocator@$0BAA@VNamedAllocator@shdfnd@physx@@@shdfnd@physx@@QAE@ABVNamedAllocator@12@@Z 101634e0 f i GuCCDSweepConvexMesh.obj
 0001:00162510       ??0?$InlineArray@I$0EA@VNamedAllocator@shdfnd@physx@@@shdfnd@physx@@QAE@ABVNamedAllocator@12@@Z 10163510 f i GuCCDSweepConvexMesh.obj
 0001:001626d0       ??1?$Array@IV?$InlineAllocator@$0BAA@VNamedAllocator@shdfnd@physx@@@shdfnd@physx@@@shdfnd@physx@@QAE@XZ 101636d0 f i GuCCDSweepConvexMesh.obj
 0001:00162750       ??1?$Array@IVNamedAllocator@shdfnd@physx@@@shdfnd@physx@@QAE@XZ 10163750 f i GuCCDSweepConvexMesh.obj
 0001:001627c0       ??1?$InlineAllocator@$0BAA@VNamedAllocator@shdfnd@physx@@@shdfnd@physx@@QAE@XZ 101637c0 f i GuCCDSweepConvexMesh.obj
 0001:001627e0       ??1?$InlineArray@I$0EA@VNamedAllocator@shdfnd@physx@@@shdfnd@physx@@QAE@XZ 101637e0 f i GuCCDSweepConvexMesh.obj
 0001:00162930       ?allocate@?$Array@IV?$InlineAllocator@$0BAA@VNamedAllocator@shdfnd@physx@@@shdfnd@physx@@@shdfnd@physx@@IAEPAII@Z 10163930 f i GuCCDSweepConvexMesh.obj
 0001:001629b0       ?allocate@?$InlineAllocator@$0BAA@VNamedAllocator@shdfnd@physx@@@shdfnd@physx@@QAEPAXIPBDH@Z 101639b0 f i GuCCDSweepConvexMesh.obj
 0001:00162a10       ?begin@?$Array@IV?$InlineAllocator@$0BAA@VNamedAllocator@shdfnd@physx@@@shdfnd@physx@@@shdfnd@physx@@QAEPAIXZ 10163a10 f i GuCCDSweepConvexMesh.obj
 0001:00162a30       ?begin@?$Array@IVNamedAllocator@shdfnd@physx@@@shdfnd@physx@@QAEPAIXZ 10163a30 f i GuCCDSweepConvexMesh.obj
 0001:00162a50       ?capacity@?$Array@IV?$InlineAllocator@$0BAA@VNamedAllocator@shdfnd@physx@@@shdfnd@physx@@@shdfnd@physx@@QBEIXZ 10163a50 f i GuCCDSweepConvexMesh.obj
 0001:00162a70       ?capacityIncrement@?$Array@IV?$InlineAllocator@$0BAA@VNamedAllocator@shdfnd@physx@@@shdfnd@physx@@@shdfnd@physx@@IBEIXZ 10163a70 f i GuCCDSweepConvexMesh.obj
 0001:00162ab0       ?copy@?$Array@IV?$InlineAllocator@$0BAA@VNamedAllocator@shdfnd@physx@@@shdfnd@physx@@@shdfnd@physx@@KAXPAI0PBI@Z 10163ab0 f i GuCCDSweepConvexMesh.obj
 0001:00162b10       ?create@?$Array@IV?$InlineAllocator@$0BAA@VNamedAllocator@shdfnd@physx@@@shdfnd@physx@@@shdfnd@physx@@KAXPAI0ABI@Z 10163b10 f i GuCCDSweepConvexMesh.obj
 0001:00162b60       ?create@?$Array@IVNamedAllocator@shdfnd@physx@@@shdfnd@physx@@KAXPAI0ABI@Z 10163b60 f i GuCCDSweepConvexMesh.obj
 0001:00162bb0       ?deallocate@?$Array@IV?$InlineAllocator@$0BAA@VNamedAllocator@shdfnd@physx@@@shdfnd@physx@@@shdfnd@physx@@IAEXPAX@Z 10163bb0 f i GuCCDSweepConvexMesh.obj
 0001:00162bd0       ?deallocate@?$InlineAllocator@$0BAA@VNamedAllocator@shdfnd@physx@@@shdfnd@physx@@QAEXPAX@Z 10163bd0 f i GuCCDSweepConvexMesh.obj
 0001:00162c10       ?destroy@?$Array@IV?$InlineAllocator@$0BAA@VNamedAllocator@shdfnd@physx@@@shdfnd@physx@@@shdfnd@physx@@KAXPAI0@Z 10163c10 f i GuCCDSweepConvexMesh.obj
 0001:00162c30       ?empty@PxBounds3@physx@@SA?AV12@XZ 10163c30 f i GuCCDSweepConvexMesh.obj
 0001:00162c90       ?forceSize_Unsafe@?$Array@IV?$InlineAllocator@$0BAA@VNamedAllocator@shdfnd@physx@@@shdfnd@physx@@@shdfnd@physx@@QAEXI@Z 10163c90 f i GuCCDSweepConvexMesh.obj
 0001:00162d30       ?getTriangleVerts@TriangleVertexPointers@Gu@physx@@SAXPBVTriangleMesh@23@IAAVPxVec3@3@11@Z 10163d30 f i GuCCDSweepConvexMesh.obj
 0001:00162e70       ?grow@?$Array@IV?$InlineAllocator@$0BAA@VNamedAllocator@shdfnd@physx@@@shdfnd@physx@@@shdfnd@physx@@IAEXI@Z 10163e70 f i GuCCDSweepConvexMesh.obj
 0001:00162ef0       ?grow@?$Array@IVNamedAllocator@shdfnd@physx@@@shdfnd@physx@@IAEXI@Z 10163ef0 f i GuCCDSweepConvexMesh.obj
 0001:00162f70       ?growAndPushBack@?$Array@IV?$InlineAllocator@$0BAA@VNamedAllocator@shdfnd@physx@@@shdfnd@physx@@@shdfnd@physx@@IAEAAIABI@Z 10163f70 f i GuCCDSweepConvexMesh.obj
 0001:00163120       ?include@PxBounds3@physx@@QAEXABVPxVec3@2@@Z 10164120 f i GuCCDSweepConvexMesh.obj
 0001:001631d0       ?isInUserMemory@?$Array@IV?$InlineAllocator@$0BAA@VNamedAllocator@shdfnd@physx@@@shdfnd@physx@@@shdfnd@physx@@QBEIXZ 101641d0 f i GuCCDSweepConvexMesh.obj
 0001:001634a0       ?pushBack@?$Array@IV?$InlineAllocator@$0BAA@VNamedAllocator@shdfnd@physx@@@shdfnd@physx@@@shdfnd@physx@@QAEAAIABI@Z 101644a0 f i GuCCDSweepConvexMesh.obj
 0001:00163550       ?recreate@?$Array@IV?$InlineAllocator@$0BAA@VNamedAllocator@shdfnd@physx@@@shdfnd@physx@@@shdfnd@physx@@IAEXI@Z 10164550 f i GuCCDSweepConvexMesh.obj
 0001:00163680       ?recreate@?$Array@IVNamedAllocator@shdfnd@physx@@@shdfnd@physx@@IAEXI@Z 10164680 f i GuCCDSweepConvexMesh.obj
 0001:00163790       ?reserve@?$Array@IV?$InlineAllocator@$0BAA@VNamedAllocator@shdfnd@physx@@@shdfnd@physx@@@shdfnd@physx@@QAEXI@Z 10164790 f i GuCCDSweepConvexMesh.obj
 0001:001637c0       ?reserve@?$Array@IVNamedAllocator@shdfnd@physx@@@shdfnd@physx@@QAEXI@Z 101647c0 f i GuCCDSweepConvexMesh.obj
 0001:001637f0       ?resize@?$Array@IV?$InlineAllocator@$0BAA@VNamedAllocator@shdfnd@physx@@@shdfnd@physx@@@shdfnd@physx@@QAEXIABI@Z 101647f0 f i GuCCDSweepConvexMesh.obj
 0001:001638a0       ?resize@?$Array@IVNamedAllocator@shdfnd@physx@@@shdfnd@physx@@QAEXIABI@Z 101648a0 f i GuCCDSweepConvexMesh.obj
 0001:00163930       ?setEmpty@PxBounds3@physx@@QAEXXZ 10164930 f i GuCCDSweepConvexMesh.obj
 0001:001639a0       ?size@?$Array@IV?$InlineAllocator@$0BAA@VNamedAllocator@shdfnd@physx@@@shdfnd@physx@@@shdfnd@physx@@QBEIXZ 101649a0 f i GuCCDSweepConvexMesh.obj
 0001:001639c0       ?sweepAABBAABB@Gu@physx@@YAMABVPxVec3@2@00000@Z 101649c0 f i GuCCDSweepConvexMesh.obj
 0001:00163ee0       ?SweepShapeShape@Gu@physx@@YAMABUCCDShape@12@0ABVPxTransform@2@111MAAVPxVec3@2@2MAAIM@Z 10164ee0 f   GuCCDSweepPrimitives.obj
 0001:00163f60       ?UnimplementedSweep@Gu@physx@@YAMABUCCDShape@12@0ABVPxTransform@2@111MAAVPxVec3@2@2MAAIM@Z 10164f60 f   GuCCDSweepPrimitives.obj
 0001:00163f70       ?UnimplementedTriangleSweep@Gu@physx@@YAMABVGeometryUnion@12@0ABVPxTransform@2@111MAAVPxVec3@2@2ABVFastVertex2ShapeScaling@Cm@2@AAVTriangleV@12@M@Z 10164f70 f   GuCCDSweepPrimitives.obj
 0001:00164010       ?SweepShapeTriangle@Gu@physx@@YAMABVGeometryUnion@12@0ABVPxTransform@2@111MAAVPxVec3@2@2ABVFastVertex2ShapeScaling@Cm@2@AAVTriangleV@12@M@Z 10165010 f   GuCCDSweepPrimitives.obj
 0001:001666e0       ??$SweepGeomGeom@VCapsuleV@Gu@physx@@V123@@Gu@physx@@YAMABUCCDShape@01@0ABVPxTransform@1@111MAAVPxVec3@1@2MAAIM@Z 101676e0 f i GuCCDSweepPrimitives.obj
 0001:00166840       ??$SweepGeomGeom@VCapsuleV@Gu@physx@@VBoxV@23@@Gu@physx@@YAMABUCCDShape@01@0ABVPxTransform@1@111MAAVPxVec3@1@2MAAIM@Z 10167840 f i GuCCDSweepPrimitives.obj
 0001:001669a0       ??$SweepGeomGeom@VCapsuleV@Gu@physx@@VConvexHullV@23@@Gu@physx@@YAMABUCCDShape@01@0ABVPxTransform@1@111MAAVPxVec3@1@2MAAIM@Z 101679a0 f i GuCCDSweepPrimitives.obj
 0001:00166b00       ??$SweepGeomGeom@VBoxV@Gu@physx@@V123@@Gu@physx@@YAMABUCCDShape@01@0ABVPxTransform@1@111MAAVPxVec3@1@2MAAIM@Z 10167b00 f i GuCCDSweepPrimitives.obj
 0001:00166c60       ??$SweepGeomGeom@VBoxV@Gu@physx@@VConvexHullV@23@@Gu@physx@@YAMABUCCDShape@01@0ABVPxTransform@1@111MAAVPxVec3@1@2MAAIM@Z 10167c60 f i GuCCDSweepPrimitives.obj
 0001:00166dc0       ??$SweepGeomGeom@VConvexHullV@Gu@physx@@V123@@Gu@physx@@YAMABUCCDShape@01@0ABVPxTransform@1@111MAAVPxVec3@1@2MAAIM@Z 10167dc0 f i GuCCDSweepPrimitives.obj
 0001:00166f20       ??$SweepGeomTriangles@VCapsuleV@Gu@physx@@@Gu@physx@@YAMABVGeometryUnion@01@0ABVPxTransform@1@111MAAVPxVec3@1@2ABVFastVertex2ShapeScaling@Cm@1@AAVTriangleV@01@M@Z 10167f20 f i GuCCDSweepPrimitives.obj
 0001:00167020       ??$SweepGeomTriangles@VBoxV@Gu@physx@@@Gu@physx@@YAMABVGeometryUnion@01@0ABVPxTransform@1@111MAAVPxVec3@1@2ABVFastVertex2ShapeScaling@Cm@1@AAVTriangleV@01@M@Z 10168020 f i GuCCDSweepPrimitives.obj
 0001:00167120       ??$SweepGeomTriangles@VConvexHullV@Gu@physx@@@Gu@physx@@YAMABVGeometryUnion@01@0ABVPxTransform@1@111MAAVPxVec3@1@2ABVFastVertex2ShapeScaling@Cm@1@AAVTriangleV@01@M@Z 10168120 f i GuCCDSweepPrimitives.obj
 0001:00167220       ??$getRadius@VBoxV@Gu@physx@@@Gu@physx@@YAMABVPxGeometry@1@@Z 10168220 f i GuCCDSweepPrimitives.obj
 0001:00167230       ??$getRadius@VCapsuleV@Gu@physx@@@Gu@physx@@YAMABVPxGeometry@1@@Z 10168230 f i GuCCDSweepPrimitives.obj
 0001:001672a0       ??$getRadius@VConvexHullV@Gu@physx@@@Gu@physx@@YAMABVPxGeometry@1@@Z 101682a0 f i GuCCDSweepPrimitives.obj
 0001:001672b0       ??$gjkPenetration@U?$RelativeConvex@VCapsuleV@Gu@physx@@@Gu@physx@@U?$LocalConvex@VCapsuleV@Gu@physx@@@23@@Gu@physx@@YA?AW4GjkStatus@01@ABU?$RelativeConvex@VCapsuleV@Gu@physx@@@01@ABU?$LocalConvex@VCapsuleV@Gu@physx@@@01@ABT__m128@@2AAT5@333PIAE4AAE_N@Z 101682b0 f i GuCCDSweepPrimitives.obj
 0001:00168400       ??$gjkPenetration@U?$RelativeConvex@VCapsuleV@Gu@physx@@@Gu@physx@@U?$LocalConvex@VShrunkBoxV@Gu@physx@@@23@@Gu@physx@@YA?AW4GjkStatus@01@ABU?$RelativeConvex@VCapsuleV@Gu@physx@@@01@ABU?$LocalConvex@VShrunkBoxV@Gu@physx@@@01@ABT__m128@@2AAT5@333PIAE4AAE_N@Z 10169400 f i GuCCDSweepPrimitives.obj
 0001:00169550       ??$gjkPenetration@U?$RelativeConvex@VCapsuleV@Gu@physx@@@Gu@physx@@U?$LocalConvex@VShrunkConvexHullV@Gu@physx@@@23@@Gu@physx@@YA?AW4GjkStatus@01@ABU?$RelativeConvex@VCapsuleV@Gu@physx@@@01@ABU?$LocalConvex@VShrunkConvexHullV@Gu@physx@@@01@ABT__m128@@2AAT5@333PIAE4AAE_N@Z 1016a550 f i GuCCDSweepPrimitives.obj
 0001:0016a6a0       ??$gjkPenetration@U?$RelativeConvex@VShrunkBoxV@Gu@physx@@@Gu@physx@@U?$LocalConvex@VShrunkBoxV@Gu@physx@@@23@@Gu@physx@@YA?AW4GjkStatus@01@ABU?$RelativeConvex@VShrunkBoxV@Gu@physx@@@01@ABU?$LocalConvex@VShrunkBoxV@Gu@physx@@@01@ABT__m128@@2AAT5@333PIAE4AAE_N@Z 1016b6a0 f i GuCCDSweepPrimitives.obj
 0001:0016b7f0       ??$gjkPenetration@U?$RelativeConvex@VShrunkBoxV@Gu@physx@@@Gu@physx@@U?$LocalConvex@VShrunkConvexHullV@Gu@physx@@@23@@Gu@physx@@YA?AW4GjkStatus@01@ABU?$RelativeConvex@VShrunkBoxV@Gu@physx@@@01@ABU?$LocalConvex@VShrunkConvexHullV@Gu@physx@@@01@ABT__m128@@2AAT5@333PIAE4AAE_N@Z 1016c7f0 f i GuCCDSweepPrimitives.obj
 0001:0016c940       ??$gjkPenetration@U?$RelativeConvex@VTriangleV@Gu@physx@@@Gu@physx@@U?$LocalConvex@VCapsuleV@Gu@physx@@@23@@Gu@physx@@YA?AW4GjkStatus@01@ABU?$RelativeConvex@VTriangleV@Gu@physx@@@01@ABU?$LocalConvex@VCapsuleV@Gu@physx@@@01@ABT__m128@@2AAT5@333PIAE4AAE_N@Z 1016d940 f i GuCCDSweepPrimitives.obj
 0001:0016da90       ??$gjkPenetration@U?$RelativeConvex@VTriangleV@Gu@physx@@@Gu@physx@@U?$LocalConvex@VShrunkBoxV@Gu@physx@@@23@@Gu@physx@@YA?AW4GjkStatus@01@ABU?$RelativeConvex@VTriangleV@Gu@physx@@@01@ABU?$LocalConvex@VShrunkBoxV@Gu@physx@@@01@ABT__m128@@2AAT5@333PIAE4AAE_N@Z 1016ea90 f i GuCCDSweepPrimitives.obj
 0001:0016ebe0       ??$gjkPenetration@U?$RelativeConvex@VTriangleV@Gu@physx@@@Gu@physx@@U?$LocalConvex@VShrunkConvexHullV@Gu@physx@@@23@@Gu@physx@@YA?AW4GjkStatus@01@ABU?$RelativeConvex@VTriangleV@Gu@physx@@@01@ABU?$LocalConvex@VShrunkConvexHullV@Gu@physx@@@01@ABT__m128@@2AAT5@333PIAE4AAE_N@Z 1016fbe0 f i GuCCDSweepPrimitives.obj
 0001:0016fd30       ??$gjkRaycast@U?$RelativeConvex@VCapsuleV@Gu@physx@@@Gu@physx@@U?$LocalConvex@VCapsuleV@Gu@physx@@@23@@Gu@physx@@YA_NABU?$RelativeConvex@VCapsuleV@Gu@physx@@@01@ABU?$LocalConvex@VCapsuleV@Gu@physx@@@01@ABT__m128@@222AAT4@33M@Z 10170d30 f i GuCCDSweepPrimitives.obj
 0001:00170c30       ??$gjkRaycast@U?$RelativeConvex@VCapsuleV@Gu@physx@@@Gu@physx@@U?$LocalConvex@VShrunkBoxV@Gu@physx@@@23@@Gu@physx@@YA_NABU?$RelativeConvex@VCapsuleV@Gu@physx@@@01@ABU?$LocalConvex@VShrunkBoxV@Gu@physx@@@01@ABT__m128@@222AAT4@33M@Z 10171c30 f i GuCCDSweepPrimitives.obj
 0001:00171b30       ??$gjkRaycast@U?$RelativeConvex@VCapsuleV@Gu@physx@@@Gu@physx@@U?$LocalConvex@VShrunkConvexHullV@Gu@physx@@@23@@Gu@physx@@YA_NABU?$RelativeConvex@VCapsuleV@Gu@physx@@@01@ABU?$LocalConvex@VShrunkConvexHullV@Gu@physx@@@01@ABT__m128@@222AAT4@33M@Z 10172b30 f i GuCCDSweepPrimitives.obj
 0001:00172a30       ??$gjkRaycast@U?$RelativeConvex@VShrunkBoxV@Gu@physx@@@Gu@physx@@U?$LocalConvex@VShrunkBoxV@Gu@physx@@@23@@Gu@physx@@YA_NABU?$RelativeConvex@VShrunkBoxV@Gu@physx@@@01@ABU?$LocalConvex@VShrunkBoxV@Gu@physx@@@01@ABT__m128@@222AAT4@33M@Z 10173a30 f i GuCCDSweepPrimitives.obj
 0001:00173930       ??$gjkRaycast@U?$RelativeConvex@VShrunkBoxV@Gu@physx@@@Gu@physx@@U?$LocalConvex@VShrunkConvexHullV@Gu@physx@@@23@@Gu@physx@@YA_NABU?$RelativeConvex@VShrunkBoxV@Gu@physx@@@01@ABU?$LocalConvex@VShrunkConvexHullV@Gu@physx@@@01@ABT__m128@@222AAT4@33M@Z 10174930 f i GuCCDSweepPrimitives.obj
 0001:00174830       ??$gjkRaycast@U?$RelativeConvex@VShrunkConvexHullV@Gu@physx@@@Gu@physx@@U?$LocalConvex@VShrunkConvexHullV@Gu@physx@@@23@@Gu@physx@@YA_NABU?$RelativeConvex@VShrunkConvexHullV@Gu@physx@@@01@ABU?$LocalConvex@VShrunkConvexHullV@Gu@physx@@@01@ABT__m128@@222AAT4@33M@Z 10175830 f i GuCCDSweepPrimitives.obj
 0001:00175730       ??$gjkRaycast@U?$RelativeConvex@VTriangleV@Gu@physx@@@Gu@physx@@U?$LocalConvex@VBoxV@Gu@physx@@@23@@Gu@physx@@YA_NABU?$RelativeConvex@VTriangleV@Gu@physx@@@01@ABU?$LocalConvex@VBoxV@Gu@physx@@@01@ABT__m128@@222AAT4@33M@Z 10176730 f i GuCCDSweepPrimitives.obj
 0001:00176630       ??$gjkRaycast@U?$RelativeConvex@VTriangleV@Gu@physx@@@Gu@physx@@U?$LocalConvex@VCapsuleV@Gu@physx@@@23@@Gu@physx@@YA_NABU?$RelativeConvex@VTriangleV@Gu@physx@@@01@ABU?$LocalConvex@VCapsuleV@Gu@physx@@@01@ABT__m128@@222AAT4@33M@Z 10177630 f i GuCCDSweepPrimitives.obj
 0001:00177530       ??$gjkRaycast@U?$RelativeConvex@VTriangleV@Gu@physx@@@Gu@physx@@U?$LocalConvex@VConvexHullV@Gu@physx@@@23@@Gu@physx@@YA_NABU?$RelativeConvex@VTriangleV@Gu@physx@@@01@ABU?$LocalConvex@VConvexHullV@Gu@physx@@@01@ABT__m128@@222AAT4@33M@Z 10178530 f i GuCCDSweepPrimitives.obj
 0001:00178430       ??$gjkRaycastPenetration@U?$RelativeConvex@VCapsuleV@Gu@physx@@@Gu@physx@@U?$LocalConvex@VCapsuleV@Gu@physx@@@23@@Gu@physx@@YA_NABU?$RelativeConvex@VCapsuleV@Gu@physx@@@01@ABU?$LocalConvex@VCapsuleV@Gu@physx@@@01@ABT__m128@@222AAT4@33M_N@Z 10179430 f i GuCCDSweepPrimitives.obj
 0001:00178720       ??$gjkRaycastPenetration@U?$RelativeConvex@VCapsuleV@Gu@physx@@@Gu@physx@@U?$LocalConvex@VShrunkBoxV@Gu@physx@@@23@@Gu@physx@@YA_NABU?$RelativeConvex@VCapsuleV@Gu@physx@@@01@ABU?$LocalConvex@VShrunkBoxV@Gu@physx@@@01@ABT__m128@@222AAT4@33M_N@Z 10179720 f i GuCCDSweepPrimitives.obj
 0001:00178a10       ??$gjkRaycastPenetration@U?$RelativeConvex@VCapsuleV@Gu@physx@@@Gu@physx@@U?$LocalConvex@VShrunkConvexHullV@Gu@physx@@@23@@Gu@physx@@YA_NABU?$RelativeConvex@VCapsuleV@Gu@physx@@@01@ABU?$LocalConvex@VShrunkConvexHullV@Gu@physx@@@01@ABT__m128@@222AAT4@33M_N@Z 10179a10 f i GuCCDSweepPrimitives.obj
 0001:00178d00       ??$gjkRaycastPenetration@U?$RelativeConvex@VShrunkBoxV@Gu@physx@@@Gu@physx@@U?$LocalConvex@VShrunkBoxV@Gu@physx@@@23@@Gu@physx@@YA_NABU?$RelativeConvex@VShrunkBoxV@Gu@physx@@@01@ABU?$LocalConvex@VShrunkBoxV@Gu@physx@@@01@ABT__m128@@222AAT4@33M_N@Z 10179d00 f i GuCCDSweepPrimitives.obj
 0001:00178ff0       ??$gjkRaycastPenetration@U?$RelativeConvex@VShrunkBoxV@Gu@physx@@@Gu@physx@@U?$LocalConvex@VShrunkConvexHullV@Gu@physx@@@23@@Gu@physx@@YA_NABU?$RelativeConvex@VShrunkBoxV@Gu@physx@@@01@ABU?$LocalConvex@VShrunkConvexHullV@Gu@physx@@@01@ABT__m128@@222AAT4@33M_N@Z 10179ff0 f i GuCCDSweepPrimitives.obj
 0001:001792e0       ??$gjkRaycastPenetration@U?$RelativeConvex@VShrunkConvexHullV@Gu@physx@@@Gu@physx@@U?$LocalConvex@VShrunkConvexHullV@Gu@physx@@@23@@Gu@physx@@YA_NABU?$RelativeConvex@VShrunkConvexHullV@Gu@physx@@@01@ABU?$LocalConvex@VShrunkConvexHullV@Gu@physx@@@01@ABT__m128@@222AAT4@33M_N@Z 1017a2e0 f i GuCCDSweepPrimitives.obj
 0001:001795d0       ??$gjkRaycastPenetration@U?$RelativeConvex@VTriangleV@Gu@physx@@@Gu@physx@@U?$LocalConvex@VBoxV@Gu@physx@@@23@@Gu@physx@@YA_NABU?$RelativeConvex@VTriangleV@Gu@physx@@@01@ABU?$LocalConvex@VBoxV@Gu@physx@@@01@ABT__m128@@222AAT4@33M_N@Z 1017a5d0 f i GuCCDSweepPrimitives.obj
 0001:001798c0       ??$gjkRaycastPenetration@U?$RelativeConvex@VTriangleV@Gu@physx@@@Gu@physx@@U?$LocalConvex@VCapsuleV@Gu@physx@@@23@@Gu@physx@@YA_NABU?$RelativeConvex@VTriangleV@Gu@physx@@@01@ABU?$LocalConvex@VCapsuleV@Gu@physx@@@01@ABT__m128@@222AAT4@33M_N@Z 1017a8c0 f i GuCCDSweepPrimitives.obj
 0001:00179bb0       ??$gjkRaycastPenetration@U?$RelativeConvex@VTriangleV@Gu@physx@@@Gu@physx@@U?$LocalConvex@VConvexHullV@Gu@physx@@@23@@Gu@physx@@YA_NABU?$RelativeConvex@VTriangleV@Gu@physx@@@01@ABU?$LocalConvex@VConvexHullV@Gu@physx@@@01@ABT__m128@@222AAT4@33M_N@Z 1017abb0 f i GuCCDSweepPrimitives.obj
 0001:00179ea0       ??0?$RelativeConvex@VCapsuleV@Gu@physx@@@Gu@physx@@QAE@ABVCapsuleV@12@ABVPsMatTransformV@aos@shdfnd@2@@Z 1017aea0 f i GuCCDSweepPrimitives.obj
 0001:00179f20       ??0?$RelativeConvex@VShrunkBoxV@Gu@physx@@@Gu@physx@@QAE@ABVShrunkBoxV@12@ABVPsMatTransformV@aos@shdfnd@2@@Z 1017af20 f i GuCCDSweepPrimitives.obj
 0001:00179fa0       ??0BoxV@Gu@physx@@QAE@ABVPxGeometry@2@@Z 1017afa0 f i GuCCDSweepPrimitives.obj
 0001:0017a090       ??0CapsuleV@Gu@physx@@QAE@ABVPxGeometry@2@@Z 1017b090 f i GuCCDSweepPrimitives.obj
 0001:0017a200       ??0ConvexHullV@Gu@physx@@QAE@ABVPxGeometry@2@@Z 1017b200 f i GuCCDSweepPrimitives.obj
 0001:0017a390       ??0ShrunkBoxV@Gu@physx@@QAE@ABVPxGeometry@2@@Z 1017b390 f i GuCCDSweepPrimitives.obj
 0001:0017a3e0       ??0ShrunkConvexHullV@Gu@physx@@QAE@ABVPxGeometry@2@@Z 1017b3e0 f i GuCCDSweepPrimitives.obj
 0001:0017a410       ??1?$RelativeConvex@VCapsuleV@Gu@physx@@@Gu@physx@@UAE@XZ 1017b410 f i GuCCDSweepPrimitives.obj
 0001:0017a430       ??1?$RelativeConvex@VShrunkBoxV@Gu@physx@@@Gu@physx@@UAE@XZ 1017b430 f i GuCCDSweepPrimitives.obj
 0001:0017a450       ??1ShrunkBoxV@Gu@physx@@QAE@XZ 1017b450 f i GuCCDSweepPrimitives.obj
 0001:0017a470       ??_G?$RelativeConvex@VCapsuleV@Gu@physx@@@Gu@physx@@UAEPAXI@Z 1017b470 f i GuCCDSweepPrimitives.obj
 0001:0017a470       ??_E?$RelativeConvex@VCapsuleV@Gu@physx@@@Gu@physx@@UAEPAXI@Z 1017b470 f i GuCCDSweepPrimitives.obj
 0001:0017a4b0       ??_E?$RelativeConvex@VShrunkBoxV@Gu@physx@@@Gu@physx@@UAEPAXI@Z 1017b4b0 f i GuCCDSweepPrimitives.obj
 0001:0017a4b0       ??_G?$RelativeConvex@VShrunkBoxV@Gu@physx@@@Gu@physx@@UAEPAXI@Z 1017b4b0 f i GuCCDSweepPrimitives.obj
 0001:0017a4f0       ?getCenter@?$RelativeConvex@VCapsuleV@Gu@physx@@@Gu@physx@@UBE?AT__m128@@XZ 1017b4f0 f i GuCCDSweepPrimitives.obj
 0001:0017a550       ?getCenter@?$RelativeConvex@VShrunkBoxV@Gu@physx@@@Gu@physx@@UBE?AT__m128@@XZ 1017b550 f i GuCCDSweepPrimitives.obj
 0001:0017a5b0       ?getShrunkConvex@?$LocalConvex@VCapsuleV@Gu@physx@@@Gu@physx@@QBE?AU123@XZ 1017b5b0 f i GuCCDSweepPrimitives.obj
 0001:0017a5e0       ?getShrunkConvex@?$LocalConvex@VShrunkBoxV@Gu@physx@@@Gu@physx@@QBE?AU123@XZ 1017b5e0 f i GuCCDSweepPrimitives.obj
 0001:0017a610       ?getShrunkConvex@?$LocalConvex@VShrunkConvexHullV@Gu@physx@@@Gu@physx@@QBE?AU123@XZ 1017b610 f i GuCCDSweepPrimitives.obj
 0001:0017a640       ?getShrunkConvex@?$RelativeConvex@VCapsuleV@Gu@physx@@@Gu@physx@@QBE?AU123@XZ 1017b640 f i GuCCDSweepPrimitives.obj
 0001:0017a670       ?getShrunkConvex@?$RelativeConvex@VShrunkBoxV@Gu@physx@@@Gu@physx@@QBE?AU123@XZ 1017b670 f i GuCCDSweepPrimitives.obj
 0001:0017a6a0       ?getShrunkConvex@?$RelativeConvex@VShrunkConvexHullV@Gu@physx@@@Gu@physx@@QBE?AU123@XZ 1017b6a0 f i GuCCDSweepPrimitives.obj
 0001:0017a6d0       ?getShrunkConvex@?$RelativeConvex@VTriangleV@Gu@physx@@@Gu@physx@@QBE?AU123@XZ 1017b6d0 f i GuCCDSweepPrimitives.obj
 0001:0017a700       ?getSweepMargin@?$RelativeConvex@VCapsuleV@Gu@physx@@@Gu@physx@@UBE?AT__m128@@XZ 1017b700 f i GuCCDSweepPrimitives.obj
 0001:0017a730       ?getSweepMargin@?$RelativeConvex@VShrunkBoxV@Gu@physx@@@Gu@physx@@UBE?AT__m128@@XZ 1017b730 f i GuCCDSweepPrimitives.obj
 0001:0017a760       ?initialiseMarginDif@ShrunkBoxV@Gu@physx@@AAEXXZ 1017b760 f i GuCCDSweepPrimitives.obj
 0001:0017a810       ?support@?$RelativeConvex@VCapsuleV@Gu@physx@@@Gu@physx@@UBE?AT__m128@@ABT4@@Z 1017b810 f i GuCCDSweepPrimitives.obj
 0001:0017a860       ?support@?$RelativeConvex@VCapsuleV@Gu@physx@@@Gu@physx@@UBE?AT__m128@@ABT4@AAHPAT4@@Z 1017b860 f i GuCCDSweepPrimitives.obj
 0001:0017a8b0       ?support@?$RelativeConvex@VShrunkBoxV@Gu@physx@@@Gu@physx@@UBE?AT__m128@@ABT4@@Z 1017b8b0 f i GuCCDSweepPrimitives.obj
 0001:0017a900       ?support@?$RelativeConvex@VShrunkBoxV@Gu@physx@@@Gu@physx@@UBE?AT__m128@@ABT4@AAHPAT4@@Z 1017b900 f i GuCCDSweepPrimitives.obj
 0001:0017a950       ?supportPoint@?$RelativeConvex@VCapsuleV@Gu@physx@@@Gu@physx@@UBE?AT__m128@@HPAT4@@Z 1017b950 f i GuCCDSweepPrimitives.obj
 0001:0017a9c0       ?supportPoint@?$RelativeConvex@VShrunkBoxV@Gu@physx@@@Gu@physx@@UBE?AT__m128@@HPAT4@@Z 1017b9c0 f i GuCCDSweepPrimitives.obj
 0001:0017aa30       ?supportRelative@CapsuleV@Gu@physx@@QBE?AT__m128@@ABT4@ABVPsMatTransformV@aos@shdfnd@3@1@Z 1017ba30 f i GuCCDSweepPrimitives.obj
 0001:0017aaa0       ?supportRelative@CapsuleV@Gu@physx@@QBE?AT__m128@@ABT4@ABVPsMatTransformV@aos@shdfnd@3@1AAHPAT4@@Z 1017baa0 f i GuCCDSweepPrimitives.obj
 0001:0017ab20       ?supportRelative@ShrunkBoxV@Gu@physx@@QBE?AT__m128@@ABT4@ABVPsMatTransformV@aos@shdfnd@3@1@Z 1017bb20 f i GuCCDSweepPrimitives.obj
 0001:0017ab90       ?supportRelative@ShrunkBoxV@Gu@physx@@QBE?AT__m128@@ABT4@ABVPsMatTransformV@aos@shdfnd@3@1AAHPAT4@@Z 1017bb90 f i GuCCDSweepPrimitives.obj
 0001:0017ac10       ?computeBounds@Gu@physx@@YAXAAVPxBounds3@2@ABVPxGeometry@2@ABVPxTransform@2@MPIBVCenterExtentsPadded@12@M_N@Z 1017bc10 f   GuBounds.obj
 0001:0017b840       ?computeBoundsWithCCDThreshold@Gu@physx@@YAMAAVVec3p@12@0ABVPxGeometry@2@ABVPxTransform@2@PIBVCenterExtentsPadded@12@@Z 1017c840 f   GuBounds.obj
 0001:0017be90       ??0ShapeData@Gu@physx@@QAE@ABVPxGeometry@2@ABVPxTransform@2@M@Z 1017ce90 f   GuBounds.obj
 0001:0017db90       ??0?$PxFlags@W4Enum@PxConvexMeshGeometryFlag@physx@@E@physx@@QAE@ABV01@@Z 1017eb90 f i GuBounds.obj
 0001:0017dbb0       ??0CenterExtentsPadded@Gu@physx@@QAE@XZ 1017ebb0 f i GuBounds.obj
 0001:0017dbd0       ??0PxPlane@physx@@QAE@ABVPxVec3@1@0@Z 1017ebd0 f i GuBounds.obj
 0001:0017dc30       ??1CenterExtentsPadded@Gu@physx@@QAE@XZ 1017ec30 f i GuBounds.obj
 0001:0017dc50       ??4CenterExtentsPadded@Gu@physx@@QAEAAV012@ABV012@@Z 1017ec50 f i GuBounds.obj
 0001:0017dc90       ??4PxMat33Padded@Gu@physx@@QAEXABVPxMat33@2@@Z 1017ec90 f i GuBounds.obj
 0001:0017dce0       ??B?$PxFlags@W4Enum@PxConvexMeshGeometryFlag@physx@@E@physx@@QBE_NXZ 1017ece0 f i GuBounds.obj
 0001:0017dd10       ??I?$PxFlags@W4Enum@PxConvexMeshGeometryFlag@physx@@E@physx@@QBE?AV01@W4Enum@PxConvexMeshGeometryFlag@1@@Z 1017ed10 f i GuBounds.obj
 0001:0017dd60       ?getPaddedBounds@ConvexHullData@Gu@physx@@QBEABVCenterExtentsPadded@23@XZ 1017ed60 f i GuBounds.obj
 0001:0017dd80       ?getPaddedBounds@TriangleMesh@Gu@physx@@QBEABVCenterExtentsPadded@23@XZ 1017ed80 f i GuBounds.obj
 0001:0017dda0       ?setMinMax@CenterExtents@Gu@physx@@QAEXABVPxVec3@3@0@Z 1017eda0 f i GuBounds.obj
 0001:0017de40       ?computeOBBPoints@Gu@physx@@YAXPIAVPxVec3@2@ABV32@1111@Z 1017ee40 f   GuBox.obj
 0001:0017e040       ?create@Box@Gu@physx@@QAEXABVCapsule@23@@Z 1017f040 f   GuBox.obj
 0001:0017e120       ?getBoxEdges@Gu@physx@@YAPBEXZ 1017f120 f   GuBox.obj
 0001:0017e1f0       ?computeBoxAroundCapsule@Gu@physx@@YAXABVCapsule@12@AAVBox@12@@Z 1017f1f0 f   GuCapsule.obj
 0001:0017e360       ?sweepBoxTriangles_Precise@Gu@physx@@YA_NIPBVPxTriangle@2@_NABVPxBoxGeometry@2@ABVPxTransform@2@ABVPxVec3@2@MAAUPxSweepHit@2@PBIMV?$PxFlags@W4Enum@PxHitFlag@physx@@G@2@@Z 1017f360 f   GuCCTSweepTests.obj
 0001:0017e3f0       ?sweepCapsule_BoxGeom_Precise@@YA_NABVPxGeometry@physx@@ABVPxTransform@2@ABVPxCapsuleGeometry@2@1ABVCapsule@Gu@2@ABVPxVec3@2@MAAUPxSweepHit@2@V?$PxFlags@W4Enum@PxHitFlag@physx@@G@2@M@Z 1017f3f0 f   GuCCTSweepTests.obj
 0001:0017e800       ?sweepBox_SphereGeom_Precise@@YA_NABVPxGeometry@physx@@ABVPxTransform@2@ABVPxBoxGeometry@2@1ABVBox@Gu@2@ABVPxVec3@2@MAAUPxSweepHit@2@V?$PxFlags@W4Enum@PxHitFlag@physx@@G@2@M@Z 1017f800 f   GuCCTSweepTests.obj
 0001:0017ea40       ?sweepBox_CapsuleGeom_Precise@@YA_NABVPxGeometry@physx@@ABVPxTransform@2@ABVPxBoxGeometry@2@1ABVBox@Gu@2@ABVPxVec3@2@MAAUPxSweepHit@2@V?$PxFlags@W4Enum@PxHitFlag@physx@@G@2@M@Z 1017fa40 f   GuCCTSweepTests.obj
 0001:0017ece0       ?sweepBox_BoxGeom_Precise@@YA_NABVPxGeometry@physx@@ABVPxTransform@2@ABVPxBoxGeometry@2@1ABVBox@Gu@2@ABVPxVec3@2@MAAUPxSweepHit@2@V?$PxFlags@W4Enum@PxHitFlag@physx@@G@2@M@Z 1017fce0 f   GuCCTSweepTests.obj
 0001:0017f5a0       ?sweepBox_HeightFieldGeom_Precise@@YA_NABVPxGeometry@physx@@ABVPxTransform@2@ABVPxBoxGeometry@2@1ABVBox@Gu@2@ABVPxVec3@2@MAAUPxSweepHit@2@V?$PxFlags@W4Enum@PxHitFlag@physx@@G@2@M@Z 101805a0 f   GuCCTSweepTests.obj
 0001:0017fcb0       ??0Capsule@Gu@physx@@QAE@ABV012@@Z 10180cb0 f i GuCCTSweepTests.obj
 0001:0017fd70       ??4?$PxFlags@W4Enum@PxHitFlag@physx@@G@physx@@QAEAAV01@W4Enum@PxHitFlag@1@@Z 10180d70 f i GuCCTSweepTests.obj
 0001:0017fdd0       ?distanceSegmentBoxSquared@Gu@physx@@YAMABVSegment@12@ABVBox@12@PAMPAVPxVec3@2@@Z 10180dd0 f i GuCCTSweepTests.obj
 0001:0017ffa0       ?sweep@PxGeometryQuery@physx@@SA_NABVPxVec3@2@MABVPxGeometry@2@ABVPxTransform@2@12AAUPxSweepHit@2@V?$PxFlags@W4Enum@PxHitFlag@physx@@G@2@M@Z 10180fa0 f   GuGeometryQuery.obj
 0001:001805d0       ?overlap@PxGeometryQuery@physx@@SA_NABVPxGeometry@2@ABVPxTransform@2@01@Z 101815d0 f   GuGeometryQuery.obj
 0001:00180610       ?raycast@PxGeometryQuery@physx@@SAIABVPxVec3@2@0ABVPxGeometry@2@ABVPxTransform@2@MV?$PxFlags@W4Enum@PxHitFlag@physx@@G@2@IPIAUPxRaycastHit@2@@Z 10181610 f   GuGeometryQuery.obj
 0001:001808d0       ?computePenetration@PxGeometryQuery@physx@@SA_NAAVPxVec3@2@AAMABVPxGeometry@2@ABVPxTransform@2@23@Z 101818d0 f   GuGeometryQuery.obj
 0001:00180af0       ?pointDistance@PxGeometryQuery@physx@@SAMABVPxVec3@2@ABVPxGeometry@2@ABVPxTransform@2@PAV32@@Z 10181af0 f   GuGeometryQuery.obj
 0001:00180f30       ?getWorldBounds@PxGeometryQuery@physx@@SA?AVPxBounds3@2@ABVPxGeometry@2@ABVPxTransform@2@M@Z 10181f30 f   GuGeometryQuery.obj
 0001:00181030       ?isValid@PxGeometryQuery@physx@@SA_NABVPxGeometry@2@@Z 10182030 f   GuGeometryQuery.obj
 0001:001815f0       ?distancePointBoxSquared@Gu@physx@@YAMABVPxVec3@2@ABVBox@12@PAV32@@Z 101825f0 f i GuGeometryQuery.obj
 0001:00181620       ?isValid@PxBoxGeometry@physx@@QBE_NXZ 10182620 f i GuGeometryQuery.obj
 0001:00181690       ?isValid@PxCapsuleGeometry@physx@@QBE_NXZ 10182690 f i GuGeometryQuery.obj
 0001:00181720       ?isValid@PxConvexMeshGeometry@physx@@QBE_NXZ 10182720 f i GuGeometryQuery.obj
 0001:001817c0       ?isValid@PxSphereGeometry@physx@@QBE_NXZ 101827c0 f i GuGeometryQuery.obj
 0001:00181820       ?isValidForConvexMesh@PxMeshScale@physx@@QBE_NXZ 10182820 f i GuGeometryQuery.obj
 0001:00181890       ?maxElement@PxVec3@physx@@QBEMXZ 10182890 f i GuGeometryQuery.obj
 0001:001818f0       ?minElement@PxVec3@physx@@QBEMXZ 101828f0 f i GuGeometryQuery.obj
 0001:00181950       ?overlap@Gu@physx@@YA_NABVPxGeometry@2@ABVPxTransform@2@01PIAY06Q6A_N0101PAUTriggerCache@12@@Z@Z 10182950 f i GuGeometryQuery.obj
 0001:00181b30       ?set@GeometryUnion@Gu@physx@@QAEXABVPxGeometry@3@@Z 10182b30 f   GuGeometryUnion.obj
 0001:00181ea0       ??$checkType@UPxConvexMeshGeometryLL@physx@@@physx@@YAXABVGeometryUnion@Gu@0@@Z 10182ea0 f i GuGeometryUnion.obj
 0001:00181f10       ??$checkType@UPxHeightFieldGeometryLL@physx@@@physx@@YAXABVGeometryUnion@Gu@0@@Z 10182f10 f i GuGeometryUnion.obj
 0001:00181f80       ??$checkType@UPxTriangleMeshGeometryLL@physx@@@physx@@YAXABVGeometryUnion@Gu@0@@Z 10182f80 f i GuGeometryUnion.obj
 0001:00181ff0       ??$get@UPxConvexMeshGeometryLL@physx@@@GeometryUnion@Gu@physx@@QAEAAUPxConvexMeshGeometryLL@2@XZ 10182ff0 f i GuGeometryUnion.obj
 0001:00182010       ??$get@UPxHeightFieldGeometryLL@physx@@@GeometryUnion@Gu@physx@@QAEAAUPxHeightFieldGeometryLL@2@XZ 10183010 f i GuGeometryUnion.obj
 0001:00182030       ??$get@UPxTriangleMeshGeometryLL@physx@@@GeometryUnion@Gu@physx@@QAEAAUPxTriangleMeshGeometryLL@2@XZ 10183030 f i GuGeometryUnion.obj
 0001:00182050       ??4?$PxFlags@W4Enum@PxConvexMeshGeometryFlag@physx@@E@physx@@QAEAAV01@ABV01@@Z 10183050 f i GuGeometryUnion.obj
 0001:00182070       ??4?$PxFlags@W4Enum@PxMeshGeometryFlag@physx@@E@physx@@QAEAAV01@ABV01@@Z 10183070 f i GuGeometryUnion.obj
 0001:00182090       ??4PxConvexMeshGeometry@physx@@QAEAAV01@ABV01@@Z 10183090 f i GuGeometryUnion.obj
 0001:00182120       ??4PxHeightFieldGeometry@physx@@QAEAAV01@ABV01@@Z 10183120 f i GuGeometryUnion.obj
 0001:001821c0       ??4PxMeshScale@physx@@QAEAAV01@ABV01@@Z 101831c0 f i GuGeometryUnion.obj
 0001:00182200       ??4PxTriangleMeshGeometry@physx@@QAEAAV01@ABV01@@Z 10183200 f i GuGeometryUnion.obj
 0001:001822d0       ?computeBoxPoints@Gu@physx@@YAXABVPxBounds3@2@PIAVPxVec3@2@@Z 101832d0 f   GuInternal.obj
 0001:00182530       ?computeBoundsAroundVertices@Gu@physx@@YAXAAVPxBounds3@2@IPIBVPxVec3@2@@Z 10183530 f   GuInternal.obj
 0001:00182690       ?getPlane@Gu@physx@@YA?AVPxPlane@2@ABVPxTransform@2@@Z 10183690 f   GuInternal.obj
 0001:001826e0       ?computeSweptBox@Gu@physx@@YAXAAVBox@12@ABVPxVec3@2@1ABVPxMat33@2@1M@Z 101836e0 f   GuInternal.obj
 0001:00182c60       ??0GuMeshFactory@physx@@QAE@XZ 10183c60 f   GuMeshFactory.obj
 0001:00182d10       ??1GuMeshFactory@physx@@MAE@XZ 10183d10 f   GuMeshFactory.obj
 0001:00182d60       ?release@GuMeshFactory@physx@@QAEXXZ 10183d60 f   GuMeshFactory.obj
 0001:00182f40       ?addTriangleMesh@GuMeshFactory@physx@@QAEXPAVTriangleMesh@Gu@2@_N@Z 10183f40 f   GuMeshFactory.obj
 0001:00182f80       ?createTriangleMesh@GuMeshFactory@physx@@QAEPAVPxTriangleMesh@2@AAVPxInputStream@2@@Z 10183f80 f   GuMeshFactory.obj
 0001:00182ff0       ?createTriangleMesh@GuMeshFactory@physx@@QAEPAVPxTriangleMesh@2@PAX@Z 10183ff0 f   GuMeshFactory.obj
 0001:00183010       ?removeTriangleMesh@GuMeshFactory@physx@@QAE_NAAVPxTriangleMesh@2@@Z 10184010 f   GuMeshFactory.obj
 0001:00183070       ?getNbTriangleMeshes@GuMeshFactory@physx@@QBEIXZ 10184070 f   GuMeshFactory.obj
 0001:001830b0       ?getTriangleMeshes@GuMeshFactory@physx@@QBEIPAPAVPxTriangleMesh@2@II@Z 101840b0 f   GuMeshFactory.obj
 0001:00183110       ?addConvexMesh@GuMeshFactory@physx@@QAEXPAVConvexMesh@Gu@2@_N@Z 10184110 f   GuMeshFactory.obj
 0001:00183150       ?createConvexMesh@GuMeshFactory@physx@@QAEPAVPxConvexMesh@2@AAVPxInputStream@2@@Z 10184150 f   GuMeshFactory.obj
 0001:00183210       ?createConvexMesh@GuMeshFactory@physx@@QAEPAVPxConvexMesh@2@PAX@Z 10184210 f   GuMeshFactory.obj
 0001:00183230       ?removeConvexMesh@GuMeshFactory@physx@@QAE_NAAVPxConvexMesh@2@@Z 10184230 f   GuMeshFactory.obj
 0001:00183290       ?getNbConvexMeshes@GuMeshFactory@physx@@QBEIXZ 10184290 f   GuMeshFactory.obj
 0001:001832d0       ?getConvexMeshes@GuMeshFactory@physx@@QBEIPAPAVPxConvexMesh@2@II@Z 101842d0 f   GuMeshFactory.obj
 0001:00183330       ?addHeightField@GuMeshFactory@physx@@QAEXPAVHeightField@Gu@2@_N@Z 10184330 f   GuMeshFactory.obj
 0001:00183370       ?createHeightField@GuMeshFactory@physx@@QAEPAVPxHeightField@2@PAX@Z 10184370 f   GuMeshFactory.obj
 0001:00183400       ?createHeightField@GuMeshFactory@physx@@QAEPAVPxHeightField@2@AAVPxInputStream@2@@Z 10184400 f   GuMeshFactory.obj
 0001:001834b0       ?removeHeightField@GuMeshFactory@physx@@QAE_NAAVPxHeightField@2@@Z 101844b0 f   GuMeshFactory.obj
 0001:00183510       ?getNbHeightFields@GuMeshFactory@physx@@QBEIXZ 10184510 f   GuMeshFactory.obj
 0001:00183550       ?getHeightFields@GuMeshFactory@physx@@QBEIPAPAVPxHeightField@2@II@Z 10184550 f   GuMeshFactory.obj
 0001:001835b0       ?addFactoryListener@GuMeshFactory@physx@@QAEXAAVGuMeshFactoryListener@2@@Z 101845b0 f   GuMeshFactory.obj
 0001:001835f0       ?removeFactoryListener@GuMeshFactory@physx@@QAEXAAVGuMeshFactoryListener@2@@Z 101845f0 f   GuMeshFactory.obj
 0001:00183680       ?notifyFactoryListener@GuMeshFactory@physx@@QAEXPBVPxBase@2@G@Z 10184680 f   GuMeshFactory.obj
 0001:001836f0       ?createTriangleMesh@GuMeshFactory@physx@@IAEPAVPxTriangleMesh@2@AAVTriangleMeshData@Gu@2@@Z 101846f0 f   GuMeshFactory.obj
 0001:00183810       ?createConvexMesh@GuMeshFactory@physx@@IAEPAVPxConvexMesh@2@AAUConvexHullData@Gu@2@@Z 10184810 f   GuMeshFactory.obj
 0001:00185080       ??$?2V?$ReflectionAllocator@VBV32Tree@Gu@physx@@@shdfnd@physx@@@UserAllocated@shdfnd@physx@@SAPAXIV?$ReflectionAllocator@VBV32Tree@Gu@physx@@@12@PBDH@Z 10186080 f i GuMeshFactory.obj
 0001:001850a0       ??$?2V?$ReflectionAllocator@VBV4TriangleData@Gu@physx@@@shdfnd@physx@@@UserAllocated@shdfnd@physx@@SAPAXIV?$ReflectionAllocator@VBV4TriangleData@Gu@physx@@@12@PBDH@Z 101860a0 f i GuMeshFactory.obj
 0001:001850c0       ??$?2V?$ReflectionAllocator@VRTreeTriangleData@Gu@physx@@@shdfnd@physx@@@UserAllocated@shdfnd@physx@@SAPAXIV?$ReflectionAllocator@VRTreeTriangleData@Gu@physx@@@12@PBDH@Z 101860c0 f i GuMeshFactory.obj
 0001:001850e0       ??$?_UE@@YAPAXIV?$ReflectionAllocator@E@shdfnd@physx@@PBDH@Z 101860e0 f i GuMeshFactory.obj
 0001:00185100       ??$?_UG@@YAPAXIV?$ReflectionAllocator@G@shdfnd@physx@@PBDH@Z 10186100 f i GuMeshFactory.obj
 0001:00185120       ??$?_UI@@YAPAXIV?$ReflectionAllocator@I@shdfnd@physx@@PBDH@Z 10186120 f i GuMeshFactory.obj
 0001:00185140       ??$getArrayOfPointers@VPxConvexMesh@physx@@VConvexMesh@Gu@2@@Cm@physx@@YAIPIAPAVPxConvexMesh@1@IIPIBQAVConvexMesh@Gu@1@I@Z 10186140 f i GuMeshFactory.obj
 0001:001851d0       ??$getArrayOfPointers@VPxHeightField@physx@@VHeightField@Gu@2@@Cm@physx@@YAIPIAPAVPxHeightField@1@IIPIBQAVHeightField@Gu@1@I@Z 101861d0 f i GuMeshFactory.obj
 0001:00185260       ??$getArrayOfPointers@VPxTriangleMesh@physx@@VTriangleMesh@Gu@2@@Cm@physx@@YAIPIAPAVPxTriangleMesh@1@IIPIBQAVTriangleMesh@Gu@1@I@Z 10186260 f i GuMeshFactory.obj
 0001:001852f0       ??0?$Array@PAVGuMeshFactoryListener@physx@@VNamedAllocator@shdfnd@2@@shdfnd@physx@@QAE@ABVNamedAllocator@12@@Z 101862f0 f i GuMeshFactory.obj
 0001:00185340       ??0?$CoalescedHashSet@PAVConvexMesh@Gu@physx@@U?$Hash@PAVConvexMesh@Gu@physx@@@shdfnd@3@VNonTrackingAllocator@53@@shdfnd@physx@@QAE@ABVNonTrackingAllocator@12@@Z 10186340 f i GuMeshFactory.obj
 0001:00185380       ??0?$CoalescedHashSet@PAVHeightField@Gu@physx@@U?$Hash@PAVHeightField@Gu@physx@@@shdfnd@3@VNonTrackingAllocator@53@@shdfnd@physx@@QAE@ABVNonTrackingAllocator@12@@Z 10186380 f i GuMeshFactory.obj
 0001:001853c0       ??0?$CoalescedHashSet@PAVTriangleMesh@Gu@physx@@U?$Hash@PAVTriangleMesh@Gu@physx@@@shdfnd@3@VNonTrackingAllocator@53@@shdfnd@physx@@QAE@ABVNonTrackingAllocator@12@@Z 101863c0 f i GuMeshFactory.obj
 0001:00185400       ??0?$HashBase@PAVConvexMesh@Gu@physx@@PAV123@U?$Hash@PAVConvexMesh@Gu@physx@@@shdfnd@3@UGetKey@?$HashSetBase@PAVConvexMesh@Gu@physx@@U?$Hash@PAVConvexMesh@Gu@physx@@@shdfnd@3@VNonTrackingAllocator@53@$00@internal@53@VNonTrackingAllocator@53@$00@internal@shdfnd@physx@@QAE@IMABVNonTrackingAllocator@23@@Z 10186400 f i GuMeshFactory.obj
 0001:00185430       ??0?$HashBase@PAVHeightField@Gu@physx@@PAV123@U?$Hash@PAVHeightField@Gu@physx@@@shdfnd@3@UGetKey@?$HashSetBase@PAVHeightField@Gu@physx@@U?$Hash@PAVHeightField@Gu@physx@@@shdfnd@3@VNonTrackingAllocator@53@$00@internal@53@VNonTrackingAllocator@53@$00@internal@shdfnd@physx@@QAE@IMABVNonTrackingAllocator@23@@Z 10186430 f i GuMeshFactory.obj
 0001:00185460       ??0?$HashBase@PAVTriangleMesh@Gu@physx@@PAV123@U?$Hash@PAVTriangleMesh@Gu@physx@@@shdfnd@3@UGetKey@?$HashSetBase@PAVTriangleMesh@Gu@physx@@U?$Hash@PAVTriangleMesh@Gu@physx@@@shdfnd@3@VNonTrackingAllocator@53@$00@internal@53@VNonTrackingAllocator@53@$00@internal@shdfnd@physx@@QAE@IMABVNonTrackingAllocator@23@@Z 10186460 f i GuMeshFactory.obj
 0001:00185490       ??0?$HashSetBase@PAVConvexMesh@Gu@physx@@U?$Hash@PAVConvexMesh@Gu@physx@@@shdfnd@3@VNonTrackingAllocator@53@$00@internal@shdfnd@physx@@QAE@IMABVNonTrackingAllocator@23@@Z 10186490 f i GuMeshFactory.obj
 0001:001854d0       ??0?$HashSetBase@PAVHeightField@Gu@physx@@U?$Hash@PAVHeightField@Gu@physx@@@shdfnd@3@VNonTrackingAllocator@53@$00@internal@shdfnd@physx@@QAE@IMABVNonTrackingAllocator@23@@Z 101864d0 f i GuMeshFactory.obj
 0001:00185510       ??0?$HashSetBase@PAVTriangleMesh@Gu@physx@@U?$Hash@PAVTriangleMesh@Gu@physx@@@shdfnd@3@VNonTrackingAllocator@53@$00@internal@shdfnd@physx@@QAE@IMABVNonTrackingAllocator@23@@Z 10186510 f i GuMeshFactory.obj
 0001:00185550       ??0?$MutexT@V?$ReflectionAllocator@VMutexImpl@shdfnd@physx@@@shdfnd@physx@@@shdfnd@physx@@QAE@ABV?$ReflectionAllocator@VMutexImpl@shdfnd@physx@@@12@@Z 10186550 f i GuMeshFactory.obj
 0001:001855c0       ??0?$ReflectionAllocator@E@shdfnd@physx@@QAE@PBD@Z 101865c0 f i GuMeshFactory.obj
 0001:001855e0       ??0?$ReflectionAllocator@G@shdfnd@physx@@QAE@PBD@Z 101865e0 f i GuMeshFactory.obj
 0001:00185600       ??0?$ReflectionAllocator@I@shdfnd@physx@@QAE@PBD@Z 10186600 f i GuMeshFactory.obj
 0001:00185620       ??0?$ReflectionAllocator@VBV32Tree@Gu@physx@@@shdfnd@physx@@QAE@PBD@Z 10186620 f i GuMeshFactory.obj
 0001:00185640       ??0?$ReflectionAllocator@VBV4TriangleData@Gu@physx@@@shdfnd@physx@@QAE@PBD@Z 10186640 f i GuMeshFactory.obj
 0001:00185660       ??0?$ReflectionAllocator@VBV4TriangleMesh@Gu@physx@@@shdfnd@physx@@QAE@PBD@Z 10186660 f i GuMeshFactory.obj
 0001:00185680       ??0?$ReflectionAllocator@VConvexMesh@Gu@physx@@@shdfnd@physx@@QAE@PBD@Z 10186680 f i GuMeshFactory.obj
 0001:001856a0       ??0?$ReflectionAllocator@VHeightField@Gu@physx@@@shdfnd@physx@@QAE@PBD@Z 101866a0 f i GuMeshFactory.obj
 0001:001856c0       ??0?$ReflectionAllocator@VMutexImpl@shdfnd@physx@@@shdfnd@physx@@QAE@ABV012@@Z 101866c0 f i GuMeshFactory.obj
 0001:001856e0       ??0?$ReflectionAllocator@VMutexImpl@shdfnd@physx@@@shdfnd@physx@@QAE@PBD@Z 101866e0 f i GuMeshFactory.obj
 0001:00185700       ??0?$ReflectionAllocator@VRTreeTriangleData@Gu@physx@@@shdfnd@physx@@QAE@PBD@Z 10186700 f i GuMeshFactory.obj
 0001:00185720       ??0?$ReflectionAllocator@VRTreeTriangleMesh@Gu@physx@@@shdfnd@physx@@QAE@PBD@Z 10186720 f i GuMeshFactory.obj
 0001:00185740       ??0BV4TriangleData@Gu@physx@@QAE@XZ 10186740 f i GuMeshFactory.obj
 0001:00185790       ??0RTreeTriangleData@Gu@physx@@QAE@XZ 10186790 f i GuMeshFactory.obj
 0001:001857e0       ??0ScopedLock@?$MutexT@V?$ReflectionAllocator@VMutexImpl@shdfnd@physx@@@shdfnd@physx@@@shdfnd@physx@@QAE@AAV123@@Z 101867e0 f i GuMeshFactory.obj
 0001:00185810       ??0TriangleMeshData@Gu@physx@@QAE@XZ 10186810 f i GuMeshFactory.obj
 0001:001858f0       ??1?$Array@PAVGuMeshFactoryListener@physx@@VNamedAllocator@shdfnd@2@@shdfnd@physx@@QAE@XZ 101868f0 f i GuMeshFactory.obj
 0001:00185960       ??1?$CoalescedHashSet@PAVConvexMesh@Gu@physx@@U?$Hash@PAVConvexMesh@Gu@physx@@@shdfnd@3@VNonTrackingAllocator@53@@shdfnd@physx@@QAE@XZ 10186960 f i GuMeshFactory.obj
 0001:00185980       ??1?$CoalescedHashSet@PAVHeightField@Gu@physx@@U?$Hash@PAVHeightField@Gu@physx@@@shdfnd@3@VNonTrackingAllocator@53@@shdfnd@physx@@QAE@XZ 10186980 f i GuMeshFactory.obj
 0001:001859a0       ??1?$CoalescedHashSet@PAVTriangleMesh@Gu@physx@@U?$Hash@PAVTriangleMesh@Gu@physx@@@shdfnd@3@VNonTrackingAllocator@53@@shdfnd@physx@@QAE@XZ 101869a0 f i GuMeshFactory.obj
 0001:001859c0       ??1?$HashBase@PAVConvexMesh@Gu@physx@@PAV123@U?$Hash@PAVConvexMesh@Gu@physx@@@shdfnd@3@UGetKey@?$HashSetBase@PAVConvexMesh@Gu@physx@@U?$Hash@PAVConvexMesh@Gu@physx@@@shdfnd@3@VNonTrackingAllocator@53@$00@internal@53@VNonTrackingAllocator@53@$00@internal@shdfnd@physx@@QAE@XZ 101869c0 f i GuMeshFactory.obj
 0001:00185a00       ??1?$HashBase@PAVHeightField@Gu@physx@@PAV123@U?$Hash@PAVHeightField@Gu@physx@@@shdfnd@3@UGetKey@?$HashSetBase@PAVHeightField@Gu@physx@@U?$Hash@PAVHeightField@Gu@physx@@@shdfnd@3@VNonTrackingAllocator@53@$00@internal@53@VNonTrackingAllocator@53@$00@internal@shdfnd@physx@@QAE@XZ 10186a00 f i GuMeshFactory.obj
 0001:00185a40       ??1?$HashBase@PAVTriangleMesh@Gu@physx@@PAV123@U?$Hash@PAVTriangleMesh@Gu@physx@@@shdfnd@3@UGetKey@?$HashSetBase@PAVTriangleMesh@Gu@physx@@U?$Hash@PAVTriangleMesh@Gu@physx@@@shdfnd@3@VNonTrackingAllocator@53@$00@internal@53@VNonTrackingAllocator@53@$00@internal@shdfnd@physx@@QAE@XZ 10186a40 f i GuMeshFactory.obj
 0001:00185a80       ??1?$HashSetBase@PAVConvexMesh@Gu@physx@@U?$Hash@PAVConvexMesh@Gu@physx@@@shdfnd@3@VNonTrackingAllocator@53@$00@internal@shdfnd@physx@@QAE@XZ 10186a80 f i GuMeshFactory.obj
 0001:00185aa0       ??1?$HashSetBase@PAVHeightField@Gu@physx@@U?$Hash@PAVHeightField@Gu@physx@@@shdfnd@3@VNonTrackingAllocator@53@$00@internal@shdfnd@physx@@QAE@XZ 10186aa0 f i GuMeshFactory.obj
 0001:00185ac0       ??1?$HashSetBase@PAVTriangleMesh@Gu@physx@@U?$Hash@PAVTriangleMesh@Gu@physx@@@shdfnd@3@VNonTrackingAllocator@53@$00@internal@shdfnd@physx@@QAE@XZ 10186ac0 f i GuMeshFactory.obj
 0001:00185ae0       ??1?$MutexT@V?$ReflectionAllocator@VMutexImpl@shdfnd@physx@@@shdfnd@physx@@@shdfnd@physx@@QAE@XZ 10186ae0 f i GuMeshFactory.obj
 0001:00185b10       ??1BV4TriangleData@Gu@physx@@UAE@XZ 10186b10 f i GuMeshFactory.obj
 0001:00185b50       ??1RTreeTriangleData@Gu@physx@@UAE@XZ 10186b50 f i GuMeshFactory.obj
 0001:00185b80       ??1ScopedLock@?$MutexT@V?$ReflectionAllocator@VMutexImpl@shdfnd@physx@@@shdfnd@physx@@@shdfnd@physx@@QAE@XZ 10186b80 f i GuMeshFactory.obj
 0001:00185ba0       ??1TriangleMeshData@Gu@physx@@UAE@XZ 10186ba0 f i GuMeshFactory.obj
 0001:00185dd0       ??A?$Array@PAVGuMeshFactoryListener@physx@@VNamedAllocator@shdfnd@2@@shdfnd@physx@@QAEAAPAVGuMeshFactoryListener@2@I@Z 10186dd0 f i GuMeshFactory.obj
 0001:00185e40       ??R?$Hash@PAVConvexMesh@Gu@physx@@@shdfnd@physx@@QBEIABQAVConvexMesh@Gu@2@@Z 10186e40 f i GuMeshFactory.obj
 0001:00185e70       ??R?$Hash@PAVHeightField@Gu@physx@@@shdfnd@physx@@QBEIABQAVHeightField@Gu@2@@Z 10186e70 f i GuMeshFactory.obj
 0001:00185ea0       ??R?$Hash@PAVTriangleMesh@Gu@physx@@@shdfnd@physx@@QBEIABQAVTriangleMesh@Gu@2@@Z 10186ea0 f i GuMeshFactory.obj
 0001:00185ed0       ??RGetKey@?$HashSetBase@PAVConvexMesh@Gu@physx@@U?$Hash@PAVConvexMesh@Gu@physx@@@shdfnd@3@VNonTrackingAllocator@53@$00@internal@shdfnd@physx@@QAEABQAVConvexMesh@Gu@4@ABQAV564@@Z 10186ed0 f i GuMeshFactory.obj
 0001:00185ef0       ??RGetKey@?$HashSetBase@PAVHeightField@Gu@physx@@U?$Hash@PAVHeightField@Gu@physx@@@shdfnd@3@VNonTrackingAllocator@53@$00@internal@shdfnd@physx@@QAEABQAVHeightField@Gu@4@ABQAV564@@Z 10186ef0 f i GuMeshFactory.obj
 0001:00185f10       ??RGetKey@?$HashSetBase@PAVTriangleMesh@Gu@physx@@U?$Hash@PAVTriangleMesh@Gu@physx@@@shdfnd@3@VNonTrackingAllocator@53@$00@internal@shdfnd@physx@@QAEABQAVTriangleMesh@Gu@4@ABQAV564@@Z 10186f10 f i GuMeshFactory.obj
 0001:00185f30       ??_EGuMeshFactory@physx@@MAEPAXI@Z 10186f30 f i GuMeshFactory.obj
 0001:00186010       ??_EBV4TriangleData@Gu@physx@@UAEPAXI@Z 10187010 f i GuMeshFactory.obj
 0001:00186010       ??_GBV4TriangleData@Gu@physx@@UAEPAXI@Z 10187010 f i GuMeshFactory.obj
 0001:00186070       ??_GGuMeshFactory@physx@@MAEPAXI@Z 10187070 f i GuMeshFactory.obj
 0001:001860d0       ??_GMutexImpl@shdfnd@physx@@QAEPAXI@Z 101870d0 f i GuMeshFactory.obj
 0001:00186110       ??_GRTreeTriangleData@Gu@physx@@UAEPAXI@Z 10187110 f i GuMeshFactory.obj
 0001:00186110       ??_ERTreeTriangleData@Gu@physx@@UAEPAXI@Z 10187110 f i GuMeshFactory.obj
 0001:00186170       ??_ETriangleMeshData@Gu@physx@@UAEPAXI@Z 10187170 f i GuMeshFactory.obj
 0001:00186170       ??_GTriangleMeshData@Gu@physx@@UAEPAXI@Z 10187170 f i GuMeshFactory.obj
 0001:001861d0       ?allocate@?$Array@PAVGuMeshFactoryListener@physx@@VNamedAllocator@shdfnd@2@@shdfnd@physx@@IAEPAPAVGuMeshFactoryListener@3@I@Z 101871d0 f i GuMeshFactory.obj
 0001:00186250       ?allocate@?$ReflectionAllocator@E@shdfnd@physx@@QAEPAXIPBDH@Z 10187250 f i GuMeshFactory.obj
 0001:001862b0       ?allocate@?$ReflectionAllocator@G@shdfnd@physx@@QAEPAXIPBDH@Z 101872b0 f i GuMeshFactory.obj
 0001:00186310       ?allocate@?$ReflectionAllocator@I@shdfnd@physx@@QAEPAXIPBDH@Z 10187310 f i GuMeshFactory.obj
 0001:00186370       ?allocate@?$ReflectionAllocator@VBV32Tree@Gu@physx@@@shdfnd@physx@@QAEPAXIPBDH@Z 10187370 f i GuMeshFactory.obj
 0001:001863d0       ?allocate@?$ReflectionAllocator@VBV4TriangleData@Gu@physx@@@shdfnd@physx@@QAEPAXIPBDH@Z 101873d0 f i GuMeshFactory.obj
 0001:00186430       ?allocate@?$ReflectionAllocator@VBV4TriangleMesh@Gu@physx@@@shdfnd@physx@@QAEPAXIPBDH@Z 10187430 f i GuMeshFactory.obj
 0001:00186490       ?allocate@?$ReflectionAllocator@VConvexMesh@Gu@physx@@@shdfnd@physx@@QAEPAXIPBDH@Z 10187490 f i GuMeshFactory.obj
 0001:001864f0       ?allocate@?$ReflectionAllocator@VHeightField@Gu@physx@@@shdfnd@physx@@QAEPAXIPBDH@Z 101874f0 f i GuMeshFactory.obj
 0001:00186550       ?allocate@?$ReflectionAllocator@VMutexImpl@shdfnd@physx@@@shdfnd@physx@@QAEPAXIPBDH@Z 10187550 f i GuMeshFactory.obj
 0001:001865b0       ?allocate@?$ReflectionAllocator@VRTreeTriangleData@Gu@physx@@@shdfnd@physx@@QAEPAXIPBDH@Z 101875b0 f i GuMeshFactory.obj
 0001:00186610       ?allocate@?$ReflectionAllocator@VRTreeTriangleMesh@Gu@physx@@@shdfnd@physx@@QAEPAXIPBDH@Z 10187610 f i GuMeshFactory.obj
 0001:00186670       ?allocateAdjacencies@TriangleMeshData@Gu@physx@@QAEPAIXZ 10187670 f i GuMeshFactory.obj
 0001:00186790       ?allocateExtraTrigData@TriangleMeshData@Gu@physx@@QAEPAEXZ 10187790 f i GuMeshFactory.obj
 0001:00186890       ?allocateFaceRemap@TriangleMeshData@Gu@physx@@QAEPAIXZ 10187890 f i GuMeshFactory.obj
 0001:001869a0       ?allocateMaterials@TriangleMeshData@Gu@physx@@QAEPAGXZ 101879a0 f i GuMeshFactory.obj
 0001:00186ab0       ?allocateTriangles@TriangleMeshData@Gu@physx@@QAEPAXI_NI@Z 10187ab0 f i GuMeshFactory.obj
 0001:00186c90       ?allocateVertices@TriangleMeshData@Gu@physx@@QAEPAVPxVec3@3@I@Z 10187c90 f i GuMeshFactory.obj
 0001:00186d50       ?capacity@?$Array@PAVGuMeshFactoryListener@physx@@VNamedAllocator@shdfnd@2@@shdfnd@physx@@QBEIXZ 10187d50 f i GuMeshFactory.obj
 0001:00186d70       ?capacityIncrement@?$Array@PAVGuMeshFactoryListener@physx@@VNamedAllocator@shdfnd@2@@shdfnd@physx@@IBEIXZ 10187d70 f i GuMeshFactory.obj
 0001:00186db0       ?copy@?$Array@PAVGuMeshFactoryListener@physx@@VNamedAllocator@shdfnd@2@@shdfnd@physx@@KAXPAPAVGuMeshFactoryListener@3@0PBQAV43@@Z 10187db0 f i GuMeshFactory.obj
 0001:00186e10       ?create@?$HashBase@PAVConvexMesh@Gu@physx@@PAV123@U?$Hash@PAVConvexMesh@Gu@physx@@@shdfnd@3@UGetKey@?$HashSetBase@PAVConvexMesh@Gu@physx@@U?$Hash@PAVConvexMesh@Gu@physx@@@shdfnd@3@VNonTrackingAllocator@53@$00@internal@53@VNonTrackingAllocator@53@$00@internal@shdfnd@physx@@QAEPAPAVConvexMesh@Gu@4@ABQAV564@AA_N@Z 10187e10 f i GuMeshFactory.obj
 0001:00186fb0       ?create@?$HashBase@PAVHeightField@Gu@physx@@PAV123@U?$Hash@PAVHeightField@Gu@physx@@@shdfnd@3@UGetKey@?$HashSetBase@PAVHeightField@Gu@physx@@U?$Hash@PAVHeightField@Gu@physx@@@shdfnd@3@VNonTrackingAllocator@53@$00@internal@53@VNonTrackingAllocator@53@$00@internal@shdfnd@physx@@QAEPAPAVHeightField@Gu@4@ABQAV564@AA_N@Z 10187fb0 f i GuMeshFactory.obj
 0001:00187150       ?create@?$HashBase@PAVTriangleMesh@Gu@physx@@PAV123@U?$Hash@PAVTriangleMesh@Gu@physx@@@shdfnd@3@UGetKey@?$HashSetBase@PAVTriangleMesh@Gu@physx@@U?$Hash@PAVTriangleMesh@Gu@physx@@@shdfnd@3@VNonTrackingAllocator@53@$00@internal@53@VNonTrackingAllocator@53@$00@internal@shdfnd@physx@@QAEPAPAVTriangleMesh@Gu@4@ABQAV564@AA_N@Z 10188150 f i GuMeshFactory.obj
 0001:001872f0       ?deallocate@?$Array@PAVGuMeshFactoryListener@physx@@VNamedAllocator@shdfnd@2@@shdfnd@physx@@IAEXPAX@Z 101882f0 f i GuMeshFactory.obj
 0001:00187310       ?deallocate@?$ReflectionAllocator@VMutexImpl@shdfnd@physx@@@shdfnd@physx@@QAEXPAX@Z 10188310 f i GuMeshFactory.obj
 0001:00187350       ?destroy@?$Array@PAVGuMeshFactoryListener@physx@@VNamedAllocator@shdfnd@2@@shdfnd@physx@@KAXPAPAVGuMeshFactoryListener@3@0@Z 10188350 f i GuMeshFactory.obj
 0001:00187370       ?destroy@?$HashBase@PAVConvexMesh@Gu@physx@@PAV123@U?$Hash@PAVConvexMesh@Gu@physx@@@shdfnd@3@UGetKey@?$HashSetBase@PAVConvexMesh@Gu@physx@@U?$Hash@PAVConvexMesh@Gu@physx@@@shdfnd@3@VNonTrackingAllocator@53@$00@internal@53@VNonTrackingAllocator@53@$00@internal@shdfnd@physx@@AAEXXZ 10188370 f i GuMeshFactory.obj
 0001:001873e0       ?destroy@?$HashBase@PAVHeightField@Gu@physx@@PAV123@U?$Hash@PAVHeightField@Gu@physx@@@shdfnd@3@UGetKey@?$HashSetBase@PAVHeightField@Gu@physx@@U?$Hash@PAVHeightField@Gu@physx@@@shdfnd@3@VNonTrackingAllocator@53@$00@internal@53@VNonTrackingAllocator@53@$00@internal@shdfnd@physx@@AAEXXZ 101883e0 f i GuMeshFactory.obj
 0001:00187450       ?destroy@?$HashBase@PAVTriangleMesh@Gu@physx@@PAV123@U?$Hash@PAVTriangleMesh@Gu@physx@@@shdfnd@3@UGetKey@?$HashSetBase@PAVTriangleMesh@Gu@physx@@U?$Hash@PAVTriangleMesh@Gu@physx@@@shdfnd@3@VNonTrackingAllocator@53@$00@internal@53@VNonTrackingAllocator@53@$00@internal@shdfnd@physx@@AAEXXZ 10188450 f i GuMeshFactory.obj
 0001:001874c0       ?equal@?$Hash@PAVConvexMesh@Gu@physx@@@shdfnd@physx@@QBE_NABQAVConvexMesh@Gu@3@0@Z 101884c0 f i GuMeshFactory.obj
 0001:00187500       ?equal@?$Hash@PAVHeightField@Gu@physx@@@shdfnd@physx@@QBE_NABQAVHeightField@Gu@3@0@Z 10188500 f i GuMeshFactory.obj
 0001:00187540       ?equal@?$Hash@PAVTriangleMesh@Gu@physx@@@shdfnd@physx@@QBE_NABQAVTriangleMesh@Gu@3@0@Z 10188540 f i GuMeshFactory.obj
 0001:00187580       ?erase@?$HashBase@PAVConvexMesh@Gu@physx@@PAV123@U?$Hash@PAVConvexMesh@Gu@physx@@@shdfnd@3@UGetKey@?$HashSetBase@PAVConvexMesh@Gu@physx@@U?$Hash@PAVConvexMesh@Gu@physx@@@shdfnd@3@VNonTrackingAllocator@53@$00@internal@53@VNonTrackingAllocator@53@$00@internal@shdfnd@physx@@QAE_NABQAVConvexMesh@Gu@4@@Z 10188580 f i GuMeshFactory.obj
 0001:00187640       ?erase@?$HashBase@PAVHeightField@Gu@physx@@PAV123@U?$Hash@PAVHeightField@Gu@physx@@@shdfnd@3@UGetKey@?$HashSetBase@PAVHeightField@Gu@physx@@U?$Hash@PAVHeightField@Gu@physx@@@shdfnd@3@VNonTrackingAllocator@53@$00@internal@53@VNonTrackingAllocator@53@$00@internal@shdfnd@physx@@QAE_NABQAVHeightField@Gu@4@@Z 10188640 f i GuMeshFactory.obj
 0001:00187700       ?erase@?$HashBase@PAVTriangleMesh@Gu@physx@@PAV123@U?$Hash@PAVTriangleMesh@Gu@physx@@@shdfnd@3@UGetKey@?$HashSetBase@PAVTriangleMesh@Gu@physx@@U?$Hash@PAVTriangleMesh@Gu@physx@@@shdfnd@3@VNonTrackingAllocator@53@$00@internal@53@VNonTrackingAllocator@53@$00@internal@shdfnd@physx@@QAE_NABQAVTriangleMesh@Gu@4@@Z 10188700 f i GuMeshFactory.obj
 0001:001877c0       ?erase@?$HashSetBase@PAVConvexMesh@Gu@physx@@U?$Hash@PAVConvexMesh@Gu@physx@@@shdfnd@3@VNonTrackingAllocator@53@$00@internal@shdfnd@physx@@QAE_NABQAVConvexMesh@Gu@4@@Z 101887c0 f i GuMeshFactory.obj
 0001:001877e0       ?erase@?$HashSetBase@PAVHeightField@Gu@physx@@U?$Hash@PAVHeightField@Gu@physx@@@shdfnd@3@VNonTrackingAllocator@53@$00@internal@shdfnd@physx@@QAE_NABQAVHeightField@Gu@4@@Z 101887e0 f i GuMeshFactory.obj
 0001:00187800       ?erase@?$HashSetBase@PAVTriangleMesh@Gu@physx@@U?$Hash@PAVTriangleMesh@Gu@physx@@@shdfnd@3@VNonTrackingAllocator@53@$00@internal@shdfnd@physx@@QAE_NABQAVTriangleMesh@Gu@4@@Z 10188800 f i GuMeshFactory.obj
 0001:00187820       ?eraseInternal@?$HashBase@PAVConvexMesh@Gu@physx@@PAV123@U?$Hash@PAVConvexMesh@Gu@physx@@@shdfnd@3@UGetKey@?$HashSetBase@PAVConvexMesh@Gu@physx@@U?$Hash@PAVConvexMesh@Gu@physx@@@shdfnd@3@VNonTrackingAllocator@53@$00@internal@53@VNonTrackingAllocator@53@$00@internal@shdfnd@physx@@AAE_NPAI@Z 10188820 f i GuMeshFactory.obj
 0001:001878c0       ?eraseInternal@?$HashBase@PAVHeightField@Gu@physx@@PAV123@U?$Hash@PAVHeightField@Gu@physx@@@shdfnd@3@UGetKey@?$HashSetBase@PAVHeightField@Gu@physx@@U?$Hash@PAVHeightField@Gu@physx@@@shdfnd@3@VNonTrackingAllocator@53@$00@internal@53@VNonTrackingAllocator@53@$00@internal@shdfnd@physx@@AAE_NPAI@Z 101888c0 f i GuMeshFactory.obj
 0001:00187960       ?eraseInternal@?$HashBase@PAVTriangleMesh@Gu@physx@@PAV123@U?$Hash@PAVTriangleMesh@Gu@physx@@@shdfnd@3@UGetKey@?$HashSetBase@PAVTriangleMesh@Gu@physx@@U?$Hash@PAVTriangleMesh@Gu@physx@@@shdfnd@3@VNonTrackingAllocator@53@$00@internal@53@VNonTrackingAllocator@53@$00@internal@shdfnd@physx@@AAE_NPAI@Z 10188960 f i GuMeshFactory.obj
 0001:00187a00       ?freeListAdd@?$HashBase@PAVConvexMesh@Gu@physx@@PAV123@U?$Hash@PAVConvexMesh@Gu@physx@@@shdfnd@3@UGetKey@?$HashSetBase@PAVConvexMesh@Gu@physx@@U?$Hash@PAVConvexMesh@Gu@physx@@@shdfnd@3@VNonTrackingAllocator@53@$00@internal@53@VNonTrackingAllocator@53@$00@internal@shdfnd@physx@@AAEXI@Z 10188a00 f i GuMeshFactory.obj
 0001:00187ab0       ?freeListAdd@?$HashBase@PAVConvexMesh@Gu@physx@@PAV123@U?$Hash@PAVConvexMesh@Gu@physx@@@shdfnd@3@UGetKey@?$HashSetBase@PAVConvexMesh@Gu@physx@@U?$Hash@PAVConvexMesh@Gu@physx@@@shdfnd@3@VNonTrackingAllocator@53@$00@internal@53@VNonTrackingAllocator@53@$00@internal@shdfnd@physx@@AAEXII@Z 10188ab0 f i GuMeshFactory.obj
 0001:00187ba0       ?freeListAdd@?$HashBase@PAVHeightField@Gu@physx@@PAV123@U?$Hash@PAVHeightField@Gu@physx@@@shdfnd@3@UGetKey@?$HashSetBase@PAVHeightField@Gu@physx@@U?$Hash@PAVHeightField@Gu@physx@@@shdfnd@3@VNonTrackingAllocator@53@$00@internal@53@VNonTrackingAllocator@53@$00@internal@shdfnd@physx@@AAEXI@Z 10188ba0 f i GuMeshFactory.obj
 0001:00187c50       ?freeListAdd@?$HashBase@PAVHeightField@Gu@physx@@PAV123@U?$Hash@PAVHeightField@Gu@physx@@@shdfnd@3@UGetKey@?$HashSetBase@PAVHeightField@Gu@physx@@U?$Hash@PAVHeightField@Gu@physx@@@shdfnd@3@VNonTrackingAllocator@53@$00@internal@53@VNonTrackingAllocator@53@$00@internal@shdfnd@physx@@AAEXII@Z 10188c50 f i GuMeshFactory.obj
 0001:00187d40       ?freeListAdd@?$HashBase@PAVTriangleMesh@Gu@physx@@PAV123@U?$Hash@PAVTriangleMesh@Gu@physx@@@shdfnd@3@UGetKey@?$HashSetBase@PAVTriangleMesh@Gu@physx@@U?$Hash@PAVTriangleMesh@Gu@physx@@@shdfnd@3@VNonTrackingAllocator@53@$00@internal@53@VNonTrackingAllocator@53@$00@internal@shdfnd@physx@@AAEXI@Z 10188d40 f i GuMeshFactory.obj
 0001:00187df0       ?freeListAdd@?$HashBase@PAVTriangleMesh@Gu@physx@@PAV123@U?$Hash@PAVTriangleMesh@Gu@physx@@@shdfnd@3@UGetKey@?$HashSetBase@PAVTriangleMesh@Gu@physx@@U?$Hash@PAVTriangleMesh@Gu@physx@@@shdfnd@3@VNonTrackingAllocator@53@$00@internal@53@VNonTrackingAllocator@53@$00@internal@shdfnd@physx@@AAEXII@Z 10188df0 f i GuMeshFactory.obj
 0001:00187ee0       ?freeListEmpty@?$HashBase@PAVConvexMesh@Gu@physx@@PAV123@U?$Hash@PAVConvexMesh@Gu@physx@@@shdfnd@3@UGetKey@?$HashSetBase@PAVConvexMesh@Gu@physx@@U?$Hash@PAVConvexMesh@Gu@physx@@@shdfnd@3@VNonTrackingAllocator@53@$00@internal@53@VNonTrackingAllocator@53@$00@internal@shdfnd@physx@@ABE_NXZ 10188ee0 f i GuMeshFactory.obj
 0001:00187f50       ?freeListEmpty@?$HashBase@PAVHeightField@Gu@physx@@PAV123@U?$Hash@PAVHeightField@Gu@physx@@@shdfnd@3@UGetKey@?$HashSetBase@PAVHeightField@Gu@physx@@U?$Hash@PAVHeightField@Gu@physx@@@shdfnd@3@VNonTrackingAllocator@53@$00@internal@53@VNonTrackingAllocator@53@$00@internal@shdfnd@physx@@ABE_NXZ 10188f50 f i GuMeshFactory.obj
 0001:00187fc0       ?freeListEmpty@?$HashBase@PAVTriangleMesh@Gu@physx@@PAV123@U?$Hash@PAVTriangleMesh@Gu@physx@@@shdfnd@3@UGetKey@?$HashSetBase@PAVTriangleMesh@Gu@physx@@U?$Hash@PAVTriangleMesh@Gu@physx@@@shdfnd@3@VNonTrackingAllocator@53@$00@internal@53@VNonTrackingAllocator@53@$00@internal@shdfnd@physx@@ABE_NXZ 10188fc0 f i GuMeshFactory.obj
 0001:00188030       ?freeListGetNext@?$HashBase@PAVConvexMesh@Gu@physx@@PAV123@U?$Hash@PAVConvexMesh@Gu@physx@@@shdfnd@3@UGetKey@?$HashSetBase@PAVConvexMesh@Gu@physx@@U?$Hash@PAVConvexMesh@Gu@physx@@@shdfnd@3@VNonTrackingAllocator@53@$00@internal@53@VNonTrackingAllocator@53@$00@internal@shdfnd@physx@@AAEIXZ 10189030 f i GuMeshFactory.obj
 0001:00188150       ?freeListGetNext@?$HashBase@PAVHeightField@Gu@physx@@PAV123@U?$Hash@PAVHeightField@Gu@physx@@@shdfnd@3@UGetKey@?$HashSetBase@PAVHeightField@Gu@physx@@U?$Hash@PAVHeightField@Gu@physx@@@shdfnd@3@VNonTrackingAllocator@53@$00@internal@53@VNonTrackingAllocator@53@$00@internal@shdfnd@physx@@AAEIXZ 10189150 f i GuMeshFactory.obj
 0001:00188270       ?freeListGetNext@?$HashBase@PAVTriangleMesh@Gu@physx@@PAV123@U?$Hash@PAVTriangleMesh@Gu@physx@@@shdfnd@3@UGetKey@?$HashSetBase@PAVTriangleMesh@Gu@physx@@U?$Hash@PAVTriangleMesh@Gu@physx@@@shdfnd@3@VNonTrackingAllocator@53@$00@internal@53@VNonTrackingAllocator@53@$00@internal@shdfnd@physx@@AAEIXZ 10189270 f i GuMeshFactory.obj
 0001:00188390       ?getEntries@?$CoalescedHashSet@PAVConvexMesh@Gu@physx@@U?$Hash@PAVConvexMesh@Gu@physx@@@shdfnd@3@VNonTrackingAllocator@53@@shdfnd@physx@@QBEPBQAVConvexMesh@Gu@3@XZ 10189390 f i GuMeshFactory.obj
 0001:001883b0       ?getEntries@?$CoalescedHashSet@PAVHeightField@Gu@physx@@U?$Hash@PAVHeightField@Gu@physx@@@shdfnd@3@VNonTrackingAllocator@53@@shdfnd@physx@@QBEPBQAVHeightField@Gu@3@XZ 101893b0 f i GuMeshFactory.obj
 0001:001883d0       ?getEntries@?$CoalescedHashSet@PAVTriangleMesh@Gu@physx@@U?$Hash@PAVTriangleMesh@Gu@physx@@@shdfnd@3@VNonTrackingAllocator@53@@shdfnd@physx@@QBEPBQAVTriangleMesh@Gu@3@XZ 101893d0 f i GuMeshFactory.obj
 0001:001883f0       ?getEntries@?$HashBase@PAVConvexMesh@Gu@physx@@PAV123@U?$Hash@PAVConvexMesh@Gu@physx@@@shdfnd@3@UGetKey@?$HashSetBase@PAVConvexMesh@Gu@physx@@U?$Hash@PAVConvexMesh@Gu@physx@@@shdfnd@3@VNonTrackingAllocator@53@$00@internal@53@VNonTrackingAllocator@53@$00@internal@shdfnd@physx@@QBEPBQAVConvexMesh@Gu@4@XZ 101893f0 f i GuMeshFactory.obj
 0001:00188410       ?getEntries@?$HashBase@PAVHeightField@Gu@physx@@PAV123@U?$Hash@PAVHeightField@Gu@physx@@@shdfnd@3@UGetKey@?$HashSetBase@PAVHeightField@Gu@physx@@U?$Hash@PAVHeightField@Gu@physx@@@shdfnd@3@VNonTrackingAllocator@53@$00@internal@53@VNonTrackingAllocator@53@$00@internal@shdfnd@physx@@QBEPBQAVHeightField@Gu@4@XZ 10189410 f i GuMeshFactory.obj
 0001:00188430       ?getEntries@?$HashBase@PAVTriangleMesh@Gu@physx@@PAV123@U?$Hash@PAVTriangleMesh@Gu@physx@@@shdfnd@3@UGetKey@?$HashSetBase@PAVTriangleMesh@Gu@physx@@U?$Hash@PAVTriangleMesh@Gu@physx@@@shdfnd@3@VNonTrackingAllocator@53@$00@internal@53@VNonTrackingAllocator@53@$00@internal@shdfnd@physx@@QBEPBQAVTriangleMesh@Gu@4@XZ 10189430 f i GuMeshFactory.obj
 0001:00188450       ?getName@?$ReflectionAllocator@E@shdfnd@physx@@CAPBDXZ 10189450 f i GuMeshFactory.obj
 0001:001884a0       ?getName@?$ReflectionAllocator@G@shdfnd@physx@@CAPBDXZ 101894a0 f i GuMeshFactory.obj
 0001:001884f0       ?getName@?$ReflectionAllocator@I@shdfnd@physx@@CAPBDXZ 101894f0 f i GuMeshFactory.obj
 0001:00188540       ?getName@?$ReflectionAllocator@VBV32Tree@Gu@physx@@@shdfnd@physx@@CAPBDXZ 10189540 f i GuMeshFactory.obj
 0001:00188590       ?getName@?$ReflectionAllocator@VBV4TriangleData@Gu@physx@@@shdfnd@physx@@CAPBDXZ 10189590 f i GuMeshFactory.obj
 0001:001885e0       ?getName@?$ReflectionAllocator@VBV4TriangleMesh@Gu@physx@@@shdfnd@physx@@CAPBDXZ 101895e0 f i GuMeshFactory.obj
 0001:00188630       ?getName@?$ReflectionAllocator@VConvexMesh@Gu@physx@@@shdfnd@physx@@CAPBDXZ 10189630 f i GuMeshFactory.obj
 0001:00188680       ?getName@?$ReflectionAllocator@VHeightField@Gu@physx@@@shdfnd@physx@@CAPBDXZ 10189680 f i GuMeshFactory.obj
 0001:001886d0       ?getName@?$ReflectionAllocator@VMutexImpl@shdfnd@physx@@@shdfnd@physx@@CAPBDXZ 101896d0 f i GuMeshFactory.obj
 0001:00188720       ?getName@?$ReflectionAllocator@VRTreeTriangleData@Gu@physx@@@shdfnd@physx@@CAPBDXZ 10189720 f i GuMeshFactory.obj
 0001:00188770       ?getName@?$ReflectionAllocator@VRTreeTriangleMesh@Gu@physx@@@shdfnd@physx@@CAPBDXZ 10189770 f i GuMeshFactory.obj
 0001:001887c0       ?grow@?$HashBase@PAVConvexMesh@Gu@physx@@PAV123@U?$Hash@PAVConvexMesh@Gu@physx@@@shdfnd@3@UGetKey@?$HashSetBase@PAVConvexMesh@Gu@physx@@U?$Hash@PAVConvexMesh@Gu@physx@@@shdfnd@3@VNonTrackingAllocator@53@$00@internal@53@VNonTrackingAllocator@53@$00@internal@shdfnd@physx@@AAEXXZ 101897c0 f i GuMeshFactory.obj
 0001:00188880       ?grow@?$HashBase@PAVHeightField@Gu@physx@@PAV123@U?$Hash@PAVHeightField@Gu@physx@@@shdfnd@3@UGetKey@?$HashSetBase@PAVHeightField@Gu@physx@@U?$Hash@PAVHeightField@Gu@physx@@@shdfnd@3@VNonTrackingAllocator@53@$00@internal@53@VNonTrackingAllocator@53@$00@internal@shdfnd@physx@@AAEXXZ 10189880 f i GuMeshFactory.obj
 0001:00188940       ?grow@?$HashBase@PAVTriangleMesh@Gu@physx@@PAV123@U?$Hash@PAVTriangleMesh@Gu@physx@@@shdfnd@3@UGetKey@?$HashSetBase@PAVTriangleMesh@Gu@physx@@U?$Hash@PAVTriangleMesh@Gu@physx@@@shdfnd@3@VNonTrackingAllocator@53@$00@internal@53@VNonTrackingAllocator@53@$00@internal@shdfnd@physx@@AAEXXZ 10189940 f i GuMeshFactory.obj
 0001:00188a00       ?growAndPushBack@?$Array@PAVGuMeshFactoryListener@physx@@VNamedAllocator@shdfnd@2@@shdfnd@physx@@IAEAAPAVGuMeshFactoryListener@3@ABQAV43@@Z 10189a00 f i GuMeshFactory.obj
 0001:00188b70       ?has16BitIndices@TriangleMeshData@Gu@physx@@QBE_NXZ 10189b70 f i GuMeshFactory.obj
 0001:00188ba0       ?hash@?$HashBase@PAVConvexMesh@Gu@physx@@PAV123@U?$Hash@PAVConvexMesh@Gu@physx@@@shdfnd@3@UGetKey@?$HashSetBase@PAVConvexMesh@Gu@physx@@U?$Hash@PAVConvexMesh@Gu@physx@@@shdfnd@3@VNonTrackingAllocator@53@$00@internal@53@VNonTrackingAllocator@53@$00@internal@shdfnd@physx@@ABEIABQAVConvexMesh@Gu@4@@Z 10189ba0 f i GuMeshFactory.obj
 0001:00188bd0       ?hash@?$HashBase@PAVConvexMesh@Gu@physx@@PAV123@U?$Hash@PAVConvexMesh@Gu@physx@@@shdfnd@3@UGetKey@?$HashSetBase@PAVConvexMesh@Gu@physx@@U?$Hash@PAVConvexMesh@Gu@physx@@@shdfnd@3@VNonTrackingAllocator@53@$00@internal@53@VNonTrackingAllocator@53@$00@internal@shdfnd@physx@@ABEIABQAVConvexMesh@Gu@4@I@Z 10189bd0 f i GuMeshFactory.obj
 0001:00188c00       ?hash@?$HashBase@PAVHeightField@Gu@physx@@PAV123@U?$Hash@PAVHeightField@Gu@physx@@@shdfnd@3@UGetKey@?$HashSetBase@PAVHeightField@Gu@physx@@U?$Hash@PAVHeightField@Gu@physx@@@shdfnd@3@VNonTrackingAllocator@53@$00@internal@53@VNonTrackingAllocator@53@$00@internal@shdfnd@physx@@ABEIABQAVHeightField@Gu@4@@Z 10189c00 f i GuMeshFactory.obj
 0001:00188c30       ?hash@?$HashBase@PAVHeightField@Gu@physx@@PAV123@U?$Hash@PAVHeightField@Gu@physx@@@shdfnd@3@UGetKey@?$HashSetBase@PAVHeightField@Gu@physx@@U?$Hash@PAVHeightField@Gu@physx@@@shdfnd@3@VNonTrackingAllocator@53@$00@internal@53@VNonTrackingAllocator@53@$00@internal@shdfnd@physx@@ABEIABQAVHeightField@Gu@4@I@Z 10189c30 f i GuMeshFactory.obj
 0001:00188c60       ?hash@?$HashBase@PAVTriangleMesh@Gu@physx@@PAV123@U?$Hash@PAVTriangleMesh@Gu@physx@@@shdfnd@3@UGetKey@?$HashSetBase@PAVTriangleMesh@Gu@physx@@U?$Hash@PAVTriangleMesh@Gu@physx@@@shdfnd@3@VNonTrackingAllocator@53@$00@internal@53@VNonTrackingAllocator@53@$00@internal@shdfnd@physx@@ABEIABQAVTriangleMesh@Gu@4@@Z 10189c60 f i GuMeshFactory.obj
 0001:00188c90       ?hash@?$HashBase@PAVTriangleMesh@Gu@physx@@PAV123@U?$Hash@PAVTriangleMesh@Gu@physx@@@shdfnd@3@UGetKey@?$HashSetBase@PAVTriangleMesh@Gu@physx@@U?$Hash@PAVTriangleMesh@Gu@physx@@@shdfnd@3@VNonTrackingAllocator@53@$00@internal@53@VNonTrackingAllocator@53@$00@internal@shdfnd@physx@@ABEIABQAVTriangleMesh@Gu@4@I@Z 10189c90 f i GuMeshFactory.obj
 0001:00188cc0       ?init@?$HashBase@PAVConvexMesh@Gu@physx@@PAV123@U?$Hash@PAVConvexMesh@Gu@physx@@@shdfnd@3@UGetKey@?$HashSetBase@PAVConvexMesh@Gu@physx@@U?$Hash@PAVConvexMesh@Gu@physx@@@shdfnd@3@VNonTrackingAllocator@53@$00@internal@53@VNonTrackingAllocator@53@$00@internal@shdfnd@physx@@AAEXIM@Z 10189cc0 f i GuMeshFactory.obj
 0001:00188d70       ?init@?$HashBase@PAVHeightField@Gu@physx@@PAV123@U?$Hash@PAVHeightField@Gu@physx@@@shdfnd@3@UGetKey@?$HashSetBase@PAVHeightField@Gu@physx@@U?$Hash@PAVHeightField@Gu@physx@@@shdfnd@3@VNonTrackingAllocator@53@$00@internal@53@VNonTrackingAllocator@53@$00@internal@shdfnd@physx@@AAEXIM@Z 10189d70 f i GuMeshFactory.obj
 0001:00188e20       ?init@?$HashBase@PAVTriangleMesh@Gu@physx@@PAV123@U?$Hash@PAVTriangleMesh@Gu@physx@@@shdfnd@3@UGetKey@?$HashSetBase@PAVTriangleMesh@Gu@physx@@U?$Hash@PAVTriangleMesh@Gu@physx@@@shdfnd@3@VNonTrackingAllocator@53@$00@internal@53@VNonTrackingAllocator@53@$00@internal@shdfnd@physx@@AAEXIM@Z 10189e20 f i GuMeshFactory.obj
 0001:00188ed0       ?insert@?$HashSetBase@PAVConvexMesh@Gu@physx@@U?$Hash@PAVConvexMesh@Gu@physx@@@shdfnd@3@VNonTrackingAllocator@53@$00@internal@shdfnd@physx@@QAE_NABQAVConvexMesh@Gu@4@@Z 10189ed0 f i GuMeshFactory.obj
 0001:00188f50       ?insert@?$HashSetBase@PAVHeightField@Gu@physx@@U?$Hash@PAVHeightField@Gu@physx@@@shdfnd@3@VNonTrackingAllocator@53@$00@internal@shdfnd@physx@@QAE_NABQAVHeightField@Gu@4@@Z 10189f50 f i GuMeshFactory.obj
 0001:00188fd0       ?insert@?$HashSetBase@PAVTriangleMesh@Gu@physx@@U?$Hash@PAVTriangleMesh@Gu@physx@@@shdfnd@3@VNonTrackingAllocator@53@$00@internal@shdfnd@physx@@QAE_NABQAVTriangleMesh@Gu@4@@Z 10189fd0 f i GuMeshFactory.obj
 0001:00189050       ?isInUserMemory@?$Array@PAVGuMeshFactoryListener@physx@@VNamedAllocator@shdfnd@2@@shdfnd@physx@@QBEIXZ 1018a050 f i GuMeshFactory.obj
 0001:00189070       ?lock@?$MutexT@V?$ReflectionAllocator@VMutexImpl@shdfnd@physx@@@shdfnd@physx@@@shdfnd@physx@@QBEXXZ 1018a070 f i GuMeshFactory.obj
 0001:00189090       ?pushBack@?$Array@PAVGuMeshFactoryListener@physx@@VNamedAllocator@shdfnd@2@@shdfnd@physx@@QAEAAPAVGuMeshFactoryListener@3@ABQAV43@@Z 1018a090 f i GuMeshFactory.obj
 0001:00189130       ?replaceWithLast@?$Array@PAVGuMeshFactoryListener@physx@@VNamedAllocator@shdfnd@2@@shdfnd@physx@@QAEXI@Z 1018a130 f i GuMeshFactory.obj
 0001:001891d0       ?replaceWithLast@?$HashBase@PAVConvexMesh@Gu@physx@@PAV123@U?$Hash@PAVConvexMesh@Gu@physx@@@shdfnd@3@UGetKey@?$HashSetBase@PAVConvexMesh@Gu@physx@@U?$Hash@PAVConvexMesh@Gu@physx@@@shdfnd@3@VNonTrackingAllocator@53@$00@internal@53@VNonTrackingAllocator@53@$00@internal@shdfnd@physx@@AAEXI@Z 1018a1d0 f i GuMeshFactory.obj
 0001:00189300       ?replaceWithLast@?$HashBase@PAVHeightField@Gu@physx@@PAV123@U?$Hash@PAVHeightField@Gu@physx@@@shdfnd@3@UGetKey@?$HashSetBase@PAVHeightField@Gu@physx@@U?$Hash@PAVHeightField@Gu@physx@@@shdfnd@3@VNonTrackingAllocator@53@$00@internal@53@VNonTrackingAllocator@53@$00@internal@shdfnd@physx@@AAEXI@Z 1018a300 f i GuMeshFactory.obj
 0001:00189430       ?replaceWithLast@?$HashBase@PAVTriangleMesh@Gu@physx@@PAV123@U?$Hash@PAVTriangleMesh@Gu@physx@@@shdfnd@3@UGetKey@?$HashSetBase@PAVTriangleMesh@Gu@physx@@U?$Hash@PAVTriangleMesh@Gu@physx@@@shdfnd@3@VNonTrackingAllocator@53@$00@internal@53@VNonTrackingAllocator@53@$00@internal@shdfnd@physx@@AAEXI@Z 1018a430 f i GuMeshFactory.obj
 0001:00189560       ?reserve@?$HashBase@PAVConvexMesh@Gu@physx@@PAV123@U?$Hash@PAVConvexMesh@Gu@physx@@@shdfnd@3@UGetKey@?$HashSetBase@PAVConvexMesh@Gu@physx@@U?$Hash@PAVConvexMesh@Gu@physx@@@shdfnd@3@VNonTrackingAllocator@53@$00@internal@53@VNonTrackingAllocator@53@$00@internal@shdfnd@physx@@QAEXI@Z 1018a560 f i GuMeshFactory.obj
 0001:00189590       ?reserve@?$HashBase@PAVHeightField@Gu@physx@@PAV123@U?$Hash@PAVHeightField@Gu@physx@@@shdfnd@3@UGetKey@?$HashSetBase@PAVHeightField@Gu@physx@@U?$Hash@PAVHeightField@Gu@physx@@@shdfnd@3@VNonTrackingAllocator@53@$00@internal@53@VNonTrackingAllocator@53@$00@internal@shdfnd@physx@@QAEXI@Z 1018a590 f i GuMeshFactory.obj
 0001:001895c0       ?reserve@?$HashBase@PAVTriangleMesh@Gu@physx@@PAV123@U?$Hash@PAVTriangleMesh@Gu@physx@@@shdfnd@3@UGetKey@?$HashSetBase@PAVTriangleMesh@Gu@physx@@U?$Hash@PAVTriangleMesh@Gu@physx@@@shdfnd@3@VNonTrackingAllocator@53@$00@internal@53@VNonTrackingAllocator@53@$00@internal@shdfnd@physx@@QAEXI@Z 1018a5c0 f i GuMeshFactory.obj
 0001:001895f0       ?reserveInternal@?$HashBase@PAVConvexMesh@Gu@physx@@PAV123@U?$Hash@PAVConvexMesh@Gu@physx@@@shdfnd@3@UGetKey@?$HashSetBase@PAVConvexMesh@Gu@physx@@U?$Hash@PAVConvexMesh@Gu@physx@@@shdfnd@3@VNonTrackingAllocator@53@$00@internal@53@VNonTrackingAllocator@53@$00@internal@shdfnd@physx@@AAEXI@Z 1018a5f0 f i GuMeshFactory.obj
 0001:00189a60       ?reserveInternal@?$HashBase@PAVHeightField@Gu@physx@@PAV123@U?$Hash@PAVHeightField@Gu@physx@@@shdfnd@3@UGetKey@?$HashSetBase@PAVHeightField@Gu@physx@@U?$Hash@PAVHeightField@Gu@physx@@@shdfnd@3@VNonTrackingAllocator@53@$00@internal@53@VNonTrackingAllocator@53@$00@internal@shdfnd@physx@@AAEXI@Z 1018aa60 f i GuMeshFactory.obj
 0001:00189ed0       ?reserveInternal@?$HashBase@PAVTriangleMesh@Gu@physx@@PAV123@U?$Hash@PAVTriangleMesh@Gu@physx@@@shdfnd@3@UGetKey@?$HashSetBase@PAVTriangleMesh@Gu@physx@@U?$Hash@PAVTriangleMesh@Gu@physx@@@shdfnd@3@VNonTrackingAllocator@53@$00@internal@53@VNonTrackingAllocator@53@$00@internal@shdfnd@physx@@AAEXI@Z 1018aed0 f i GuMeshFactory.obj
 0001:0018a340       ?setMeshFactory@ConvexMesh@Gu@physx@@QAEXPAVGuMeshFactory@3@@Z 1018b340 f i GuMeshFactory.obj
 0001:0018a360       ?setNbTriangles@SourceMesh@Gu@physx@@QAEXI@Z 1018b360 f i GuMeshFactory.obj
 0001:0018a380       ?setNbVertices@SourceMesh@Gu@physx@@QAEXI@Z 1018b380 f i GuMeshFactory.obj
 0001:0018a3a0       ?size@?$Array@PAVGuMeshFactoryListener@physx@@VNamedAllocator@shdfnd@2@@shdfnd@physx@@QBEIXZ 1018b3a0 f i GuMeshFactory.obj
 0001:0018a3c0       ?size@?$HashBase@PAVConvexMesh@Gu@physx@@PAV123@U?$Hash@PAVConvexMesh@Gu@physx@@@shdfnd@3@UGetKey@?$HashSetBase@PAVConvexMesh@Gu@physx@@U?$Hash@PAVConvexMesh@Gu@physx@@@shdfnd@3@VNonTrackingAllocator@53@$00@internal@53@VNonTrackingAllocator@53@$00@internal@shdfnd@physx@@QBEIXZ 1018b3c0 f i GuMeshFactory.obj
 0001:0018a3e0       ?size@?$HashBase@PAVHeightField@Gu@physx@@PAV123@U?$Hash@PAVHeightField@Gu@physx@@@shdfnd@3@UGetKey@?$HashSetBase@PAVHeightField@Gu@physx@@U?$Hash@PAVHeightField@Gu@physx@@@shdfnd@3@VNonTrackingAllocator@53@$00@internal@53@VNonTrackingAllocator@53@$00@internal@shdfnd@physx@@QBEIXZ 1018b3e0 f i GuMeshFactory.obj
 0001:0018a400       ?size@?$HashBase@PAVTriangleMesh@Gu@physx@@PAV123@U?$Hash@PAVTriangleMesh@Gu@physx@@@shdfnd@3@UGetKey@?$HashSetBase@PAVTriangleMesh@Gu@physx@@U?$Hash@PAVTriangleMesh@Gu@physx@@@shdfnd@3@VNonTrackingAllocator@53@$00@internal@53@VNonTrackingAllocator@53@$00@internal@shdfnd@physx@@QBEIXZ 1018b400 f i GuMeshFactory.obj
 0001:0018a420       ?size@?$HashSetBase@PAVConvexMesh@Gu@physx@@U?$Hash@PAVConvexMesh@Gu@physx@@@shdfnd@3@VNonTrackingAllocator@53@$00@internal@shdfnd@physx@@QBEIXZ 1018b420 f i GuMeshFactory.obj
 0001:0018a440       ?size@?$HashSetBase@PAVHeightField@Gu@physx@@U?$Hash@PAVHeightField@Gu@physx@@@shdfnd@3@VNonTrackingAllocator@53@$00@internal@shdfnd@physx@@QBEIXZ 1018b440 f i GuMeshFactory.obj
 0001:0018a460       ?size@?$HashSetBase@PAVTriangleMesh@Gu@physx@@U?$Hash@PAVTriangleMesh@Gu@physx@@@shdfnd@3@VNonTrackingAllocator@53@$00@internal@shdfnd@physx@@QBEIXZ 1018b460 f i GuMeshFactory.obj
 0001:0018a480       ?unlock@?$MutexT@V?$ReflectionAllocator@VMutexImpl@shdfnd@physx@@@shdfnd@physx@@@shdfnd@physx@@QBEXXZ 1018b480 f i GuMeshFactory.obj
 0001:0018a4a0       ?getBinaryMetaData@HeightField@Gu@physx@@SAXAAVPxOutputStream@3@@Z 1018b4a0 f   GuMetaData.obj
 0001:0018a970       ?getBinaryMetaData@BigConvexData@physx@@SAXAAVPxOutputStream@2@@Z 1018b970 f   GuMetaData.obj
 0001:0018acf0       ?getBinaryMetaData@ConvexMesh@Gu@physx@@SAXAAVPxOutputStream@3@@Z 1018bcf0 f   GuMetaData.obj
 0001:0018b4a0       ?getBinaryMetaData@RTree@Gu@physx@@SAXAAVPxOutputStream@3@@Z 1018c4a0 f   GuMetaData.obj
 0001:0018b970       ?getBinaryMetaData@SourceMesh@Gu@physx@@SAXAAVPxOutputStream@3@@Z 1018c970 f   GuMetaData.obj
 0001:0018bbe0       ?getBinaryMetaData@BV4Tree@Gu@physx@@SAXAAVPxOutputStream@3@@Z 1018cbe0 f   GuMetaData.obj
 0001:0018c120       ?getBinaryMetaData@TriangleMesh@Gu@physx@@SAXAAVPxOutputStream@3@@Z 1018d120 f   GuMetaData.obj
 0001:0018cdc0       ?getBinaryMetaData@BV4TriangleMesh@Gu@physx@@SAXAAVPxOutputStream@3@@Z 1018ddc0 f   GuMetaData.obj
 0001:0018cf30       ?getBinaryMetaData@RTreeTriangleMesh@Gu@physx@@SAXAAVPxOutputStream@3@@Z 1018df30 f   GuMetaData.obj
 0001:0018d040       ?getBinaryMetaData@MaterialIndicesStruct@physx@@SAXAAVPxOutputStream@2@@Z 1018e040 f   GuMetaData.obj
 0001:0018d1e0       ?getBinaryMetaData@GeometryUnion@Gu@physx@@SAXAAVPxOutputStream@3@@Z 1018e1e0 f   GuMetaData.obj
 0001:00192770       ?pointConvexDistance@@YA_NAAVPxVec3@physx@@0AAMABV12@PBVConvexMesh@Gu@2@ABVPxMeshScale@2@ABVPxTransform@2@@Z 10193770 f   GuMTD.obj
 0001:00196e30       ??$PX_UNUSED@VPxGeometry@physx@@@@YAXABVPxGeometry@physx@@@Z 10197e30 f i GuMTD.obj
 0001:00196e40       ??0Cache@Gu@physx@@QAE@XZ  10197e40 f i GuMTD.obj
 0001:00196e60       ??0ContactBuffer@Gu@physx@@QAE@XZ 10197e60 f i GuMTD.obj
 0001:00196e90       ??0ContactPoint@Gu@physx@@QAE@XZ 10197e90 f i GuMTD.obj
 0001:00196ed0       ??0NarrowPhaseParams@Gu@physx@@QAE@MMM@Z 10197ed0 f i GuMTD.obj
 0001:00196f20       ??0PxBoxGeometry@physx@@QAE@VPxVec3@1@@Z 10197f20 f i GuMTD.obj
 0001:00196f60       ??0PxCache@physx@@QAE@XZ   10197f60 f i GuMTD.obj
 0001:00196fa0       ?getNbPolygonsFast@ConvexMesh@Gu@physx@@QBEIXZ 10197fa0 f i GuMTD.obj
 0001:00196fc0       ?getNbVerts@ConvexMesh@Gu@physx@@QBEIXZ 10197fc0 f i GuMTD.obj
 0001:00196fe0       ?getPolygons@ConvexMesh@Gu@physx@@QBEPBUHullPolygonData@23@XZ 10197fe0 f i GuMTD.obj
 0001:00197000       ?getVerts@ConvexMesh@Gu@physx@@QBEPBVPxVec3@3@XZ 10198000 f i GuMTD.obj
 0001:00197020       ?length@Segment@Gu@physx@@QBEMXZ 10198020 f i GuMTD.obj
 0001:001970a0       ?getOverlapFuncTable@Gu@physx@@YAPAY06Q6A_NABVPxGeometry@2@ABVPxTransform@2@01PAUTriggerCache@12@@ZXZ 101980a0 f   GuOverlapTests.obj
 0001:001970b0       ?registerHeightFields@Gu@physx@@YAXXZ 101980b0 f   GuOverlapTests.obj
 0001:00199700       ??$gjk@U?$RelativeConvex@VBoxV@Gu@physx@@@Gu@physx@@U?$LocalConvex@VConvexHullV@Gu@physx@@@23@@Gu@physx@@YA?AW4GjkStatus@01@ABU?$RelativeConvex@VBoxV@Gu@physx@@@01@ABU?$LocalConvex@VConvexHullV@Gu@physx@@@01@ABT__m128@@2AAT5@333@Z 1019a700 f i GuOverlapTests.obj
 0001:0019a2f0       ??$gjk@U?$RelativeConvex@VConvexHullV@Gu@physx@@@Gu@physx@@U?$LocalConvex@VConvexHullV@Gu@physx@@@23@@Gu@physx@@YA?AW4GjkStatus@01@ABU?$RelativeConvex@VConvexHullV@Gu@physx@@@01@ABU?$LocalConvex@VConvexHullV@Gu@physx@@@01@ABT__m128@@2AAT5@333@Z 1019b2f0 f i GuOverlapTests.obj
 0001:0019aee0       ?isNormalized@PxVec3@physx@@QBE_NXZ 1019bee0 f i GuOverlapTests.obj
 0001:0019af70       ?transform@PxTransform@physx@@QBE?AV12@ABV12@@Z 1019bf70 f i GuOverlapTests.obj
 0001:0019b0d0       ?getRaycastFuncTable@Gu@physx@@YAAAY06Q6AIABVPxGeometry@2@ABVPxTransform@2@ABVPxVec3@2@2MV?$PxFlags@W4Enum@PxHitFlag@physx@@G@2@IPIAUPxRaycastHit@2@@ZXZ 1019c0d0 f   GuRaycastTests.obj
 0001:0019b170       ?raycast_box@@YAIABVPxGeometry@physx@@ABVPxTransform@2@ABVPxVec3@2@2MV?$PxFlags@W4Enum@PxHitFlag@physx@@G@2@IPIAUPxRaycastHit@2@@Z 1019c170 f   GuRaycastTests.obj
 0001:0019b460       ?raycast_sphere@@YAIABVPxGeometry@physx@@ABVPxTransform@2@ABVPxVec3@2@2MV?$PxFlags@W4Enum@PxHitFlag@physx@@G@2@IPIAUPxRaycastHit@2@@Z 1019c460 f   GuRaycastTests.obj
 0001:0019b630       ?raycast_capsule@@YAIABVPxGeometry@physx@@ABVPxTransform@2@ABVPxVec3@2@2MV?$PxFlags@W4Enum@PxHitFlag@physx@@G@2@IPIAUPxRaycastHit@2@@Z 1019c630 f   GuRaycastTests.obj
 0001:0019b8d0       ?raycast_plane@@YAIABVPxGeometry@physx@@ABVPxTransform@2@ABVPxVec3@2@2MV?$PxFlags@W4Enum@PxHitFlag@physx@@G@2@IPIAUPxRaycastHit@2@@Z 1019c8d0 f   GuRaycastTests.obj
 0001:0019ba70       ?raycast_convexMesh@@YAIABVPxGeometry@physx@@ABVPxTransform@2@ABVPxVec3@2@2MV?$PxFlags@W4Enum@PxHitFlag@physx@@G@2@IPIAUPxRaycastHit@2@@Z 1019ca70 f   GuRaycastTests.obj
 0001:0019bf40       ?raycast_triangleMesh@@YAIABVPxGeometry@physx@@ABVPxTransform@2@ABVPxVec3@2@2MV?$PxFlags@W4Enum@PxHitFlag@physx@@G@2@IPIAUPxRaycastHit@2@@Z 1019cf40 f   GuRaycastTests.obj
 0001:0019c040       ?raycast_heightField@@YAIABVPxGeometry@physx@@ABVPxTransform@2@ABVPxVec3@2@2MV?$PxFlags@W4Enum@PxHitFlag@physx@@G@2@IPIAUPxRaycastHit@2@@Z 1019d040 f   GuRaycastTests.obj
 0001:0019c480       ?registerHeightFields_Raycasts@@YAXXZ 1019d480 f   GuRaycastTests.obj
 0001:0019c9a0       ??$PX_UNUSED@PIAUPxRaycastHit@physx@@@@YAXABQIAUPxRaycastHit@physx@@@Z 1019d9a0 f i GuRaycastTests.obj
 0001:0019f2f0       ?intersectRayPlane@Gu@physx@@YA_NABVPxVec3@2@0ABVPxPlane@2@AAMPAV32@@Z 101a02f0 f i GuRaycastTests.obj
 0001:0019f400       ?isSet@?$PxFlags@W4Enum@PxHitFlag@physx@@G@physx@@QBE_NW4Enum@PxHitFlag@2@@Z 101a0400 f i GuRaycastTests.obj
 0001:0019f800       ?raycastTriangleMesh@Midphase@Gu@physx@@YAIPBVTriangleMesh@23@ABVPxTriangleMeshGeometry@3@ABVPxTransform@3@ABVPxVec3@3@3MV?$PxFlags@W4Enum@PxHitFlag@physx@@G@3@IPIAUPxRaycastHit@3@@Z 101a0800 f i GuRaycastTests.obj
 0001:0019fe50       ?readChunk@physx@@YAXAAC000AAVPxInputStream@1@@Z 101a0e50 f   GuSerialize.obj
 0001:0019fea0       ?readWord@physx@@YAG_NAAVPxInputStream@1@@Z 101a0ea0 f   GuSerialize.obj
 0001:0019fee0       ?readDword@physx@@YAI_NAAVPxInputStream@1@@Z 101a0ee0 f   GuSerialize.obj
 0001:0019ff20       ?readFloat@physx@@YAM_NAAVPxInputStream@1@@Z 101a0f20 f   GuSerialize.obj
 0001:0019ff60       ?writeWord@physx@@YAXG_NAAVPxOutputStream@1@@Z 101a0f60 f   GuSerialize.obj
 0001:0019ff90       ?writeDword@physx@@YAXI_NAAVPxOutputStream@1@@Z 101a0f90 f   GuSerialize.obj
 0001:0019ffc0       ?writeFloat@physx@@YAXM_NAAVPxOutputStream@1@@Z 101a0fc0 f   GuSerialize.obj
 0001:0019fff0       ?readFloatBuffer@physx@@YA_NPAMI_NAAVPxInputStream@1@@Z 101a0ff0 f   GuSerialize.obj
 0001:001a0050       ?writeFloatBuffer@physx@@YAXPBMI_NAAVPxOutputStream@1@@Z 101a1050 f   GuSerialize.obj
 0001:001a00d0       ?writeWordBuffer@physx@@YAXPBGI_NAAVPxOutputStream@1@@Z 101a10d0 f   GuSerialize.obj
 0001:001a0150       ?readWordBuffer@physx@@YAXPAGI_NAAVPxInputStream@1@@Z 101a1150 f   GuSerialize.obj
 0001:001a01b0       ?writeHeader@physx@@YA_NCCCCI_NAAVPxOutputStream@1@@Z 101a11b0 f   GuSerialize.obj
 0001:001a0220       ?readHeader@physx@@YA_NCCCCAAIAA_NAAVPxInputStream@1@@Z 101a1220 f   GuSerialize.obj
 0001:001a0310       ?computeMaxIndex@physx@@YAIPBII@Z 101a1310 f   GuSerialize.obj
 0001:001a0360       ?computeMaxIndex@physx@@YAGPBGI@Z 101a1360 f   GuSerialize.obj
 0001:001a03c0       ?storeIndices@physx@@YAXIIPBIAAVPxOutputStream@1@_N@Z 101a13c0 f   GuSerialize.obj
 0001:001a0480       ?readIndices@physx@@YAXIIPAIAAVPxInputStream@1@_N@Z 101a1480 f   GuSerialize.obj
 0001:001a0530       ?WriteHeader@Gu@physx@@YA_NEEEEI_NAAVPxOutputStream@2@@Z 101a1530 f   GuSerialize.obj
 0001:001a05a0       ?ReadHeader@Gu@physx@@YA_NEEEEAAIAA_NAAVPxInputStream@2@@Z 101a15a0 f   GuSerialize.obj
 0001:001a0690       ?StoreIndices@Gu@physx@@YAXIIPBIAAVPxOutputStream@2@_N@Z 101a1690 f   GuSerialize.obj
 0001:001a0770       ?ReadIndices@Gu@physx@@YAXIIPAIAAVPxInputStream@2@_N@Z 101a1770 f   GuSerialize.obj
 0001:001a0860       ?StoreIndices@Gu@physx@@YAXGIPBGAAVPxOutputStream@2@_N@Z 101a1860 f   GuSerialize.obj
 0001:001a08f0       ?ReadIndices@Gu@physx@@YAXGIPAGAAVPxInputStream@2@_N@Z 101a18f0 f   GuSerialize.obj
 0001:001a0c50       ?readIntBuffer@physx@@YA_NPAII_NAAVPxInputStream@1@@Z 101a1c50 f i GuSerialize.obj
 0001:001a0c80       ?writeChunk@physx@@YAXCCCCAAVPxOutputStream@1@@Z 101a1c80 f i GuSerialize.obj
 0001:001a0ce0       ?writeIntBuffer@physx@@YAXPBII_NAAVPxOutputStream@1@@Z 101a1ce0 f i GuSerialize.obj
 0001:001a0df0       ?computeCapsule_TriangleMeshMTD@Gu@physx@@YA_NABVPxTriangleMeshGeometry@2@ABVPxTransform@2@AAVCapsuleV@12@M_NAAUPxSweepHit@2@@Z 101a1df0 f   GuSweepMTD.obj
 0001:001a1480       ?computeCapsule_HeightFieldMTD@Gu@physx@@YA_NABVPxHeightFieldGeometry@2@ABVPxTransform@2@AAVCapsuleV@12@M_NIAAUPxSweepHit@2@@Z 101a2480 f   GuSweepMTD.obj
 0001:001a1af0       ?computeBox_TriangleMeshMTD@Gu@physx@@YA_NABVPxTriangleMeshGeometry@2@ABVPxTransform@2@ABVBox@12@1M_NAAUPxSweepHit@2@@Z 101a2af0 f   GuSweepMTD.obj
 0001:001a23d0       ?computeBox_HeightFieldMTD@Gu@physx@@YA_NABVPxHeightFieldGeometry@2@ABVPxTransform@2@ABVBox@12@1M_NIAAUPxSweepHit@2@@Z 101a33d0 f   GuSweepMTD.obj
 0001:001a2cc0       ?computeConvex_TriangleMeshMTD@Gu@physx@@YA_NABVPxTriangleMeshGeometry@2@ABVPxTransform@2@ABVPxConvexMeshGeometry@2@1M_NAAUPxSweepHit@2@@Z 101a3cc0 f   GuSweepMTD.obj
 0001:001a36d0       ?computeConvex_HeightFieldMTD@Gu@physx@@YA_NABVPxHeightFieldGeometry@2@ABVPxTransform@2@ABVPxConvexMeshGeometry@2@1M_NIAAUPxSweepHit@2@@Z 101a46d0 f   GuSweepMTD.obj
 0001:001a40e0       ?computeSphere_SphereMTD@Gu@physx@@YA_NABVSphere@12@0AAUPxSweepHit@2@@Z 101a50e0 f   GuSweepMTD.obj
 0001:001a4190       ?computeSphere_CapsuleMTD@Gu@physx@@YA_NABVSphere@12@ABVCapsule@12@AAUPxSweepHit@2@@Z 101a5190 f   GuSweepMTD.obj
 0001:001a4270       ?computeCapsule_CapsuleMTD@Gu@physx@@YA_NABVCapsule@12@0AAUPxSweepHit@2@@Z 101a5270 f   GuSweepMTD.obj
 0001:001a4360       ?computePlane_CapsuleMTD@Gu@physx@@YA_NABVPxPlane@2@ABVCapsule@12@AAUPxSweepHit@2@@Z 101a5360 f   GuSweepMTD.obj
 0001:001a4430       ?computePlane_BoxMTD@Gu@physx@@YA_NABVPxPlane@2@ABVBox@12@AAUPxSweepHit@2@@Z 101a5430 f   GuSweepMTD.obj
 0001:001a4530       ?computePlane_ConvexMTD@Gu@physx@@YA_NABVPxPlane@2@ABVPxConvexMeshGeometry@2@ABVPxTransform@2@AAUPxSweepHit@2@@Z 101a5530 f   GuSweepMTD.obj
 0001:001a5c90       ??0?$Array@IVNamedAllocator@shdfnd@physx@@@shdfnd@physx@@QAE@ABVNamedAllocator@12@@Z 101a6c90 f i GuSweepMTD.obj
 0001:001a5ce0       ??0MTDTriangle@@QAE@XZ     101a6ce0 f i GuSweepMTD.obj
 0001:001a5d00       ??0MeshMTDGenerationCallback@@QAE@AAV?$Array@IVNamedAllocator@shdfnd@physx@@@shdfnd@physx@@@Z 101a6d00 f i GuSweepMTD.obj
 0001:001a5d40       ??0MidPhaseQueryLocalReport@@QAE@AAV?$Array@IVNamedAllocator@shdfnd@physx@@@shdfnd@physx@@@Z 101a6d40 f i GuSweepMTD.obj
 0001:001a5d80       ??0TriangleV@Gu@physx@@QAE@XZ 101a6d80 f i GuSweepMTD.obj
 0001:001a5de0       ??1MTDTriangle@@QAE@XZ     101a6de0 f i GuSweepMTD.obj
 0001:001a5e00       ??1MeshMTDGenerationCallback@@UAE@XZ 101a6e00 f i GuSweepMTD.obj
 0001:001a5e20       ??1MidPhaseQueryLocalReport@@UAE@XZ 101a6e20 f i GuSweepMTD.obj
 0001:001a5e40       ??A?$Array@IVNamedAllocator@shdfnd@physx@@@shdfnd@physx@@QAEAAII@Z 101a6e40 f i GuSweepMTD.obj
 0001:001a5eb0       ??_EMeshMTDGenerationCallback@@UAEPAXI@Z 101a6eb0 f i GuSweepMTD.obj
 0001:001a5eb0       ??_GMeshMTDGenerationCallback@@UAEPAXI@Z 101a6eb0 f i GuSweepMTD.obj
 0001:001a5ef0       ??_EMidPhaseQueryLocalReport@@UAEPAXI@Z 101a6ef0 f i GuSweepMTD.obj
 0001:001a5ef0       ??_GMidPhaseQueryLocalReport@@UAEPAXI@Z 101a6ef0 f i GuSweepMTD.obj
 0001:001a5f30       ?CalculateMTDBoxMargin@Gu@physx@@YA?AT__m128@@ABT3@@Z 101a6f30 f i GuSweepMTD.obj
 0001:001a5fb0       ?CalculateMTDConvexMargin@Gu@physx@@YA?AT__m128@@PBUConvexHullData@12@ABT3@@Z 101a6fb0 f i GuSweepMTD.obj
 0001:001a6070       ?empty@?$Array@IVNamedAllocator@shdfnd@physx@@@shdfnd@physx@@QBE_NXZ 101a7070 f i GuSweepMTD.obj
 0001:001a60b0       ?forceSize_Unsafe@?$Array@IVNamedAllocator@shdfnd@physx@@@shdfnd@physx@@QAEXI@Z 101a70b0 f i GuSweepMTD.obj
 0001:001a6120       ?getLocalTriangle@TriangleMesh@Gu@physx@@QBEXAAVPxTriangle@3@I_N@Z 101a7120 f i GuSweepMTD.obj
 0001:001a6280       ?onEvent@MidPhaseQueryLocalReport@@UAE_NIPAI@Z 101a7280 f i GuSweepMTD.obj
 0001:001a62e0       ?processHit@MeshMTDGenerationCallback@@UAE_NABUPxRaycastHit@physx@@ABVPxVec3@3@11AAMPBI@Z 101a72e0 f i GuSweepMTD.obj
 0001:001a6310       ?setCenter@CapsuleV@Gu@physx@@QAEXABT__m128@@@Z 101a7310 f i GuSweepMTD.obj
 0001:001a63c0       ?setShapeSpaceCenterofMass@SupportLocal@Gu@physx@@QAEXABT__m128@@@Z 101a73c0 f i GuSweepMTD.obj
 0001:001a63e0       ?size@?$Array@IVNamedAllocator@shdfnd@physx@@@shdfnd@physx@@QBEIXZ 101a73e0 f i GuSweepMTD.obj
 0001:001a6450       ?sweepCapsuleTriangles@Gu@physx@@YA_NIPBVPxTriangle@2@_NABVPxCapsuleGeometry@2@ABVPxTransform@2@ABVPxVec3@2@MAAUPxSweepHit@2@PBIMV?$PxFlags@W4Enum@PxHitFlag@physx@@G@2@@Z 101a7450 f   GuSweepSharedTests.obj
 0001:001a6980       ?sweepCapsule_SphereGeom@@YA_NABVPxGeometry@physx@@ABVPxTransform@2@ABVPxCapsuleGeometry@2@1ABVCapsule@Gu@2@ABVPxVec3@2@MAAUPxSweepHit@2@V?$PxFlags@W4Enum@PxHitFlag@physx@@G@2@M@Z 101a7980 f   GuSweepSharedTests.obj
 0001:001a6bd0       ?sweepCapsule_PlaneGeom@@YA_NABVPxGeometry@physx@@ABVPxTransform@2@ABVPxCapsuleGeometry@2@1ABVCapsule@Gu@2@ABVPxVec3@2@MAAUPxSweepHit@2@V?$PxFlags@W4Enum@PxHitFlag@physx@@G@2@M@Z 101a7bd0 f   GuSweepSharedTests.obj
 0001:001a6eb0       ?sweepCapsule_CapsuleGeom@@YA_NABVPxGeometry@physx@@ABVPxTransform@2@ABVPxCapsuleGeometry@2@1ABVCapsule@Gu@2@ABVPxVec3@2@MAAUPxSweepHit@2@V?$PxFlags@W4Enum@PxHitFlag@physx@@G@2@M@Z 101a7eb0 f   GuSweepSharedTests.obj
 0001:001a7040       ?sweepCapsule_ConvexGeom@@YA_NABVPxGeometry@physx@@ABVPxTransform@2@ABVPxCapsuleGeometry@2@1ABVCapsule@Gu@2@ABVPxVec3@2@MAAUPxSweepHit@2@V?$PxFlags@W4Enum@PxHitFlag@physx@@G@2@M@Z 101a8040 f   GuSweepSharedTests.obj
 0001:001a75e0       ?sweepBox_PlaneGeom@@YA_NABVPxGeometry@physx@@ABVPxTransform@2@ABVPxBoxGeometry@2@1ABVBox@Gu@2@ABVPxVec3@2@MAAUPxSweepHit@2@V?$PxFlags@W4Enum@PxHitFlag@physx@@G@2@M@Z 101a85e0 f   GuSweepSharedTests.obj
 0001:001a7880       ?sweepBox_ConvexGeom@@YA_NABVPxGeometry@physx@@ABVPxTransform@2@ABVPxBoxGeometry@2@1ABVBox@Gu@2@ABVPxVec3@2@MAAUPxSweepHit@2@V?$PxFlags@W4Enum@PxHitFlag@physx@@G@2@M@Z 101a8880 f   GuSweepSharedTests.obj
 0001:001a7d30       ?sweepConvex_SphereGeom@@YA_NABVPxGeometry@physx@@ABVPxTransform@2@ABVPxConvexMeshGeometry@2@1ABVPxVec3@2@MAAUPxSweepHit@2@V?$PxFlags@W4Enum@PxHitFlag@physx@@G@2@M@Z 101a8d30 f   GuSweepSharedTests.obj
 0001:001a81f0       ?sweepConvex_PlaneGeom@@YA_NABVPxGeometry@physx@@ABVPxTransform@2@ABVPxConvexMeshGeometry@2@1ABVPxVec3@2@MAAUPxSweepHit@2@V?$PxFlags@W4Enum@PxHitFlag@physx@@G@2@M@Z 101a91f0 f   GuSweepSharedTests.obj
 0001:001a84a0       ?sweepConvex_CapsuleGeom@@YA_NABVPxGeometry@physx@@ABVPxTransform@2@ABVPxConvexMeshGeometry@2@1ABVPxVec3@2@MAAUPxSweepHit@2@V?$PxFlags@W4Enum@PxHitFlag@physx@@G@2@M@Z 101a94a0 f   GuSweepSharedTests.obj
 0001:001a8620       ?sweepConvex_BoxGeom@@YA_NABVPxGeometry@physx@@ABVPxTransform@2@ABVPxConvexMeshGeometry@2@1ABVPxVec3@2@MAAUPxSweepHit@2@V?$PxFlags@W4Enum@PxHitFlag@physx@@G@2@M@Z 101a9620 f   GuSweepSharedTests.obj
 0001:001a87a0       ?sweepConvex_ConvexGeom@@YA_NABVPxGeometry@physx@@ABVPxTransform@2@ABVPxConvexMeshGeometry@2@1ABVPxVec3@2@MAAUPxSweepHit@2@V?$PxFlags@W4Enum@PxHitFlag@physx@@G@2@M@Z 101a97a0 f   GuSweepSharedTests.obj
 0001:001a96a0       ??$gjkPenetration@U?$LocalConvex@VCapsuleV@Gu@physx@@@Gu@physx@@U?$LocalConvex@VShrunkConvexHullV@Gu@physx@@@23@@Gu@physx@@YA?AW4GjkStatus@01@ABU?$LocalConvex@VCapsuleV@Gu@physx@@@01@ABU?$LocalConvex@VShrunkConvexHullV@Gu@physx@@@01@ABT__m128@@2AAT5@333PIAE4AAE_N@Z 101aa6a0 f i GuSweepSharedTests.obj
 0001:001aa7f0       ??$gjkRaycast@U?$LocalConvex@VCapsuleV@Gu@physx@@@Gu@physx@@U?$LocalConvex@VConvexHullV@Gu@physx@@@23@@Gu@physx@@YA_NABU?$LocalConvex@VCapsuleV@Gu@physx@@@01@ABU?$LocalConvex@VConvexHullV@Gu@physx@@@01@ABT__m128@@222AAT4@33M@Z 101ab7f0 f i GuSweepSharedTests.obj
 0001:001ab6f0       ??$gjkRaycast@U?$RelativeConvex@VBoxV@Gu@physx@@@Gu@physx@@U?$LocalConvex@VConvexHullV@Gu@physx@@@23@@Gu@physx@@YA_NABU?$RelativeConvex@VBoxV@Gu@physx@@@01@ABU?$LocalConvex@VConvexHullV@Gu@physx@@@01@ABT__m128@@222AAT4@33M@Z 101ac6f0 f i GuSweepSharedTests.obj
 0001:001ac5f0       ??$gjkRaycast@U?$RelativeConvex@VConvexHullV@Gu@physx@@@Gu@physx@@U?$LocalConvex@VConvexHullV@Gu@physx@@@23@@Gu@physx@@YA_NABU?$RelativeConvex@VConvexHullV@Gu@physx@@@01@ABU?$LocalConvex@VConvexHullV@Gu@physx@@@01@ABT__m128@@222AAT4@33M@Z 101ad5f0 f i GuSweepSharedTests.obj
 0001:001ad4f0       ??$gjkRaycastPenetration@U?$LocalConvex@VCapsuleV@Gu@physx@@@Gu@physx@@U?$LocalConvex@VConvexHullV@Gu@physx@@@23@@Gu@physx@@YA_NABU?$LocalConvex@VCapsuleV@Gu@physx@@@01@ABU?$LocalConvex@VConvexHullV@Gu@physx@@@01@ABT__m128@@222AAT4@33M_N@Z 101ae4f0 f i GuSweepSharedTests.obj
 0001:001ad7d0       ??$gjkRaycastPenetration@U?$RelativeConvex@VBoxV@Gu@physx@@@Gu@physx@@U?$LocalConvex@VConvexHullV@Gu@physx@@@23@@Gu@physx@@YA_NABU?$RelativeConvex@VBoxV@Gu@physx@@@01@ABU?$LocalConvex@VConvexHullV@Gu@physx@@@01@ABT__m128@@222AAT4@33M_N@Z 101ae7d0 f i GuSweepSharedTests.obj
 0001:001adac0       ??$gjkRaycastPenetration@U?$RelativeConvex@VConvexHullV@Gu@physx@@@Gu@physx@@U?$LocalConvex@VConvexHullV@Gu@physx@@@23@@Gu@physx@@YA_NABU?$RelativeConvex@VConvexHullV@Gu@physx@@@01@ABU?$LocalConvex@VConvexHullV@Gu@physx@@@01@ABT__m128@@222AAT4@33M_N@Z 101aeac0 f i GuSweepSharedTests.obj
 0001:001addb0       ??0ShrunkBoxV@Gu@physx@@QAE@ABT__m128@@0@Z 101aedb0 f i GuSweepSharedTests.obj
 0001:001ade00       ??S?$PxFlags@W4Enum@PxHitFlag@physx@@G@physx@@QBE?AV01@XZ 101aee00 f i GuSweepSharedTests.obj
 0001:001ade40       ??Sphysx@@YA?AV?$PxFlags@W4Enum@PxHitFlag@physx@@G@0@W4Enum@PxHitFlag@0@@Z 101aee40 f i GuSweepSharedTests.obj
 0001:001ade70       ??_4?$PxFlags@W4Enum@PxHitFlag@physx@@G@physx@@QAEAAV01@ABV01@@Z 101aee70 f i GuSweepSharedTests.obj
 0001:001adea0       ?getShrunkConvex@?$RelativeConvex@VBoxV@Gu@physx@@@Gu@physx@@QBE?AU?$RelativeConvex@VShrunkBoxV@Gu@physx@@@23@XZ 101aeea0 f i GuSweepSharedTests.obj
 0001:001aded0       ?getShrunkConvex@?$RelativeConvex@VConvexHullV@Gu@physx@@@Gu@physx@@QBE?AU?$RelativeConvex@VShrunkConvexHullV@Gu@physx@@@23@XZ 101aeed0 f i GuSweepSharedTests.obj
 0001:001adf00       ?loadTransformU@aos@shdfnd@physx@@YA?AVPsTransformV@123@ABVPxTransform@3@@Z 101aef00 f i GuSweepSharedTests.obj
 0001:001adf80       ?getSweepFuncTable@Gu@physx@@YAABUGeomSweepFuncs@12@XZ 101aef80 f   GuSweepTests.obj
 0001:001adf90       ?sweepBoxTriangles@Gu@physx@@YA_NIPBVPxTriangle@2@_NABVPxBoxGeometry@2@ABVPxTransform@2@ABVPxVec3@2@MAAUPxSweepHit@2@PBIMV?$PxFlags@W4Enum@PxHitFlag@physx@@G@2@@Z 101aef90 f   GuSweepTests.obj
 0001:001aea30       ?sweepCapsule_BoxGeom@@YA_NABVPxGeometry@physx@@ABVPxTransform@2@ABVPxCapsuleGeometry@2@1ABVCapsule@Gu@2@ABVPxVec3@2@MAAUPxSweepHit@2@V?$PxFlags@W4Enum@PxHitFlag@physx@@G@2@M@Z 101afa30 f   GuSweepTests.obj
 0001:001aefd0       ?sweepBox_SphereGeom@@YA_NABVPxGeometry@physx@@ABVPxTransform@2@ABVPxBoxGeometry@2@1ABVBox@Gu@2@ABVPxVec3@2@MAAUPxSweepHit@2@V?$PxFlags@W4Enum@PxHitFlag@physx@@G@2@M@Z 101affd0 f   GuSweepTests.obj
 0001:001af4c0       ?sweepBox_CapsuleGeom@@YA_NABVPxGeometry@physx@@ABVPxTransform@2@ABVPxBoxGeometry@2@1ABVBox@Gu@2@ABVPxVec3@2@MAAUPxSweepHit@2@V?$PxFlags@W4Enum@PxHitFlag@physx@@G@2@M@Z 101b04c0 f   GuSweepTests.obj
 0001:001afa40       ?sweepBox_BoxGeom@@YA_NABVPxGeometry@physx@@ABVPxTransform@2@ABVPxBoxGeometry@2@1ABVBox@Gu@2@ABVPxVec3@2@MAAUPxSweepHit@2@V?$PxFlags@W4Enum@PxHitFlag@physx@@G@2@M@Z 101b0a40 f   GuSweepTests.obj
 0001:001b00e0       ?registerHeightFields_Sweeps@@YAXXZ 101b10e0 f   GuSweepTests.obj
 0001:001b09b0       ??$PX_UNUSED@UPxSweepHit@physx@@@@YAXABUPxSweepHit@physx@@@Z 101b19b0 f i GuSweepTests.obj
 0001:001b09c0       ??$PX_UNUSED@VBox@Gu@physx@@@@YAXABVBox@Gu@physx@@@Z 101b19c0 f i GuSweepTests.obj
 0001:001b09d0       ??$PX_UNUSED@VCapsule@Gu@physx@@@@YAXABVCapsule@Gu@physx@@@Z 101b19d0 f i GuSweepTests.obj
 0001:001b09e0       ??$PX_UNUSED@VPxConvexMeshGeometry@physx@@@@YAXABVPxConvexMeshGeometry@physx@@@Z 101b19e0 f i GuSweepTests.obj
 0001:001b09f0       ??$gjkPenetration@U?$LocalConvex@VCapsuleV@Gu@physx@@@Gu@physx@@U?$LocalConvex@VShrunkBoxV@Gu@physx@@@23@@Gu@physx@@YA?AW4GjkStatus@01@ABU?$LocalConvex@VCapsuleV@Gu@physx@@@01@ABU?$LocalConvex@VShrunkBoxV@Gu@physx@@@01@ABT__m128@@2AAT5@333PIAE4AAE_N@Z 101b19f0 f i GuSweepTests.obj
 0001:001b1b40       ??$gjkRaycast@U?$LocalConvex@VCapsuleV@Gu@physx@@@Gu@physx@@U?$LocalConvex@VBoxV@Gu@physx@@@23@@Gu@physx@@YA_NABU?$LocalConvex@VCapsuleV@Gu@physx@@@01@ABU?$LocalConvex@VBoxV@Gu@physx@@@01@ABT__m128@@222AAT4@33M@Z 101b2b40 f i GuSweepTests.obj
 0001:001b2a40       ??$gjkRaycast@U?$RelativeConvex@VBoxV@Gu@physx@@@Gu@physx@@U?$LocalConvex@VBoxV@Gu@physx@@@23@@Gu@physx@@YA_NABU?$RelativeConvex@VBoxV@Gu@physx@@@01@ABU?$LocalConvex@VBoxV@Gu@physx@@@01@ABT__m128@@222AAT4@33M@Z 101b3a40 f i GuSweepTests.obj
 0001:001b3940       ??$gjkRaycastPenetration@U?$LocalConvex@VCapsuleV@Gu@physx@@@Gu@physx@@U?$LocalConvex@VBoxV@Gu@physx@@@23@@Gu@physx@@YA_NABU?$LocalConvex@VCapsuleV@Gu@physx@@@01@ABU?$LocalConvex@VBoxV@Gu@physx@@@01@ABT__m128@@222AAT4@33M_N@Z 101b4940 f i GuSweepTests.obj
 0001:001b3c20       ??$gjkRaycastPenetration@U?$RelativeConvex@VBoxV@Gu@physx@@@Gu@physx@@U?$LocalConvex@VBoxV@Gu@physx@@@23@@Gu@physx@@YA_NABU?$RelativeConvex@VBoxV@Gu@physx@@@01@ABU?$LocalConvex@VBoxV@Gu@physx@@@01@ABT__m128@@222AAT4@33M_N@Z 101b4c20 f i GuSweepTests.obj
 0001:001b3f09       _LoadLibraryA@4            101b4f09 f   kernel32:KERNEL32.dll
 0001:001b3f0f       _FreeLibrary@4             101b4f0f f   kernel32:KERNEL32.dll
 0001:001b3f15       _GetProcAddress@8          101b4f15 f   kernel32:KERNEL32.dll
 0001:001b3f1b       __imp_load_??0NamedAllocator@shdfnd@physx@@QAE@PBD@Z 101b4f1b f   PxFoundationDEBUG_x86:PxFoundationDEBUG_x86.dll
 0001:001b3f25       ??0NamedAllocator@shdfnd@physx@@QAE@PBD@Z 101b4f25 f   PxFoundationDEBUG_x86:PxFoundationDEBUG_x86.dll
 0001:001b3f2b       __tailMerge_pxfoundationdebug_x86_dll 101b4f2b     PxFoundationDEBUG_x86:PxFoundationDEBUG_x86.dll
 0001:001b3f3c       __imp_load_?PxGetAssertHandler@physx@@YAAAVPxAssertHandler@1@XZ 101b4f3c f   PxFoundationDEBUG_x86:PxFoundationDEBUG_x86.dll
 0001:001b3f46       ?PxGetAssertHandler@physx@@YAAAVPxAssertHandler@1@XZ 101b4f46 f   PxFoundationDEBUG_x86:PxFoundationDEBUG_x86.dll
 0001:001b3f4c       __imp_load_?getAllocator@shdfnd@physx@@YAAAVPxAllocatorCallback@2@XZ 101b4f4c f   PxFoundationDEBUG_x86:PxFoundationDEBUG_x86.dll
 0001:001b3f56       ?getAllocator@shdfnd@physx@@YAAAVPxAllocatorCallback@2@XZ 101b4f56 f   PxFoundationDEBUG_x86:PxFoundationDEBUG_x86.dll
 0001:001b3f5c       __imp_load_??1NamedAllocator@shdfnd@physx@@QAE@XZ 101b4f5c f   PxFoundationDEBUG_x86:PxFoundationDEBUG_x86.dll
 0001:001b3f66       ??1NamedAllocator@shdfnd@physx@@QAE@XZ 101b4f66 f   PxFoundationDEBUG_x86:PxFoundationDEBUG_x86.dll
 0001:001b3f6c       __imp_load_?allocate@NamedAllocator@shdfnd@physx@@QAEPAXIPBDH@Z 101b4f6c f   PxFoundationDEBUG_x86:PxFoundationDEBUG_x86.dll
 0001:001b3f76       ?allocate@NamedAllocator@shdfnd@physx@@QAEPAXIPBDH@Z 101b4f76 f   PxFoundationDEBUG_x86:PxFoundationDEBUG_x86.dll
 0001:001b3f7c       __imp_load_?deallocate@NamedAllocator@shdfnd@physx@@QAEXPAX@Z 101b4f7c f   PxFoundationDEBUG_x86:PxFoundationDEBUG_x86.dll
 0001:001b3f86       ?deallocate@NamedAllocator@shdfnd@physx@@QAEXPAX@Z 101b4f86 f   PxFoundationDEBUG_x86:PxFoundationDEBUG_x86.dll
 0001:001b3f8c       __imp_load__PxGetFoundation 101b4f8c f   PxFoundationDEBUG_x86:PxFoundationDEBUG_x86.dll
 0001:001b3f96       _PxGetFoundation           101b4f96 f   PxFoundationDEBUG_x86:PxFoundationDEBUG_x86.dll
 0001:001b3f9c       __imp_load_?getInstance@Foundation@shdfnd@physx@@SAAAV123@XZ 101b4f9c f   PxFoundationDEBUG_x86:PxFoundationDEBUG_x86.dll
 0001:001b3fa6       ?getInstance@Foundation@shdfnd@physx@@SAAAV123@XZ 101b4fa6 f   PxFoundationDEBUG_x86:PxFoundationDEBUG_x86.dll
 0001:001b3fac       __imp_load_?error@Foundation@shdfnd@physx@@QAAXW4Enum@PxErrorCode@3@PBDH1ZZ 101b4fac f   PxFoundationDEBUG_x86:PxFoundationDEBUG_x86.dll
 0001:001b3fb6       ?error@Foundation@shdfnd@physx@@QAAXW4Enum@PxErrorCode@3@PBDH1ZZ 101b4fb6 f   PxFoundationDEBUG_x86:PxFoundationDEBUG_x86.dll
 0001:001b3fbc       __imp_load_?PxShortestRotation@physx@@YA?AVPxQuat@1@ABVPxVec3@1@0@Z 101b4fbc f   PxFoundationDEBUG_x86:PxFoundationDEBUG_x86.dll
 0001:001b3fc6       ?PxShortestRotation@physx@@YA?AVPxQuat@1@ABVPxVec3@1@0@Z 101b4fc6 f   PxFoundationDEBUG_x86:PxFoundationDEBUG_x86.dll
 0001:001b3fcc       __imp_load_?vsnprintf@shdfnd@physx@@YAHPADIPBD0@Z 101b4fcc f   PxFoundationDEBUG_x86:PxFoundationDEBUG_x86.dll
 0001:001b3fd6       ?vsnprintf@shdfnd@physx@@YAHPADIPBD0@Z 101b4fd6 f   PxFoundationDEBUG_x86:PxFoundationDEBUG_x86.dll
 0001:001b3fdc       __imp_load_?optimizeBoundingBox@shdfnd@physx@@YA?AVPxVec3@2@AAVPxMat33@2@@Z 101b4fdc f   PxFoundationDEBUG_x86:PxFoundationDEBUG_x86.dll
 0001:001b3fe6       ?optimizeBoundingBox@shdfnd@physx@@YA?AVPxVec3@2@AAVPxMat33@2@@Z 101b4fe6 f   PxFoundationDEBUG_x86:PxFoundationDEBUG_x86.dll
 0001:001b3fec       __imp_load_??0NamedAllocator@shdfnd@physx@@QAE@ABV012@@Z 101b4fec f   PxFoundationDEBUG_x86:PxFoundationDEBUG_x86.dll
 0001:001b3ff6       ??0NamedAllocator@shdfnd@physx@@QAE@ABV012@@Z 101b4ff6 f   PxFoundationDEBUG_x86:PxFoundationDEBUG_x86.dll
 0001:001b3ffc       __imp_load_?allocate@TempAllocator@shdfnd@physx@@QAEPAXIPBDH@Z 101b4ffc f   PxFoundationDEBUG_x86:PxFoundationDEBUG_x86.dll
 0001:001b4006       ?allocate@TempAllocator@shdfnd@physx@@QAEPAXIPBDH@Z 101b5006 f   PxFoundationDEBUG_x86:PxFoundationDEBUG_x86.dll
 0001:001b400c       __imp_load_?deallocate@TempAllocator@shdfnd@physx@@QAEXPAX@Z 101b500c f   PxFoundationDEBUG_x86:PxFoundationDEBUG_x86.dll
 0001:001b4016       ?deallocate@TempAllocator@shdfnd@physx@@QAEXPAX@Z 101b5016 f   PxFoundationDEBUG_x86:PxFoundationDEBUG_x86.dll
 0001:001b401c       __imp_load_?atomicIncrement@shdfnd@physx@@YAHPCH@Z 101b501c f   PxFoundationDEBUG_x86:PxFoundationDEBUG_x86.dll
 0001:001b4026       ?atomicIncrement@shdfnd@physx@@YAHPCH@Z 101b5026 f   PxFoundationDEBUG_x86:PxFoundationDEBUG_x86.dll
 0001:001b402c       __imp_load_?atomicDecrement@shdfnd@physx@@YAHPCH@Z 101b502c f   PxFoundationDEBUG_x86:PxFoundationDEBUG_x86.dll
 0001:001b4036       ?atomicDecrement@shdfnd@physx@@YAHPCH@Z 101b5036 f   PxFoundationDEBUG_x86:PxFoundationDEBUG_x86.dll
 0001:001b403c       __imp_load__PxGetProfilerCallback 101b503c f   PxFoundationDEBUG_x86:PxFoundationDEBUG_x86.dll
 0001:001b4046       _PxGetProfilerCallback     101b5046 f   PxFoundationDEBUG_x86:PxFoundationDEBUG_x86.dll
 0001:001b404c       __imp_load_??0MutexImpl@shdfnd@physx@@QAE@XZ 101b504c f   PxFoundationDEBUG_x86:PxFoundationDEBUG_x86.dll
 0001:001b4056       ??0MutexImpl@shdfnd@physx@@QAE@XZ 101b5056 f   PxFoundationDEBUG_x86:PxFoundationDEBUG_x86.dll
 0001:001b405c       __imp_load_??1MutexImpl@shdfnd@physx@@QAE@XZ 101b505c f   PxFoundationDEBUG_x86:PxFoundationDEBUG_x86.dll
 0001:001b4066       ??1MutexImpl@shdfnd@physx@@QAE@XZ 101b5066 f   PxFoundationDEBUG_x86:PxFoundationDEBUG_x86.dll
 0001:001b406c       __imp_load_?lock@MutexImpl@shdfnd@physx@@QAEXXZ 101b506c f   PxFoundationDEBUG_x86:PxFoundationDEBUG_x86.dll
 0001:001b4076       ?lock@MutexImpl@shdfnd@physx@@QAEXXZ 101b5076 f   PxFoundationDEBUG_x86:PxFoundationDEBUG_x86.dll
 0001:001b407c       __imp_load_?unlock@MutexImpl@shdfnd@physx@@QAEXXZ 101b507c f   PxFoundationDEBUG_x86:PxFoundationDEBUG_x86.dll
 0001:001b4086       ?unlock@MutexImpl@shdfnd@physx@@QAEXXZ 101b5086 f   PxFoundationDEBUG_x86:PxFoundationDEBUG_x86.dll
 0001:001b408c       __imp_load_?getSize@MutexImpl@shdfnd@physx@@SAIXZ 101b508c f   PxFoundationDEBUG_x86:PxFoundationDEBUG_x86.dll
 0001:001b4096       ?getSize@MutexImpl@shdfnd@physx@@SAIXZ 101b5096 f   PxFoundationDEBUG_x86:PxFoundationDEBUG_x86.dll
 0001:001b409c       ??$PFromRva@PAP6GHXZ@@YGPAP6GHXZK@Z 101b509c f i delayimp:delayhlp.obj
 0001:001b40b2       ??$PFromRva@PAPAUHINSTANCE__@@@@YGPAPAUHINSTANCE__@@K@Z 101b50b2 f i delayimp:delayhlp.obj
 0001:001b40c8       ??$PFromRva@PAU_IMAGE_IMPORT_BY_NAME@@@@YGPAU_IMAGE_IMPORT_BY_NAME@@K@Z 101b50c8 f i delayimp:delayhlp.obj
 0001:001b40de       ??$PFromRva@PAU_IMAGE_THUNK_DATA32@@@@YGPAU_IMAGE_THUNK_DATA32@@K@Z 101b50de f i delayimp:delayhlp.obj
 0001:001b40f4       ??$PFromRva@PBD@@YGPBDK@Z  101b50f4 f i delayimp:delayhlp.obj
 0001:001b410a       ??$PFromRva@PBUImgDelayDescr@@@@YGPBUImgDelayDescr@@K@Z 101b510a f i delayimp:delayhlp.obj
 0001:001b4120       ??$PFromRva@PBU_IMAGE_THUNK_DATA32@@@@YGPBU_IMAGE_THUNK_DATA32@@K@Z 101b5120 f i delayimp:delayhlp.obj
 0001:001b4136       ?CountOfImports@@YGIPBU_IMAGE_THUNK_DATA32@@@Z 101b5136 f i delayimp:delayhlp.obj
 0001:001b4157       ?DloadAcquireSectionWriteAccess@@YGXXZ 101b5157 f i delayimp:delayhlp.obj
 0001:001b4196       ?DloadGetSRWLockFunctionPointers@@YGEXZ 101b5196 f i delayimp:delayhlp.obj
 0001:001b4225       ?DloadLock@@YGXXZ          101b5225 f i delayimp:delayhlp.obj
 0001:001b4273       ?DloadMakePermanentImageCommit@@YGXPAXK@Z 101b5273 f i delayimp:delayhlp.obj
 0001:001b42fd       ?DloadObtainSection@@YGPAXPAK0@Z 101b52fd f i delayimp:delayhlp.obj
 0001:001b4396       ?DloadProtectSection@@YGXKPAK@Z 101b5396 f i delayimp:delayhlp.obj
 0001:001b441f       ?DloadReleaseSectionWriteAccess@@YGXXZ 101b541f f i delayimp:delayhlp.obj
 0001:001b4462       ?DloadUnlock@@YGXXZ        101b5462 f i delayimp:delayhlp.obj
 0001:001b44b3       ?IndexFromPImgThunkData@@YGIPBU_IMAGE_THUNK_DATA32@@0@Z 101b54b3 f i delayimp:delayhlp.obj
 0001:001b4667       _HRESULT_FROM_WIN32@4      101b5667 f i delayimp:delayhlp.obj
 0001:001b4685       _ReadAcquire@4             101b5685 f i delayimp:delayhlp.obj
 0001:001b4696       _ReadPointerAcquire@4      101b5696 f i delayimp:delayhlp.obj
 0001:001b46a7       _WritePointerRelease@8     101b56a7 f i delayimp:delayhlp.obj
 0001:001b46bc       _WriteRelease@8            101b56bc f i delayimp:delayhlp.obj
 0001:001b46d1       __InlineInterlockedCompareExchangePointer@12 101b56d1 f i delayimp:delayhlp.obj
 0001:001b46ec       ___FUnloadDelayLoadedDLL2@4 101b56ec f   delayimp:delayhlp.obj
 0001:001b4791       ___HrLoadAllImportsForDll@4 101b5791 f   delayimp:delayhlp.obj
 0001:001b480a       ___delayLoadHelper2@8      101b580a f   delayimp:delayhlp.obj
 0001:001b4b20       __CRT_RTC_INIT             101b5b20 f   LIBCMTD:init.obj
 0001:001b4b30       __CRT_RTC_INITW            101b5b30 f   LIBCMTD:init.obj
 0001:001b4b40       __RTC_InitBase             101b5b40 f   LIBCMTD:init.obj
 0001:001b4b80       __RTC_Shutdown             101b5b80 f   LIBCMTD:init.obj
 0001:001b4ba0       ??3@YAXPAXI@Z              101b5ba0 f   LIBCMTD:delete_scalar_size.obj
 0001:001b4bc0       ??_V@YAXPAXI@Z             101b5bc0 f   LIBCMTD:delete_array_size.obj
 0001:001b4be0       __allshl                   101b5be0 f   LIBCMTD:llshl.obj
 0001:001b4c10       __aullshr                  101b5c10 f   LIBCMTD:ullshr.obj
 0001:001b4c40       __ftoui3                   101b5c40 f   LIBCMTD:ftol3.obj
 0001:001b4c4f       __ftoul3                   101b5c4f f   LIBCMTD:ftol3.obj
 0001:001b4c5e       __ftol3                    101b5c5e f   LIBCMTD:ftol3.obj
 0001:001b4c6b       __ftol3_NaN                101b5c6b f   LIBCMTD:ftol3.obj
 0001:001b4c83       __ftol3_work               101b5c83 f   LIBCMTD:ftol3.obj
 0001:001b4d09       __ftol3_common             101b5d09 f   LIBCMTD:ftol3.obj
 0001:001b4dcb       __ftol3_arg_error          101b5dcb f   LIBCMTD:ftol3.obj
 0001:001b4ddd       __ftol3_except             101b5ddd f   LIBCMTD:ftol3.obj
 0001:001b4e21       __dtoui3                   101b5e21 f   LIBCMTD:ftol3.obj
 0001:001b4e30       __dtoul3                   101b5e30 f   LIBCMTD:ftol3.obj
 0001:001b4e3f       __dtol3                    101b5e3f f   LIBCMTD:ftol3.obj
 0001:001b4e4c       __dtol3_NaN                101b5e4c f   LIBCMTD:ftol3.obj
 0001:001b4e69       __dtol3_work               101b5e69 f   LIBCMTD:ftol3.obj
 0001:001b4f50       __ultod3                   101b5f50 f   LIBCMTD:ftol3.obj
 0001:001b4f90       __ltod3                    101b5f90 f   LIBCMTD:ftol3.obj
 0001:001b50a0       ?__scrt_initialize_type_info@@YAXXZ 101b60a0 f   LIBCMTD:tncleanup.obj
 0001:001b50c0       ?__scrt_uninitialize_type_info@@YAXXZ 101b60c0 f   LIBCMTD:tncleanup.obj
 0001:001b50e0       ??1type_info@@UAE@XZ       101b60e0 f   LIBCMTD:std_type_info_static.obj
 0001:001b5100       ??_Etype_info@@UAEPAXI@Z   101b6100 f i LIBCMTD:std_type_info_static.obj
 0001:001b5100       ??_Gtype_info@@UAEPAXI@Z   101b6100 f i LIBCMTD:std_type_info_static.obj
 0001:001b5140       __chkstk                   101b6140 f   LIBCMTD:chkstk.obj
 0001:001b5140       __alloca_probe             101b6140 f   LIBCMTD:chkstk.obj
 0001:001b5180       __alloca_probe_16          101b6180 f   LIBCMTD:alloca16.obj
 0001:001b5196       __alloca_probe_8           101b6196     LIBCMTD:alloca16.obj
 0001:001b51c0       __ftol2_sse                101b61c0 f   LIBCMTD:ftol2.obj
 0001:001b51c9       __ftol2_pentium4           101b61c9 f   LIBCMTD:ftol2.obj
 0001:001b51dc       __ftol2_sse_excpt          101b61dc f   LIBCMTD:ftol2.obj
 0001:001b5200       __ftol2                    101b6200 f   LIBCMTD:ftol2.obj
 0001:001b52b0       ??3@YAXPAX@Z               101b62b0 f   LIBCMTD:delete_scalar.obj
 0001:001b52d0       ??_V@YAXPAX@Z              101b62d0 f   LIBCMTD:delete_array.obj
 0001:001b58b0       __CRT_INIT@12              101b68b0 f   LIBCMTD:dll_dllmain.obj
 0001:001b58d0       __DllMainCRTStartup@12     101b68d0 f   LIBCMTD:dll_dllmain.obj
 0001:001b5900       @_guard_check_icall_nop@4  101b6900 f i LIBCMTD:guard_support.obj
 0001:001b5910       _ReadNoFence               101b6910 f i LIBCMTD:guard_support.obj
 0001:001b5930       _ReadPointerNoFence        101b6930 f i LIBCMTD:guard_support.obj
 0001:001b5950       __guard_icall_checks_enforced 101b6950 f i LIBCMTD:guard_support.obj
 0001:001b5990       ?_RTC_GetErrorFunc@@YAP6AHHPBDH00ZZPBX@Z 101b6990 f   LIBCMTD:userapi.obj
 0001:001b59a0       ?_RTC_GetErrorFuncW@@YAP6AHHPB_WH00ZZPBX@Z 101b69a0 f   LIBCMTD:userapi.obj
 0001:001b59b0       __RTC_GetErrDesc           101b69b0 f   LIBCMTD:userapi.obj
 0001:001b59d0       __RTC_NumErrors            101b69d0 f   LIBCMTD:userapi.obj
 0001:001b59e0       __RTC_SetErrorFunc         101b69e0 f   LIBCMTD:userapi.obj
 0001:001b5a10       __RTC_SetErrorFuncW        101b6a10 f   LIBCMTD:userapi.obj
 0001:001b5a40       __RTC_SetErrorType         101b6a40 f   LIBCMTD:userapi.obj
 0001:001b5a70       ___isa_available_init      101b6a70 f   LIBCMTD:cpu_disp.obj
 0001:001b5e90       ___security_init_cookie    101b6e90 f   LIBCMTD:gs_support.obj
 0001:001b5f30       _DllMain@12                101b6f30 f   LIBCMTD:dll_dllmain_stub.obj
 0001:001b5f40       ___local_stdio_printf_options 101b6f40 f i LIBCMTD:default_local_stdio_options.obj
 0001:001b5f50       ___local_stdio_scanf_options 101b6f50 f i LIBCMTD:default_local_stdio_options.obj
 0001:001b5f60       ___scrt_initialize_default_local_stdio_options 101b6f60 f   LIBCMTD:default_local_stdio_options.obj
 0001:001b5fb0       ??$__crt_fast_decode_pointer@PAP6AXXZ@@YAPAP6AXXZQAP6AXXZ@Z 101b6fb0 f i LIBCMTD:utility.obj
 0001:001b5fe0       ??$__crt_fast_encode_pointer@PAP6AXXZ@@YAPAP6AXXZQAP6AXXZ@Z 101b6fe0 f i LIBCMTD:utility.obj
 0001:001b6020       ?__crt_rotate_pointer_value@@YAIIH@Z 101b7020 f i LIBCMTD:utility.obj
 0001:001b6030       ?configure_argv@__scrt_narrow_argv_policy@@SAHXZ 101b7030 f i LIBCMTD:utility.obj
 0001:001b6100       ?initialize_environment@__scrt_narrow_environment_policy@@SAHXZ 101b7100 f i LIBCMTD:utility.obj
 0001:001b61a0       _NtCurrentTeb              101b71a0 f i LIBCMTD:utility.obj
 0001:001b61b0       ___scrt_acquire_startup_lock 101b71b0 f   LIBCMTD:utility.obj
 0001:001b6210       ___scrt_dllmain_after_initialize_c 101b7210 f   LIBCMTD:utility.obj
 0001:001b6250       ___scrt_dllmain_before_initialize_c 101b7250 f   LIBCMTD:utility.obj
 0001:001b6280       ___scrt_dllmain_crt_thread_attach 101b7280 f   LIBCMTD:utility.obj
 0001:001b62c0       ___scrt_dllmain_crt_thread_detach 101b72c0 f   LIBCMTD:utility.obj
 0001:001b62e0       ___scrt_dllmain_exception_filter 101b72e0 f   LIBCMTD:utility.obj
 0001:001b6340       ___scrt_dllmain_uninitialize_c 101b7340 f   LIBCMTD:utility.obj
 0001:001b6380       ___scrt_dllmain_uninitialize_critical 101b7380 f   LIBCMTD:utility.obj
 0001:001b63a0       ___scrt_initialize_crt     101b73a0 f   LIBCMTD:utility.obj
 0001:001b6400       ___scrt_initialize_onexit_tables 101b7400 f   LIBCMTD:utility.obj
 0001:001b6520       ___scrt_is_nonwritable_in_current_image 101b7520 f   LIBCMTD:utility.obj
 0001:001b66a0       ___scrt_release_startup_lock 101b76a0 f   LIBCMTD:utility.obj
 0001:001b66d0       ___scrt_uninitialize_crt   101b76d0 f   LIBCMTD:utility.obj
 0001:001b6720       __onexit                   101b7720 f   LIBCMTD:utility.obj
 0001:001b67b0       _at_quick_exit             101b77b0 f   LIBCMTD:utility.obj
 0001:001b6810       _atexit                    101b7810 f   LIBCMTD:utility.obj
 0001:001b6850       ___scrt_get_dyn_tls_init_callback 101b7850 f   LIBCMTD:dyn_tls_init.obj
 0001:001b6860       ___scrt_fastfail           101b7860 f   LIBCMTD:utility_desktop.obj
 0001:001b69f0       ___scrt_get_show_window_mode 101b79f0 f   LIBCMTD:utility_desktop.obj
 0001:001b6a40       ___scrt_initialize_mta     101b7a40 f   LIBCMTD:utility_desktop.obj
 0001:001b6a50       ___scrt_initialize_winrt   101b7a50 f   LIBCMTD:utility_desktop.obj
 0001:001b6a60       ___scrt_is_managed_app     101b7a60 f   LIBCMTD:utility_desktop.obj
 0001:001b6b10       ___scrt_set_unhandled_exception_filter 101b7b10 f   LIBCMTD:utility_desktop.obj
 0001:001b6b30       ___scrt_exe_initialize_mta 101b7b30 f   LIBCMTD:utility_desktop.obj
 0001:001b6b30       ___scrt_stub_for_initialize_mta 101b7b30 f   LIBCMTD:utility_desktop.obj
 0001:001b6b40       ___scrt_unhandled_exception_filter@4 101b7b40 f   LIBCMTD:utility_desktop.obj
 0001:001b6bc0       __crt_debugger_hook        101b7bc0 f   LIBCMTD:utility_desktop.obj
 0001:001b6be0       __RTC_Initialize           101b7be0 f   LIBCMTD:initsect.obj
 0001:001b6c20       __RTC_Terminate            101b7c20 f   LIBCMTD:initsect.obj
 0001:001b6d10       ?_RTC_AllocaFailure@@YAXPAXPAU_RTC_ALLOCA_NODE@@H@Z 101b7d10 f   LIBCMTD:error.obj
 0001:001b6e30       ?_RTC_Failure@@YAXPAXH@Z   101b7e30 f   LIBCMTD:error.obj
 0001:001b6ea0       ?_RTC_StackFailure@@YAXPAXPBD@Z 101b7ea0 f   LIBCMTD:error.obj
 0001:001b7350       __RTC_UninitUse            101b8350 f   LIBCMTD:error.obj
 0001:001b7430       __vsprintf_s_l             101b8430 f i LIBCMTD:error.obj
 0001:001b7470       _sprintf_s                 101b8470 f i LIBCMTD:error.obj
 0001:001b74a0       @__security_check_cookie@4 101b84a0 f   LIBCMTD:secchk.obj
 0001:001b74c0       __get_startup_argv_mode    101b84c0 f   LIBCMTD:argv_mode.obj
 0001:001b74d0       ___scrt_is_ucrt_dll_in_use 101b84d0 f   LIBCMTD:ucrt_detection.obj
 0001:001b7a90       ?_RTC_GetSrcLine@@YAHPAEPA_WKPAH1K@Z 101b8a90 f   LIBCMTD:pdblkup.obj
 0001:001b7f00       __except_handler4_noexcept 101b8f00 f   LIBCMTD:chandler4_noexcept.obj
 0001:001b7f60       ___raise_securityfailure   101b8f60 f   LIBCMTD:gs_report.obj
 0001:001b7fa0       ___report_gsfailure        101b8fa0 f   LIBCMTD:gs_report.obj
 0001:001b80f0       ___report_rangecheckfailure 101b90f0 f   LIBCMTD:gs_report.obj
 0001:001b8100       ___report_securityfailure  101b9100 f   LIBCMTD:gs_report.obj
 0001:001b8210       ___report_securityfailureEx 101b9210 f   LIBCMTD:gs_report.obj
 0001:001b8380       _strstr                    101b9380 f   libvcruntimed:strstr.obj
 0001:001b8680       ??$__crt_fast_decode_pointer@P6AXXZ@@YAP6AXXZQ6AXXZ@Z 101b9680 f i libvcruntimed:purevirt.obj
 0001:001b86b0       ??$__crt_fast_encode_pointer@P6AXXZ@@YAP6AXXZQ6AXXZ@Z 101b96b0 f i libvcruntimed:purevirt.obj
 0001:001b86f0       ??$__crt_interlocked_exchange_pointer@$$A6AXXZP6AXXZ@@YAP6AXXZPDS6AXXZQ6AXXZ@Z 101b96f0 f i libvcruntimed:purevirt.obj
 0001:001b8700       ??$__crt_interlocked_read_pointer@$$A6AXXZ@@YAP6AXXZPDS6AXXZ@Z 101b9700 f i libvcruntimed:purevirt.obj
 0001:001b8720       ?__crt_interlocked_read_32@@YAHPDH@Z 101b9720 f i libvcruntimed:purevirt.obj
 0001:001b8740       __get_purecall_handler     101b9740 f   libvcruntimed:purevirt.obj
 0001:001b8770       __purecall                 101b9770 f   libvcruntimed:purevirt.obj
 0001:001b87b0       __set_purecall_handler     101b97b0 f   libvcruntimed:purevirt.obj
 0001:001b8830       ??$?RD@__crt_internal_free_policy@@QBEXQBD@Z 101b9830 f i libvcruntimed:std_type_info.obj
 0001:001b8860       ??$?RX@__crt_internal_free_policy@@QBEXQBX@Z 101b9860 f i libvcruntimed:std_type_info.obj
 0001:001b8890       ??$__crt_interlocked_compare_exchange_pointer@$$CBDPAD$$T@@YAPBDPDSBDQAD$$T@Z 101b9890 f i libvcruntimed:std_type_info.obj
 0001:001b88b0       ??$__crt_interlocked_read_pointer@$$CBD@@YAPBDPDSBD@Z 101b98b0 f i libvcruntimed:std_type_info.obj
 0001:001b88d0       ??0?$__crt_unique_heap_ptr@DU__crt_internal_free_policy@@@@QAE@QAD@Z 101b98d0 f i libvcruntimed:std_type_info.obj
 0001:001b88f0       ??0?$__crt_unique_heap_ptr@XU__crt_internal_free_policy@@@@QAE@QAX@Z 101b98f0 f i libvcruntimed:std_type_info.obj
 0001:001b8910       ??1?$__crt_unique_heap_ptr@DU__crt_internal_free_policy@@@@QAE@XZ 101b9910 f i libvcruntimed:std_type_info.obj
 0001:001b8930       ??1?$__crt_unique_heap_ptr@XU__crt_internal_free_policy@@@@QAE@XZ 101b9930 f i libvcruntimed:std_type_info.obj
 0001:001b8990       ??B?$__crt_unique_heap_ptr@DU__crt_internal_free_policy@@@@QBE_NXZ 101b9990 f i libvcruntimed:std_type_info.obj
 0001:001b89b0       ??B?$__crt_unique_heap_ptr@XU__crt_internal_free_policy@@@@QBE_NXZ 101b99b0 f i libvcruntimed:std_type_info.obj
 0001:001b8a30       ?detach@?$__crt_unique_heap_ptr@XU__crt_internal_free_policy@@@@QAEPAXXZ 101b9a30 f i libvcruntimed:std_type_info.obj
 0001:001b8a60       ?get@?$__crt_unique_heap_ptr@DU__crt_internal_free_policy@@@@QBEPADXZ 101b9a60 f i libvcruntimed:std_type_info.obj
 0001:001b8a80       ?get@?$__crt_unique_heap_ptr@XU__crt_internal_free_policy@@@@QBEPAXXZ 101b9a80 f i libvcruntimed:std_type_info.obj
 0001:001b8aa0       ?is_valid@?$__crt_unique_heap_ptr@DU__crt_internal_free_policy@@@@QBE_NXZ 101b9aa0 f i libvcruntimed:std_type_info.obj
 0001:001b8ae0       ?is_valid@?$__crt_unique_heap_ptr@XU__crt_internal_free_policy@@@@QBE_NXZ 101b9ae0 f i libvcruntimed:std_type_info.obj
 0001:001b8b20       ?release@?$__crt_unique_heap_ptr@DU__crt_internal_free_policy@@@@QAEXXZ 101b9b20 f i libvcruntimed:std_type_info.obj
 0001:001b8b50       ?release@?$__crt_unique_heap_ptr@XU__crt_internal_free_policy@@@@QAEXXZ 101b9b50 f i libvcruntimed:std_type_info.obj
 0001:001b8b80       ___std_type_info_compare   101b9b80 f   libvcruntimed:std_type_info.obj
 0001:001b8bb0       ___std_type_info_destroy_list 101b9bb0 f   libvcruntimed:std_type_info.obj
 0001:001b8c00       ___std_type_info_hash      101b9c00 f   libvcruntimed:std_type_info.obj
 0001:001b8c70       ___std_type_info_name      101b9c70 f   libvcruntimed:std_type_info.obj
 0001:001b8ed0       _memcpy                    101b9ed0 f   libvcruntimed:memcpy.obj
 0001:001b95b0       _memset                    101ba5b0 f   libvcruntimed:memset.obj
 0001:001b97e0       __except_handler4          101ba7e0 f   libvcruntimed:chandler4.obj
 0001:001b9a30       ___vcrt_initialize         101baa30 f   libvcruntimed:initialization.obj
 0001:001b9a80       ___vcrt_thread_attach      101baa80 f   libvcruntimed:initialization.obj
 0001:001b9aa0       ___vcrt_thread_detach      101baaa0 f   libvcruntimed:initialization.obj
 0001:001b9ac0       ___vcrt_uninitialize       101baac0 f   libvcruntimed:initialization.obj
 0001:001b9af0       ___vcrt_uninitialize_critical 101baaf0 f   libvcruntimed:initialization.obj
 0001:001b9b10       ___vcrt_GetModuleFileNameW 101bab10 f   libvcruntimed:winapi_thunks.obj
 0001:001b9b30       ___vcrt_GetModuleHandleW   101bab30 f   libvcruntimed:winapi_thunks.obj
 0001:001b9b50       ___vcrt_LoadLibraryExW     101bab50 f   libvcruntimed:winapi_thunks.obj
 0001:001b9b70       _strchr                    101bab70 f   libvcruntimed:strchr.obj
 0001:001b9bde       ___from_strstr_to_strchr   101babde     libvcruntimed:strchr.obj
 0001:001b9cf0       ??$?B$$A6AXXZ@__crt_fast_encoded_nullptr_t@@QBEP6AXXZXZ 101bacf0 f i libvcruntimed:purevirt_data.obj
 0001:001b9d10       ?__crt_fast_encode_pointer@@YA?AU__crt_fast_encoded_nullptr_t@@$$T@Z 101bad10 f i libvcruntimed:purevirt_data.obj
 0001:001b9d20       ___vcrt_initialize_pure_virtual_call_handler 101bad20 f   libvcruntimed:purevirt_data.obj
 0001:001b9d50       ??0Block@_HeapManager@@QAE@XZ 101bad50 f i libvcruntimed:undname.obj
 0001:001b9d70       ??0DName@@QAE@AAPBDD@Z     101bad70 f   libvcruntimed:undname.obj
 0001:001ba020       ??0DName@@QAE@ABV0@@Z      101bb020 f i libvcruntimed:undname.obj
 0001:001ba050       ??0DName@@QAE@D@Z          101bb050 f   libvcruntimed:undname.obj
 0001:001ba0a0       ??0DName@@QAE@PAV0@@Z      101bb0a0 f   libvcruntimed:undname.obj
 0001:001ba180       ??0DName@@QAE@PBD@Z        101bb180 f   libvcruntimed:undname.obj
 0001:001ba1f0       ??0DName@@QAE@W4DNameStatus@@@Z 101bb1f0 f   libvcruntimed:undname.obj
 0001:001ba2b0       ??0DName@@QAE@XZ           101bb2b0 f i libvcruntimed:undname.obj
 0001:001ba2e0       ??0DName@@QAE@_J@Z         101bb2e0 f   libvcruntimed:undname.obj
 0001:001ba400       ??0DName@@QAE@_K@Z         101bb400 f   libvcruntimed:undname.obj
 0001:001ba4d0       ??0DNameNode@@IAE@XZ       101bb4d0 f i libvcruntimed:undname.obj
 0001:001ba4f0       ??0Replicator@@QAE@XZ      101bb4f0 f i libvcruntimed:undname.obj
 0001:001ba540       ??0UnDecorator@@QAE@PBDP6APADJ@ZK@Z 101bb540 f i libvcruntimed:undname.obj
 0001:001ba5e0       ??0charNode@@QAE@D@Z       101bb5e0 f i libvcruntimed:undname.obj
 0001:001ba620       ??0pDNameNode@@QAE@PAVDName@@@Z 101bb620 f   libvcruntimed:undname.obj
 0001:001ba6a0       ??0pairNode@@QAE@PBVDNameNode@@0@Z 101bb6a0 f i libvcruntimed:undname.obj
 0001:001ba6f0       ??0pcharNode@@QAE@PBDH@Z   101bb6f0 f   libvcruntimed:undname.obj
 0001:001ba7d0       ??2@YAPAXIAAV_HeapManager@@H@Z 101bb7d0 f i libvcruntimed:undname.obj
 0001:001ba7f0       ??4DName@@QAEAAV0@ABV0@@Z  101bb7f0 f   libvcruntimed:undname.obj
 0001:001ba820       ??4DName@@QAEAAV0@D@Z      101bb820 f i libvcruntimed:undname.obj
 0001:001ba870       ??4DName@@QAEAAV0@PAV0@@Z  101bb870 f   libvcruntimed:undname.obj
 0001:001ba930       ??4DName@@QAEAAV0@PBD@Z    101bb930 f   libvcruntimed:undname.obj
 0001:001ba980       ??4DName@@QAEAAV0@W4DNameStatus@@@Z 101bb980 f   libvcruntimed:undname.obj
 0001:001baa20       ??AReplicator@@QBE?AVDName@@H@Z 101bba20 f   libvcruntimed:undname.obj
 0001:001baaa0       ??H@YA?AVDName@@DABV0@@Z   101bbaa0 f i libvcruntimed:undname.obj
 0001:001baae0       ??H@YA?AVDName@@PBDABV0@@Z 101bbae0 f i libvcruntimed:undname.obj
 0001:001bab20       ??H@YA?AVDName@@W4DNameStatus@@ABV0@@Z 101bbb20 f i libvcruntimed:undname.obj
 0001:001bab60       ??HDName@@QBE?AV0@ABV0@@Z  101bbb60 f   libvcruntimed:undname.obj
 0001:001babb0       ??HDName@@QBE?AV0@D@Z      101bbbb0 f   libvcruntimed:undname.obj
 0001:001bac00       ??HDName@@QBE?AV0@PAV0@@Z  101bbc00 f   libvcruntimed:undname.obj
 0001:001bac50       ??HDName@@QBE?AV0@PBD@Z    101bbc50 f   libvcruntimed:undname.obj
 0001:001baca0       ??HDName@@QBE?AV0@W4DNameStatus@@@Z 101bbca0 f   libvcruntimed:undname.obj
 0001:001bacf0       ??YDName@@QAEAAV0@ABV0@@Z  101bbcf0 f   libvcruntimed:undname.obj
 0001:001bad80       ??YDName@@QAEAAV0@D@Z      101bbd80 f   libvcruntimed:undname.obj
 0001:001bae20       ??YDName@@QAEAAV0@PAV0@@Z  101bbe20 f   libvcruntimed:undname.obj
 0001:001baf10       ??YDName@@QAEAAV0@PBD@Z    101bbf10 f   libvcruntimed:undname.obj
 0001:001bafd0       ??YDName@@QAEAAV0@W4DNameStatus@@@Z 101bbfd0 f   libvcruntimed:undname.obj
 0001:001bb050       ??YReplicator@@QAEAAV0@ABVDName@@@Z 101bc050 f   libvcruntimed:undname.obj
 0001:001bb100       ??_5DName@@QAEAAV0@ABV0@@Z 101bc100 f   libvcruntimed:undname.obj
 0001:001bb170       ?Constructor@_HeapManager@@QAEXP6APAXI@ZP6AXPAX@Z@Z 101bc170 f i libvcruntimed:undname.obj
 0001:001bb1c0       ?Destructor@_HeapManager@@QAEXXZ 101bc1c0 f i libvcruntimed:undname.obj
 0001:001bb240       ?UScore@UnDecorator@@SAPBDW4Tokens@@@Z 101bc240 f   libvcruntimed:undname.obj
 0001:001bb280       ?append@DName@@AAEXPBVDNameNode@@@Z 101bc280 f   libvcruntimed:undname.obj
 0001:001bb330       ?composeDeclaration@UnDecorator@@CA?AVDName@@ABV2@@Z 101bc330 f i libvcruntimed:undname.obj
 0001:001bda20       ?dbGetString@DName@@QBEPADXZ 101bea20 f   libvcruntimed:undname.obj
 0001:001bda50       ?doAccessSpecifiers@UnDecorator@@SAHXZ 101bea50 f i libvcruntimed:undname.obj
 0001:001bda80       ?doAllocationLanguage@UnDecorator@@SAHXZ 101bea80 f i libvcruntimed:undname.obj
 0001:001bdab0       ?doAllocationModel@UnDecorator@@SAHXZ 101beab0 f i libvcruntimed:undname.obj
 0001:001bdae0       ?doEcsu@UnDecorator@@SAHXZ 101beae0 f i libvcruntimed:undname.obj
 0001:001bdb10       ?doEllipsis@UnDecorator@@SAHXZ 101beb10 f i libvcruntimed:undname.obj
 0001:001bdb40       ?doFunctionReturns@UnDecorator@@SAHXZ 101beb40 f i libvcruntimed:undname.obj
 0001:001bdb70       ?doMSKeywords@UnDecorator@@SAHXZ 101beb70 f i libvcruntimed:undname.obj
 0001:001bdba0       ?doMemberTypes@UnDecorator@@SAHXZ 101beba0 f i libvcruntimed:undname.obj
 0001:001bdbd0       ?doNameOnly@UnDecorator@@SAHXZ 101bebd0 f i libvcruntimed:undname.obj
 0001:001bdbf0       ?doNoIdentCharCheck@UnDecorator@@SAHXZ 101bebf0 f i libvcruntimed:undname.obj
 0001:001bdc10       ?doPchar@DName@@AAEXPBDH@Z 101bec10 f   libvcruntimed:undname.obj
 0001:001bdda0       ?doPtr64@UnDecorator@@SAHXZ 101beda0 f i libvcruntimed:undname.obj
 0001:001bddd0       ?doRestrictionSpec@UnDecorator@@SAHXZ 101bedd0 f i libvcruntimed:undname.obj
 0001:001bde00       ?doThisTypes@UnDecorator@@SAHXZ 101bee00 f i libvcruntimed:undname.obj
 0001:001bde40       ?doThrowTypes@UnDecorator@@SAHXZ 101bee40 f i libvcruntimed:undname.obj
 0001:001bde70       ?doTypeOnly@UnDecorator@@SAHXZ 101bee70 f i libvcruntimed:undname.obj
 0001:001bde90       ?doUnderScore@UnDecorator@@SAHXZ 101bee90 f i libvcruntimed:undname.obj
 0001:001bdec0       ?getArgumentList@UnDecorator@@CA?AVDName@@XZ 101beec0 f   libvcruntimed:undname.obj
 0001:001be060       ?getArgumentTypes@UnDecorator@@CA?AVDName@@XZ 101bf060 f   libvcruntimed:undname.obj
 0001:001be200       ?getArrayType@UnDecorator@@CA?AVDName@@ABV2@@Z 101bf200 f i libvcruntimed:undname.obj
 0001:001be520       ?getBasedType@UnDecorator@@CA?AVDName@@XZ 101bf520 f   libvcruntimed:undname.obj
 0001:001be620       ?getBasicDataType@UnDecorator@@CA?AVDName@@ABV2@@Z 101bf620 f   libvcruntimed:undname.obj
 0001:001bedc0       ?getCHPEName@UnDecorator@@QAEPADPADH@Z 101bfdc0 f i libvcruntimed:undname.obj
 0001:001bef80       ?getCallIndex@UnDecorator@@CA?AVDName@@XZ 101bff80 f i libvcruntimed:undname.obj
 0001:001befa0       ?getCallingConvention@UnDecorator@@CA?AVDName@@XZ 101bffa0 f   libvcruntimed:undname.obj
 0001:001bf240       ?getDataIndirectType@UnDecorator@@CA?AVDName@@ABV2@PBD0H@Z 101c0240 f   libvcruntimed:undname.obj
 0001:001bfd80       ?getDataIndirectType@UnDecorator@@CA?AVDName@@XZ 101c0d80 f i libvcruntimed:undname.obj
 0001:001bfdd0       ?getDataType@UnDecorator@@CA?AVDName@@PAV2@@Z 101c0dd0 f   libvcruntimed:undname.obj
 0001:001bff40       ?getDecoratedName@UnDecorator@@CA?AVDName@@XZ 101c0f40 f   libvcruntimed:undname.obj
 0001:001c0470       ?getDimension@UnDecorator@@CA?AVDName@@_N@Z 101c1470 f   libvcruntimed:undname.obj
 0001:001c07d0       ?getDispatchTarget@UnDecorator@@CA?AVDName@@XZ 101c17d0 f   libvcruntimed:undname.obj
 0001:001c08a0       ?getDisplacement@UnDecorator@@CA?AVDName@@XZ 101c18a0 f i libvcruntimed:undname.obj
 0001:001c08c0       ?getECSUDataType@UnDecorator@@CA?AVDName@@XZ 101c18c0 f   libvcruntimed:undname.obj
 0001:001c0b10       ?getECSUName@UnDecorator@@CA?AVDName@@XZ 101c1b10 f i libvcruntimed:undname.obj
 0001:001c0b30       ?getEnumType@UnDecorator@@CA?AVDName@@XZ 101c1b30 f i libvcruntimed:undname.obj
 0001:001c0cd0       ?getExtendedDataIndirectType@UnDecorator@@CA?AVDName@@AAPBDAA_NH@Z 101c1cd0 f   libvcruntimed:undname.obj
 0001:001c0fc0       ?getExternalDataType@UnDecorator@@CA?AVDName@@ABV2@@Z 101c1fc0 f i libvcruntimed:undname.obj
 0001:001c1090       ?getFunctionIndirectType@UnDecorator@@CA?AVDName@@ABV2@@Z 101c2090 f   libvcruntimed:undname.obj
 0001:001c1730       ?getGuardNumber@UnDecorator@@CA?AVDName@@XZ 101c2730 f i libvcruntimed:undname.obj
 0001:001c1750       ?getLastChar@DName@@QBEDXZ 101c2750 f i libvcruntimed:undname.obj
 0001:001c17a0       ?getLastChar@DNameStatusNode@@UBEDXZ 101c27a0 f i libvcruntimed:undname.obj
 0001:001c17e0       ?getLastChar@charNode@@UBEDXZ 101c27e0 f i libvcruntimed:undname.obj
 0001:001c1800       ?getLastChar@pDNameNode@@UBEDXZ 101c2800 f i libvcruntimed:undname.obj
 0001:001c1840       ?getLastChar@pairNode@@UBEDXZ 101c2840 f i libvcruntimed:undname.obj
 0001:001c18c0       ?getLastChar@pcharNode@@UBEDXZ 101c28c0 f i libvcruntimed:undname.obj
 0001:001c1900       ?getLexicalFrame@UnDecorator@@CA?AVDName@@XZ 101c2900 f i libvcruntimed:undname.obj
 0001:001c1950       ?getMemory@_HeapManager@@QAEPAXIH@Z 101c2950 f   libvcruntimed:undname.obj
 0001:001c1ac0       ?getNoexcept@UnDecorator@@CA?AVDName@@XZ 101c2ac0 f   libvcruntimed:undname.obj
 0001:001c1b40       ?getNumberOfDimensions@UnDecorator@@CAHXZ 101c2b40 f   libvcruntimed:undname.obj
 0001:001c1c80       ?getOperatorName@UnDecorator@@CA?AVDName@@_NPA_N@Z 101c2c80 f i libvcruntimed:undname.obj
 0001:001c2a30       ?getPointerType@UnDecorator@@CA?AVDName@@ABV2@0@Z 101c3a30 f i libvcruntimed:undname.obj
 0001:001c2a70       ?getPointerTypeArray@UnDecorator@@CA?AVDName@@ABV2@0@Z 101c3a70 f i libvcruntimed:undname.obj
 0001:001c2ab0       ?getPrimaryDataType@UnDecorator@@CA?AVDName@@ABV2@@Z 101c3ab0 f   libvcruntimed:undname.obj
 0001:001c2fa0       ?getPtrRefDataType@UnDecorator@@CA?AVDName@@ABV2@H@Z 101c3fa0 f   libvcruntimed:undname.obj
 0001:001c3260       ?getPtrRefType@UnDecorator@@CA?AVDName@@ABV2@0PBD@Z 101c4260 f   libvcruntimed:undname.obj
 0001:001c3430       ?getReferenceType@UnDecorator@@CA?AVDName@@ABV2@0PBD@Z 101c4430 f i libvcruntimed:undname.obj
 0001:001c3460       ?getRestrictionSpec@UnDecorator@@CA?AVDName@@XZ 101c4460 f   libvcruntimed:undname.obj
 0001:001c3630       ?getReturnType@UnDecorator@@CA?AVDName@@PAV2@@Z 101c4630 f   libvcruntimed:undname.obj
 0001:001c3690       ?getScope@UnDecorator@@CA?AVDName@@XZ 101c4690 f   libvcruntimed:undname.obj
 0001:001c3d90       ?getScopedName@UnDecorator@@CA?AVDName@@XZ 101c4d90 f   libvcruntimed:undname.obj
 0001:001c3f20       ?getSignedDimension@UnDecorator@@CA?AVDName@@XZ 101c4f20 f   libvcruntimed:undname.obj
 0001:001c3fc0       ?getStorageConvention@UnDecorator@@CA?AVDName@@XZ 101c4fc0 f i libvcruntimed:undname.obj
 0001:001c3fe0       ?getString@DName@@QBEPADPAD0@Z 101c4fe0 f i libvcruntimed:undname.obj
 0001:001c4050       ?getString@DName@@QBEPADPADH@Z 101c5050 f i libvcruntimed:undname.obj
 0001:001c4100       ?getString@DNameStatusNode@@UBEPADPAD0@Z 101c5100 f i libvcruntimed:undname.obj
 0001:001c4140       ?getString@charNode@@UBEPADPAD0@Z 101c5140 f i libvcruntimed:undname.obj
 0001:001c4180       ?getString@pDNameNode@@UBEPADPAD0@Z 101c5180 f i libvcruntimed:undname.obj
 0001:001c41d0       ?getString@pairNode@@UBEPADPAD0@Z 101c51d0 f i libvcruntimed:undname.obj
 0001:001c4280       ?getString@pcharNode@@UBEPADPAD0@Z 101c5280 f i libvcruntimed:undname.obj
 0001:001c42c0       ?getStringEncoding@UnDecorator@@CA?AVDName@@PBDH@Z 101c52c0 f   libvcruntimed:undname.obj
 0001:001c4410       ?getStringHelper@@YAPADPADPBD1H@Z 101c5410 f i libvcruntimed:undname.obj
 0001:001c4460       ?getSymbolName@UnDecorator@@CA?AVDName@@XZ 101c5460 f i libvcruntimed:undname.obj
 0001:001c4510       ?getTemplateArgumentList@UnDecorator@@CA?AVDName@@XZ 101c5510 f   libvcruntimed:undname.obj
 0001:001c4a30       ?getTemplateConstant@UnDecorator@@CA?AVDName@@XZ 101c5a30 f   libvcruntimed:undname.obj
 0001:001c51e0       ?getTemplateName@UnDecorator@@CA?AVDName@@_N@Z 101c61e0 f   libvcruntimed:undname.obj
 0001:001c5430       ?getThisType@UnDecorator@@CA?AVDName@@XZ 101c6430 f i libvcruntimed:undname.obj
 0001:001c5480       ?getThrowTypes@UnDecorator@@CA?AVDName@@XZ 101c6480 f   libvcruntimed:undname.obj
 0001:001c54d0       ?getTypeEncoding@UnDecorator@@CAHXZ 101c64d0 f i libvcruntimed:undname.obj
 0001:001c6200       ?getUndecoratedName@UnDecorator@@QAEPADPADH@Z 101c7200 f i libvcruntimed:undname.obj
 0001:001c63a0       ?getVCallThunkType@UnDecorator@@CA?AVDName@@XZ 101c73a0 f i libvcruntimed:undname.obj
 0001:001c6420       ?getVbTableType@UnDecorator@@CA?AVDName@@ABV2@@Z 101c7420 f i libvcruntimed:undname.obj
 0001:001c6440       ?getVdispMapType@UnDecorator@@CA?AVDName@@ABV2@@Z 101c7440 f i libvcruntimed:undname.obj
 0001:001c64d0       ?getVfTableType@UnDecorator@@CA?AVDName@@ABV2@@Z 101c74d0 f i libvcruntimed:undname.obj
 0001:001c6730       ?getZName@UnDecorator@@CA?AVDName@@_N0@Z 101c7730 f   libvcruntimed:undname.obj
 0001:001c6af0       ?haveTemplateParameters@UnDecorator@@SAHXZ 101c7af0 f i libvcruntimed:undname.obj
 0001:001c6b10       ?isArray@DName@@QBEHXZ     101c7b10 f i libvcruntimed:undname.obj
 0001:001c6b30       ?isComArray@DName@@QBEHXZ  101c7b30 f i libvcruntimed:undname.obj
 0001:001c6b50       ?isEmpty@DName@@QBEHXZ     101c7b50 f i libvcruntimed:undname.obj
 0001:001c6b90       ?isFull@Replicator@@QBEHXZ 101c7b90 f i libvcruntimed:undname.obj
 0001:001c6bd0       ?isNoTE@DName@@QBEHXZ      101c7bd0 f i libvcruntimed:undname.obj
 0001:001c6bf0       ?isPinPtr@DName@@QBEHXZ    101c7bf0 f i libvcruntimed:undname.obj
 0001:001c6c10       ?isPtrRef@DName@@QBEHXZ    101c7c10 f i libvcruntimed:undname.obj
 0001:001c6c30       ?isUDC@DName@@QBEHXZ       101c7c30 f i libvcruntimed:undname.obj
 0001:001c6c80       ?isUDTThunk@DName@@QBEHXZ  101c7c80 f i libvcruntimed:undname.obj
 0001:001c6cd0       ?isVCallThunk@DName@@QBEHXZ 101c7cd0 f i libvcruntimed:undname.obj
 0001:001c6cf0       ?isValid@DName@@QBEHXZ     101c7cf0 f i libvcruntimed:undname.obj
 0001:001c6d30       ?length@DName@@QBEHXZ      101c7d30 f i libvcruntimed:undname.obj
 0001:001c6d80       ?length@DNameStatusNode@@UBEHXZ 101c7d80 f i libvcruntimed:undname.obj
 0001:001c6da0       ?length@charNode@@UBEHXZ   101c7da0 f i libvcruntimed:undname.obj
 0001:001c6dc0       ?length@pDNameNode@@UBEHXZ 101c7dc0 f i libvcruntimed:undname.obj
 0001:001c6e00       ?length@pairNode@@UBEHXZ   101c7e00 f i libvcruntimed:undname.obj
 0001:001c6e90       ?length@pcharNode@@UBEHXZ  101c7e90 f i libvcruntimed:undname.obj
 0001:001c6eb0       ?make@DNameStatusNode@@SAPBV1@W4DNameStatus@@@Z 101c7eb0 f i libvcruntimed:undname.obj
 0001:001c6ef0       ?parseDecoratedName@UnDecorator@@CA?AVDName@@XZ 101c7ef0 f   libvcruntimed:undname.obj
 0001:001c70e0       ?setIsArray@DName@@QAEXXZ  101c80e0 f i libvcruntimed:undname.obj
 0001:001c7110       ?setIsComArray@DName@@QAEXXZ 101c8110 f i libvcruntimed:undname.obj
 0001:001c7140       ?setIsNoTE@DName@@QAEXXZ   101c8140 f i libvcruntimed:undname.obj
 0001:001c7170       ?setIsPinPtr@DName@@QAEXXZ 101c8170 f i libvcruntimed:undname.obj
 0001:001c71a0       ?setIsUDC@DName@@QAEXXZ    101c81a0 f i libvcruntimed:undname.obj
 0001:001c71e0       ?setIsVCallThunk@DName@@QAEXXZ 101c81e0 f i libvcruntimed:undname.obj
 0001:001c7210       ?setPtrRef@DName@@QAEAAV1@XZ 101c8210 f i libvcruntimed:undname.obj
 0001:001c7240       ?status@DName@@QBE?AW4DNameStatus@@XZ 101c8240 f i libvcruntimed:undname.obj
 0001:001c7360       ___unDName                 101c8360 f   libvcruntimed:undname.obj
 0001:001c73a0       ___unDNameEx               101c83a0 f   libvcruntimed:undname.obj
 0001:001c74a0       _unDNameGenerateCHPE       101c84a0 f   libvcruntimed:undname.obj
 0001:001c7520       __local_unwind4            101c8520 f   libvcruntimed:exsup4.obj
 0001:001c75f8       __seh_longjmp_unwind4@4    101c85f8 f   libvcruntimed:exsup4.obj
 0001:001c7620       @_EH4_CallFilterFunc@8     101c8620 f   libvcruntimed:exsup4.obj
 0001:001c7638       @_EH4_TransferToHandler@8  101c8638 f   libvcruntimed:exsup4.obj
 0001:001c7654       @_EH4_GlobalUnwind2@8      101c8654 f   libvcruntimed:exsup4.obj
 0001:001c7670       @_EH4_LocalUnwind@16       101c8670 f   libvcruntimed:exsup4.obj
 0001:001c76f0       ___except_validate_context_record 101c86f0 f   libvcruntimed:jbcxrval.obj
 0001:001c7750       ___except_validate_jump_buffer 101c8750 f   libvcruntimed:jbcxrval.obj
 0001:001c7770       ___except_validate_jump_buffer_common 101c8770 f i libvcruntimed:jbcxrval.obj
 0001:001c77e0       ??$?RU__vcrt_ptd@@@__crt_internal_free_policy@@QBEXQBU__vcrt_ptd@@@Z 101c87e0 f i libvcruntimed:per_thread_data.obj
 0001:001c7810       ??0?$__crt_unique_heap_ptr@U__vcrt_ptd@@U__crt_internal_free_policy@@@@QAE@QAU__vcrt_ptd@@@Z 101c8810 f i libvcruntimed:per_thread_data.obj
 0001:001c7850       ??1?$__crt_unique_heap_ptr@U__vcrt_ptd@@U__crt_internal_free_policy@@@@QAE@XZ 101c8850 f i libvcruntimed:per_thread_data.obj
 0001:001c7890       ??B?$__crt_unique_heap_ptr@U__vcrt_ptd@@U__crt_internal_free_policy@@@@QBE_NXZ 101c8890 f i libvcruntimed:per_thread_data.obj
 0001:001c78b0       ?detach@?$__crt_unique_heap_ptr@U__vcrt_ptd@@U__crt_internal_free_policy@@@@QAEPAU__vcrt_ptd@@XZ 101c88b0 f i libvcruntimed:per_thread_data.obj
 0001:001c78e0       ?get@?$__crt_unique_heap_ptr@U__vcrt_ptd@@U__crt_internal_free_policy@@@@QBEPAU__vcrt_ptd@@XZ 101c88e0 f i libvcruntimed:per_thread_data.obj
 0001:001c7900       ?is_valid@?$__crt_unique_heap_ptr@U__vcrt_ptd@@U__crt_internal_free_policy@@@@QBE_NXZ 101c8900 f i libvcruntimed:per_thread_data.obj
 0001:001c7940       ?release@?$__crt_unique_heap_ptr@U__vcrt_ptd@@U__crt_internal_free_policy@@@@QAEXXZ 101c8940 f i libvcruntimed:per_thread_data.obj
 0001:001c79a0       ___vcrt_freefls@4          101c89a0 f   libvcruntimed:per_thread_data.obj
 0001:001c79d0       ___vcrt_freeptd            101c89d0 f   libvcruntimed:per_thread_data.obj
 0001:001c7a40       ___vcrt_getptd             101c8a40 f   libvcruntimed:per_thread_data.obj
 0001:001c7a70       ___vcrt_getptd_noexit      101c8a70 f   libvcruntimed:per_thread_data.obj
 0001:001c7c20       ___vcrt_getptd_noinit      101c8c20 f   libvcruntimed:per_thread_data.obj
 0001:001c7c90       ___vcrt_initialize_ptd     101c8c90 f   libvcruntimed:per_thread_data.obj
 0001:001c7cf0       ___vcrt_uninitialize_ptd   101c8cf0 f   libvcruntimed:per_thread_data.obj
 0001:001c7d30       ___vcrt_initialize_locks   101c8d30 f   libvcruntimed:locks.obj
 0001:001c7da0       ___vcrt_lock               101c8da0 f   libvcruntimed:locks.obj
 0001:001c7dc0       ___vcrt_uninitialize_locks 101c8dc0 f   libvcruntimed:locks.obj
 0001:001c7e20       ___vcrt_unlock             101c8e20 f   libvcruntimed:locks.obj
 0001:001c7e40       ??$?BX@__crt_fast_encoded_nullptr_t@@QBEPAXXZ 101c8e40 f i libvcruntimed:winapi_downlevel.obj
 0001:001c7e60       ??$__crt_fast_decode_pointer@PAX@@YAPAXQAX@Z 101c8e60 f i libvcruntimed:winapi_downlevel.obj
 0001:001c7e90       ??$__crt_fast_encode_pointer@PAX@@YAPAXQAX@Z 101c8e90 f i libvcruntimed:winapi_downlevel.obj
 0001:001c7ed0       ??$__crt_interlocked_exchange_pointer@UHINSTANCE__@@PAU1@@@YAPAUHINSTANCE__@@PDSAU0@QAU0@@Z 101c8ed0 f i libvcruntimed:winapi_downlevel.obj
 0001:001c7ee0       ??$__crt_interlocked_exchange_pointer@UHINSTANCE__@@PAX@@YAPAUHINSTANCE__@@PDSAU0@QAX@Z 101c8ee0 f i libvcruntimed:winapi_downlevel.obj
 0001:001c7ef0       ??$__crt_interlocked_exchange_pointer@XPAX@@YAPAXPDSAXQAX@Z 101c8ef0 f i libvcruntimed:winapi_downlevel.obj
 0001:001c7f00       ??$__crt_interlocked_read_pointer@UHINSTANCE__@@@@YAPAUHINSTANCE__@@PDSAU0@@Z 101c8f00 f i libvcruntimed:winapi_downlevel.obj
