 PhysX3CharacterKinematicDEBUG_x86

 Timestamp is 619c4625 (Tue Nov 23 10:38:45 2021)

 Preferred load address is 10000000

 Start         Length     Name                   Class
 0001:00000000 0000c400H .text$di                CODE
 0001:0000c400 000c6480H .text$mn                CODE
 0001:000d2880 00001217H .text$x                 CODE
 0002:00000000 00000104H .CRT$XCA                DATA
 0002:00000104 0000011cH .CRT$XCU                DATA
 0002:00000220 00000104H .CRT$XCZ                DATA
 0002:00000324 00000104H .CRT$XIA                DATA
 0002:00000428 00000110H .CRT$XIC                DATA
 0002:00000538 00000104H .CRT$XIZ                DATA
 0002:0000063c 00000104H .CRT$XPA                DATA
 0002:00000740 0000010cH .CRT$XPX                DATA
 0002:0000084c 00000104H .CRT$XPXA               DATA
 0002:00000950 00000104H .CRT$XPZ                DATA
 0002:00000a54 00000104H .CRT$XTA                DATA
 0002:00000b58 00000108H .CRT$XTZ                DATA
 0002:00000c60 00025900H .rdata                  DATA
 0002:00026560 00000450H .rdata$r                DATA
 0002:000269b0 0000014cH .rdata$sxdata           DATA
 0002:00026afc 000001ccH .rdata$zzzdbg           DATA
 0002:00026cc8 00000104H .rtc$IAA                DATA
 0002:00026dcc 0000013cH .rtc$IMZ                DATA
 0002:00026f08 00000104H .rtc$IZZ                DATA
 0002:0002700c 00000104H .rtc$TAA                DATA
 0002:00027110 0000013cH .rtc$TMZ                DATA
 0002:0002724c 00000104H .rtc$TZZ                DATA
 0002:00027350 00000f60H .xdata$x                DATA
 0002:000282b0 00000ad0H .edata                  DATA
 0003:00000000 00000c20H .data                   DATA
 0003:00000c20 00000380H .data$r                 DATA
 0003:00000fa0 000018b0H .bss                    DATA
 0004:00000000 000002e0H .idata$5                DATA
 0004:000002e0 0000003cH .idata$2                DATA
 0004:0000031c 00000014H .idata$3                DATA
 0004:00000330 000002e0H .idata$4                DATA
 0004:00000610 00001484H .idata$6                DATA
 0005:00000000 00000104H .00cfg                  DATA
 0006:00000000 000001c0H .rsrc$01                DATA
 0006:000001c0 00000700H .rsrc$02                DATA

  Address         Publics by Value              Rva+Base       Lib:Object

 0000:00000000       ___enclave_config          00000000     <absolute>
 0000:00000000       ___guard_iat_count         00000000     <absolute>
 0000:00000000       ___guard_longjmp_count     00000000     <absolute>
 0000:00000000       ___hybrid_code_map_count   00000000     <absolute>
 0000:00000000       ___dynamic_value_reloc_table 00000000     <absolute>
 0000:00000000       ___volatile_metadata       00000000     <absolute>
 0000:00000000       ___hybrid_code_map         00000000     <absolute>
 0000:00000000       ___guard_longjmp_table     00000000     <absolute>
 0000:00000000       ___guard_fids_table        00000000     <absolute>
 0000:00000000       ___guard_fids_count        00000000     <absolute>
 0000:00000000       __except_list              00000000     <absolute>
 0000:00000000       ___guard_iat_table         00000000     <absolute>
 0000:00000000       ___hybrid_auxiliary_iat    00000000     <absolute>
 0000:00000010       ___safe_se_handler_count   00000010     <absolute>
 0000:00000100       ___guard_flags             00000100     <absolute>
 0000:00000000       ___ImageBase               10000000     <linker-defined>
 0001:0000c400       ??0BoxController@Cct@physx@@QAE@ABVPxControllerDesc@2@AAVPxPhysics@2@PAVPxScene@2@@Z 1000d400 f   CctBoxController.obj
 0001:0000c4f0       ??1BoxController@Cct@physx@@UAE@XZ 1000d4f0 f   CctBoxController.obj
 0001:0000c530       ?getWorldBox@BoxController@Cct@physx@@UBE_NAAUPxExtendedBounds3@3@@Z 1000d530 f   CctBoxController.obj
 0001:0000c5a0       ?setFootPosition@BoxController@Cct@physx@@UAE_NABUPxExtendedVec3@3@@Z 1000d5a0 f   CctBoxController.obj
 0001:0000c620       ?getFootPosition@BoxController@Cct@physx@@UBE?AUPxExtendedVec3@3@XZ 1000d620 f   CctBoxController.obj
 0001:0000c6c0       ?invalidateCache@BoxController@Cct@physx@@UAEXXZ 1000d6c0 f   CctBoxController.obj
 0001:0000c720       ?resize@BoxController@Cct@physx@@UAEXM@Z 1000d720 f   CctBoxController.obj
 0001:0000c7d0       ?getHalfHeight@BoxController@Cct@physx@@UBEMXZ 1000d7d0 f   CctBoxController.obj
 0001:0000c7f0       ?getHalfSideExtent@BoxController@Cct@physx@@UBEMXZ 1000d7f0 f   CctBoxController.obj
 0001:0000c810       ?getHalfForwardExtent@BoxController@Cct@physx@@UBEMXZ 1000d810 f   CctBoxController.obj
 0001:0000c830       ?setHalfHeight@BoxController@Cct@physx@@UAE_NM@Z 1000d830 f   CctBoxController.obj
 0001:0000c870       ?setHalfSideExtent@BoxController@Cct@physx@@UAE_NM@Z 1000d870 f   CctBoxController.obj
 0001:0000c8b0       ?setHalfForwardExtent@BoxController@Cct@physx@@UAE_NM@Z 1000d8b0 f   CctBoxController.obj
 0001:0000c8f0       ?updateKinematicProxy@BoxController@Cct@physx@@QAE_NXZ 1000d8f0 f   CctBoxController.obj
 0001:0000c9f0       ?getOBB@BoxController@Cct@physx@@QBEXAAVPxExtendedBox@3@@Z 1000d9f0 f   CctBoxController.obj
 0001:0000cc50       ??0Allocator@shdfnd@physx@@QAE@PBD@Z 1000dc50 f i CctBoxController.obj
 0001:0000cc70       ??0NonTrackingAllocator@shdfnd@physx@@QAE@PBD@Z 1000dc70 f i CctBoxController.obj
 0001:0000cc90       ??0PxBoxController@physx@@IAE@XZ 1000dc90 f i CctBoxController.obj
 0001:0000ccc0       ??0PxBoxGeometry@physx@@QAE@XZ 1000dcc0 f i CctBoxController.obj
 0001:0000cd10       ??0PxController@physx@@IAE@XZ 1000dd10 f i CctBoxController.obj
 0001:0000cd30       ??0PxControllerManager@physx@@IAE@XZ 1000dd30 f i CctBoxController.obj
 0001:0000cd50       ??0PxControllerManager@physx@@QAE@ABV01@@Z 1000dd50 f i CctBoxController.obj
 0001:0000cd70       ??0PxExtendedBounds3@physx@@QAE@XZ 1000dd70 f i CctBoxController.obj
 0001:0000cda0       ??0PxExtendedVec3@physx@@QAE@NNN@Z 1000dda0 f i CctBoxController.obj
 0001:0000cdf0       ??0PxExtendedVec3@physx@@QAE@XZ 1000ddf0 f i CctBoxController.obj
 0001:0000ce10       ??0PxFoundation@physx@@QAE@ABV01@@Z 1000de10 f i CctBoxController.obj
 0001:0000ce30       ??0PxFoundation@physx@@QAE@XZ 1000de30 f i CctBoxController.obj
 0001:0000ce50       ??0PxGeometry@physx@@IAE@W4Enum@PxGeometryType@1@@Z 1000de50 f i CctBoxController.obj
 0001:0000ce70       ??0PxVec3@physx@@QAE@ABV01@@Z 1000de70 f i CctBoxController.obj
 0001:0000ceb0       ??0PxVec3@physx@@QAE@MMM@Z 1000deb0 f i CctBoxController.obj
 0001:0000cf00       ??1PxBoxController@physx@@MAE@XZ 1000df00 f i CctBoxController.obj
 0001:0000cf30       ??1PxController@physx@@MAE@XZ 1000df30 f i CctBoxController.obj
 0001:0000cf50       ??1PxControllerManager@physx@@MAE@XZ 1000df50 f i CctBoxController.obj
 0001:0000cf70       ??1PxFoundation@physx@@MAE@XZ 1000df70 f i CctBoxController.obj
 0001:0000cf90       ??3UserAllocated@shdfnd@physx@@SAXPAX@Z 1000df90 f i CctBoxController.obj
 0001:0000cfc0       ??4Allocator@shdfnd@physx@@QAEAAV012@$$QAV012@@Z 1000dfc0 f i CctBoxController.obj
 0001:0000cfe0       ??4Allocator@shdfnd@physx@@QAEAAV012@ABV012@@Z 1000dfe0 f i CctBoxController.obj
 0001:0000d000       ??4MutexImpl@shdfnd@physx@@QAEAAV012@ABV012@@Z 1000e000 f i CctBoxController.obj
 0001:0000d020       ??4PxControllerManager@physx@@QAEAAV01@ABV01@@Z 1000e020 f i CctBoxController.obj
 0001:0000d040       ??4PxFoundation@physx@@QAEAAV01@ABV01@@Z 1000e040 f i CctBoxController.obj
 0001:0000d060       ??4PxQuat@physx@@QAEAAV01@ABV01@@Z 1000e060 f i CctBoxController.obj
 0001:0000d0b0       ??4PxVec3@physx@@QAEAAV01@ABV01@@Z 1000e0b0 f i CctBoxController.obj
 0001:0000d0f0       ??DPxVec3@physx@@QBE?AV01@M@Z 1000e0f0 f i CctBoxController.obj
 0001:0000d160       ??GPxExtendedVec3@physx@@QBE?AVPxVec3@1@ABU01@@Z 1000e160 f i CctBoxController.obj
 0001:0000d1e0       ??HPxExtendedVec3@physx@@QBE?AU01@ABU01@@Z 1000e1e0 f i CctBoxController.obj
 0001:0000d260       ??XPxExtendedVec3@physx@@QAEAAU01@ABM@Z 1000e260 f i CctBoxController.obj
 0001:0000d2d0       ??XPxVec3@physx@@QAEAAV01@M@Z 1000e2d0 f i CctBoxController.obj
 0001:0000d330       ??YPxExtendedVec3@physx@@QAEAAU01@ABVPxVec3@1@@Z 1000e330 f i CctBoxController.obj
 0001:0000d3a0       ??ZPxExtendedVec3@physx@@QAEAAU01@ABVPxVec3@1@@Z 1000e3a0 f i CctBoxController.obj
 0001:0000d419       ??_EBoxController@Cct@physx@@W7AEPAXI@Z 1000e419 f i CctBoxController.obj
 0001:0000d430       ??_EPxControllerManager@physx@@MAEPAXI@Z 1000e430 f i CctBoxController.obj
 0001:0000d4d0       ??_EPxFoundation@physx@@MAEPAXI@Z 1000e4d0 f i CctBoxController.obj
 0001:0000d570       ??_FAllocator@shdfnd@physx@@QAEXXZ 1000e570 f i CctBoxController.obj
 0001:0000d590       ??_FNamedAllocator@shdfnd@physx@@QAEXXZ 1000e590 f i CctBoxController.obj
 0001:0000d5b0       ??_GBoxController@Cct@physx@@UAEPAXI@Z 1000e5b0 f i CctBoxController.obj
 0001:0000d5b0       ??_EBoxController@Cct@physx@@UAEPAXI@Z 1000e5b0 f i CctBoxController.obj
 0001:0000d610       ??_GPxBoxController@physx@@MAEPAXI@Z 1000e610 f i CctBoxController.obj
 0001:0000d610       ??_EPxBoxController@physx@@MAEPAXI@Z 1000e610 f i CctBoxController.obj
 0001:0000d650       ??_GPxController@physx@@MAEPAXI@Z 1000e650 f i CctBoxController.obj
 0001:0000d650       ??_EPxController@physx@@MAEPAXI@Z 1000e650 f i CctBoxController.obj
 0001:0000d690       ??_GPxControllerManager@physx@@MAEPAXI@Z 1000e690 f i CctBoxController.obj
 0001:0000d6d0       ??_GPxFoundation@physx@@MAEPAXI@Z 1000e6d0 f i CctBoxController.obj
 0001:0000d710       ??_H@YGXPAXIIP6EPAX0@Z@Z   1000e710 f i CctBoxController.obj
 0001:0000d770       ??_I@YGXPAXIIP6EX0@Z@Z     1000e770 f i CctBoxController.obj
 0001:0000d7e0       ?__empty_global_delete@@YAXPAX@Z 1000e7e0 f i CctBoxController.obj
 0001:0000d7f0       ?__global_delete@@YAXPAXI@Z 1000e7f0 f i CctBoxController.obj
 0001:0000d7f0       ?__empty_global_delete@@YAXPAXI@Z 1000e7f0 f i CctBoxController.obj
 0001:0000d800       ?deallocate@NonTrackingAllocator@shdfnd@physx@@QAEXPAX@Z 1000e800 f i CctBoxController.obj
 0001:0000d840       ?getActor@BoxController@Cct@physx@@UBEPAVPxRigidDynamic@3@XZ 1000e840 f i CctBoxController.obj
 0001:0000d860       ?getCenter@physx@@YAXABUPxExtendedBounds3@1@AAUPxExtendedVec3@1@@Z 1000e860 f i CctBoxController.obj
 0001:0000d8e0       ?getContactOffset@BoxController@Cct@physx@@UBEMXZ 1000e8e0 f i CctBoxController.obj
 0001:0000d900       ?getExtents@physx@@YAXABUPxExtendedBounds3@1@AAVPxVec3@1@@Z 1000e900 f i CctBoxController.obj
 0001:0000d950       ?getHalfHeightInternal@BoxController@Cct@physx@@UBEMXZ 1000e950 f i CctBoxController.obj
 0001:0000d970       ?getNonWalkableMode@BoxController@Cct@physx@@UBE?AW4Enum@PxControllerNonWalkableMode@3@XZ 1000e970 f i CctBoxController.obj
 0001:0000d990       ?getPosition@BoxController@Cct@physx@@UBEABUPxExtendedVec3@3@XZ 1000e990 f i CctBoxController.obj
 0001:0000d9b0       ?getPxController@BoxController@Cct@physx@@UAEPAVPxController@3@XZ 1000e9b0 f i CctBoxController.obj
 0001:0000d9d0       ?getScene@BoxController@Cct@physx@@UAEPAVPxScene@3@XZ 1000e9d0 f i CctBoxController.obj
 0001:0000d9f0       ?getSlopeLimit@BoxController@Cct@physx@@UBEMXZ 1000e9f0 f i CctBoxController.obj
 0001:0000da10       ?getState@BoxController@Cct@physx@@UBEXAAUPxControllerState@3@@Z 1000ea10 f i CctBoxController.obj
 0001:0000da40       ?getStats@BoxController@Cct@physx@@UBEXAAUPxControllerStats@3@@Z 1000ea40 f i CctBoxController.obj
 0001:0000da70       ?getStepOffset@BoxController@Cct@physx@@UBEMXZ 1000ea70 f i CctBoxController.obj
 0001:0000da90       ?getType@BoxController@Cct@physx@@UBE?AW4Enum@PxControllerShapeType@3@XZ 1000ea90 f i CctBoxController.obj
 0001:0000dab0       ?getUpDirection@BoxController@Cct@physx@@UBE?AVPxVec3@3@XZ 1000eab0 f i CctBoxController.obj
 0001:0000dae0       ?getUserData@BoxController@Cct@physx@@UBEPAXXZ 1000eae0 f i CctBoxController.obj
 0001:0000db00       ?lock@?$MutexT@V?$ReflectionAllocator@VMutexImpl@shdfnd@physx@@@shdfnd@physx@@@shdfnd@physx@@QBEXXZ 1000eb00 f i CctBoxController.obj
 0001:0000db20       ?release@BoxController@Cct@physx@@UAEXXZ 1000eb20 f i CctBoxController.obj
 0001:0000db40       ?setCenterExtents@physx@@YAXAAUPxExtendedBounds3@1@ABUPxExtendedVec3@1@ABVPxVec3@1@@Z 1000eb40 f i CctBoxController.obj
 0001:0000dbd0       ?setContactOffset@BoxController@Cct@physx@@UAEXM@Z 1000ebd0 f i CctBoxController.obj
 0001:0000dc10       ?setNonWalkableMode@BoxController@Cct@physx@@UAEXW4Enum@PxControllerNonWalkableMode@3@@Z 1000ec10 f i CctBoxController.obj
 0001:0000dc30       ?setPosition@BoxController@Cct@physx@@UAE_NABUPxExtendedVec3@3@@Z 1000ec30 f i CctBoxController.obj
 0001:0000dc60       ?setSlopeLimit@BoxController@Cct@physx@@UAEXM@Z 1000ec60 f i CctBoxController.obj
 0001:0000dca0       ?setStepOffset@BoxController@Cct@physx@@UAEXM@Z 1000eca0 f i CctBoxController.obj
 0001:0000dce0       ?setUpDirection@BoxController@Cct@physx@@UAEXABVPxVec3@3@@Z 1000ece0 f i CctBoxController.obj
 0001:0000dd10       ?setUserData@BoxController@Cct@physx@@UAEXPAX@Z 1000ed10 f i CctBoxController.obj
 0001:0000dd30       ?unlock@?$MutexT@V?$ReflectionAllocator@VMutexImpl@shdfnd@physx@@@shdfnd@physx@@@shdfnd@physx@@QBEXXZ 1000ed30 f i CctBoxController.obj
 0001:0000dd50       ??0CapsuleController@Cct@physx@@QAE@ABVPxControllerDesc@2@AAVPxPhysics@2@PAVPxScene@2@@Z 1000ed50 f   CctCapsuleController.obj
 0001:0000de50       ??1CapsuleController@Cct@physx@@UAE@XZ 1000ee50 f   CctCapsuleController.obj
 0001:0000de90       ?getWorldBox@CapsuleController@Cct@physx@@UBE_NAAUPxExtendedBounds3@3@@Z 1000ee90 f   CctCapsuleController.obj
 0001:0000df10       ?setFootPosition@CapsuleController@Cct@physx@@UAE_NABUPxExtendedVec3@3@@Z 1000ef10 f   CctCapsuleController.obj
 0001:0000dfa0       ?getFootPosition@CapsuleController@Cct@physx@@UBE?AUPxExtendedVec3@3@XZ 1000efa0 f   CctCapsuleController.obj
 0001:0000e050       ?invalidateCache@CapsuleController@Cct@physx@@UAEXXZ 1000f050 f   CctCapsuleController.obj
 0001:0000e0b0       ?resize@CapsuleController@Cct@physx@@UAEXM@Z 1000f0b0 f   CctCapsuleController.obj
 0001:0000e180       ?getClimbingMode@CapsuleController@Cct@physx@@UBE?AW4Enum@PxCapsuleClimbingMode@3@XZ 1000f180 f   CctCapsuleController.obj
 0001:0000e1a0       ?setRadius@CapsuleController@Cct@physx@@UAE_NM@Z 1000f1a0 f   CctCapsuleController.obj
 0001:0000e280       ?setHeight@CapsuleController@Cct@physx@@UAE_NM@Z 1000f280 f   CctCapsuleController.obj
 0001:0000e360       ?setClimbingMode@CapsuleController@Cct@physx@@UAE_NW4Enum@PxCapsuleClimbingMode@3@@Z 1000f360 f   CctCapsuleController.obj
 0001:0000e390       ?getCapsule@CapsuleController@Cct@physx@@QBEXAAUPxExtendedCapsule@3@@Z 1000f390 f   CctCapsuleController.obj
 0001:0000e6e0       ??0PxCapsuleController@physx@@IAE@XZ 1000f6e0 f i CctCapsuleController.obj
 0001:0000e710       ??0PxCapsuleGeometry@physx@@QAE@XZ 1000f710 f i CctCapsuleController.obj
 0001:0000e750       ??1PxCapsuleController@physx@@MAE@XZ 1000f750 f i CctCapsuleController.obj
 0001:0000e773       ??_ECapsuleController@Cct@physx@@W7AEPAXI@Z 1000f773 f i CctCapsuleController.obj
 0001:0000e780       ??_GCapsuleController@Cct@physx@@UAEPAXI@Z 1000f780 f i CctCapsuleController.obj
 0001:0000e780       ??_ECapsuleController@Cct@physx@@UAEPAXI@Z 1000f780 f i CctCapsuleController.obj
 0001:0000e7e0       ??_GPxCapsuleController@physx@@MAEPAXI@Z 1000f7e0 f i CctCapsuleController.obj
 0001:0000e7e0       ??_EPxCapsuleController@physx@@MAEPAXI@Z 1000f7e0 f i CctCapsuleController.obj
 0001:0000e820       ?getActor@CapsuleController@Cct@physx@@UBEPAVPxRigidDynamic@3@XZ 1000f820 f i CctCapsuleController.obj
 0001:0000e840       ?getContactOffset@CapsuleController@Cct@physx@@UBEMXZ 1000f840 f i CctCapsuleController.obj
 0001:0000e860       ?getHalfHeightInternal@CapsuleController@Cct@physx@@UBEMXZ 1000f860 f i CctCapsuleController.obj
 0001:0000e8a0       ?getHeight@CapsuleController@Cct@physx@@UBEMXZ 1000f8a0 f i CctCapsuleController.obj
 0001:0000e8c0       ?getNonWalkableMode@CapsuleController@Cct@physx@@UBE?AW4Enum@PxControllerNonWalkableMode@3@XZ 1000f8c0 f i CctCapsuleController.obj
 0001:0000e8e0       ?getPosition@CapsuleController@Cct@physx@@UBEABUPxExtendedVec3@3@XZ 1000f8e0 f i CctCapsuleController.obj
 0001:0000e900       ?getPxController@CapsuleController@Cct@physx@@UAEPAVPxController@3@XZ 1000f900 f i CctCapsuleController.obj
 0001:0000e920       ?getRadius@CapsuleController@Cct@physx@@UBEMXZ 1000f920 f i CctCapsuleController.obj
 0001:0000e940       ?getScene@CapsuleController@Cct@physx@@UAEPAVPxScene@3@XZ 1000f940 f i CctCapsuleController.obj
 0001:0000e960       ?getSlopeLimit@CapsuleController@Cct@physx@@UBEMXZ 1000f960 f i CctCapsuleController.obj
 0001:0000e980       ?getState@CapsuleController@Cct@physx@@UBEXAAUPxControllerState@3@@Z 1000f980 f i CctCapsuleController.obj
 0001:0000e9b0       ?getStats@CapsuleController@Cct@physx@@UBEXAAUPxControllerStats@3@@Z 1000f9b0 f i CctCapsuleController.obj
 0001:0000e9e0       ?getStepOffset@CapsuleController@Cct@physx@@UBEMXZ 1000f9e0 f i CctCapsuleController.obj
 0001:0000ea00       ?getType@CapsuleController@Cct@physx@@UBE?AW4Enum@PxControllerShapeType@3@XZ 1000fa00 f i CctCapsuleController.obj
 0001:0000ea20       ?getUpDirection@CapsuleController@Cct@physx@@UBE?AVPxVec3@3@XZ 1000fa20 f i CctCapsuleController.obj
 0001:0000ea50       ?getUserData@CapsuleController@Cct@physx@@UBEPAXXZ 1000fa50 f i CctCapsuleController.obj
 0001:0000ea70       ?release@CapsuleController@Cct@physx@@UAEXXZ 1000fa70 f i CctCapsuleController.obj
 0001:0000ea90       ?setContactOffset@CapsuleController@Cct@physx@@UAEXM@Z 1000fa90 f i CctCapsuleController.obj
 0001:0000ead0       ?setNonWalkableMode@CapsuleController@Cct@physx@@UAEXW4Enum@PxControllerNonWalkableMode@3@@Z 1000fad0 f i CctCapsuleController.obj
 0001:0000eaf0       ?setPosition@CapsuleController@Cct@physx@@UAE_NABUPxExtendedVec3@3@@Z 1000faf0 f i CctCapsuleController.obj
 0001:0000eb20       ?setSlopeLimit@CapsuleController@Cct@physx@@UAEXM@Z 1000fb20 f i CctCapsuleController.obj
 0001:0000eb60       ?setStepOffset@CapsuleController@Cct@physx@@UAEXM@Z 1000fb60 f i CctCapsuleController.obj
 0001:0000eba0       ?setUpDirection@CapsuleController@Cct@physx@@UAEXABVPxVec3@3@@Z 1000fba0 f i CctCapsuleController.obj
 0001:0000ebd0       ?setUserData@CapsuleController@Cct@physx@@UAEXPAX@Z 1000fbd0 f i CctCapsuleController.obj
 0001:0000ebf0       ??0CCTParams@Cct@physx@@QAE@XZ 1000fbf0 f   CctCharacterController.obj
 0001:0000ec90       ??0SweepTest@Cct@physx@@QAE@_N@Z 1000fc90 f   CctCharacterController.obj
 0001:0000ef90       ??1SweepTest@Cct@physx@@QAE@XZ 1000ff90 f   CctCharacterController.obj
 0001:0000efe0       ?moveCharacter@SweepTest@Cct@physx@@QAE?AV?$PxFlags@W4Enum@PxControllerCollisionFlag@physx@@E@3@PBUInternalCBData_FindTouchedGeom@23@PAUInternalCBData_OnHit@23@AAVSweptVolume@23@ABVPxVec3@3@ABUUserObstacles@23@MABVPxControllerFilters@3@_N6AAPBVPxRigidActor@3@AAPBVPxShape@3@_K@Z 1000ffe0 f   CctCharacterController.obj
 0001:0000f9f0       ?doSweepTest@SweepTest@Cct@physx@@QAE_NPBUInternalCBData_FindTouchedGeom@23@PAUInternalCBData_OnHit@23@ABUUserObstacles@23@AAVSweptVolume@23@ABVPxVec3@3@4IPAIMABVPxControllerFilters@3@W4SweepPass@23@AAPBVPxRigidActor@3@AAPBVPxShape@3@_K@Z 100109f0 f   CctCharacterController.obj
 0001:000104c0       ?findTouchedObstacles@SweepTest@Cct@physx@@QAEXABUUserObstacles@23@ABUPxExtendedBounds3@3@@Z 100114c0 f   CctCharacterController.obj
 0001:000109a0       ?voidTestCache@SweepTest@Cct@physx@@QAEXXZ 100119a0 f   CctCharacterController.obj
 0001:000109f0       ?onRelease@SweepTest@Cct@physx@@QAEXABVPxBase@3@@Z 100119f0 f   CctCharacterController.obj
 0001:00010a90       ?updateCachedShapesRegistration@SweepTest@Cct@physx@@QAEXI_N@Z 10011a90 f   CctCharacterController.obj
 0001:00010bb0       ?onObstacleRemoved@SweepTest@Cct@physx@@QAEXI@Z 10011bb0 f   CctCharacterController.obj
 0001:00010be0       ?onObstacleUpdated@SweepTest@Cct@physx@@QAEXIPBVPxObstacleContext@3@ABVPxVec3@3@1M@Z 10011be0 f   CctCharacterController.obj
 0001:00010d40       ?onObstacleAdded@SweepTest@Cct@physx@@QAEXIPBVPxObstacleContext@3@ABVPxVec3@3@1M@Z 10011d40 f   CctCharacterController.obj
 0001:00010ec0       ?onOriginShift@SweepTest@Cct@physx@@QAEXABVPxVec3@3@@Z 10011ec0 f   CctCharacterController.obj
 0001:00010fd0       ?updateTouchedGeoms@SweepTest@Cct@physx@@AAEXPBUInternalCBData_FindTouchedGeom@23@ABUUserObstacles@23@ABUPxExtendedBounds3@3@ABVPxControllerFilters@3@ABVPxVec3@3@@Z 10011fd0 f   CctCharacterController.obj
 0001:00011600       ?findTouchedObject@Controller@Cct@physx@@IAEXABVPxControllerFilters@3@PBVPxObstacleContext@3@ABVPxVec3@3@@Z 10012600 f   CctCharacterController.obj
 0001:00011bb0       ?rideOnTouchedObject@Controller@Cct@physx@@IAE_NAAVSweptVolume@23@ABVPxVec3@3@AAV53@PBVPxObstacleContext@3@@Z 10012bb0 f   CctCharacterController.obj
 0001:00012010       ?move@Controller@Cct@physx@@IAE?AV?$PxFlags@W4Enum@PxControllerCollisionFlag@physx@@E@3@AAVSweptVolume@23@ABVPxVec3@3@MMABVPxControllerFilters@3@PBVPxObstacleContext@3@_N@Z 10013010 f   CctCharacterController.obj
 0001:00013060       ?filterTouchedShape@Controller@Cct@physx@@IAE_NABVPxControllerFilters@3@@Z 10014060 f   CctCharacterController.obj
 0001:00015440       ?move@BoxController@Cct@physx@@UAE?AV?$PxFlags@W4Enum@PxControllerCollisionFlag@physx@@E@3@ABVPxVec3@3@MMABVPxControllerFilters@3@PBVPxObstacleContext@3@@Z 10016440 f   CctCharacterController.obj
 0001:00015550       ?move@CapsuleController@Cct@physx@@UAE?AV?$PxFlags@W4Enum@PxControllerCollisionFlag@physx@@E@3@ABVPxVec3@3@MMABVPxControllerFilters@3@PBVPxObstacleContext@3@@Z 10016550 f   CctCharacterController.obj
 0001:00017110       ??$PX_UNUSED@I@@YAXABI@Z   10018110 f i CctCharacterController.obj
 0001:00017120       ??$PX_UNUSED@PBUPxRaycastHit@physx@@@@YAXABQBUPxRaycastHit@physx@@@Z 10018120 f i CctCharacterController.obj
 0001:00017130       ??$PX_UNUSED@W4PxIDENTITY@physx@@@@YAXABW4PxIDENTITY@physx@@@Z 10018130 f i CctCharacterController.obj
 0001:00017140       ??$PX_UNUSED@_K@@YAXAB_K@Z 10018140 f i CctCharacterController.obj
 0001:00017150       ??$PxMax@I@physx@@YAIII@Z  10018150 f i CctCharacterController.obj
 0001:00017180       ??$PxMax@N@physx@@YANNN@Z  10018180 f i CctCharacterController.obj
 0001:000171c0       ??$PxMin@N@physx@@YANNN@Z  100181c0 f i CctCharacterController.obj
 0001:00017200       ??$PxUnionCast@PBVPxGeometry@physx@@PAY03$$CBE@physx@@YAPBVPxGeometry@0@PAY03$$CBE@Z 10018200 f i CctCharacterController.obj
 0001:00017220       ??0?$Array@IVNamedAllocator@shdfnd@physx@@@shdfnd@physx@@QAE@ABVNamedAllocator@12@@Z 10018220 f i CctCharacterController.obj
 0001:00017270       ??0?$Array@VPxTriangle@physx@@VNamedAllocator@shdfnd@2@@shdfnd@physx@@QAE@ABVNamedAllocator@12@@Z 10018270 f i CctCharacterController.obj
 0001:000172c0       ??0?$PxFlags@W4Enum@PxControllerCollisionFlag@physx@@E@physx@@QAE@ABV01@@Z 100182c0 f i CctCharacterController.obj
 0001:000172e0       ??0?$PxFlags@W4Enum@PxControllerCollisionFlag@physx@@E@physx@@QAE@E@Z 100182e0 f i CctCharacterController.obj
 0001:00017300       ??0?$PxFlags@W4Enum@PxHitFlag@physx@@G@physx@@QAE@ABV01@@Z 10018300 f i CctCharacterController.obj
 0001:00017330       ??0?$PxFlags@W4Enum@PxHitFlag@physx@@G@physx@@QAE@G@Z 10018330 f i CctCharacterController.obj
 0001:00017350       ??0?$PxFlags@W4Enum@PxHitFlag@physx@@G@physx@@QAE@W4Enum@PxHitFlag@1@@Z 10018350 f i CctCharacterController.obj
 0001:00017370       ??0?$PxFlags@W4Enum@PxQueryFlag@physx@@G@physx@@QAE@ABV01@@Z 10018370 f i CctCharacterController.obj
 0001:000173a0       ??0?$PxFlags@W4Enum@PxQueryFlag@physx@@G@physx@@QAE@W4Enum@PxQueryFlag@1@@Z 100183a0 f i CctCharacterController.obj
 0001:000173c0       ??0?$PxFlags@W4Enum@PxQueryFlag@physx@@G@physx@@QAE@XZ 100183c0 f i CctCharacterController.obj
 0001:000173e0       ??0?$PxFlags@W4Enum@PxRigidBodyFlag@physx@@E@physx@@QAE@ABV01@@Z 100183e0 f i CctCharacterController.obj
 0001:00017400       ??0?$PxFlags@W4Enum@PxShapeFlag@physx@@E@physx@@QAE@ABV01@@Z 10018400 f i CctCharacterController.obj
 0001:00017420       ??0?$PxHitBuffer@UPxRaycastHit@physx@@@physx@@QAE@PAUPxRaycastHit@1@I@Z 10018420 f i CctCharacterController.obj
 0001:00017460       ??0?$PxHitCallback@UPxRaycastHit@physx@@@physx@@QAE@PAUPxRaycastHit@1@I@Z 10018460 f i CctCharacterController.obj
 0001:000174c0       ??0?$TouchedObject@VPxRigidActor@physx@@@Cct@physx@@QAE@_N@Z 100184c0 f i CctCharacterController.obj
 0001:00017500       ??0?$TouchedObject@VPxShape@physx@@@Cct@physx@@QAE@_N@Z 10018500 f i CctCharacterController.obj
 0001:00017540       ??0AB@?1???$PxUnionCast@PBVPxGeometry@physx@@PAY03$$CBE@physx@@YAPBVPxGeometry@1@PAY03$$CBE@Z@QAE@0@Z 10018540 f i CctCharacterController.obj
 0001:00017560       ??0CCTFilter@Cct@physx@@QAE@XZ 10018560 f i CctCharacterController.obj
 0001:000175c0       ??0ControllerFilter@@QAE@XZ 100185c0 f i CctCharacterController.obj
 0001:00017600       ??0DebugBox@Cm@physx@@QAE@ABVPxBounds3@2@_N@Z 10018600 f i CctCharacterController.obj
 0001:00017650       ??0DebugBox@Cm@physx@@QAE@ABVPxVec3@2@_N@Z 10018650 f i CctCharacterController.obj
 0001:000176a0       ??0PxActorShape@physx@@QAE@XZ 100186a0 f i CctCharacterController.obj
 0001:000176d0       ??0PxBounds3@physx@@QAE@ABVPxVec3@1@0@Z 100186d0 f i CctCharacterController.obj
 0001:00017710       ??0PxBoxGeometry@physx@@QAE@VPxVec3@1@@Z 10018710 f i CctCharacterController.obj
 0001:00017750       ??0PxCapsuleGeometry@physx@@QAE@MM@Z 10018750 f i CctCharacterController.obj
 0001:000177a0       ??0PxExtendedBox@physx@@QAE@ABV01@@Z 100187a0 f i CctCharacterController.obj
 0001:00017820       ??0PxExtendedBox@physx@@QAE@XZ 10018820 f i CctCharacterController.obj
 0001:00017860       ??0PxExtendedCapsule@physx@@QAE@XZ 10018860 f i CctCharacterController.obj
 0001:00017880       ??0PxExtendedSegment@physx@@QAE@XZ 10018880 f i CctCharacterController.obj
 0001:000178b0       ??0PxFilterData@physx@@QAE@ABU01@@Z 100188b0 f i CctCharacterController.obj
 0001:00017900       ??0PxFilterData@physx@@QAE@XZ 10018900 f i CctCharacterController.obj
 0001:00017950       ??0PxLocationHit@physx@@QAE@XZ 10018950 f i CctCharacterController.obj
 0001:000179d0       ??0PxMat33@physx@@QAE@ABVPxQuat@1@@Z 100189d0 f i CctCharacterController.obj
 0001:00017c50       ??0PxMat33@physx@@QAE@W4PxIDENTITY@1@@Z 10018c50 f i CctCharacterController.obj
 0001:00017d10       ??0PxMat44@physx@@QAE@ABVPxMat33@1@ABVPxVec3@1@@Z 10018d10 f i CctCharacterController.obj
 0001:00017db0       ??0PxMat44@physx@@QAE@ABVPxTransform@1@@Z 10018db0 f i CctCharacterController.obj
 0001:00017e30       ??0PxProfileScoped@physx@@QAE@PBD_N_K@Z 10018e30 f i CctCharacterController.obj
 0001:00017ed0       ??0PxQuat@physx@@QAE@ABV01@@Z 10018ed0 f i CctCharacterController.obj
 0001:00017f20       ??0PxQuat@physx@@QAE@MMMM@Z 10018f20 f i CctCharacterController.obj
 0001:00017f80       ??0PxQuat@physx@@QAE@W4PxIDENTITY@1@@Z 10018f80 f i CctCharacterController.obj
 0001:00017fe0       ??0PxQuat@physx@@QAE@XZ    10018fe0 f i CctCharacterController.obj
 0001:00018000       ??0PxQueryFilterCallback@physx@@QAE@XZ 10019000 f i CctCharacterController.obj
 0001:00018020       ??0PxQueryFilterData@physx@@QAE@ABUPxFilterData@1@V?$PxFlags@W4Enum@PxQueryFlag@physx@@G@1@@Z 10019020 f i CctCharacterController.obj
 0001:00018060       ??0PxQueryHit@physx@@QAE@XZ 10019060 f i CctCharacterController.obj
 0001:00018090       ??0PxRaycastHit@physx@@QAE@XZ 10019090 f i CctCharacterController.obj
 0001:000180d0       ??0PxSphereGeometry@physx@@QAE@XZ 100190d0 f i CctCharacterController.obj
 0001:00018100       ??0PxSweepHit@physx@@QAE@XZ 10019100 f i CctCharacterController.obj
 0001:00018120       ??0PxTransform@physx@@QAE@ABVPxVec3@1@ABVPxQuat@1@@Z 10019120 f i CctCharacterController.obj
 0001:000181b0       ??0PxTransform@physx@@QAE@XZ 100191b0 f i CctCharacterController.obj
 0001:000181e0       ??0PxVec3@physx@@QAE@M@Z   100191e0 f i CctCharacterController.obj
 0001:00018230       ??0PxVec3@physx@@QAE@XZ    10019230 f i CctCharacterController.obj
 0001:00018250       ??0PxVec4@physx@@QAE@ABVPxVec3@1@M@Z 10019250 f i CctCharacterController.obj
 0001:000182a0       ??0PxVec4@physx@@QAE@XZ    100192a0 f i CctCharacterController.obj
 0001:000182c0       ??0SIMDGuard@shdfnd@physx@@QAE@XZ 100192c0 f i CctCharacterController.obj
 0001:000182f0       ??0SweptContact@Cct@physx@@QAE@XZ 100192f0 f i CctCharacterController.obj
 0001:00018320       ??0TriArray@Cct@physx@@QAE@XZ 10019320 f i CctCharacterController.obj
 0001:00018360       ??1?$Array@IVNamedAllocator@shdfnd@physx@@@shdfnd@physx@@QAE@XZ 10019360 f i CctCharacterController.obj
 0001:000183d0       ??1?$Array@VPxTriangle@physx@@VNamedAllocator@shdfnd@2@@shdfnd@physx@@QAE@XZ 100193d0 f i CctCharacterController.obj
 0001:00018440       ??1?$PxHitBuffer@UPxRaycastHit@physx@@@physx@@UAE@XZ 10019440 f i CctCharacterController.obj
 0001:00018470       ??1?$PxHitCallback@UPxRaycastHit@physx@@@physx@@UAE@XZ 10019470 f i CctCharacterController.obj
 0001:00018490       ??1ControllerFilter@@UAE@XZ 10019490 f i CctCharacterController.obj
 0001:000184b0       ??1PxExtendedBox@physx@@QAE@XZ 100194b0 f i CctCharacterController.obj
 0001:000184c0       ??1PxProfileScoped@physx@@QAE@XZ 100194c0 f i CctCharacterController.obj
 0001:00018520       ??1PxQueryFilterCallback@physx@@UAE@XZ 10019520 f i CctCharacterController.obj
 0001:00018540       ??1PxTriangle@physx@@QAE@XZ 10019540 f i CctCharacterController.obj
 0001:00018550       ??1SIMDGuard@shdfnd@physx@@QAE@XZ 10019550 f i CctCharacterController.obj
 0001:00018580       ??1TriArray@Cct@physx@@QAE@XZ 10019580 f i CctCharacterController.obj
 0001:000185a0       ??2@YAPAXIPAX@Z            100195a0 f i CctCharacterController.obj
 0001:000185b0       ??4?$PxFlags@W4Enum@PxControllerCollisionFlag@physx@@E@physx@@QAEAAV01@ABV01@@Z 100195b0 f i CctCharacterController.obj
 0001:000185d0       ??4?$PxFlags@W4Enum@PxHitFlag@physx@@G@physx@@QAEAAV01@ABV01@@Z 100195d0 f i CctCharacterController.obj
 0001:00018600       ??4?$PxFlags@W4Enum@PxQueryFlag@physx@@G@physx@@QAEAAV01@ABV01@@Z 10019600 f i CctCharacterController.obj
 0001:00018630       ??4?$TouchedObject@VPxRigidActor@physx@@@Cct@physx@@QAEAAU012@PBVPxRigidActor@2@@Z 10019630 f i CctCharacterController.obj
 0001:000186b0       ??4?$TouchedObject@VPxShape@physx@@@Cct@physx@@QAEAAU012@PBVPxShape@2@@Z 100196b0 f i CctCharacterController.obj
 0001:00018730       ??4CCTParams@Cct@physx@@QAEAAU012@ABU012@@Z 10019730 f i CctCharacterController.obj
 0001:00018830       ??4FPUGuard@shdfnd@physx@@QAEAAV012@ABV012@@Z 10019830 f i CctCharacterController.obj
 0001:00018860       ??4PxExtendedBox@physx@@QAEAAV01@ABV01@@Z 10019860 f i CctCharacterController.obj
 0001:000188e0       ??4PxLocationHit@physx@@QAEAAU01@ABU01@@Z 100198e0 f i CctCharacterController.obj
 0001:00018970       ??4PxMat44@physx@@QAEAAV01@ABV01@@Z 10019970 f i CctCharacterController.obj
 0001:000189e0       ??4PxRaycastHit@physx@@QAEAAU01@ABU01@@Z 100199e0 f i CctCharacterController.obj
 0001:00018a60       ??4PxTransform@physx@@QAEAAV01@$$QAV01@@Z 10019a60 f i CctCharacterController.obj
 0001:00018aa0       ??4PxVec4@physx@@QAEAAV01@ABV01@@Z 10019aa0 f i CctCharacterController.obj
 0001:00018af0       ??4SweptContact@Cct@physx@@QAEAAU012@ABU012@@Z 10019af0 f i CctCharacterController.obj
 0001:00018b90       ??8?$TouchedObject@VPxRigidActor@physx@@@Cct@physx@@QAE_NPBVPxBase@2@@Z 10019b90 f i CctCharacterController.obj
 0001:00018bd0       ??8?$TouchedObject@VPxShape@physx@@@Cct@physx@@QAE_NPBVPxBase@2@@Z 10019bd0 f i CctCharacterController.obj
 0001:00018c10       ??8?$TouchedObject@VPxShape@physx@@@Cct@physx@@QAE_NPBVPxShape@2@@Z 10019c10 f i CctCharacterController.obj
 0001:00018c50       ??A?$Array@IVNamedAllocator@shdfnd@physx@@@shdfnd@physx@@QAEAAII@Z 10019c50 f i CctCharacterController.obj
 0001:00018cc0       ??A?$Array@IVNamedAllocator@shdfnd@physx@@@shdfnd@physx@@QBEABII@Z 10019cc0 f i CctCharacterController.obj
 0001:00018d30       ??A?$Array@UInternalBoxObstacle@ObstacleContext@Cct@physx@@VNamedAllocator@shdfnd@4@@shdfnd@physx@@QBEABUInternalBoxObstacle@ObstacleContext@Cct@2@I@Z 10019d30 f i CctCharacterController.obj
 0001:00018da0       ??A?$Array@UInternalCapsuleObstacle@ObstacleContext@Cct@physx@@VNamedAllocator@shdfnd@4@@shdfnd@physx@@QBEABUInternalCapsuleObstacle@ObstacleContext@Cct@2@I@Z 10019da0 f i CctCharacterController.obj
 0001:00018e10       ??A?$Array@VPxTriangle@physx@@VNamedAllocator@shdfnd@2@@shdfnd@physx@@QBEABVPxTriangle@2@I@Z 10019e10 f i CctCharacterController.obj
 0001:00018e80       ??B?$PxFlags@W4Enum@PxControllerBehaviorFlag@physx@@E@physx@@QBEIXZ 10019e80 f i CctCharacterController.obj
 0001:00018ea0       ??B?$PxFlags@W4Enum@PxControllerDebugRenderFlag@physx@@I@physx@@QBEIXZ 10019ea0 f i CctCharacterController.obj
 0001:00018ec0       ??B?$PxFlags@W4Enum@PxQueryFlag@physx@@G@physx@@QBE_NXZ 10019ec0 f i CctCharacterController.obj
 0001:00018ef0       ??B?$PxFlags@W4Enum@PxRigidBodyFlag@physx@@E@physx@@QBE_NXZ 10019ef0 f i CctCharacterController.obj
 0001:00018f20       ??B?$PxFlags@W4Enum@PxShapeFlag@physx@@E@physx@@QBE_NXZ 10019f20 f i CctCharacterController.obj
 0001:00018f50       ??B?$TouchedObject@VPxRigidActor@physx@@@Cct@physx@@QBE_NXZ 10019f50 f i CctCharacterController.obj
 0001:00018f90       ??B?$TouchedObject@VPxShape@physx@@@Cct@physx@@QBE_NXZ 10019f90 f i CctCharacterController.obj
 0001:00018fd0       ??C?$TouchedObject@VPxRigidActor@physx@@@Cct@physx@@QBEPBVPxRigidActor@2@XZ 10019fd0 f i CctCharacterController.obj
 0001:00018ff0       ??C?$TouchedObject@VPxShape@physx@@@Cct@physx@@QBEPBVPxShape@2@XZ 10019ff0 f i CctCharacterController.obj
 0001:00019010       ??DPxQuat@physx@@QBE?AV01@ABV01@@Z 1001a010 f i CctCharacterController.obj
 0001:000191c0       ??DPxTransform@physx@@QBE?AV01@ABV01@@Z 1001a1c0 f i CctCharacterController.obj
 0001:00019240       ??GPxVec3@physx@@QBE?AV01@ABV01@@Z 1001a240 f i CctCharacterController.obj
 0001:000192b0       ??GPxVec3@physx@@QBE?AV01@XZ 1001a2b0 f i CctCharacterController.obj
 0001:00019320       ??HPxVec3@physx@@QBE?AV01@ABV01@@Z 1001a320 f i CctCharacterController.obj
 0001:00019390       ??I?$PxFlags@W4Enum@PxQueryFlag@physx@@G@physx@@QBE?AV01@W4Enum@PxQueryFlag@1@@Z 1001a390 f i CctCharacterController.obj
 0001:000193e0       ??I?$PxFlags@W4Enum@PxRigidBodyFlag@physx@@E@physx@@QBE?AV01@W4Enum@PxRigidBodyFlag@1@@Z 1001a3e0 f i CctCharacterController.obj
 0001:00019430       ??I?$PxFlags@W4Enum@PxShapeFlag@physx@@E@physx@@QBE?AV01@W4Enum@PxShapeFlag@1@@Z 1001a430 f i CctCharacterController.obj
 0001:00019480       ??R?$Hash@PAVPxShape@physx@@@shdfnd@physx@@QBEIABQAVPxShape@2@@Z 1001a480 f i CctCharacterController.obj
 0001:000194b0       ??RGetKey@?$HashSetBase@PAVPxShape@physx@@U?$Hash@PAVPxShape@physx@@@shdfnd@2@VNonTrackingAllocator@42@$0A@@internal@shdfnd@physx@@QAEABQAVPxShape@4@ABQAV54@@Z 1001a4b0 f i CctCharacterController.obj
 0001:000194d0       ??U?$PxFlags@W4Enum@PxQueryFlag@physx@@G@physx@@QBE?AV01@W4Enum@PxQueryFlag@1@@Z 1001a4d0 f i CctCharacterController.obj
 0001:00019520       ??Uphysx@@YA?AV?$PxFlags@W4Enum@PxQueryFlag@physx@@G@0@W4Enum@PxQueryFlag@0@0@Z 1001a520 f i CctCharacterController.obj
 0001:00019560       ??YPxVec3@physx@@QAEAAV01@ABV01@@Z 1001a560 f i CctCharacterController.obj
 0001:000195d0       ??ZPxVec3@physx@@QAEAAV01@ABV01@@Z 1001a5d0 f i CctCharacterController.obj
 0001:00019640       ??_0PxVec3@physx@@QAEAAV01@M@Z 1001a640 f i CctCharacterController.obj
 0001:000196c0       ??_5?$PxFlags@W4Enum@PxControllerCollisionFlag@physx@@E@physx@@QAEAAV01@W4Enum@PxControllerCollisionFlag@1@@Z 1001a6c0 f i CctCharacterController.obj
 0001:000196f0       ??_5?$PxFlags@W4Enum@PxHitFlag@physx@@G@physx@@QAEAAV01@W4Enum@PxHitFlag@1@@Z 1001a6f0 f i CctCharacterController.obj
 0001:00019720       ??_5?$PxFlags@W4Enum@PxQueryFlag@physx@@G@physx@@QAEAAV01@W4Enum@PxQueryFlag@1@@Z 1001a720 f i CctCharacterController.obj
 0001:00019750       ??_G?$PxHitBuffer@UPxRaycastHit@physx@@@physx@@UAEPAXI@Z 1001a750 f i CctCharacterController.obj
 0001:00019750       ??_E?$PxHitBuffer@UPxRaycastHit@physx@@@physx@@UAEPAXI@Z 1001a750 f i CctCharacterController.obj
 0001:00019790       ??_E?$PxHitCallback@UPxRaycastHit@physx@@@physx@@UAEPAXI@Z 1001a790 f i CctCharacterController.obj
 0001:00019790       ??_G?$PxHitCallback@UPxRaycastHit@physx@@@physx@@UAEPAXI@Z 1001a790 f i CctCharacterController.obj
 0001:000197d0       ??_GControllerFilter@@UAEPAXI@Z 1001a7d0 f i CctCharacterController.obj
 0001:000197d0       ??_EControllerFilter@@UAEPAXI@Z 1001a7d0 f i CctCharacterController.obj
 0001:00019810       ??_GPxExtendedBox@physx@@QAEPAXI@Z 1001a810 f i CctCharacterController.obj
 0001:00019850       ??_EPxQueryFilterCallback@physx@@UAEPAXI@Z 1001a850 f i CctCharacterController.obj
 0001:00019850       ??_GPxQueryFilterCallback@physx@@UAEPAXI@Z 1001a850 f i CctCharacterController.obj
 0001:00019890       ??_GPxTriangle@physx@@QAEPAXI@Z 1001a890 f i CctCharacterController.obj
 0001:000198d0       ?PxAbs@physx@@YAMM@Z       1001a8d0 f i CctCharacterController.obj
 0001:000198f0       ?PxIsFinite@physx@@YA_NM@Z 1001a8f0 f i CctCharacterController.obj
 0001:00019910       ?PxRecipSqrt@physx@@YAMM@Z 1001a910 f i CctCharacterController.obj
 0001:00019930       ?PxSqrt@physx@@YAMM@Z      1001a930 f i CctCharacterController.obj
 0001:00019950       ?abs@intrinsics@physx@@YAMM@Z 1001a950 f i CctCharacterController.obj
 0001:00019970       ?add@physx@@YAXAAUPxExtendedBounds3@1@ABU21@@Z 1001a970 f i CctCharacterController.obj
 0001:000199a0       ?allocate@?$Array@IVNamedAllocator@shdfnd@physx@@@shdfnd@physx@@IAEPAII@Z 1001a9a0 f i CctCharacterController.obj
 0001:00019a20       ?allocate@?$Array@PBXVNamedAllocator@shdfnd@physx@@@shdfnd@physx@@IAEPAPBXI@Z 1001aa20 f i CctCharacterController.obj
 0001:00019aa0       ?allocate@?$Array@UPxExtendedCapsule@physx@@VNamedAllocator@shdfnd@2@@shdfnd@physx@@IAEPAUPxExtendedCapsule@3@I@Z 1001aaa0 f i CctCharacterController.obj
 0001:00019b20       ?allocate@?$Array@VPxExtendedBox@physx@@VNamedAllocator@shdfnd@2@@shdfnd@physx@@IAEPAVPxExtendedBox@3@I@Z 1001ab20 f i CctCharacterController.obj
 0001:00019ba0       ?any@PxGeometryHolder@physx@@QBEABVPxGeometry@2@XZ 1001aba0 f i CctCharacterController.obj
 0001:00019bc0       ?begin@?$Array@IVNamedAllocator@shdfnd@physx@@@shdfnd@physx@@QAEPAIXZ 1001abc0 f i CctCharacterController.obj
 0001:00019be0       ?begin@?$Array@IVNamedAllocator@shdfnd@physx@@@shdfnd@physx@@QBEPBIXZ 1001abe0 f i CctCharacterController.obj
 0001:00019c00       ?begin@?$Array@PBXVNamedAllocator@shdfnd@physx@@@shdfnd@physx@@QAEPAPBXXZ 1001ac00 f i CctCharacterController.obj
 0001:00019c20       ?begin@?$Array@UPxExtendedCapsule@physx@@VNamedAllocator@shdfnd@2@@shdfnd@physx@@QAEPAUPxExtendedCapsule@3@XZ 1001ac20 f i CctCharacterController.obj
 0001:00019c40       ?begin@?$Array@VPxExtendedBox@physx@@VNamedAllocator@shdfnd@2@@shdfnd@physx@@QAEPAVPxExtendedBox@3@XZ 1001ac40 f i CctCharacterController.obj
 0001:00019c60       ?capacity@?$Array@IVNamedAllocator@shdfnd@physx@@@shdfnd@physx@@QBEIXZ 1001ac60 f i CctCharacterController.obj
 0001:00019c80       ?capacity@?$Array@PBXVNamedAllocator@shdfnd@physx@@@shdfnd@physx@@QBEIXZ 1001ac80 f i CctCharacterController.obj
 0001:00019ca0       ?capacity@?$Array@UPxExtendedCapsule@physx@@VNamedAllocator@shdfnd@2@@shdfnd@physx@@QBEIXZ 1001aca0 f i CctCharacterController.obj
 0001:00019cc0       ?capacity@?$Array@VPxExtendedBox@physx@@VNamedAllocator@shdfnd@2@@shdfnd@physx@@QBEIXZ 1001acc0 f i CctCharacterController.obj
 0001:00019ce0       ?capacity@?$Array@VPxTriangle@physx@@VNamedAllocator@shdfnd@2@@shdfnd@physx@@QBEIXZ 1001ace0 f i CctCharacterController.obj
 0001:00019d00       ?capacityIncrement@?$Array@PBXVNamedAllocator@shdfnd@physx@@@shdfnd@physx@@IBEIXZ 1001ad00 f i CctCharacterController.obj
 0001:00019d40       ?capacityIncrement@?$Array@UPxExtendedCapsule@physx@@VNamedAllocator@shdfnd@2@@shdfnd@physx@@IBEIXZ 1001ad40 f i CctCharacterController.obj
 0001:00019d80       ?capacityIncrement@?$Array@VPxExtendedBox@physx@@VNamedAllocator@shdfnd@2@@shdfnd@physx@@IBEIXZ 1001ad80 f i CctCharacterController.obj
 0001:00019dc0       ?clear@?$Array@IVNamedAllocator@shdfnd@physx@@@shdfnd@physx@@QAEXXZ 1001adc0 f i CctCharacterController.obj
 0001:00019e00       ?clear@?$Array@VPxTriangle@physx@@VNamedAllocator@shdfnd@2@@shdfnd@physx@@QAEXXZ 1001ae00 f i CctCharacterController.obj
 0001:00019e40       ?clear@TriArray@Cct@physx@@QAEXXZ 1001ae40 f i CctCharacterController.obj
 0001:00019e60       ?computeTimeCoeff@Controller@Cct@physx@@IAEMXZ 1001ae60 f i CctCharacterController.obj
 0001:00019ed0       ?contains@?$HashSetBase@PAVPxShape@physx@@U?$Hash@PAVPxShape@physx@@@shdfnd@2@VNonTrackingAllocator@42@$0A@@internal@shdfnd@physx@@QBE_NABQAVPxShape@4@@Z 1001aed0 f i CctCharacterController.obj
 0001:00019f10       ?copy@?$Array@IVNamedAllocator@shdfnd@physx@@@shdfnd@physx@@KAXPAI0PBI@Z 1001af10 f i CctCharacterController.obj
 0001:00019f70       ?copy@?$Array@PBXVNamedAllocator@shdfnd@physx@@@shdfnd@physx@@KAXPAPBX0PBQBX@Z 1001af70 f i CctCharacterController.obj
 0001:00019fd0       ?copy@?$Array@UPxExtendedCapsule@physx@@VNamedAllocator@shdfnd@2@@shdfnd@physx@@KAXPAUPxExtendedCapsule@3@0PBU43@@Z 1001afd0 f i CctCharacterController.obj
 0001:0001a040       ?copy@?$Array@VPxExtendedBox@physx@@VNamedAllocator@shdfnd@2@@shdfnd@physx@@KAXPAVPxExtendedBox@3@0PBV43@@Z 1001b040 f i CctCharacterController.obj
 0001:0001a0a0       ?cross@PxVec3@physx@@QBE?AV12@ABV12@@Z 1001b0a0 f i CctCharacterController.obj
 0001:0001a160       ?deallocate@?$Array@IVNamedAllocator@shdfnd@physx@@@shdfnd@physx@@IAEXPAX@Z 1001b160 f i CctCharacterController.obj
 0001:0001a180       ?deallocate@?$Array@PBXVNamedAllocator@shdfnd@physx@@@shdfnd@physx@@IAEXPAX@Z 1001b180 f i CctCharacterController.obj
 0001:0001a1a0       ?deallocate@?$Array@UPxExtendedCapsule@physx@@VNamedAllocator@shdfnd@2@@shdfnd@physx@@IAEXPAX@Z 1001b1a0 f i CctCharacterController.obj
 0001:0001a1c0       ?deallocate@?$Array@VPxExtendedBox@physx@@VNamedAllocator@shdfnd@2@@shdfnd@physx@@IAEXPAX@Z 1001b1c0 f i CctCharacterController.obj
 0001:0001a1e0       ?deallocate@?$Array@VPxTriangle@physx@@VNamedAllocator@shdfnd@2@@shdfnd@physx@@IAEXPAX@Z 1001b1e0 f i CctCharacterController.obj
 0001:0001a200       ?decomposeVector@shdfnd@physx@@YAXAAVPxVec3@2@0ABV32@1@Z 1001b200 f i CctCharacterController.obj
 0001:0001a270       ?destroy@?$Array@IVNamedAllocator@shdfnd@physx@@@shdfnd@physx@@KAXPAI0@Z 1001b270 f i CctCharacterController.obj
 0001:0001a290       ?destroy@?$Array@PBXVNamedAllocator@shdfnd@physx@@@shdfnd@physx@@KAXPAPBX0@Z 1001b290 f i CctCharacterController.obj
 0001:0001a2b0       ?destroy@?$Array@UPxExtendedCapsule@physx@@VNamedAllocator@shdfnd@2@@shdfnd@physx@@KAXPAUPxExtendedCapsule@3@0@Z 1001b2b0 f i CctCharacterController.obj
 0001:0001a2d0       ?destroy@?$Array@VPxExtendedBox@physx@@VNamedAllocator@shdfnd@2@@shdfnd@physx@@KAXPAVPxExtendedBox@3@0@Z 1001b2d0 f i CctCharacterController.obj
 0001:0001a300       ?destroy@?$Array@VPxTriangle@physx@@VNamedAllocator@shdfnd@2@@shdfnd@physx@@KAXPAVPxTriangle@3@0@Z 1001b300 f i CctCharacterController.obj
 0001:0001a330       ?dot@PxExtendedVec3@physx@@QBENABVPxVec3@2@@Z 1001b330 f i CctCharacterController.obj
 0001:0001a390       ?dot@PxVec3@physx@@QBEMABV12@@Z 1001b390 f i CctCharacterController.obj
 0001:0001a3f0       ?encodeUserObject@Cct@physx@@YAIIW4UserObjectType@12@@Z 1001b3f0 f i CctCharacterController.obj
 0001:0001a4a0       ?end@?$Array@IVNamedAllocator@shdfnd@physx@@@shdfnd@physx@@QAEPAIXZ 1001b4a0 f i CctCharacterController.obj
 0001:0001a4c0       ?end@?$Array@IVNamedAllocator@shdfnd@physx@@@shdfnd@physx@@QBEPBIXZ 1001b4c0 f i CctCharacterController.obj
 0001:0001a4e0       ?equal@?$Hash@PAVPxShape@physx@@@shdfnd@physx@@QBE_NABQAVPxShape@3@0@Z 1001b4e0 f i CctCharacterController.obj
 0001:0001a520       ?finalizeQuery@?$PxHitCallback@UPxRaycastHit@physx@@@physx@@UAEXXZ 1001b520 f i CctCharacterController.obj
 0001:0001a530       ?find@?$HashBase@PAVPxShape@physx@@PAV12@U?$Hash@PAVPxShape@physx@@@shdfnd@2@UGetKey@?$HashSetBase@PAVPxShape@physx@@U?$Hash@PAVPxShape@physx@@@shdfnd@2@VNonTrackingAllocator@42@$0A@@internal@42@VNonTrackingAllocator@42@$0A@@internal@shdfnd@physx@@QBEPBQAVPxShape@4@ABQAV54@@Z 1001b530 f i CctCharacterController.obj
 0001:0001a600       ?forceSize_Unsafe@?$Array@IVNamedAllocator@shdfnd@physx@@@shdfnd@physx@@QAEXI@Z 1001b600 f i CctCharacterController.obj
 0001:0001a670       ?forceSize_Unsafe@?$Array@VPxTriangle@physx@@VNamedAllocator@shdfnd@2@@shdfnd@physx@@QAEXI@Z 1001b670 f i CctCharacterController.obj
 0001:0001a6e0       ?forceSize_Unsafe@TriArray@Cct@physx@@QAEXI@Z 1001b6e0 f i CctCharacterController.obj
 0001:0001a700       ?get@?$TouchedObject@VPxRigidActor@physx@@@Cct@physx@@QBEPBVPxRigidActor@3@XZ 1001b700 f i CctCharacterController.obj
 0001:0001a720       ?get@?$TouchedObject@VPxShape@physx@@@Cct@physx@@QBEPBVPxShape@3@XZ 1001b720 f i CctCharacterController.obj
 0001:0001a740       ?getAnyHit@?$PxHitBuffer@UPxRaycastHit@physx@@@physx@@QBEABUPxRaycastHit@2@I@Z 1001b740 f i CctCharacterController.obj
 0001:0001a7f0       ?getBasisVector0@PxQuat@physx@@QBE?AVPxVec3@2@XZ 1001b7f0 f i CctCharacterController.obj
 0001:0001a8e0       ?getCenter@PxBounds3@physx@@QBE?AVPxVec3@2@XZ 1001b8e0 f i CctCharacterController.obj
 0001:0001a990       ?getConcreteType@PxBase@physx@@QBEGXZ 1001b990 f i CctCharacterController.obj
 0001:0001a9b0       ?getContextId@Controller@Cct@physx@@QBE_KXZ 1001b9b0 f i CctCharacterController.obj
 0001:0001a9d0       ?getDimensions@PxBounds3@physx@@QBE?AVPxVec3@2@XZ 1001b9d0 f i CctCharacterController.obj
 0001:0001aa60       ?getExtents@PxBounds3@physx@@QBE?AVPxVec3@2@XZ 1001ba60 f i CctCharacterController.obj
 0001:0001ab00       ?getGlobalPose@PxShapeExt@physx@@SA?AVPxTransform@2@ABVPxShape@2@ABVPxRigidActor@2@@Z 1001bb00 f i CctCharacterController.obj
 0001:0001ab50       ?getNbTouches@?$PxHitBuffer@UPxRaycastHit@physx@@@physx@@QBEIXZ 1001bb50 f i CctCharacterController.obj
 0001:0001ab70       ?getNormalized@PxVec3@physx@@QBE?AV12@XZ 1001bb70 f i CctCharacterController.obj
 0001:0001ac20       ?getShapeGlobalPose@physx@@YA?AVPxTransform@1@ABVPxShape@1@ABVPxRigidActor@1@@Z 1001bc20 f i CctCharacterController.obj
 0001:0001ac50       ?getTouches@?$PxHitBuffer@UPxRaycastHit@physx@@@physx@@QBEPBUPxRaycastHit@2@XZ 1001bc50 f i CctCharacterController.obj
 0001:0001ac70       ?getTriangle@TriArray@Cct@physx@@QBEABVPxTriangle@3@I@Z 1001bc70 f i CctCharacterController.obj
 0001:0001ac90       ?getType@SweptVolume@Cct@physx@@QBE?AW4Enum@SweptVolumeType@23@XZ 1001bc90 f i CctCharacterController.obj
 0001:0001acb0       ?grow@?$Array@IVNamedAllocator@shdfnd@physx@@@shdfnd@physx@@IAEXI@Z 1001bcb0 f i CctCharacterController.obj
 0001:0001ad30       ?growAndPushBack@?$Array@PBXVNamedAllocator@shdfnd@physx@@@shdfnd@physx@@IAEAAPBXABQBX@Z 1001bd30 f i CctCharacterController.obj
 0001:0001aea0       ?growAndPushBack@?$Array@UPxExtendedCapsule@physx@@VNamedAllocator@shdfnd@2@@shdfnd@physx@@IAEAAUPxExtendedCapsule@3@ABU43@@Z 1001bea0 f i CctCharacterController.obj
 0001:0001b010       ?growAndPushBack@?$Array@VPxExtendedBox@physx@@VNamedAllocator@shdfnd@2@@shdfnd@physx@@IAEAAVPxExtendedBox@3@ABV43@@Z 1001c010 f i CctCharacterController.obj
 0001:0001b180       ?hash@?$HashBase@PAVPxShape@physx@@PAV12@U?$Hash@PAVPxShape@physx@@@shdfnd@2@UGetKey@?$HashSetBase@PAVPxShape@physx@@U?$Hash@PAVPxShape@physx@@@shdfnd@2@VNonTrackingAllocator@42@$0A@@internal@42@VNonTrackingAllocator@42@$0A@@internal@shdfnd@physx@@ABEIABQAVPxShape@4@@Z 1001c180 f i CctCharacterController.obj
 0001:0001b1b0       ?hash@?$HashBase@PAVPxShape@physx@@PAV12@U?$Hash@PAVPxShape@physx@@@shdfnd@2@UGetKey@?$HashSetBase@PAVPxShape@physx@@U?$Hash@PAVPxShape@physx@@@shdfnd@2@VNonTrackingAllocator@42@$0A@@internal@42@VNonTrackingAllocator@42@$0A@@internal@shdfnd@physx@@ABEIABQAVPxShape@4@I@Z 1001c1b0 f i CctCharacterController.obj
 0001:0001b1e0       ?hash@shdfnd@physx@@YAII@Z 1001c1e0 f i CctCharacterController.obj
 0001:0001b260       ?hash@shdfnd@physx@@YAIPBX@Z 1001c260 f i CctCharacterController.obj
 0001:0001b280       ?intersectOBBAABB@Gu@physx@@YA_NABVBox@12@ABVPxBounds3@2@@Z 1001c280 f i CctCharacterController.obj
 0001:0001b2f0       ?isAlmostZero@shdfnd@physx@@YA_NABVPxVec3@2@@Z 1001c2f0 f i CctCharacterController.obj
 0001:0001b3a0       ?isFinite@PxBounds3@physx@@QBE_NXZ 1001c3a0 f i CctCharacterController.obj
 0001:0001b400       ?isFinite@PxQuat@physx@@QBE_NXZ 1001c400 f i CctCharacterController.obj
 0001:0001b4c0       ?isFinite@PxTransform@physx@@QBE_NXZ 1001c4c0 f i CctCharacterController.obj
 0001:0001b520       ?isFinite@PxVec3@physx@@QBE_NXZ 1001c520 f i CctCharacterController.obj
 0001:0001b5c0       ?isFinite@intrinsics@physx@@YA_NM@Z 1001c5c0 f i CctCharacterController.obj
 0001:0001b610       ?isInUserMemory@?$Array@IVNamedAllocator@shdfnd@physx@@@shdfnd@physx@@QBEIXZ 1001c610 f i CctCharacterController.obj
 0001:0001b630       ?isInUserMemory@?$Array@PBXVNamedAllocator@shdfnd@physx@@@shdfnd@physx@@QBEIXZ 1001c630 f i CctCharacterController.obj
 0001:0001b650       ?isInUserMemory@?$Array@UPxExtendedCapsule@physx@@VNamedAllocator@shdfnd@2@@shdfnd@physx@@QBEIXZ 1001c650 f i CctCharacterController.obj
 0001:0001b670       ?isInUserMemory@?$Array@VPxExtendedBox@physx@@VNamedAllocator@shdfnd@2@@shdfnd@physx@@QBEIXZ 1001c670 f i CctCharacterController.obj
 0001:0001b690       ?isInUserMemory@?$Array@VPxTriangle@physx@@VNamedAllocator@shdfnd@2@@shdfnd@physx@@QBEIXZ 1001c690 f i CctCharacterController.obj
 0001:0001b6b0       ?isInside@PxExtendedBounds3@physx@@QBE_NABU12@@Z 1001c6b0 f i CctCharacterController.obj
 0001:0001b770       ?isSane@PxQuat@physx@@QBE_NXZ 1001c770 f i CctCharacterController.obj
 0001:0001b800       ?isSane@PxTransform@physx@@QBE_NXZ 1001c800 f i CctCharacterController.obj
 0001:0001b850       ?isValid@PxBounds3@physx@@QBE_NXZ 1001c850 f i CctCharacterController.obj
 0001:0001b970       ?isZero@PxVec3@physx@@QBE_NXZ 1001c970 f i CctCharacterController.obj
 0001:0001b9f0       ?magnitude@PxQuat@physx@@QBEMXZ 1001c9f0 f i CctCharacterController.obj
 0001:0001ba20       ?magnitude@PxVec3@physx@@QBEMXZ 1001ca20 f i CctCharacterController.obj
 0001:0001ba50       ?magnitudeSquared@PxQuat@physx@@QBEMXZ 1001ca50 f i CctCharacterController.obj
 0001:0001bad0       ?magnitudeSquared@PxVec3@physx@@QBEMXZ 1001cad0 f i CctCharacterController.obj
 0001:0001bb30       ?maximum@PxExtendedVec3@physx@@QAEXABU12@@Z 1001cb30 f i CctCharacterController.obj
 0001:0001bbc0       ?minimum@PxExtendedVec3@physx@@QAEXABU12@@Z 1001cbc0 f i CctCharacterController.obj
 0001:0001bc50       ?normal@PxTriangle@physx@@QBEXAAVPxVec3@2@@Z 1001cc50 f i CctCharacterController.obj
 0001:0001bce0       ?normalize@PxVec3@physx@@QAEMXZ 1001cce0 f i CctCharacterController.obj
 0001:0001bd30       ?postFilter@ControllerFilter@@UAE?AW4Enum@PxQueryHitType@physx@@ABUPxFilterData@4@ABUPxQueryHit@4@@Z 1001cd30 f i CctCharacterController.obj
 0001:0001bdf0       ?preFilter@ControllerFilter@@UAE?AW4Enum@PxQueryHitType@physx@@ABUPxFilterData@4@PBVPxShape@4@PBVPxRigidActor@4@AAV?$PxFlags@W4Enum@PxHitFlag@physx@@G@4@@Z 1001cdf0 f i CctCharacterController.obj
 0001:0001bed0       ?processTouches@?$PxHitBuffer@UPxRaycastHit@physx@@@physx@@MAE_NPBUPxRaycastHit@2@I@Z 1001ced0 f i CctCharacterController.obj
 0001:0001bf00       ?pushBack@?$Array@PBXVNamedAllocator@shdfnd@physx@@@shdfnd@physx@@QAEAAPBXABQBX@Z 1001cf00 f i CctCharacterController.obj
 0001:0001bfa0       ?pushBack@?$Array@UPxExtendedCapsule@physx@@VNamedAllocator@shdfnd@2@@shdfnd@physx@@QAEAAUPxExtendedCapsule@3@ABU43@@Z 1001cfa0 f i CctCharacterController.obj
 0001:0001c040       ?pushBack@?$Array@VPxExtendedBox@physx@@VNamedAllocator@shdfnd@2@@shdfnd@physx@@QAEAAVPxExtendedBox@3@ABV43@@Z 1001d040 f i CctCharacterController.obj
 0001:0001c0e0       ?recipSqrt@intrinsics@physx@@YAMM@Z 1001d0e0 f i CctCharacterController.obj
 0001:0001c130       ?recreate@?$Array@IVNamedAllocator@shdfnd@physx@@@shdfnd@physx@@IAEXI@Z 1001d130 f i CctCharacterController.obj
 0001:0001c240       ?reserve@?$Array@IVNamedAllocator@shdfnd@physx@@@shdfnd@physx@@QAEXI@Z 1001d240 f i CctCharacterController.obj
 0001:0001c270       ?resetStats@SweepTest@Cct@physx@@QAEXXZ 1001d270 f i CctCharacterController.obj
 0001:0001c2c0       ?rotate@PxQuat@physx@@QBE?BVPxVec3@2@ABV32@@Z 1001d2c0 f i CctCharacterController.obj
 0001:0001c4b0       ?rotateInv@PxQuat@physx@@QBE?BVPxVec3@2@ABV32@@Z 1001d4b0 f i CctCharacterController.obj
 0001:0001c6a0       ?selectMax@intrinsics@physx@@YAMMM@Z 1001d6a0 f i CctCharacterController.obj
 0001:0001c6e0       ?selectMin@intrinsics@physx@@YAMMM@Z 1001d6e0 f i CctCharacterController.obj
 0001:0001c720       ?set@PxExtendedBounds3@physx@@QAEXNNNNNN@Z 1001d720 f i CctCharacterController.obj
 0001:0001c7b0       ?set@PxExtendedVec3@physx@@QAEXNNN@Z 1001d7b0 f i CctCharacterController.obj
 0001:0001c7f0       ?setEmpty@PxExtendedBounds3@physx@@QAEXXZ 1001d7f0 f i CctCharacterController.obj
 0001:0001c880       ?setWorldPos@SweptContact@Cct@physx@@QAEXABVPxVec3@3@ABUPxExtendedVec3@3@@Z 1001d880 f i CctCharacterController.obj
 0001:0001c8f0       ?size@?$Array@IVNamedAllocator@shdfnd@physx@@@shdfnd@physx@@QBEIXZ 1001d8f0 f i CctCharacterController.obj
 0001:0001c910       ?size@?$Array@PBXVNamedAllocator@shdfnd@physx@@@shdfnd@physx@@QBEIXZ 1001d910 f i CctCharacterController.obj
 0001:0001c930       ?size@?$Array@UInternalBoxObstacle@ObstacleContext@Cct@physx@@VNamedAllocator@shdfnd@4@@shdfnd@physx@@QBEIXZ 1001d930 f i CctCharacterController.obj
 0001:0001c950       ?size@?$Array@UInternalCapsuleObstacle@ObstacleContext@Cct@physx@@VNamedAllocator@shdfnd@4@@shdfnd@physx@@QBEIXZ 1001d950 f i CctCharacterController.obj
 0001:0001c970       ?size@?$Array@UPxExtendedCapsule@physx@@VNamedAllocator@shdfnd@2@@shdfnd@physx@@QBEIXZ 1001d970 f i CctCharacterController.obj
 0001:0001c990       ?size@?$Array@VPxExtendedBox@physx@@VNamedAllocator@shdfnd@2@@shdfnd@physx@@QBEIXZ 1001d990 f i CctCharacterController.obj
 0001:0001c9b0       ?size@?$Array@VPxTriangle@physx@@VNamedAllocator@shdfnd@2@@shdfnd@physx@@QBEIXZ 1001d9b0 f i CctCharacterController.obj
 0001:0001c9d0       ?size@TriArray@Cct@physx@@QBEIXZ 1001d9d0 f i CctCharacterController.obj
 0001:0001c9f0       ?sqrt@intrinsics@physx@@YAMM@Z 1001d9f0 f i CctCharacterController.obj
 0001:0001ca10       ?testSlope@physx@@YA_NABVPxVec3@1@0M@Z 1001da10 f i CctCharacterController.obj
 0001:0001ca70       ?toVec3@physx@@YA?AVPxVec3@1@ABUPxExtendedVec3@1@@Z 1001da70 f i CctCharacterController.obj
 0001:0001cac0       ?transform@PxTransform@physx@@QBE?AV12@ABV12@@Z 1001dac0 f i CctCharacterController.obj
 0001:0001cbd0       ?transform@PxTransform@physx@@QBE?AVPxVec3@2@ABV32@@Z 1001dbd0 f i CctCharacterController.obj
 0001:0001cc70       ?transformInv@PxTransform@physx@@QBE?AVPxVec3@2@ABV32@@Z 1001dc70 f i CctCharacterController.obj
 0001:0001cd00       _fabsf                     1001dd00 f i CctCharacterController.obj
 0001:0001cd30       _sqrtf                     1001dd30 f i CctCharacterController.obj
 0001:0001cdb0       ?getSceneTimestamp@Cct@physx@@YAIPBUInternalCBData_FindTouchedGeom@12@@Z 1001ddb0 f   CctCharacterControllerCallbacks.obj
 0001:0001ce20       ?findTouchedGeometry@Cct@physx@@YAXPBUInternalCBData_FindTouchedGeom@12@ABUPxExtendedBounds3@2@AAVTriArray@12@AAV?$Array@IVNamedAllocator@shdfnd@physx@@@shdfnd@2@3ABVCCTFilter@12@ABUCCTParams@12@AAG@Z 1001de20 f   CctCharacterControllerCallbacks.obj
 0001:0001d2d0       ?shapeHitCallback@Cct@physx@@YAIPBUInternalCBData_OnHit@12@ABUSweptContact@12@ABVPxVec3@2@M@Z 1001e2d0 f   CctCharacterControllerCallbacks.obj
 0001:0001d390       ?userHitCallback@Cct@physx@@YAIPBUInternalCBData_OnHit@12@ABUSweptContact@12@ABVPxVec3@2@M@Z 1001e390 f   CctCharacterControllerCallbacks.obj
 0001:000211a0       ??$PX_UNUSED@PBUPxOverlapHit@physx@@@@YAXABQBUPxOverlapHit@physx@@@Z 100221a0 f i CctCharacterControllerCallbacks.obj
 0001:000211b0       ??0?$PxFlags@W4Enum@PxConvexMeshGeometryFlag@physx@@E@physx@@QAE@XZ 100221b0 f i CctCharacterControllerCallbacks.obj
 0001:000211d0       ??0?$PxFlags@W4Enum@PxMeshGeometryFlag@physx@@E@physx@@QAE@E@Z 100221d0 f i CctCharacterControllerCallbacks.obj
 0001:000211f0       ??0?$PxFlags@W4Enum@PxMeshGeometryFlag@physx@@E@physx@@QAE@XZ 100221f0 f i CctCharacterControllerCallbacks.obj
 0001:00021210       ??0?$PxHitBuffer@UPxOverlapHit@physx@@@physx@@QAE@PAUPxOverlapHit@1@I@Z 10022210 f i CctCharacterControllerCallbacks.obj
 0001:00021250       ??0?$PxHitCallback@UPxOverlapHit@physx@@@physx@@QAE@PAUPxOverlapHit@1@I@Z 10022250 f i CctCharacterControllerCallbacks.obj
 0001:000212b0       ??0?$PxPadding@$02@physx@@QAE@XZ 100222b0 f i CctCharacterControllerCallbacks.obj
 0001:00021300       ??0PxControllerHit@physx@@QAE@XZ 10022300 f i CctCharacterControllerCallbacks.obj
 0001:00021340       ??0PxControllerObstacleHit@physx@@QAE@XZ 10022340 f i CctCharacterControllerCallbacks.obj
 0001:00021360       ??0PxControllerShapeHit@physx@@QAE@XZ 10022360 f i CctCharacterControllerCallbacks.obj
 0001:00021380       ??0PxControllersHit@physx@@QAE@XZ 10022380 f i CctCharacterControllerCallbacks.obj
 0001:000213a0       ??0PxConvexMeshGeometry@physx@@QAE@XZ 100223a0 f i CctCharacterControllerCallbacks.obj
 0001:00021420       ??0PxExtendedSphere@physx@@QAE@XZ 10022420 f i CctCharacterControllerCallbacks.obj
 0001:00021440       ??0PxHeightFieldGeometry@physx@@QAE@XZ 10022440 f i CctCharacterControllerCallbacks.obj
 0001:000214d0       ??0PxMat33@physx@@QAE@ABVPxVec3@1@00@Z 100224d0 f i CctCharacterControllerCallbacks.obj
 0001:00021520       ??0PxMeshScale@physx@@QAE@M@Z 10022520 f i CctCharacterControllerCallbacks.obj
 0001:00021560       ??0PxMeshScale@physx@@QAE@XZ 10022560 f i CctCharacterControllerCallbacks.obj
 0001:000215a0       ??0PxOverlapHit@physx@@QAE@XZ 100225a0 f i CctCharacterControllerCallbacks.obj
 0001:000215c0       ??0PxPlane@physx@@QAE@ABVPxVec3@1@M@Z 100225c0 f i CctCharacterControllerCallbacks.obj
 0001:00021600       ??0PxPlane@physx@@QAE@MMMM@Z 10022600 f i CctCharacterControllerCallbacks.obj
 0001:00021660       ??0PxQueryFilterData@physx@@QAE@$$QAU01@@Z 10022660 f i CctCharacterControllerCallbacks.obj
 0001:000216b0       ??0PxQueryFilterData@physx@@QAE@V?$PxFlags@W4Enum@PxQueryFlag@physx@@G@1@@Z 100226b0 f i CctCharacterControllerCallbacks.obj
 0001:000216f0       ??0PxTransform@physx@@QAE@ABVPxVec3@1@@Z 100226f0 f i CctCharacterControllerCallbacks.obj
 0001:00021730       ??0PxTriangle@physx@@QAE@ABV01@@Z 10022730 f i CctCharacterControllerCallbacks.obj
 0001:000217d0       ??0PxTriangle@physx@@QAE@ABVPxVec3@1@00@Z 100227d0 f i CctCharacterControllerCallbacks.obj
 0001:00021850       ??0PxTriangle@physx@@QAE@XZ 10022850 f i CctCharacterControllerCallbacks.obj
 0001:00021880       ??0PxTriangleMeshGeometry@physx@@QAE@XZ 10022880 f i CctCharacterControllerCallbacks.obj
 0001:000218e0       ??0PxVec4@physx@@QAE@MMMM@Z 100228e0 f i CctCharacterControllerCallbacks.obj
 0001:00021940       ??0TessParams@@QAE@XZ      10022940 f i CctCharacterControllerCallbacks.obj
 0001:00021970       ??0TrianglePadded@Gu@physx@@QAE@XZ 10022970 f i CctCharacterControllerCallbacks.obj
 0001:00021990       ??0Vec3p@Gu@physx@@QAE@ABVPxVec3@2@@Z 10022990 f i CctCharacterControllerCallbacks.obj
 0001:000219c0       ??1?$PxHitBuffer@UPxOverlapHit@physx@@@physx@@UAE@XZ 100229c0 f i CctCharacterControllerCallbacks.obj
 0001:000219f0       ??1?$PxHitCallback@UPxOverlapHit@physx@@@physx@@UAE@XZ 100229f0 f i CctCharacterControllerCallbacks.obj
 0001:00021a10       ??1PxExtendedSphere@physx@@QAE@XZ 10022a10 f i CctCharacterControllerCallbacks.obj
 0001:00021a20       ??1TrianglePadded@Gu@physx@@QAE@XZ 10022a20 f i CctCharacterControllerCallbacks.obj
 0001:00021a40       ??1Vec3p@Gu@physx@@QAE@XZ  10022a40 f i CctCharacterControllerCallbacks.obj
 0001:00021a50       ??APxVec3@physx@@QBEABMI@Z 10022a50 f i CctCharacterControllerCallbacks.obj
 0001:00021ac0       ??DPxMat33@physx@@QBE?BV01@ABV01@@Z 10022ac0 f i CctCharacterControllerCallbacks.obj
 0001:00021b30       ??DPxVec4@physx@@QBE?AV01@M@Z 10022b30 f i CctCharacterControllerCallbacks.obj
 0001:00021bb0       ??HPxVec4@physx@@QBE?AV01@ABV01@@Z 10022bb0 f i CctCharacterControllerCallbacks.obj
 0001:00021c40       ??_E?$PxHitBuffer@UPxOverlapHit@physx@@@physx@@UAEPAXI@Z 10022c40 f i CctCharacterControllerCallbacks.obj
 0001:00021c40       ??_G?$PxHitBuffer@UPxOverlapHit@physx@@@physx@@UAEPAXI@Z 10022c40 f i CctCharacterControllerCallbacks.obj
 0001:00021c80       ??_E?$PxHitCallback@UPxOverlapHit@physx@@@physx@@UAEPAXI@Z 10022c80 f i CctCharacterControllerCallbacks.obj
 0001:00021c80       ??_G?$PxHitCallback@UPxOverlapHit@physx@@@physx@@UAEPAXI@Z 10022c80 f i CctCharacterControllerCallbacks.obj
 0001:00021cc0       ?FLoad@aos@shdfnd@physx@@YA?AT__m128@@M@Z 10022cc0 f i CctCharacterControllerCallbacks.obj
 0001:00021d00       ?PxPlaneEquationFromTransform@physx@@YA?AVPxPlane@1@ABVPxTransform@1@@Z 10022d00 f i CctCharacterControllerCallbacks.obj
 0001:00021d60       ?V3Load@aos@shdfnd@physx@@YA?AT__m128@@M@Z 10022d60 f i CctCharacterControllerCallbacks.obj
 0001:00021dc0       ?V4Load@aos@shdfnd@physx@@YA?AT__m128@@M@Z 10022dc0 f i CctCharacterControllerCallbacks.obj
 0001:00021e00       ?allocate@?$Array@VPxTriangle@physx@@VNamedAllocator@shdfnd@2@@shdfnd@physx@@IAEPAVPxTriangle@3@I@Z 10022e00 f i CctCharacterControllerCallbacks.obj
 0001:00021e80       ?begin@?$Array@VPxTriangle@physx@@VNamedAllocator@shdfnd@2@@shdfnd@physx@@QBEPBVPxTriangle@3@XZ 10022e80 f i CctCharacterControllerCallbacks.obj
 0001:00021ea0       ?begin@TriArray@Cct@physx@@QBEPBVPxTriangle@3@XZ 10022ea0 f i CctCharacterControllerCallbacks.obj
 0001:00021ec0       ?capacityIncrement@?$Array@IVNamedAllocator@shdfnd@physx@@@shdfnd@physx@@IBEIXZ 10022ec0 f i CctCharacterControllerCallbacks.obj
 0001:00021f00       ?centerExtents@PxBounds3@physx@@SA?AV12@ABVPxVec3@2@0@Z 10022f00 f i CctCharacterControllerCallbacks.obj
 0001:00021f50       ?computeBasis@shdfnd@physx@@YAXABVPxVec3@2@AAV32@1@Z 10022f50 f i CctCharacterControllerCallbacks.obj
 0001:00022110       ?copy@?$Array@VPxTriangle@physx@@VNamedAllocator@shdfnd@2@@shdfnd@physx@@KAXPAVPxTriangle@3@0PBV43@@Z 10023110 f i CctCharacterControllerCallbacks.obj
 0001:00022170       ?decodeIndex@Cct@physx@@YAII@Z 10023170 f i CctCharacterControllerCallbacks.obj
 0001:00022180       ?decodeType@Cct@physx@@YA?AW4UserObjectType@12@I@Z 10023180 f i CctCharacterControllerCallbacks.obj
 0001:00022190       ?distance@PxPlane@physx@@QBEMABVPxVec3@2@@Z 10023190 f i CctCharacterControllerCallbacks.obj
 0001:000221d0       ?end@?$Array@VPxTriangle@physx@@VNamedAllocator@shdfnd@2@@shdfnd@physx@@QAEPAVPxTriangle@3@XZ 100231d0 f i CctCharacterControllerCallbacks.obj
 0001:000221f0       ?finalizeQuery@?$PxHitCallback@UPxOverlapHit@physx@@@physx@@UAEXXZ 100231f0 f i CctCharacterControllerCallbacks.obj
 0001:00022200       ?getAnyHit@?$PxHitBuffer@UPxOverlapHit@physx@@@physx@@QBEABUPxOverlapHit@2@I@Z 10023200 f i CctCharacterControllerCallbacks.obj
 0001:000222b0       ?getCctManager@Controller@Cct@physx@@QAEPAVCharacterControllerManager@23@XZ 100232b0 f i CctCharacterControllerCallbacks.obj
 0001:000222d0       ?getNbAnyHits@?$PxHitBuffer@UPxOverlapHit@physx@@@physx@@QBEIXZ 100232d0 f i CctCharacterControllerCallbacks.obj
 0001:00022300       ?getNbTouches@?$PxHitBuffer@UPxOverlapHit@physx@@@physx@@QBEIXZ 10023300 f i CctCharacterControllerCallbacks.obj
 0001:00022320       ?getPosition@PxMat44@physx@@QBE?BVPxVec3@2@XZ 10023320 f i CctCharacterControllerCallbacks.obj
 0001:00022350       ?getResults@PxMeshOverlapUtil@physx@@QBEPBIXZ 10023350 f i CctCharacterControllerCallbacks.obj
 0001:00022370       ?getTouches@?$PxHitBuffer@UPxOverlapHit@physx@@@physx@@QBEPBUPxOverlapHit@2@XZ 10023370 f i CctCharacterControllerCallbacks.obj
 0001:00022390       ?getTranspose@PxMat33@physx@@QBE?BV12@XZ 10023390 f i CctCharacterControllerCallbacks.obj
 0001:00022480       ?getXYZ@PxVec4@physx@@QBE?AVPxVec3@2@XZ 10023480 f i CctCharacterControllerCallbacks.obj
 0001:000224e0       ?grow@?$Array@VPxTriangle@physx@@VNamedAllocator@shdfnd@2@@shdfnd@physx@@IAEXI@Z 100234e0 f i CctCharacterControllerCallbacks.obj
 0001:00022560       ?growAndPushBack@?$Array@IVNamedAllocator@shdfnd@physx@@@shdfnd@physx@@IAEAAIABI@Z 10023560 f i CctCharacterControllerCallbacks.obj
 0001:000226d0       ?processTouches@?$PxHitBuffer@UPxOverlapHit@physx@@@physx@@MAE_NPBUPxOverlapHit@2@I@Z 100236d0 f i CctCharacterControllerCallbacks.obj
 0001:00022700       ?project@PxPlane@physx@@QBE?AVPxVec3@2@ABV32@@Z 10023700 f i CctCharacterControllerCallbacks.obj
 0001:00022750       ?pushBack@?$Array@IVNamedAllocator@shdfnd@physx@@@shdfnd@physx@@QAEAAIABI@Z 10023750 f i CctCharacterControllerCallbacks.obj
 0001:000227f0       ?pushBack@TriArray@Cct@physx@@QAEXABVPxTriangle@3@@Z 100237f0 f i CctCharacterControllerCallbacks.obj
 0001:00022880       ?recreate@?$Array@VPxTriangle@physx@@VNamedAllocator@shdfnd@2@@shdfnd@physx@@IAEXI@Z 10023880 f i CctCharacterControllerCallbacks.obj
 0001:00022980       ?reserve@?$Array@VPxTriangle@physx@@VNamedAllocator@shdfnd@2@@shdfnd@physx@@QAEXI@Z 10023980 f i CctCharacterControllerCallbacks.obj
 0001:000229b0       ?reserve@TriArray@Cct@physx@@QAEPAVPxTriangle@3@I@Z 100239b0 f i CctCharacterControllerCallbacks.obj
 0001:00022a70       ?rotate@PxMat44@physx@@QBE?BVPxVec3@2@ABV32@@Z 10023a70 f i CctCharacterControllerCallbacks.obj
 0001:00022ad0       ?rotate@PxMat44@physx@@QBE?BVPxVec4@2@ABV32@@Z 10023ad0 f i CctCharacterControllerCallbacks.obj
 0001:00022b70       ?rotate@PxTransform@physx@@QBE?AVPxVec3@2@ABV32@@Z 10023b70 f i CctCharacterControllerCallbacks.obj
 0001:00022bf0       ?toMat33@PxMeshScale@physx@@QBE?AVPxMat33@2@XZ 10023bf0 f i CctCharacterControllerCallbacks.obj
 0001:00022cb0       ?transform@PxMat33@physx@@QBE?BVPxVec3@2@ABV32@@Z 10023cb0 f i CctCharacterControllerCallbacks.obj
 0001:00022d50       ?transform@PxTransform@physx@@QBE?AVPxPlane@2@ABV32@@Z 10023d50 f i CctCharacterControllerCallbacks.obj
 0001:00022e10       _PxCreateControllerManager 10023e10 f   CctCharacterControllerManager.obj
 0001:00022e70       ??0CharacterControllerManager@Cct@physx@@QAE@AAVPxScene@2@_N@Z 10023e70 f   CctCharacterControllerManager.obj
 0001:00023050       ??1CharacterControllerManager@Cct@physx@@UAE@XZ 10024050 f   CctCharacterControllerManager.obj
 0001:00023130       ?release@CharacterControllerManager@Cct@physx@@UAEXXZ 10024130 f   CctCharacterControllerManager.obj
 0001:00023200       ?getScene@CharacterControllerManager@Cct@physx@@UBEAAVPxScene@3@XZ 10024200 f   CctCharacterControllerManager.obj
 0001:00023220       ?getNbControllers@CharacterControllerManager@Cct@physx@@UBEIXZ 10024220 f   CctCharacterControllerManager.obj
 0001:00023240       ?getController@CharacterControllerManager@Cct@physx@@UAEPAVPxController@3@I@Z 10024240 f   CctCharacterControllerManager.obj
 0001:000232f0       ?createController@CharacterControllerManager@Cct@physx@@UAEPAVPxController@3@ABVPxControllerDesc@3@@Z 100242f0 f   CctCharacterControllerManager.obj
 0001:00023550       ?purgeControllers@CharacterControllerManager@Cct@physx@@UAEXXZ 10024550 f   CctCharacterControllerManager.obj
 0001:000235a0       ?getRenderBuffer@CharacterControllerManager@Cct@physx@@UAEAAVPxRenderBuffer@3@XZ 100245a0 f   CctCharacterControllerManager.obj
 0001:00023610       ?setDebugRenderingFlags@CharacterControllerManager@Cct@physx@@UAEXV?$PxFlags@W4Enum@PxControllerDebugRenderFlag@physx@@I@3@@Z 10024610 f   CctCharacterControllerManager.obj
 0001:00023680       ?getNbObstacleContexts@CharacterControllerManager@Cct@physx@@UBEIXZ 10024680 f   CctCharacterControllerManager.obj
 0001:000236a0       ?getObstacleContext@CharacterControllerManager@Cct@physx@@UAEPAVPxObstacleContext@3@I@Z 100246a0 f   CctCharacterControllerManager.obj
 0001:00023740       ?createObstacleContext@CharacterControllerManager@Cct@physx@@UAEPAVPxObstacleContext@3@XZ 10024740 f   CctCharacterControllerManager.obj
 0001:000237b0       ?computeInteractions@CharacterControllerManager@Cct@physx@@UAEXMPAVPxControllerFilterCallback@3@@Z 100247b0 f   CctCharacterControllerManager.obj
 0001:00023a00       ?setTessellation@CharacterControllerManager@Cct@physx@@UAEX_NM@Z 10024a00 f   CctCharacterControllerManager.obj
 0001:00023a30       ?setOverlapRecoveryModule@CharacterControllerManager@Cct@physx@@UAEX_N@Z 10024a30 f   CctCharacterControllerManager.obj
 0001:00023a50       ?setPreciseSweeps@CharacterControllerManager@Cct@physx@@UAEX_N@Z 10024a50 f   CctCharacterControllerManager.obj
 0001:00023a70       ?setPreventVerticalSlidingAgainstCeiling@CharacterControllerManager@Cct@physx@@UAEX_N@Z 10024a70 f   CctCharacterControllerManager.obj
 0001:00023a90       ?shiftOrigin@CharacterControllerManager@Cct@physx@@UAEXABVPxVec3@3@@Z 10024a90 f   CctCharacterControllerManager.obj
 0001:00023bd0       ?onRelease@CharacterControllerManager@Cct@physx@@UAEXPBVPxBase@3@PAXW4Enum@PxDeletionEventFlag@3@@Z 10024bd0 f   CctCharacterControllerManager.obj
 0001:00023d30       ?registerObservedObject@CharacterControllerManager@Cct@physx@@QAEXPBVPxBase@3@@Z 10024d30 f   CctCharacterControllerManager.obj
 0001:00023da0       ?unregisterObservedObject@CharacterControllerManager@Cct@physx@@QAEXPBVPxBase@3@@Z 10024da0 f   CctCharacterControllerManager.obj
 0001:00023e60       ?onObstacleRemoved@CharacterControllerManager@Cct@physx@@QBEXI@Z 10024e60 f   CctCharacterControllerManager.obj
 0001:00023eb0       ?onObstacleUpdated@CharacterControllerManager@Cct@physx@@QBEXIPBVPxObstacleContext@3@@Z 10024eb0 f   CctCharacterControllerManager.obj
 0001:00023f80       ?onObstacleAdded@CharacterControllerManager@Cct@physx@@QBEXIPBVPxObstacleContext@3@@Z 10024f80 f   CctCharacterControllerManager.obj
 0001:00024050       ?releaseController@CharacterControllerManager@Cct@physx@@QAEXAAVPxController@3@@Z 10025050 f   CctCharacterControllerManager.obj
 0001:00024210       ?getControllers@CharacterControllerManager@Cct@physx@@QAEPAPAVController@23@XZ 10025210 f   CctCharacterControllerManager.obj
 0001:00024230       ?releaseObstacleContext@CharacterControllerManager@Cct@physx@@QAEXAAVObstacleContext@23@@Z 10025230 f   CctCharacterControllerManager.obj
 0001:000242e0       ?resetObstaclesBuffers@CharacterControllerManager@Cct@physx@@QAEXXZ 100252e0 f   CctCharacterControllerManager.obj
 0001:00025960       ??$?2V?$ReflectionAllocator@VBoxController@Cct@physx@@@shdfnd@physx@@@UserAllocated@shdfnd@physx@@SAPAXIV?$ReflectionAllocator@VBoxController@Cct@physx@@@12@PBDH@Z 10026960 f i CctCharacterControllerManager.obj
 0001:00025980       ??$?2V?$ReflectionAllocator@VCapsuleController@Cct@physx@@@shdfnd@physx@@@UserAllocated@shdfnd@physx@@SAPAXIV?$ReflectionAllocator@VCapsuleController@Cct@physx@@@12@PBDH@Z 10026980 f i CctCharacterControllerManager.obj
 0001:000259a0       ??$?2V?$ReflectionAllocator@VCharacterControllerManager@Cct@physx@@@shdfnd@physx@@@UserAllocated@shdfnd@physx@@SAPAXIV?$ReflectionAllocator@VCharacterControllerManager@Cct@physx@@@12@PBDH@Z 100269a0 f i CctCharacterControllerManager.obj
 0001:000259c0       ??$?2V?$ReflectionAllocator@VObstacleContext@Cct@physx@@@shdfnd@physx@@@UserAllocated@shdfnd@physx@@SAPAXIV?$ReflectionAllocator@VObstacleContext@Cct@physx@@@12@PBDH@Z 100269c0 f i CctCharacterControllerManager.obj
 0001:000259e0       ??$?2V?$ReflectionAllocator@VRenderBuffer@Cm@physx@@@shdfnd@physx@@@UserAllocated@shdfnd@physx@@SAPAXIV?$ReflectionAllocator@VRenderBuffer@Cm@physx@@@12@PBDH@Z 100269e0 f i CctCharacterControllerManager.obj
 0001:00025a00       ??$PX_UNUSED@W4Enum@PxDeletionEventFlag@physx@@@@YAXABW4Enum@PxDeletionEventFlag@physx@@@Z 10026a00 f i CctCharacterControllerManager.obj
 0001:00025a10       ??$append@UPxDebugLine@physx@@@RenderBuffer@Cm@physx@@AAEXAAV?$Array@UPxDebugLine@physx@@VNamedAllocator@shdfnd@2@@shdfnd@2@PBUPxDebugLine@2@I@Z 10026a10 f i CctCharacterControllerManager.obj
 0001:00025a80       ??$append@UPxDebugPoint@physx@@@RenderBuffer@Cm@physx@@AAEXAAV?$Array@UPxDebugPoint@physx@@VNamedAllocator@shdfnd@2@@shdfnd@2@PBUPxDebugPoint@2@I@Z 10026a80 f i CctCharacterControllerManager.obj
 0001:00025af0       ??$append@UPxDebugText@physx@@@RenderBuffer@Cm@physx@@AAEXAAV?$Array@UPxDebugText@physx@@VNamedAllocator@shdfnd@2@@shdfnd@2@PBUPxDebugText@2@I@Z 10026af0 f i CctCharacterControllerManager.obj
 0001:00025b60       ??$append@UPxDebugTriangle@physx@@@RenderBuffer@Cm@physx@@AAEXAAV?$Array@UPxDebugTriangle@physx@@VNamedAllocator@shdfnd@2@@shdfnd@2@PBUPxDebugTriangle@2@I@Z 10026b60 f i CctCharacterControllerManager.obj
 0001:00025bd0       ??$resetOrClear@V?$Array@PBXVNamedAllocator@shdfnd@physx@@@shdfnd@physx@@@@YAXAAV?$Array@PBXVNamedAllocator@shdfnd@physx@@@shdfnd@physx@@@Z 10026bd0 f i CctCharacterControllerManager.obj
 0001:00025c30       ??$resetOrClear@V?$Array@UPxExtendedCapsule@physx@@VNamedAllocator@shdfnd@2@@shdfnd@physx@@@@YAXAAV?$Array@UPxExtendedCapsule@physx@@VNamedAllocator@shdfnd@2@@shdfnd@physx@@@Z 10026c30 f i CctCharacterControllerManager.obj
 0001:00025c90       ??$resetOrClear@V?$Array@VPxExtendedBox@physx@@VNamedAllocator@shdfnd@2@@shdfnd@physx@@@@YAXAAV?$Array@VPxExtendedBox@physx@@VNamedAllocator@shdfnd@2@@shdfnd@physx@@@Z 10026c90 f i CctCharacterControllerManager.obj
 0001:00025cf0       ??$swap@PAVController@Cct@physx@@@shdfnd@physx@@YAXAAPAVController@Cct@1@0@Z 10026cf0 f i CctCharacterControllerManager.obj
 0001:00025d20       ??0?$Array@DVNamedAllocator@shdfnd@physx@@@shdfnd@physx@@QAE@ABVNamedAllocator@12@@Z 10026d20 f i CctCharacterControllerManager.obj
 0001:00025d70       ??0?$Array@PAVController@Cct@physx@@VNamedAllocator@shdfnd@3@@shdfnd@physx@@QAE@ABVNamedAllocator@12@@Z 10026d70 f i CctCharacterControllerManager.obj
 0001:00025dc0       ??0?$Array@PAVObstacleContext@Cct@physx@@VNamedAllocator@shdfnd@3@@shdfnd@physx@@QAE@ABVNamedAllocator@12@@Z 10026dc0 f i CctCharacterControllerManager.obj
 0001:00025e10       ??0?$Array@PBXVNamedAllocator@shdfnd@physx@@@shdfnd@physx@@QAE@ABVNamedAllocator@12@@Z 10026e10 f i CctCharacterControllerManager.obj
 0001:00025e60       ??0?$Array@UPxDebugLine@physx@@VNamedAllocator@shdfnd@2@@shdfnd@physx@@QAE@ABVNamedAllocator@12@@Z 10026e60 f i CctCharacterControllerManager.obj
 0001:00025eb0       ??0?$Array@UPxDebugPoint@physx@@VNamedAllocator@shdfnd@2@@shdfnd@physx@@QAE@ABVNamedAllocator@12@@Z 10026eb0 f i CctCharacterControllerManager.obj
 0001:00025f00       ??0?$Array@UPxDebugText@physx@@VNamedAllocator@shdfnd@2@@shdfnd@physx@@QAE@ABVNamedAllocator@12@@Z 10026f00 f i CctCharacterControllerManager.obj
 0001:00025f50       ??0?$Array@UPxDebugTriangle@physx@@VNamedAllocator@shdfnd@2@@shdfnd@physx@@QAE@ABVNamedAllocator@12@@Z 10026f50 f i CctCharacterControllerManager.obj
 0001:00025fa0       ??0?$Array@UPxExtendedCapsule@physx@@VNamedAllocator@shdfnd@2@@shdfnd@physx@@QAE@ABVNamedAllocator@12@@Z 10026fa0 f i CctCharacterControllerManager.obj
 0001:00025ff0       ??0?$Array@VPxExtendedBox@physx@@VNamedAllocator@shdfnd@2@@shdfnd@physx@@QAE@ABVNamedAllocator@12@@Z 10026ff0 f i CctCharacterControllerManager.obj
 0001:00026040       ??0?$HashBase@PAVPxShape@physx@@PAV12@U?$Hash@PAVPxShape@physx@@@shdfnd@2@UGetKey@?$HashSetBase@PAVPxShape@physx@@U?$Hash@PAVPxShape@physx@@@shdfnd@2@VNonTrackingAllocator@42@$0A@@internal@42@VNonTrackingAllocator@42@$0A@@internal@shdfnd@physx@@QAE@IM@Z 10027040 f i CctCharacterControllerManager.obj
 0001:00026090       ??0?$HashBase@V?$Pair@QBVPxBase@physx@@UObservedRefCounter@Cct@2@@shdfnd@physx@@PBVPxBase@3@U?$Hash@PBVPxBase@physx@@@23@UGetKey@?$HashMapBase@PBVPxBase@physx@@UObservedRefCounter@Cct@2@U?$Hash@PBVPxBase@physx@@@shdfnd@2@VNonTrackingAllocator@62@@internal@23@VNonTrackingAllocator@23@$00@internal@shdfnd@physx@@QAE@IM@Z 10027090 f i CctCharacterControllerManager.obj
 0001:000260e0       ??0?$HashMap@PBVPxBase@physx@@UObservedRefCounter@Cct@2@U?$Hash@PBVPxBase@physx@@@shdfnd@2@VNonTrackingAllocator@62@@shdfnd@physx@@QAE@IM@Z 100270e0 f i CctCharacterControllerManager.obj
 0001:00026110       ??0?$HashMapBase@PBVPxBase@physx@@UObservedRefCounter@Cct@2@U?$Hash@PBVPxBase@physx@@@shdfnd@2@VNonTrackingAllocator@62@@internal@shdfnd@physx@@QAE@IM@Z 10027110 f i CctCharacterControllerManager.obj
 0001:00026140       ??0?$HashSet@PAVPxShape@physx@@U?$Hash@PAVPxShape@physx@@@shdfnd@2@VNonTrackingAllocator@42@@shdfnd@physx@@QAE@IM@Z 10027140 f i CctCharacterControllerManager.obj
 0001:00026170       ??0?$HashSetBase@PAVPxShape@physx@@U?$Hash@PAVPxShape@physx@@@shdfnd@2@VNonTrackingAllocator@42@$0A@@internal@shdfnd@physx@@QAE@IM@Z 10027170 f i CctCharacterControllerManager.obj
 0001:000261a0       ??0?$MutexT@V?$ReflectionAllocator@VMutexImpl@shdfnd@physx@@@shdfnd@physx@@@shdfnd@physx@@QAE@ABV?$ReflectionAllocator@VMutexImpl@shdfnd@physx@@@12@@Z 100271a0 f i CctCharacterControllerManager.obj
 0001:00026210       ??0?$Pair@QBVPxBase@physx@@UObservedRefCounter@Cct@2@@shdfnd@physx@@QAE@ABQBVPxBase@2@ABUObservedRefCounter@Cct@2@@Z 10027210 f i CctCharacterControllerManager.obj
 0001:00026240       ??0?$Pair@QBVPxBase@physx@@UObservedRefCounter@Cct@2@@shdfnd@physx@@QAE@ABV012@@Z 10027240 f i CctCharacterControllerManager.obj
 0001:00026270       ??0?$PxFlags@W4Enum@PxControllerDebugRenderFlag@physx@@I@physx@@QAE@I@Z 10027270 f i CctCharacterControllerManager.obj
 0001:00026290       ??0?$PxFlags@W4Enum@PxDeletionEventFlag@physx@@E@physx@@QAE@W4Enum@PxDeletionEventFlag@1@@Z 10027290 f i CctCharacterControllerManager.obj
 0001:000262b0       ??0?$ReflectionAllocator@VBoxController@Cct@physx@@@shdfnd@physx@@QAE@PBD@Z 100272b0 f i CctCharacterControllerManager.obj
 0001:000262d0       ??0?$ReflectionAllocator@VCapsuleController@Cct@physx@@@shdfnd@physx@@QAE@PBD@Z 100272d0 f i CctCharacterControllerManager.obj
 0001:000262f0       ??0?$ReflectionAllocator@VCharacterControllerManager@Cct@physx@@@shdfnd@physx@@QAE@PBD@Z 100272f0 f i CctCharacterControllerManager.obj
 0001:00026310       ??0?$ReflectionAllocator@VMutexImpl@shdfnd@physx@@@shdfnd@physx@@QAE@ABV012@@Z 10027310 f i CctCharacterControllerManager.obj
 0001:00026330       ??0?$ReflectionAllocator@VMutexImpl@shdfnd@physx@@@shdfnd@physx@@QAE@PBD@Z 10027330 f i CctCharacterControllerManager.obj
 0001:00026350       ??0?$ReflectionAllocator@VObstacleContext@Cct@physx@@@shdfnd@physx@@QAE@PBD@Z 10027350 f i CctCharacterControllerManager.obj
 0001:00026370       ??0?$ReflectionAllocator@VRenderBuffer@Cm@physx@@@shdfnd@physx@@QAE@PBD@Z 10027370 f i CctCharacterControllerManager.obj
 0001:00026390       ??0Axes@Gu@physx@@QAE@W4AxisOrder@12@@Z 10027390 f i CctCharacterControllerManager.obj
 0001:000263e0       ??0ObservedRefCounter@Cct@physx@@QAE@XZ 100273e0 f i CctCharacterControllerManager.obj
 0001:00026400       ??0PxDebugLine@physx@@QAE@ABU01@@Z 10027400 f i CctCharacterControllerManager.obj
 0001:00026460       ??0PxDebugPoint@physx@@QAE@ABU01@@Z 10027460 f i CctCharacterControllerManager.obj
 0001:000264a0       ??0PxDebugText@physx@@QAE@ABU01@@Z 100274a0 f i CctCharacterControllerManager.obj
 0001:000264f0       ??0PxDebugTriangle@physx@@QAE@ABU01@@Z 100274f0 f i CctCharacterControllerManager.obj
 0001:00026570       ??0PxDeletionListener@physx@@IAE@XZ 10027570 f i CctCharacterControllerManager.obj
 0001:00026590       ??0PxRenderBuffer@physx@@QAE@XZ 10027590 f i CctCharacterControllerManager.obj
 0001:000265b0       ??0RenderBuffer@Cm@physx@@QAE@XZ 100275b0 f i CctCharacterControllerManager.obj
 0001:000266c0       ??1?$Array@DVNamedAllocator@shdfnd@physx@@@shdfnd@physx@@QAE@XZ 100276c0 f i CctCharacterControllerManager.obj
 0001:00026730       ??1?$Array@PAVController@Cct@physx@@VNamedAllocator@shdfnd@3@@shdfnd@physx@@QAE@XZ 10027730 f i CctCharacterControllerManager.obj
 0001:000267a0       ??1?$Array@PAVObstacleContext@Cct@physx@@VNamedAllocator@shdfnd@3@@shdfnd@physx@@QAE@XZ 100277a0 f i CctCharacterControllerManager.obj
 0001:00026810       ??1?$Array@PBXVNamedAllocator@shdfnd@physx@@@shdfnd@physx@@QAE@XZ 10027810 f i CctCharacterControllerManager.obj
 0001:00026880       ??1?$Array@UPxDebugLine@physx@@VNamedAllocator@shdfnd@2@@shdfnd@physx@@QAE@XZ 10027880 f i CctCharacterControllerManager.obj
 0001:000268f0       ??1?$Array@UPxDebugPoint@physx@@VNamedAllocator@shdfnd@2@@shdfnd@physx@@QAE@XZ 100278f0 f i CctCharacterControllerManager.obj
 0001:00026960       ??1?$Array@UPxDebugText@physx@@VNamedAllocator@shdfnd@2@@shdfnd@physx@@QAE@XZ 10027960 f i CctCharacterControllerManager.obj
 0001:000269d0       ??1?$Array@UPxDebugTriangle@physx@@VNamedAllocator@shdfnd@2@@shdfnd@physx@@QAE@XZ 100279d0 f i CctCharacterControllerManager.obj
 0001:00026a40       ??1?$Array@UPxExtendedCapsule@physx@@VNamedAllocator@shdfnd@2@@shdfnd@physx@@QAE@XZ 10027a40 f i CctCharacterControllerManager.obj
 0001:00026ab0       ??1?$Array@VPxExtendedBox@physx@@VNamedAllocator@shdfnd@2@@shdfnd@physx@@QAE@XZ 10027ab0 f i CctCharacterControllerManager.obj
 0001:00026b20       ??1?$HashBase@PAVPxShape@physx@@PAV12@U?$Hash@PAVPxShape@physx@@@shdfnd@2@UGetKey@?$HashSetBase@PAVPxShape@physx@@U?$Hash@PAVPxShape@physx@@@shdfnd@2@VNonTrackingAllocator@42@$0A@@internal@42@VNonTrackingAllocator@42@$0A@@internal@shdfnd@physx@@QAE@XZ 10027b20 f i CctCharacterControllerManager.obj
 0001:00026b60       ??1?$HashBase@V?$Pair@QBVPxBase@physx@@UObservedRefCounter@Cct@2@@shdfnd@physx@@PBVPxBase@3@U?$Hash@PBVPxBase@physx@@@23@UGetKey@?$HashMapBase@PBVPxBase@physx@@UObservedRefCounter@Cct@2@U?$Hash@PBVPxBase@physx@@@shdfnd@2@VNonTrackingAllocator@62@@internal@23@VNonTrackingAllocator@23@$00@internal@shdfnd@physx@@QAE@XZ 10027b60 f i CctCharacterControllerManager.obj
 0001:00026ba0       ??1?$HashMap@PBVPxBase@physx@@UObservedRefCounter@Cct@2@U?$Hash@PBVPxBase@physx@@@shdfnd@2@VNonTrackingAllocator@62@@shdfnd@physx@@QAE@XZ 10027ba0 f i CctCharacterControllerManager.obj
 0001:00026bc0       ??1?$HashMapBase@PBVPxBase@physx@@UObservedRefCounter@Cct@2@U?$Hash@PBVPxBase@physx@@@shdfnd@2@VNonTrackingAllocator@62@@internal@shdfnd@physx@@QAE@XZ 10027bc0 f i CctCharacterControllerManager.obj
 0001:00026be0       ??1?$HashSet@PAVPxShape@physx@@U?$Hash@PAVPxShape@physx@@@shdfnd@2@VNonTrackingAllocator@42@@shdfnd@physx@@QAE@XZ 10027be0 f i CctCharacterControllerManager.obj
 0001:00026c00       ??1?$HashSetBase@PAVPxShape@physx@@U?$Hash@PAVPxShape@physx@@@shdfnd@2@VNonTrackingAllocator@42@$0A@@internal@shdfnd@physx@@QAE@XZ 10027c00 f i CctCharacterControllerManager.obj
 0001:00026c20       ??1?$MutexT@V?$ReflectionAllocator@VMutexImpl@shdfnd@physx@@@shdfnd@physx@@@shdfnd@physx@@QAE@XZ 10027c20 f i CctCharacterControllerManager.obj
 0001:00026c50       ??1Axes@Gu@physx@@QAE@XZ   10027c50 f i CctCharacterControllerManager.obj
 0001:00026c60       ??1PxDeletionListener@physx@@MAE@XZ 10027c60 f i CctCharacterControllerManager.obj
 0001:00026c80       ??1PxRenderBuffer@physx@@UAE@XZ 10027c80 f i CctCharacterControllerManager.obj
 0001:00026ca0       ??1RenderBuffer@Cm@physx@@UAE@XZ 10027ca0 f i CctCharacterControllerManager.obj
 0001:00026d00       ??4?$PxFlags@W4Enum@PxControllerDebugRenderFlag@physx@@I@physx@@QAEAAV01@ABV01@@Z 10027d00 f i CctCharacterControllerManager.obj
 0001:00026d20       ??4PxBounds3@physx@@QAEAAV01@$$QAV01@@Z 10027d20 f i CctCharacterControllerManager.obj
 0001:00026d60       ??A?$Array@PAVController@Cct@physx@@VNamedAllocator@shdfnd@3@@shdfnd@physx@@QAEAAPAVController@Cct@2@I@Z 10027d60 f i CctCharacterControllerManager.obj
 0001:00026dd0       ??A?$Array@PAVController@Cct@physx@@VNamedAllocator@shdfnd@3@@shdfnd@physx@@QBEABQAVController@Cct@2@I@Z 10027dd0 f i CctCharacterControllerManager.obj
 0001:00026e40       ??A?$Array@PAVObstacleContext@Cct@physx@@VNamedAllocator@shdfnd@3@@shdfnd@physx@@QAEAAPAVObstacleContext@Cct@2@I@Z 10027e40 f i CctCharacterControllerManager.obj
 0001:00026eb0       ??A?$Array@UPxDebugLine@physx@@VNamedAllocator@shdfnd@2@@shdfnd@physx@@QAEAAUPxDebugLine@2@I@Z 10027eb0 f i CctCharacterControllerManager.obj
 0001:00026f20       ??A?$Array@UPxDebugPoint@physx@@VNamedAllocator@shdfnd@2@@shdfnd@physx@@QAEAAUPxDebugPoint@2@I@Z 10027f20 f i CctCharacterControllerManager.obj
 0001:00026f90       ??A?$Array@UPxDebugText@physx@@VNamedAllocator@shdfnd@2@@shdfnd@physx@@QAEAAUPxDebugText@2@I@Z 10027f90 f i CctCharacterControllerManager.obj
 0001:00027000       ??A?$Array@UPxDebugTriangle@physx@@VNamedAllocator@shdfnd@2@@shdfnd@physx@@QAEAAUPxDebugTriangle@2@I@Z 10028000 f i CctCharacterControllerManager.obj
 0001:00027070       ??A?$HashMapBase@PBVPxBase@physx@@UObservedRefCounter@Cct@2@U?$Hash@PBVPxBase@physx@@@shdfnd@2@VNonTrackingAllocator@62@@internal@shdfnd@physx@@QAEAAUObservedRefCounter@Cct@3@ABQBVPxBase@3@@Z 10028070 f i CctCharacterControllerManager.obj
 0001:000270e0       ??APxMat33@physx@@QBEABVPxVec3@1@I@Z 100280e0 f i CctCharacterControllerManager.obj
 0001:00027100       ??B?$PxFlags@W4Enum@PxControllerDebugRenderFlag@physx@@I@physx@@QBE_NXZ 10028100 f i CctCharacterControllerManager.obj
 0001:00027130       ??R?$Hash@PBVPxBase@physx@@@shdfnd@physx@@QBEIABQBVPxBase@2@@Z 10028130 f i CctCharacterControllerManager.obj
 0001:00027160       ??RGetKey@?$HashMapBase@PBVPxBase@physx@@UObservedRefCounter@Cct@2@U?$Hash@PBVPxBase@physx@@@shdfnd@2@VNonTrackingAllocator@62@@internal@shdfnd@physx@@QAEABQBVPxBase@4@ABV?$Pair@QBVPxBase@physx@@UObservedRefCounter@Cct@2@@34@@Z 10028160 f i CctCharacterControllerManager.obj
 0001:00027174       ??_ECharacterControllerManager@Cct@physx@@W3AEPAXI@Z 10028174 f i CctCharacterControllerManager.obj
 0001:00027180       ??_GCharacterControllerManager@Cct@physx@@UAEPAXI@Z 10028180 f i CctCharacterControllerManager.obj
 0001:00027180       ??_ECharacterControllerManager@Cct@physx@@UAEPAXI@Z 10028180 f i CctCharacterControllerManager.obj
 0001:000271e0       ??_GMutexImpl@shdfnd@physx@@QAEPAXI@Z 100281e0 f i CctCharacterControllerManager.obj
 0001:00027220       ??_EPxDeletionListener@physx@@MAEPAXI@Z 10028220 f i CctCharacterControllerManager.obj
 0001:00027220       ??_GPxDeletionListener@physx@@MAEPAXI@Z 10028220 f i CctCharacterControllerManager.obj
 0001:00027260       ??_EPxRenderBuffer@physx@@UAEPAXI@Z 10028260 f i CctCharacterControllerManager.obj
 0001:00027260       ??_GPxRenderBuffer@physx@@UAEPAXI@Z 10028260 f i CctCharacterControllerManager.obj
 0001:000272a0       ??_GRenderBuffer@Cm@physx@@UAEPAXI@Z 100282a0 f i CctCharacterControllerManager.obj
 0001:000272a0       ??_ERenderBuffer@Cm@physx@@UAEPAXI@Z 100282a0 f i CctCharacterControllerManager.obj
 0001:00027300       ?allocate@?$Array@PAVController@Cct@physx@@VNamedAllocator@shdfnd@3@@shdfnd@physx@@IAEPAPAVController@Cct@3@I@Z 10028300 f i CctCharacterControllerManager.obj
 0001:00027380       ?allocate@?$Array@PAVObstacleContext@Cct@physx@@VNamedAllocator@shdfnd@3@@shdfnd@physx@@IAEPAPAVObstacleContext@Cct@3@I@Z 10028380 f i CctCharacterControllerManager.obj
 0001:00027400       ?allocate@?$Array@UPxDebugLine@physx@@VNamedAllocator@shdfnd@2@@shdfnd@physx@@IAEPAUPxDebugLine@3@I@Z 10028400 f i CctCharacterControllerManager.obj
 0001:00027480       ?allocate@?$Array@UPxDebugPoint@physx@@VNamedAllocator@shdfnd@2@@shdfnd@physx@@IAEPAUPxDebugPoint@3@I@Z 10028480 f i CctCharacterControllerManager.obj
 0001:00027500       ?allocate@?$Array@UPxDebugText@physx@@VNamedAllocator@shdfnd@2@@shdfnd@physx@@IAEPAUPxDebugText@3@I@Z 10028500 f i CctCharacterControllerManager.obj
 0001:00027580       ?allocate@?$Array@UPxDebugTriangle@physx@@VNamedAllocator@shdfnd@2@@shdfnd@physx@@IAEPAUPxDebugTriangle@3@I@Z 10028580 f i CctCharacterControllerManager.obj
 0001:00027600       ?allocate@?$ReflectionAllocator@VBoxController@Cct@physx@@@shdfnd@physx@@QAEPAXIPBDH@Z 10028600 f i CctCharacterControllerManager.obj
 0001:00027660       ?allocate@?$ReflectionAllocator@VCapsuleController@Cct@physx@@@shdfnd@physx@@QAEPAXIPBDH@Z 10028660 f i CctCharacterControllerManager.obj
 0001:000276c0       ?allocate@?$ReflectionAllocator@VCharacterControllerManager@Cct@physx@@@shdfnd@physx@@QAEPAXIPBDH@Z 100286c0 f i CctCharacterControllerManager.obj
 0001:00027720       ?allocate@?$ReflectionAllocator@VMutexImpl@shdfnd@physx@@@shdfnd@physx@@QAEPAXIPBDH@Z 10028720 f i CctCharacterControllerManager.obj
 0001:00027780       ?allocate@?$ReflectionAllocator@VObstacleContext@Cct@physx@@@shdfnd@physx@@QAEPAXIPBDH@Z 10028780 f i CctCharacterControllerManager.obj
 0001:000277e0       ?allocate@?$ReflectionAllocator@VRenderBuffer@Cm@physx@@@shdfnd@physx@@QAEPAXIPBDH@Z 100287e0 f i CctCharacterControllerManager.obj
 0001:00027840       ?allocate@NonTrackingAllocator@shdfnd@physx@@QAEPAXIPBDH@Z 10028840 f i CctCharacterControllerManager.obj
 0001:000278a0       ?append@RenderBuffer@Cm@physx@@UAEXABVPxRenderBuffer@3@@Z 100288a0 f i CctCharacterControllerManager.obj
 0001:00027990       ?begin@?$Array@PAVController@Cct@physx@@VNamedAllocator@shdfnd@3@@shdfnd@physx@@QAEPAPAVController@Cct@3@XZ 10028990 f i CctCharacterControllerManager.obj
 0001:000279b0       ?begin@?$Array@UPxDebugLine@physx@@VNamedAllocator@shdfnd@2@@shdfnd@physx@@QBEPBUPxDebugLine@3@XZ 100289b0 f i CctCharacterControllerManager.obj
 0001:000279d0       ?begin@?$Array@UPxDebugPoint@physx@@VNamedAllocator@shdfnd@2@@shdfnd@physx@@QBEPBUPxDebugPoint@3@XZ 100289d0 f i CctCharacterControllerManager.obj
 0001:000279f0       ?begin@?$Array@UPxDebugText@physx@@VNamedAllocator@shdfnd@2@@shdfnd@physx@@QBEPBUPxDebugText@3@XZ 100289f0 f i CctCharacterControllerManager.obj
 0001:00027a10       ?begin@?$Array@UPxDebugTriangle@physx@@VNamedAllocator@shdfnd@2@@shdfnd@physx@@QBEPBUPxDebugTriangle@3@XZ 10028a10 f i CctCharacterControllerManager.obj
 0001:00027a30       ?capacity@?$Array@DVNamedAllocator@shdfnd@physx@@@shdfnd@physx@@QBEIXZ 10028a30 f i CctCharacterControllerManager.obj
 0001:00027a50       ?capacity@?$Array@PAVController@Cct@physx@@VNamedAllocator@shdfnd@3@@shdfnd@physx@@QBEIXZ 10028a50 f i CctCharacterControllerManager.obj
 0001:00027a70       ?capacity@?$Array@PAVObstacleContext@Cct@physx@@VNamedAllocator@shdfnd@3@@shdfnd@physx@@QBEIXZ 10028a70 f i CctCharacterControllerManager.obj
 0001:00027a90       ?capacity@?$Array@UPxDebugLine@physx@@VNamedAllocator@shdfnd@2@@shdfnd@physx@@QBEIXZ 10028a90 f i CctCharacterControllerManager.obj
 0001:00027ab0       ?capacity@?$Array@UPxDebugPoint@physx@@VNamedAllocator@shdfnd@2@@shdfnd@physx@@QBEIXZ 10028ab0 f i CctCharacterControllerManager.obj
 0001:00027ad0       ?capacity@?$Array@UPxDebugText@physx@@VNamedAllocator@shdfnd@2@@shdfnd@physx@@QBEIXZ 10028ad0 f i CctCharacterControllerManager.obj
 0001:00027af0       ?capacity@?$Array@UPxDebugTriangle@physx@@VNamedAllocator@shdfnd@2@@shdfnd@physx@@QBEIXZ 10028af0 f i CctCharacterControllerManager.obj
 0001:00027b10       ?capacityIncrement@?$Array@PAVController@Cct@physx@@VNamedAllocator@shdfnd@3@@shdfnd@physx@@IBEIXZ 10028b10 f i CctCharacterControllerManager.obj
 0001:00027b50       ?capacityIncrement@?$Array@PAVObstacleContext@Cct@physx@@VNamedAllocator@shdfnd@3@@shdfnd@physx@@IBEIXZ 10028b50 f i CctCharacterControllerManager.obj
 0001:00027b90       ?capacityIncrement@?$Array@UPxDebugLine@physx@@VNamedAllocator@shdfnd@2@@shdfnd@physx@@IBEIXZ 10028b90 f i CctCharacterControllerManager.obj
 0001:00027bd0       ?capacityIncrement@?$Array@UPxDebugPoint@physx@@VNamedAllocator@shdfnd@2@@shdfnd@physx@@IBEIXZ 10028bd0 f i CctCharacterControllerManager.obj
 0001:00027c10       ?capacityIncrement@?$Array@UPxDebugText@physx@@VNamedAllocator@shdfnd@2@@shdfnd@physx@@IBEIXZ 10028c10 f i CctCharacterControllerManager.obj
 0001:00027c50       ?capacityIncrement@?$Array@UPxDebugTriangle@physx@@VNamedAllocator@shdfnd@2@@shdfnd@physx@@IBEIXZ 10028c50 f i CctCharacterControllerManager.obj
 0001:00027c90       ?clear@?$Array@DVNamedAllocator@shdfnd@physx@@@shdfnd@physx@@QAEXXZ 10028c90 f i CctCharacterControllerManager.obj
 0001:00027cd0       ?clear@?$Array@PBXVNamedAllocator@shdfnd@physx@@@shdfnd@physx@@QAEXXZ 10028cd0 f i CctCharacterControllerManager.obj
 0001:00027d10       ?clear@?$Array@UPxDebugLine@physx@@VNamedAllocator@shdfnd@2@@shdfnd@physx@@QAEXXZ 10028d10 f i CctCharacterControllerManager.obj
 0001:00027d50       ?clear@?$Array@UPxDebugPoint@physx@@VNamedAllocator@shdfnd@2@@shdfnd@physx@@QAEXXZ 10028d50 f i CctCharacterControllerManager.obj
 0001:00027d90       ?clear@?$Array@UPxDebugText@physx@@VNamedAllocator@shdfnd@2@@shdfnd@physx@@QAEXXZ 10028d90 f i CctCharacterControllerManager.obj
 0001:00027dd0       ?clear@?$Array@UPxDebugTriangle@physx@@VNamedAllocator@shdfnd@2@@shdfnd@physx@@QAEXXZ 10028dd0 f i CctCharacterControllerManager.obj
 0001:00027e10       ?clear@?$Array@UPxExtendedCapsule@physx@@VNamedAllocator@shdfnd@2@@shdfnd@physx@@QAEXXZ 10028e10 f i CctCharacterControllerManager.obj
 0001:00027e50       ?clear@?$Array@VPxExtendedBox@physx@@VNamedAllocator@shdfnd@2@@shdfnd@physx@@QAEXXZ 10028e50 f i CctCharacterControllerManager.obj
 0001:00027e90       ?clear@RenderBuffer@Cm@physx@@UAEXXZ 10028e90 f i CctCharacterControllerManager.obj
 0001:00027ef0       ?copy@?$Array@PAVController@Cct@physx@@VNamedAllocator@shdfnd@3@@shdfnd@physx@@KAXPAPAVController@Cct@3@0PBQAV453@@Z 10028ef0 f i CctCharacterControllerManager.obj
 0001:00027f50       ?copy@?$Array@PAVObstacleContext@Cct@physx@@VNamedAllocator@shdfnd@3@@shdfnd@physx@@KAXPAPAVObstacleContext@Cct@3@0PBQAV453@@Z 10028f50 f i CctCharacterControllerManager.obj
 0001:00027fb0       ?copy@?$Array@UPxDebugLine@physx@@VNamedAllocator@shdfnd@2@@shdfnd@physx@@KAXPAUPxDebugLine@3@0PBU43@@Z 10028fb0 f i CctCharacterControllerManager.obj
 0001:00028010       ?copy@?$Array@UPxDebugPoint@physx@@VNamedAllocator@shdfnd@2@@shdfnd@physx@@KAXPAUPxDebugPoint@3@0PBU43@@Z 10029010 f i CctCharacterControllerManager.obj
 0001:00028070       ?copy@?$Array@UPxDebugText@physx@@VNamedAllocator@shdfnd@2@@shdfnd@physx@@KAXPAUPxDebugText@3@0PBU43@@Z 10029070 f i CctCharacterControllerManager.obj
 0001:000280d0       ?copy@?$Array@UPxDebugTriangle@physx@@VNamedAllocator@shdfnd@2@@shdfnd@physx@@KAXPAUPxDebugTriangle@3@0PBU43@@Z 100290d0 f i CctCharacterControllerManager.obj
 0001:00028130       ?create@?$Array@PBXVNamedAllocator@shdfnd@physx@@@shdfnd@physx@@KAXPAPBX0ABQBX@Z 10029130 f i CctCharacterControllerManager.obj
 0001:00028180       ?create@?$Array@UPxExtendedCapsule@physx@@VNamedAllocator@shdfnd@2@@shdfnd@physx@@KAXPAUPxExtendedCapsule@3@0ABU43@@Z 10029180 f i CctCharacterControllerManager.obj
 0001:000281d0       ?create@?$Array@VPxExtendedBox@physx@@VNamedAllocator@shdfnd@2@@shdfnd@physx@@KAXPAVPxExtendedBox@3@0ABV43@@Z 100291d0 f i CctCharacterControllerManager.obj
 0001:00028220       ?create@?$HashBase@PAVPxShape@physx@@PAV12@U?$Hash@PAVPxShape@physx@@@shdfnd@2@UGetKey@?$HashSetBase@PAVPxShape@physx@@U?$Hash@PAVPxShape@physx@@@shdfnd@2@VNonTrackingAllocator@42@$0A@@internal@42@VNonTrackingAllocator@42@$0A@@internal@shdfnd@physx@@QAEPAPAVPxShape@4@ABQAV54@AA_N@Z 10029220 f i CctCharacterControllerManager.obj
 0001:000283c0       ?create@?$HashBase@V?$Pair@QBVPxBase@physx@@UObservedRefCounter@Cct@2@@shdfnd@physx@@PBVPxBase@3@U?$Hash@PBVPxBase@physx@@@23@UGetKey@?$HashMapBase@PBVPxBase@physx@@UObservedRefCounter@Cct@2@U?$Hash@PBVPxBase@physx@@@shdfnd@2@VNonTrackingAllocator@62@@internal@23@VNonTrackingAllocator@23@$00@internal@shdfnd@physx@@QAEPAV?$Pair@QBVPxBase@physx@@UObservedRefCounter@Cct@2@@34@ABQBVPxBase@4@AA_N@Z 100293c0 f i CctCharacterControllerManager.obj
 0001:00028560       ?deallocate@?$Array@DVNamedAllocator@shdfnd@physx@@@shdfnd@physx@@IAEXPAX@Z 10029560 f i CctCharacterControllerManager.obj
 0001:00028580       ?deallocate@?$Array@PAVController@Cct@physx@@VNamedAllocator@shdfnd@3@@shdfnd@physx@@IAEXPAX@Z 10029580 f i CctCharacterControllerManager.obj
 0001:000285a0       ?deallocate@?$Array@PAVObstacleContext@Cct@physx@@VNamedAllocator@shdfnd@3@@shdfnd@physx@@IAEXPAX@Z 100295a0 f i CctCharacterControllerManager.obj
 0001:000285c0       ?deallocate@?$Array@UPxDebugLine@physx@@VNamedAllocator@shdfnd@2@@shdfnd@physx@@IAEXPAX@Z 100295c0 f i CctCharacterControllerManager.obj
 0001:000285e0       ?deallocate@?$Array@UPxDebugPoint@physx@@VNamedAllocator@shdfnd@2@@shdfnd@physx@@IAEXPAX@Z 100295e0 f i CctCharacterControllerManager.obj
 0001:00028600       ?deallocate@?$Array@UPxDebugText@physx@@VNamedAllocator@shdfnd@2@@shdfnd@physx@@IAEXPAX@Z 10029600 f i CctCharacterControllerManager.obj
 0001:00028620       ?deallocate@?$Array@UPxDebugTriangle@physx@@VNamedAllocator@shdfnd@2@@shdfnd@physx@@IAEXPAX@Z 10029620 f i CctCharacterControllerManager.obj
 0001:00028640       ?deallocate@?$ReflectionAllocator@VMutexImpl@shdfnd@physx@@@shdfnd@physx@@QAEXPAX@Z 10029640 f i CctCharacterControllerManager.obj
 0001:00028680       ?destroy@?$Array@DVNamedAllocator@shdfnd@physx@@@shdfnd@physx@@KAXPAD0@Z 10029680 f i CctCharacterControllerManager.obj
 0001:000286a0       ?destroy@?$Array@PAVController@Cct@physx@@VNamedAllocator@shdfnd@3@@shdfnd@physx@@KAXPAPAVController@Cct@3@0@Z 100296a0 f i CctCharacterControllerManager.obj
 0001:000286c0       ?destroy@?$Array@PAVObstacleContext@Cct@physx@@VNamedAllocator@shdfnd@3@@shdfnd@physx@@KAXPAPAVObstacleContext@Cct@3@0@Z 100296c0 f i CctCharacterControllerManager.obj
 0001:000286e0       ?destroy@?$Array@UPxDebugLine@physx@@VNamedAllocator@shdfnd@2@@shdfnd@physx@@KAXPAUPxDebugLine@3@0@Z 100296e0 f i CctCharacterControllerManager.obj
 0001:00028700       ?destroy@?$Array@UPxDebugPoint@physx@@VNamedAllocator@shdfnd@2@@shdfnd@physx@@KAXPAUPxDebugPoint@3@0@Z 10029700 f i CctCharacterControllerManager.obj
 0001:00028720       ?destroy@?$Array@UPxDebugText@physx@@VNamedAllocator@shdfnd@2@@shdfnd@physx@@KAXPAUPxDebugText@3@0@Z 10029720 f i CctCharacterControllerManager.obj
 0001:00028740       ?destroy@?$Array@UPxDebugTriangle@physx@@VNamedAllocator@shdfnd@2@@shdfnd@physx@@KAXPAUPxDebugTriangle@3@0@Z 10029740 f i CctCharacterControllerManager.obj
 0001:00028760       ?destroy@?$HashBase@PAVPxShape@physx@@PAV12@U?$Hash@PAVPxShape@physx@@@shdfnd@2@UGetKey@?$HashSetBase@PAVPxShape@physx@@U?$Hash@PAVPxShape@physx@@@shdfnd@2@VNonTrackingAllocator@42@$0A@@internal@42@VNonTrackingAllocator@42@$0A@@internal@shdfnd@physx@@AAEXXZ 10029760 f i CctCharacterControllerManager.obj
 0001:000287d0       ?destroy@?$HashBase@V?$Pair@QBVPxBase@physx@@UObservedRefCounter@Cct@2@@shdfnd@physx@@PBVPxBase@3@U?$Hash@PBVPxBase@physx@@@23@UGetKey@?$HashMapBase@PBVPxBase@physx@@UObservedRefCounter@Cct@2@U?$Hash@PBVPxBase@physx@@@shdfnd@2@VNonTrackingAllocator@62@@internal@23@VNonTrackingAllocator@23@$00@internal@shdfnd@physx@@AAEXXZ 100297d0 f i CctCharacterControllerManager.obj
 0001:00028840       ?end@?$Array@PAVObstacleContext@Cct@physx@@VNamedAllocator@shdfnd@3@@shdfnd@physx@@QAEPAPAVObstacleContext@Cct@3@XZ 10029840 f i CctCharacterControllerManager.obj
 0001:00028860       ?equal@?$Hash@PBVPxBase@physx@@@shdfnd@physx@@QBE_NABQBVPxBase@3@0@Z 10029860 f i CctCharacterControllerManager.obj
 0001:000288a0       ?erase@?$HashBase@PAVPxShape@physx@@PAV12@U?$Hash@PAVPxShape@physx@@@shdfnd@2@UGetKey@?$HashSetBase@PAVPxShape@physx@@U?$Hash@PAVPxShape@physx@@@shdfnd@2@VNonTrackingAllocator@42@$0A@@internal@42@VNonTrackingAllocator@42@$0A@@internal@shdfnd@physx@@QAE_NABQAVPxShape@4@@Z 100298a0 f i CctCharacterControllerManager.obj
 0001:00028960       ?erase@?$HashBase@V?$Pair@QBVPxBase@physx@@UObservedRefCounter@Cct@2@@shdfnd@physx@@PBVPxBase@3@U?$Hash@PBVPxBase@physx@@@23@UGetKey@?$HashMapBase@PBVPxBase@physx@@UObservedRefCounter@Cct@2@U?$Hash@PBVPxBase@physx@@@shdfnd@2@VNonTrackingAllocator@62@@internal@23@VNonTrackingAllocator@23@$00@internal@shdfnd@physx@@QAE_NABQBVPxBase@4@@Z 10029960 f i CctCharacterControllerManager.obj
 0001:00028a20       ?erase@?$HashMapBase@PBVPxBase@physx@@UObservedRefCounter@Cct@2@U?$Hash@PBVPxBase@physx@@@shdfnd@2@VNonTrackingAllocator@62@@internal@shdfnd@physx@@QAE_NABQBVPxBase@4@@Z 10029a20 f i CctCharacterControllerManager.obj
 0001:00028a40       ?erase@?$HashSetBase@PAVPxShape@physx@@U?$Hash@PAVPxShape@physx@@@shdfnd@2@VNonTrackingAllocator@42@$0A@@internal@shdfnd@physx@@QAE_NABQAVPxShape@4@@Z 10029a40 f i CctCharacterControllerManager.obj
 0001:00028a60       ?eraseInternal@?$HashBase@PAVPxShape@physx@@PAV12@U?$Hash@PAVPxShape@physx@@@shdfnd@2@UGetKey@?$HashSetBase@PAVPxShape@physx@@U?$Hash@PAVPxShape@physx@@@shdfnd@2@VNonTrackingAllocator@42@$0A@@internal@42@VNonTrackingAllocator@42@$0A@@internal@shdfnd@physx@@AAE_NPAI@Z 10029a60 f i CctCharacterControllerManager.obj
 0001:00028ae0       ?eraseInternal@?$HashBase@V?$Pair@QBVPxBase@physx@@UObservedRefCounter@Cct@2@@shdfnd@physx@@PBVPxBase@3@U?$Hash@PBVPxBase@physx@@@23@UGetKey@?$HashMapBase@PBVPxBase@physx@@UObservedRefCounter@Cct@2@U?$Hash@PBVPxBase@physx@@@shdfnd@2@VNonTrackingAllocator@62@@internal@23@VNonTrackingAllocator@23@$00@internal@shdfnd@physx@@AAE_NPAI@Z 10029ae0 f i CctCharacterControllerManager.obj
 0001:00028b80       ?find@?$Array@PAVObstacleContext@Cct@physx@@VNamedAllocator@shdfnd@3@@shdfnd@physx@@QAEPAPAVObstacleContext@Cct@3@ABQAV453@@Z 10029b80 f i CctCharacterControllerManager.obj
 0001:00028be0       ?find@?$HashBase@V?$Pair@QBVPxBase@physx@@UObservedRefCounter@Cct@2@@shdfnd@physx@@PBVPxBase@3@U?$Hash@PBVPxBase@physx@@@23@UGetKey@?$HashMapBase@PBVPxBase@physx@@UObservedRefCounter@Cct@2@U?$Hash@PBVPxBase@physx@@@shdfnd@2@VNonTrackingAllocator@62@@internal@23@VNonTrackingAllocator@23@$00@internal@shdfnd@physx@@QBEPBV?$Pair@QBVPxBase@physx@@UObservedRefCounter@Cct@2@@34@ABQBVPxBase@4@@Z 10029be0 f i CctCharacterControllerManager.obj
 0001:00028cb0       ?find@?$HashMapBase@PBVPxBase@physx@@UObservedRefCounter@Cct@2@U?$Hash@PBVPxBase@physx@@@shdfnd@2@VNonTrackingAllocator@62@@internal@shdfnd@physx@@QBEPBV?$Pair@QBVPxBase@physx@@UObservedRefCounter@Cct@2@@34@ABQBVPxBase@4@@Z 10029cb0 f i CctCharacterControllerManager.obj
 0001:00028cd0       ?findAndReplaceWithLast@?$Array@PAVObstacleContext@Cct@physx@@VNamedAllocator@shdfnd@3@@shdfnd@physx@@QAE_NABQAVObstacleContext@Cct@3@@Z 10029cd0 f i CctCharacterControllerManager.obj
 0001:00028d50       ?freeListAdd@?$HashBase@PAVPxShape@physx@@PAV12@U?$Hash@PAVPxShape@physx@@@shdfnd@2@UGetKey@?$HashSetBase@PAVPxShape@physx@@U?$Hash@PAVPxShape@physx@@@shdfnd@2@VNonTrackingAllocator@42@$0A@@internal@42@VNonTrackingAllocator@42@$0A@@internal@shdfnd@physx@@AAEXI@Z 10029d50 f i CctCharacterControllerManager.obj
 0001:00028e00       ?freeListAdd@?$HashBase@PAVPxShape@physx@@PAV12@U?$Hash@PAVPxShape@physx@@@shdfnd@2@UGetKey@?$HashSetBase@PAVPxShape@physx@@U?$Hash@PAVPxShape@physx@@@shdfnd@2@VNonTrackingAllocator@42@$0A@@internal@42@VNonTrackingAllocator@42@$0A@@internal@shdfnd@physx@@AAEXII@Z 10029e00 f i CctCharacterControllerManager.obj
 0001:00028ef0       ?freeListAdd@?$HashBase@V?$Pair@QBVPxBase@physx@@UObservedRefCounter@Cct@2@@shdfnd@physx@@PBVPxBase@3@U?$Hash@PBVPxBase@physx@@@23@UGetKey@?$HashMapBase@PBVPxBase@physx@@UObservedRefCounter@Cct@2@U?$Hash@PBVPxBase@physx@@@shdfnd@2@VNonTrackingAllocator@62@@internal@23@VNonTrackingAllocator@23@$00@internal@shdfnd@physx@@AAEXI@Z 10029ef0 f i CctCharacterControllerManager.obj
 0001:00028fa0       ?freeListAdd@?$HashBase@V?$Pair@QBVPxBase@physx@@UObservedRefCounter@Cct@2@@shdfnd@physx@@PBVPxBase@3@U?$Hash@PBVPxBase@physx@@@23@UGetKey@?$HashMapBase@PBVPxBase@physx@@UObservedRefCounter@Cct@2@U?$Hash@PBVPxBase@physx@@@shdfnd@2@VNonTrackingAllocator@62@@internal@23@VNonTrackingAllocator@23@$00@internal@shdfnd@physx@@AAEXII@Z 10029fa0 f i CctCharacterControllerManager.obj
 0001:00029090       ?freeListEmpty@?$HashBase@PAVPxShape@physx@@PAV12@U?$Hash@PAVPxShape@physx@@@shdfnd@2@UGetKey@?$HashSetBase@PAVPxShape@physx@@U?$Hash@PAVPxShape@physx@@@shdfnd@2@VNonTrackingAllocator@42@$0A@@internal@42@VNonTrackingAllocator@42@$0A@@internal@shdfnd@physx@@ABE_NXZ 1002a090 f i CctCharacterControllerManager.obj
 0001:00029100       ?freeListEmpty@?$HashBase@V?$Pair@QBVPxBase@physx@@UObservedRefCounter@Cct@2@@shdfnd@physx@@PBVPxBase@3@U?$Hash@PBVPxBase@physx@@@23@UGetKey@?$HashMapBase@PBVPxBase@physx@@UObservedRefCounter@Cct@2@U?$Hash@PBVPxBase@physx@@@shdfnd@2@VNonTrackingAllocator@62@@internal@23@VNonTrackingAllocator@23@$00@internal@shdfnd@physx@@ABE_NXZ 1002a100 f i CctCharacterControllerManager.obj
 0001:00029170       ?freeListGetNext@?$HashBase@PAVPxShape@physx@@PAV12@U?$Hash@PAVPxShape@physx@@@shdfnd@2@UGetKey@?$HashSetBase@PAVPxShape@physx@@U?$Hash@PAVPxShape@physx@@@shdfnd@2@VNonTrackingAllocator@42@$0A@@internal@42@VNonTrackingAllocator@42@$0A@@internal@shdfnd@physx@@AAEIXZ 1002a170 f i CctCharacterControllerManager.obj
 0001:00029280       ?freeListGetNext@?$HashBase@V?$Pair@QBVPxBase@physx@@UObservedRefCounter@Cct@2@@shdfnd@physx@@PBVPxBase@3@U?$Hash@PBVPxBase@physx@@@23@UGetKey@?$HashMapBase@PBVPxBase@physx@@UObservedRefCounter@Cct@2@U?$Hash@PBVPxBase@physx@@@shdfnd@2@VNonTrackingAllocator@62@@internal@23@VNonTrackingAllocator@23@$00@internal@shdfnd@physx@@AAEIXZ 1002a280 f i CctCharacterControllerManager.obj
 0001:000293a0       ?getAllocator@Foundation@shdfnd@physx@@QAEAAVPxAllocatorCallback@3@XZ 1002a3a0 f i CctCharacterControllerManager.obj
 0001:000293c0       ?getAllocatorCallback@Foundation@shdfnd@physx@@UAEAAVPxAllocatorCallback@3@XZ 1002a3c0 f i CctCharacterControllerManager.obj
 0001:000293e0       ?getErrorCallback@Foundation@shdfnd@physx@@UAEAAVPxErrorCallback@3@XZ 1002a3e0 f i CctCharacterControllerManager.obj
 0001:00029400       ?getErrorLevel@Foundation@shdfnd@physx@@UBE?AW4Enum@PxErrorCode@3@XZ 1002a400 f i CctCharacterControllerManager.obj
 0001:00029420       ?getFoundation@shdfnd@physx@@YAAAVFoundation@12@XZ 1002a420 f i CctCharacterControllerManager.obj
 0001:00029430       ?getInternalErrorCallback@Foundation@shdfnd@physx@@QAEAAVPxErrorCallback@3@XZ 1002a430 f i CctCharacterControllerManager.obj
 0001:00029450       ?getLines@RenderBuffer@Cm@physx@@UBEPBUPxDebugLine@3@XZ 1002a450 f i CctCharacterControllerManager.obj
 0001:00029470       ?getName@?$ReflectionAllocator@VBoxController@Cct@physx@@@shdfnd@physx@@CAPBDXZ 1002a470 f i CctCharacterControllerManager.obj
 0001:000294c0       ?getName@?$ReflectionAllocator@VCapsuleController@Cct@physx@@@shdfnd@physx@@CAPBDXZ 1002a4c0 f i CctCharacterControllerManager.obj
 0001:00029510       ?getName@?$ReflectionAllocator@VCharacterControllerManager@Cct@physx@@@shdfnd@physx@@CAPBDXZ 1002a510 f i CctCharacterControllerManager.obj
 0001:00029560       ?getName@?$ReflectionAllocator@VMutexImpl@shdfnd@physx@@@shdfnd@physx@@CAPBDXZ 1002a560 f i CctCharacterControllerManager.obj
 0001:000295b0       ?getName@?$ReflectionAllocator@VObstacleContext@Cct@physx@@@shdfnd@physx@@CAPBDXZ 1002a5b0 f i CctCharacterControllerManager.obj
 0001:00029600       ?getName@?$ReflectionAllocator@VRenderBuffer@Cm@physx@@@shdfnd@physx@@CAPBDXZ 1002a600 f i CctCharacterControllerManager.obj
 0001:00029650       ?getNamedAllocMap@Foundation@shdfnd@physx@@QAEAAV?$HashMap@PBVNamedAllocator@shdfnd@physx@@PBDU?$Hash@PBVNamedAllocator@shdfnd@physx@@@23@VNonTrackingAllocator@23@@23@XZ 1002a650 f i CctCharacterControllerManager.obj
 0001:00029670       ?getNamedAllocMutex@Foundation@shdfnd@physx@@QAEAAV?$MutexT@VAllocator@shdfnd@physx@@@23@XZ 1002a670 f i CctCharacterControllerManager.obj
 0001:00029690       ?getNbLines@RenderBuffer@Cm@physx@@UBEIXZ 1002a690 f i CctCharacterControllerManager.obj
 0001:000296b0       ?getNbPoints@RenderBuffer@Cm@physx@@UBEIXZ 1002a6b0 f i CctCharacterControllerManager.obj
 0001:000296d0       ?getNbTexts@RenderBuffer@Cm@physx@@UBEIXZ 1002a6d0 f i CctCharacterControllerManager.obj
 0001:000296f0       ?getNbTriangles@RenderBuffer@Cm@physx@@UBEIXZ 1002a6f0 f i CctCharacterControllerManager.obj
 0001:00029710       ?getPoints@RenderBuffer@Cm@physx@@UBEPBUPxDebugPoint@3@XZ 1002a710 f i CctCharacterControllerManager.obj
 0001:00029730       ?getReportAllocationNames@Foundation@shdfnd@physx@@UBE_NXZ 1002a730 f i CctCharacterControllerManager.obj
 0001:00029750       ?getTempAllocFreeTable@Foundation@shdfnd@physx@@QAEAAV?$Array@PATTempAllocatorChunk@shdfnd@physx@@VAllocator@23@@23@XZ 1002a750 f i CctCharacterControllerManager.obj
 0001:00029770       ?getTempAllocMutex@Foundation@shdfnd@physx@@QAEAAV?$MutexT@VAllocator@shdfnd@physx@@@23@XZ 1002a770 f i CctCharacterControllerManager.obj
 0001:00029790       ?getTexts@RenderBuffer@Cm@physx@@UBEPBUPxDebugText@3@XZ 1002a790 f i CctCharacterControllerManager.obj
 0001:000297b0       ?getTriangles@RenderBuffer@Cm@physx@@UBEPBUPxDebugTriangle@3@XZ 1002a7b0 f i CctCharacterControllerManager.obj
 0001:000297d0       ?getType@PxControllerDesc@physx@@QBE?AW4Enum@PxControllerShapeType@2@XZ 1002a7d0 f i CctCharacterControllerManager.obj
 0001:000297f0       ?grow@?$Array@PBXVNamedAllocator@shdfnd@physx@@@shdfnd@physx@@IAEXI@Z 1002a7f0 f i CctCharacterControllerManager.obj
 0001:00029870       ?grow@?$Array@UPxDebugLine@physx@@VNamedAllocator@shdfnd@2@@shdfnd@physx@@IAEXI@Z 1002a870 f i CctCharacterControllerManager.obj
 0001:000298f0       ?grow@?$Array@UPxDebugPoint@physx@@VNamedAllocator@shdfnd@2@@shdfnd@physx@@IAEXI@Z 1002a8f0 f i CctCharacterControllerManager.obj
 0001:00029970       ?grow@?$Array@UPxDebugText@physx@@VNamedAllocator@shdfnd@2@@shdfnd@physx@@IAEXI@Z 1002a970 f i CctCharacterControllerManager.obj
 0001:000299f0       ?grow@?$Array@UPxDebugTriangle@physx@@VNamedAllocator@shdfnd@2@@shdfnd@physx@@IAEXI@Z 1002a9f0 f i CctCharacterControllerManager.obj
 0001:00029a70       ?grow@?$Array@UPxExtendedCapsule@physx@@VNamedAllocator@shdfnd@2@@shdfnd@physx@@IAEXI@Z 1002aa70 f i CctCharacterControllerManager.obj
 0001:00029af0       ?grow@?$Array@VPxExtendedBox@physx@@VNamedAllocator@shdfnd@2@@shdfnd@physx@@IAEXI@Z 1002aaf0 f i CctCharacterControllerManager.obj
 0001:00029b70       ?grow@?$HashBase@PAVPxShape@physx@@PAV12@U?$Hash@PAVPxShape@physx@@@shdfnd@2@UGetKey@?$HashSetBase@PAVPxShape@physx@@U?$Hash@PAVPxShape@physx@@@shdfnd@2@VNonTrackingAllocator@42@$0A@@internal@42@VNonTrackingAllocator@42@$0A@@internal@shdfnd@physx@@AAEXXZ 1002ab70 f i CctCharacterControllerManager.obj
 0001:00029c10       ?grow@?$HashBase@V?$Pair@QBVPxBase@physx@@UObservedRefCounter@Cct@2@@shdfnd@physx@@PBVPxBase@3@U?$Hash@PBVPxBase@physx@@@23@UGetKey@?$HashMapBase@PBVPxBase@physx@@UObservedRefCounter@Cct@2@U?$Hash@PBVPxBase@physx@@@shdfnd@2@VNonTrackingAllocator@62@@internal@23@VNonTrackingAllocator@23@$00@internal@shdfnd@physx@@AAEXXZ 1002ac10 f i CctCharacterControllerManager.obj
 0001:00029cd0       ?growAndPushBack@?$Array@PAVController@Cct@physx@@VNamedAllocator@shdfnd@3@@shdfnd@physx@@IAEAAPAVController@Cct@3@ABQAV453@@Z 1002acd0 f i CctCharacterControllerManager.obj
 0001:00029e40       ?growAndPushBack@?$Array@PAVObstacleContext@Cct@physx@@VNamedAllocator@shdfnd@3@@shdfnd@physx@@IAEAAPAVObstacleContext@Cct@3@ABQAV453@@Z 1002ae40 f i CctCharacterControllerManager.obj
 0001:00029fb0       ?growAndPushBack@?$Array@UPxDebugLine@physx@@VNamedAllocator@shdfnd@2@@shdfnd@physx@@IAEAAUPxDebugLine@3@ABU43@@Z 1002afb0 f i CctCharacterControllerManager.obj
 0001:0002a120       ?growAndPushBack@?$Array@UPxDebugPoint@physx@@VNamedAllocator@shdfnd@2@@shdfnd@physx@@IAEAAUPxDebugPoint@3@ABU43@@Z 1002b120 f i CctCharacterControllerManager.obj
 0001:0002a290       ?growAndPushBack@?$Array@UPxDebugText@physx@@VNamedAllocator@shdfnd@2@@shdfnd@physx@@IAEAAUPxDebugText@3@ABU43@@Z 1002b290 f i CctCharacterControllerManager.obj
 0001:0002a400       ?growAndPushBack@?$Array@UPxDebugTriangle@physx@@VNamedAllocator@shdfnd@2@@shdfnd@physx@@IAEAAUPxDebugTriangle@3@ABU43@@Z 1002b400 f i CctCharacterControllerManager.obj
 0001:0002a570       ?hash@?$HashBase@V?$Pair@QBVPxBase@physx@@UObservedRefCounter@Cct@2@@shdfnd@physx@@PBVPxBase@3@U?$Hash@PBVPxBase@physx@@@23@UGetKey@?$HashMapBase@PBVPxBase@physx@@UObservedRefCounter@Cct@2@U?$Hash@PBVPxBase@physx@@@shdfnd@2@VNonTrackingAllocator@62@@internal@23@VNonTrackingAllocator@23@$00@internal@shdfnd@physx@@ABEIABQBVPxBase@4@@Z 1002b570 f i CctCharacterControllerManager.obj
 0001:0002a5a0       ?hash@?$HashBase@V?$Pair@QBVPxBase@physx@@UObservedRefCounter@Cct@2@@shdfnd@physx@@PBVPxBase@3@U?$Hash@PBVPxBase@physx@@@23@UGetKey@?$HashMapBase@PBVPxBase@physx@@UObservedRefCounter@Cct@2@U?$Hash@PBVPxBase@physx@@@shdfnd@2@VNonTrackingAllocator@62@@internal@23@VNonTrackingAllocator@23@$00@internal@shdfnd@physx@@ABEIABQBVPxBase@4@I@Z 1002b5a0 f i CctCharacterControllerManager.obj
 0001:0002a5d0       ?init@?$HashBase@PAVPxShape@physx@@PAV12@U?$Hash@PAVPxShape@physx@@@shdfnd@2@UGetKey@?$HashSetBase@PAVPxShape@physx@@U?$Hash@PAVPxShape@physx@@@shdfnd@2@VNonTrackingAllocator@42@$0A@@internal@42@VNonTrackingAllocator@42@$0A@@internal@shdfnd@physx@@AAEXIM@Z 1002b5d0 f i CctCharacterControllerManager.obj
 0001:0002a680       ?init@?$HashBase@V?$Pair@QBVPxBase@physx@@UObservedRefCounter@Cct@2@@shdfnd@physx@@PBVPxBase@3@U?$Hash@PBVPxBase@physx@@@23@UGetKey@?$HashMapBase@PBVPxBase@physx@@UObservedRefCounter@Cct@2@U?$Hash@PBVPxBase@physx@@@shdfnd@2@VNonTrackingAllocator@62@@internal@23@VNonTrackingAllocator@23@$00@internal@shdfnd@physx@@AAEXIM@Z 1002b680 f i CctCharacterControllerManager.obj
 0001:0002a730       ?insert@?$HashSetBase@PAVPxShape@physx@@U?$Hash@PAVPxShape@physx@@@shdfnd@2@VNonTrackingAllocator@42@$0A@@internal@shdfnd@physx@@QAE_NABQAVPxShape@4@@Z 1002b730 f i CctCharacterControllerManager.obj
 0001:0002a7b0       ?isInUserMemory@?$Array@DVNamedAllocator@shdfnd@physx@@@shdfnd@physx@@QBEIXZ 1002b7b0 f i CctCharacterControllerManager.obj
 0001:0002a7d0       ?isInUserMemory@?$Array@PAVController@Cct@physx@@VNamedAllocator@shdfnd@3@@shdfnd@physx@@QBEIXZ 1002b7d0 f i CctCharacterControllerManager.obj
 0001:0002a7f0       ?isInUserMemory@?$Array@PAVObstacleContext@Cct@physx@@VNamedAllocator@shdfnd@3@@shdfnd@physx@@QBEIXZ 1002b7f0 f i CctCharacterControllerManager.obj
 0001:0002a810       ?isInUserMemory@?$Array@UPxDebugLine@physx@@VNamedAllocator@shdfnd@2@@shdfnd@physx@@QBEIXZ 1002b810 f i CctCharacterControllerManager.obj
 0001:0002a830       ?isInUserMemory@?$Array@UPxDebugPoint@physx@@VNamedAllocator@shdfnd@2@@shdfnd@physx@@QBEIXZ 1002b830 f i CctCharacterControllerManager.obj
 0001:0002a850       ?isInUserMemory@?$Array@UPxDebugText@physx@@VNamedAllocator@shdfnd@2@@shdfnd@physx@@QBEIXZ 1002b850 f i CctCharacterControllerManager.obj
 0001:0002a870       ?isInUserMemory@?$Array@UPxDebugTriangle@physx@@VNamedAllocator@shdfnd@2@@shdfnd@physx@@QBEIXZ 1002b870 f i CctCharacterControllerManager.obj
 0001:0002a890       ?isPowerOfTwo@shdfnd@physx@@YA_NI@Z 1002b890 f i CctCharacterControllerManager.obj
 0001:0002a8d0       ?memCopy@intrinsics@physx@@YAPAXPAXPBXI@Z 1002b8d0 f i CctCharacterControllerManager.obj
 0001:0002a8f0       ?memSet@intrinsics@physx@@YAPAXPAXHI@Z 1002b8f0 f i CctCharacterControllerManager.obj
 0001:0002a910       ?name@type_info@@QBEPBDXZ  1002b910 f i CctCharacterControllerManager.obj
 0001:0002a940       ?nextPowerOfTwo@shdfnd@physx@@YAII@Z 1002b940 f i CctCharacterControllerManager.obj
 0001:0002a9a0       ?pushBack@?$Array@PAVController@Cct@physx@@VNamedAllocator@shdfnd@3@@shdfnd@physx@@QAEAAPAVController@Cct@3@ABQAV453@@Z 1002b9a0 f i CctCharacterControllerManager.obj
 0001:0002aa40       ?pushBack@?$Array@PAVObstacleContext@Cct@physx@@VNamedAllocator@shdfnd@3@@shdfnd@physx@@QAEAAPAVObstacleContext@Cct@3@ABQAV453@@Z 1002ba40 f i CctCharacterControllerManager.obj
 0001:0002aae0       ?pushBack@?$Array@UPxDebugLine@physx@@VNamedAllocator@shdfnd@2@@shdfnd@physx@@QAEAAUPxDebugLine@3@ABU43@@Z 1002bae0 f i CctCharacterControllerManager.obj
 0001:0002ab80       ?pushBack@?$Array@UPxDebugPoint@physx@@VNamedAllocator@shdfnd@2@@shdfnd@physx@@QAEAAUPxDebugPoint@3@ABU43@@Z 1002bb80 f i CctCharacterControllerManager.obj
 0001:0002ac20       ?pushBack@?$Array@UPxDebugText@physx@@VNamedAllocator@shdfnd@2@@shdfnd@physx@@QAEAAUPxDebugText@3@ABU43@@Z 1002bc20 f i CctCharacterControllerManager.obj
 0001:0002acc0       ?pushBack@?$Array@UPxDebugTriangle@physx@@VNamedAllocator@shdfnd@2@@shdfnd@physx@@QAEAAUPxDebugTriangle@3@ABU43@@Z 1002bcc0 f i CctCharacterControllerManager.obj
 0001:0002ad60       ?recreate@?$Array@PBXVNamedAllocator@shdfnd@physx@@@shdfnd@physx@@IAEXI@Z 1002bd60 f i CctCharacterControllerManager.obj
 0001:0002ae70       ?recreate@?$Array@UPxDebugLine@physx@@VNamedAllocator@shdfnd@2@@shdfnd@physx@@IAEXI@Z 1002be70 f i CctCharacterControllerManager.obj
 0001:0002af80       ?recreate@?$Array@UPxDebugPoint@physx@@VNamedAllocator@shdfnd@2@@shdfnd@physx@@IAEXI@Z 1002bf80 f i CctCharacterControllerManager.obj
 0001:0002b090       ?recreate@?$Array@UPxDebugText@physx@@VNamedAllocator@shdfnd@2@@shdfnd@physx@@IAEXI@Z 1002c090 f i CctCharacterControllerManager.obj
 0001:0002b190       ?recreate@?$Array@UPxDebugTriangle@physx@@VNamedAllocator@shdfnd@2@@shdfnd@physx@@IAEXI@Z 1002c190 f i CctCharacterControllerManager.obj
 0001:0002b290       ?recreate@?$Array@UPxExtendedCapsule@physx@@VNamedAllocator@shdfnd@2@@shdfnd@physx@@IAEXI@Z 1002c290 f i CctCharacterControllerManager.obj
 0001:0002b390       ?recreate@?$Array@VPxExtendedBox@physx@@VNamedAllocator@shdfnd@2@@shdfnd@physx@@IAEXI@Z 1002c390 f i CctCharacterControllerManager.obj
 0001:0002b490       ?replaceWithLast@?$Array@PAVController@Cct@physx@@VNamedAllocator@shdfnd@3@@shdfnd@physx@@QAEXI@Z 1002c490 f i CctCharacterControllerManager.obj
 0001:0002b530       ?replaceWithLast@?$Array@PAVObstacleContext@Cct@physx@@VNamedAllocator@shdfnd@3@@shdfnd@physx@@QAEXI@Z 1002c530 f i CctCharacterControllerManager.obj
 0001:0002b5d0       ?replaceWithLast@?$HashBase@PAVPxShape@physx@@PAV12@U?$Hash@PAVPxShape@physx@@@shdfnd@2@UGetKey@?$HashSetBase@PAVPxShape@physx@@U?$Hash@PAVPxShape@physx@@@shdfnd@2@VNonTrackingAllocator@42@$0A@@internal@42@VNonTrackingAllocator@42@$0A@@internal@shdfnd@physx@@AAEXI@Z 1002c5d0 f i CctCharacterControllerManager.obj
 0001:0002b700       ?replaceWithLast@?$HashBase@V?$Pair@QBVPxBase@physx@@UObservedRefCounter@Cct@2@@shdfnd@physx@@PBVPxBase@3@U?$Hash@PBVPxBase@physx@@@23@UGetKey@?$HashMapBase@PBVPxBase@physx@@UObservedRefCounter@Cct@2@U?$Hash@PBVPxBase@physx@@@shdfnd@2@VNonTrackingAllocator@62@@internal@23@VNonTrackingAllocator@23@$00@internal@shdfnd@physx@@AAEXI@Z 1002c700 f i CctCharacterControllerManager.obj
 0001:0002b840       ?reserve@?$Array@PBXVNamedAllocator@shdfnd@physx@@@shdfnd@physx@@QAEXI@Z 1002c840 f i CctCharacterControllerManager.obj
 0001:0002b870       ?reserve@?$Array@UPxDebugLine@physx@@VNamedAllocator@shdfnd@2@@shdfnd@physx@@QAEXI@Z 1002c870 f i CctCharacterControllerManager.obj
 0001:0002b8a0       ?reserve@?$Array@UPxDebugPoint@physx@@VNamedAllocator@shdfnd@2@@shdfnd@physx@@QAEXI@Z 1002c8a0 f i CctCharacterControllerManager.obj
 0001:0002b8d0       ?reserve@?$Array@UPxDebugText@physx@@VNamedAllocator@shdfnd@2@@shdfnd@physx@@QAEXI@Z 1002c8d0 f i CctCharacterControllerManager.obj
 0001:0002b900       ?reserve@?$Array@UPxDebugTriangle@physx@@VNamedAllocator@shdfnd@2@@shdfnd@physx@@QAEXI@Z 1002c900 f i CctCharacterControllerManager.obj
 0001:0002b930       ?reserve@?$Array@UPxExtendedCapsule@physx@@VNamedAllocator@shdfnd@2@@shdfnd@physx@@QAEXI@Z 1002c930 f i CctCharacterControllerManager.obj
 0001:0002b960       ?reserve@?$Array@VPxExtendedBox@physx@@VNamedAllocator@shdfnd@2@@shdfnd@physx@@QAEXI@Z 1002c960 f i CctCharacterControllerManager.obj
 0001:0002b990       ?reserve@?$HashBase@PAVPxShape@physx@@PAV12@U?$Hash@PAVPxShape@physx@@@shdfnd@2@UGetKey@?$HashSetBase@PAVPxShape@physx@@U?$Hash@PAVPxShape@physx@@@shdfnd@2@VNonTrackingAllocator@42@$0A@@internal@42@VNonTrackingAllocator@42@$0A@@internal@shdfnd@physx@@QAEXI@Z 1002c990 f i CctCharacterControllerManager.obj
 0001:0002b9c0       ?reserve@?$HashBase@V?$Pair@QBVPxBase@physx@@UObservedRefCounter@Cct@2@@shdfnd@physx@@PBVPxBase@3@U?$Hash@PBVPxBase@physx@@@23@UGetKey@?$HashMapBase@PBVPxBase@physx@@UObservedRefCounter@Cct@2@U?$Hash@PBVPxBase@physx@@@shdfnd@2@VNonTrackingAllocator@62@@internal@23@VNonTrackingAllocator@23@$00@internal@shdfnd@physx@@QAEXI@Z 1002c9c0 f i CctCharacterControllerManager.obj
 0001:0002b9f0       ?reserveInternal@?$HashBase@PAVPxShape@physx@@PAV12@U?$Hash@PAVPxShape@physx@@@shdfnd@2@UGetKey@?$HashSetBase@PAVPxShape@physx@@U?$Hash@PAVPxShape@physx@@@shdfnd@2@VNonTrackingAllocator@42@$0A@@internal@42@VNonTrackingAllocator@42@$0A@@internal@shdfnd@physx@@AAEXI@Z 1002c9f0 f i CctCharacterControllerManager.obj
 0001:0002bee0       ?reserveInternal@?$HashBase@V?$Pair@QBVPxBase@physx@@UObservedRefCounter@Cct@2@@shdfnd@physx@@PBVPxBase@3@U?$Hash@PBVPxBase@physx@@@23@UGetKey@?$HashMapBase@PBVPxBase@physx@@UObservedRefCounter@Cct@2@U?$Hash@PBVPxBase@physx@@@shdfnd@2@VNonTrackingAllocator@62@@internal@23@VNonTrackingAllocator@23@$00@internal@shdfnd@physx@@AAEXI@Z 1002cee0 f i CctCharacterControllerManager.obj
 0001:0002c360       ?reset@?$Array@PBXVNamedAllocator@shdfnd@physx@@@shdfnd@physx@@QAEXXZ 1002d360 f i CctCharacterControllerManager.obj
 0001:0002c3a0       ?reset@?$Array@UPxExtendedCapsule@physx@@VNamedAllocator@shdfnd@2@@shdfnd@physx@@QAEXXZ 1002d3a0 f i CctCharacterControllerManager.obj
 0001:0002c3f0       ?reset@?$Array@VPxExtendedBox@physx@@VNamedAllocator@shdfnd@2@@shdfnd@physx@@QAEXXZ 1002d3f0 f i CctCharacterControllerManager.obj
 0001:0002c430       ?resize@?$Array@PBXVNamedAllocator@shdfnd@physx@@@shdfnd@physx@@QAEXIABQBX@Z 1002d430 f i CctCharacterControllerManager.obj
 0001:0002c4c0       ?resize@?$Array@UPxExtendedCapsule@physx@@VNamedAllocator@shdfnd@2@@shdfnd@physx@@QAEXIABUPxExtendedCapsule@3@@Z 1002d4c0 f i CctCharacterControllerManager.obj
 0001:0002c540       ?resize@?$Array@VPxExtendedBox@physx@@VNamedAllocator@shdfnd@2@@shdfnd@physx@@QAEXIABVPxExtendedBox@3@@Z 1002d540 f i CctCharacterControllerManager.obj
 0001:0002c5c0       ?setCctManager@?$TouchedObject@VPxRigidActor@physx@@@Cct@physx@@QAEXPAVCharacterControllerManager@23@@Z 1002d5c0 f i CctCharacterControllerManager.obj
 0001:0002c5e0       ?setCctManager@?$TouchedObject@VPxShape@physx@@@Cct@physx@@QAEXPAVCharacterControllerManager@23@@Z 1002d5e0 f i CctCharacterControllerManager.obj
 0001:0002c600       ?setCctManager@Controller@Cct@physx@@QAEXPAVCharacterControllerManager@23@@Z 1002d600 f i CctCharacterControllerManager.obj
 0001:0002c640       ?setCctManager@SweepTest@Cct@physx@@QAEXPAVCharacterControllerManager@23@@Z 1002d640 f i CctCharacterControllerManager.obj
 0001:0002c690       ?setErrorLevel@Foundation@shdfnd@physx@@UAEXW4Enum@PxErrorCode@3@@Z 1002d690 f i CctCharacterControllerManager.obj
 0001:0002c6b0       ?setReportAllocationNames@Foundation@shdfnd@physx@@UAEX_N@Z 1002d6b0 f i CctCharacterControllerManager.obj
 0001:0002c6d0       ?shift@RenderBuffer@Cm@physx@@QAEXABVPxVec3@3@@Z 1002d6d0 f i CctCharacterControllerManager.obj
 0001:0002c890       ?shrink@?$Array@PBXVNamedAllocator@shdfnd@physx@@@shdfnd@physx@@QAEXXZ 1002d890 f i CctCharacterControllerManager.obj
 0001:0002c8b0       ?shrink@?$Array@UPxExtendedCapsule@physx@@VNamedAllocator@shdfnd@2@@shdfnd@physx@@QAEXXZ 1002d8b0 f i CctCharacterControllerManager.obj
 0001:0002c8d0       ?shrink@?$Array@VPxExtendedBox@physx@@VNamedAllocator@shdfnd@2@@shdfnd@physx@@QAEXXZ 1002d8d0 f i CctCharacterControllerManager.obj
 0001:0002c8f0       ?size@?$Array@PAVController@Cct@physx@@VNamedAllocator@shdfnd@3@@shdfnd@physx@@QBEIXZ 1002d8f0 f i CctCharacterControllerManager.obj
 0001:0002c910       ?size@?$Array@PAVObstacleContext@Cct@physx@@VNamedAllocator@shdfnd@3@@shdfnd@physx@@QBEIXZ 1002d910 f i CctCharacterControllerManager.obj
 0001:0002c930       ?size@?$Array@UPxDebugLine@physx@@VNamedAllocator@shdfnd@2@@shdfnd@physx@@QBEIXZ 1002d930 f i CctCharacterControllerManager.obj
 0001:0002c950       ?size@?$Array@UPxDebugPoint@physx@@VNamedAllocator@shdfnd@2@@shdfnd@physx@@QBEIXZ 1002d950 f i CctCharacterControllerManager.obj
 0001:0002c970       ?size@?$Array@UPxDebugText@physx@@VNamedAllocator@shdfnd@2@@shdfnd@physx@@QBEIXZ 1002d970 f i CctCharacterControllerManager.obj
 0001:0002c990       ?size@?$Array@UPxDebugTriangle@physx@@VNamedAllocator@shdfnd@2@@shdfnd@physx@@QBEIXZ 1002d990 f i CctCharacterControllerManager.obj
 0001:0002c9b0       ??0Controller@Cct@physx@@QAE@ABVPxControllerDesc@2@PAVPxScene@2@@Z 1002d9b0 f   CctController.obj
 0001:0002cc30       ??1Controller@Cct@physx@@UAE@XZ 1002dc30 f   CctController.obj
 0001:0002cc90       ?releaseInternal@Controller@Cct@physx@@QAEXXZ 1002dc90 f   CctController.obj
 0001:0002ccc0       ?getInternalState@Controller@Cct@physx@@QBEXAAUPxControllerState@3@@Z 1002dcc0 f   CctController.obj
 0001:0002cdf0       ?getInternalStats@Controller@Cct@physx@@QBEXAAUPxControllerStats@3@@Z 1002ddf0 f   CctController.obj
 0001:0002ce40       ?onOriginShift@Controller@Cct@physx@@QAEXABVPxVec3@3@@Z 1002de40 f   CctController.obj
 0001:0002ced0       ?onRelease@Controller@Cct@physx@@QAEXABVPxBase@3@@Z 1002ded0 f   CctController.obj
 0001:0002cef0       ?setUpDirectionInternal@Controller@Cct@physx@@IAEXABVPxVec3@3@@Z 1002def0 f   CctController.obj
 0001:0002cfa0       ?getKineShape@Controller@Cct@physx@@IBEPAVPxShape@3@XZ 1002dfa0 f   CctController.obj
 0001:0002d030       ?createProxyActor@Controller@Cct@physx@@IAE_NAAVPxPhysics@3@ABVPxGeometry@3@ABVPxMaterial@3@@Z 1002e030 f   CctController.obj
 0001:0002d170       ?setPos@Controller@Cct@physx@@IAE_NABUPxExtendedVec3@3@@Z 1002e170 f   CctController.obj
 0001:0002d450       ??0?$PxFlags@W4Enum@PxShapeFlag@physx@@E@physx@@QAE@W4Enum@PxShapeFlag@1@@Z 1002e450 f i CctController.obj
 0001:0002d470       ??8PxVec3@physx@@QBE_NABV01@@Z 1002e470 f i CctController.obj
 0001:0002d4f0       ??B?$PxFlags@W4Enum@PxControllerCollisionFlag@physx@@E@physx@@QBEIXZ 1002e4f0 f i CctController.obj
 0001:0002d510       ??U?$PxFlags@W4Enum@PxShapeFlag@physx@@E@physx@@QBE?AV01@W4Enum@PxShapeFlag@1@@Z 1002e510 f i CctController.obj
 0001:0002d560       ??Uphysx@@YA?AV?$PxFlags@W4Enum@PxShapeFlag@physx@@E@0@W4Enum@PxShapeFlag@0@0@Z 1002e560 f i CctController.obj
 0001:0002d5a0       ??_5?$PxFlags@W4Enum@PxShapeFlag@physx@@E@physx@@QAEAAV01@W4Enum@PxShapeFlag@1@@Z 1002e5a0 f i CctController.obj
 0001:0002d5d0       ??_EController@Cct@physx@@UAEPAXI@Z 1002e5d0 f i CctController.obj
 0001:0002d5d0       ??_GController@Cct@physx@@UAEPAXI@Z 1002e5d0 f i CctController.obj
 0001:0002d630       ?createShape@PxPhysics@physx@@QAEPAVPxShape@2@ABVPxGeometry@2@ABVPxMaterial@2@_NV?$PxFlags@W4Enum@PxShapeFlag@physx@@E@2@@Z 1002e630 f i CctController.obj
 0001:0002d680       ?isNormalized@PxVec3@physx@@QBE_NXZ 1002e680 f i CctController.obj
 0001:0002d710       ??0HandleManager@Cct@physx@@QAE@XZ 1002e710 f   CctObstacleContext.obj
 0001:0002d860       ??1HandleManager@Cct@physx@@QAE@XZ 1002e860 f   CctObstacleContext.obj
 0001:0002d880       ?Add@HandleManager@Cct@physx@@QAEIPAX@Z 1002e880 f   CctObstacleContext.obj
 0001:0002dbd0       ?Remove@HandleManager@Cct@physx@@QAEXI@Z 1002ebd0 f   CctObstacleContext.obj
 0001:0002dd20       ?GetObject@HandleManager@Cct@physx@@QBEPAXI@Z 1002ed20 f   CctObstacleContext.obj
 0001:0002ddb0       ?UpdateObject@HandleManager@Cct@physx@@QAE_NIPAX@Z 1002edb0 f   CctObstacleContext.obj
 0001:0002de40       ?SetupLists@HandleManager@Cct@physx@@AAE_NPAPAXPAG11@Z 1002ee40 f   CctObstacleContext.obj
 0001:0002df00       ??0ObstacleContext@Cct@physx@@QAE@AAVCharacterControllerManager@12@@Z 1002ef00 f   CctObstacleContext.obj
 0001:0002df80       ??1ObstacleContext@Cct@physx@@UAE@XZ 1002ef80 f   CctObstacleContext.obj
 0001:0002dfc0       ?release@ObstacleContext@Cct@physx@@UAEXXZ 1002efc0 f   CctObstacleContext.obj
 0001:0002dfe0       ?getControllerManager@ObstacleContext@Cct@physx@@UBEAAVPxControllerManager@3@XZ 1002efe0 f   CctObstacleContext.obj
 0001:0002e000       ?addObstacle@ObstacleContext@Cct@physx@@UAEIABVPxObstacle@3@@Z 1002f000 f   CctObstacleContext.obj
 0001:0002e100       ?removeObstacle@ObstacleContext@Cct@physx@@UAE_NI@Z 1002f100 f   CctObstacleContext.obj
 0001:0002e2b0       ?updateObstacle@ObstacleContext@Cct@physx@@UAE_NIABVPxObstacle@3@@Z 1002f2b0 f   CctObstacleContext.obj
 0001:0002e490       ?getNbObstacles@ObstacleContext@Cct@physx@@UBEIXZ 1002f490 f   CctObstacleContext.obj
 0001:0002e4c0       ?getObstacle@ObstacleContext@Cct@physx@@UBEPBVPxObstacle@3@I@Z 1002f4c0 f   CctObstacleContext.obj
 0001:0002e530       ?getObstacleByHandle@ObstacleContext@Cct@physx@@UBEPBVPxObstacle@3@I@Z 1002f530 f   CctObstacleContext.obj
 0001:0002e690       ?raycastSingle@ObstacleContext@Cct@physx@@QBEPBVPxObstacle@3@AAUPxRaycastHit@3@ABVPxVec3@3@1MAAI@Z 1002f690 f   CctObstacleContext.obj
 0001:0002e970       ?raycastSingle@ObstacleContext@Cct@physx@@QBEPBVPxObstacle@3@AAUPxRaycastHit@3@ABIABVPxVec3@3@2M@Z 1002f970 f   CctObstacleContext.obj
 0001:0002eb60       ?onOriginShift@ObstacleContext@Cct@physx@@QAEXABVPxVec3@3@@Z 1002fb60 f   CctObstacleContext.obj
 0001:0002f390       ??$PX_UNUSED@_N@@YAXAB_N@Z 10030390 f i CctObstacleContext.obj
 0001:0002f3a0       ??0?$Array@UInternalBoxObstacle@ObstacleContext@Cct@physx@@VNamedAllocator@shdfnd@4@@shdfnd@physx@@QAE@ABVNamedAllocator@12@@Z 100303a0 f i CctObstacleContext.obj
 0001:0002f3f0       ??0?$Array@UInternalCapsuleObstacle@ObstacleContext@Cct@physx@@VNamedAllocator@shdfnd@4@@shdfnd@physx@@QAE@ABVNamedAllocator@12@@Z 100303f0 f i CctObstacleContext.obj
 0001:0002f440       ??0InternalBoxObstacle@ObstacleContext@Cct@physx@@QAE@ABU0123@@Z 10030440 f i CctObstacleContext.obj
 0001:0002f480       ??0InternalBoxObstacle@ObstacleContext@Cct@physx@@QAE@IABVPxBoxObstacle@3@@Z 10030480 f i CctObstacleContext.obj
 0001:0002f4b0       ??0InternalCapsuleObstacle@ObstacleContext@Cct@physx@@QAE@ABU0123@@Z 100304b0 f i CctObstacleContext.obj
 0001:0002f4f0       ??0InternalCapsuleObstacle@ObstacleContext@Cct@physx@@QAE@IABVPxCapsuleObstacle@3@@Z 100304f0 f i CctObstacleContext.obj
 0001:0002f520       ??0PxBoxObstacle@physx@@QAE@ABV01@@Z 10030520 f i CctObstacleContext.obj
 0001:0002f560       ??0PxCapsuleObstacle@physx@@QAE@ABV01@@Z 10030560 f i CctObstacleContext.obj
 0001:0002f5b0       ??0PxObstacle@physx@@QAE@ABV01@@Z 100305b0 f i CctObstacleContext.obj
 0001:0002f630       ??0PxObstacleContext@physx@@QAE@XZ 10030630 f i CctObstacleContext.obj
 0001:0002f650       ??1?$Array@UInternalBoxObstacle@ObstacleContext@Cct@physx@@VNamedAllocator@shdfnd@4@@shdfnd@physx@@QAE@XZ 10030650 f i CctObstacleContext.obj
 0001:0002f6c0       ??1?$Array@UInternalCapsuleObstacle@ObstacleContext@Cct@physx@@VNamedAllocator@shdfnd@4@@shdfnd@physx@@QAE@XZ 100306c0 f i CctObstacleContext.obj
 0001:0002f730       ??1PxObstacleContext@physx@@UAE@XZ 10030730 f i CctObstacleContext.obj
 0001:0002f750       ??4InternalBoxObstacle@ObstacleContext@Cct@physx@@QAEAAU0123@ABU0123@@Z 10030750 f i CctObstacleContext.obj
 0001:0002f790       ??4InternalCapsuleObstacle@ObstacleContext@Cct@physx@@QAEAAU0123@ABU0123@@Z 10030790 f i CctObstacleContext.obj
 0001:0002f7d0       ??4PxBoxObstacle@physx@@QAEAAV01@ABV01@@Z 100307d0 f i CctObstacleContext.obj
 0001:0002f810       ??4PxCapsuleObstacle@physx@@QAEAAV01@ABV01@@Z 10030810 f i CctObstacleContext.obj
 0001:0002f860       ??4PxObstacle@physx@@QAEAAV01@ABV01@@Z 10030860 f i CctObstacleContext.obj
 0001:0002f8e0       ??A?$Array@UInternalBoxObstacle@ObstacleContext@Cct@physx@@VNamedAllocator@shdfnd@4@@shdfnd@physx@@QAEAAUInternalBoxObstacle@ObstacleContext@Cct@2@I@Z 100308e0 f i CctObstacleContext.obj
 0001:0002f950       ??A?$Array@UInternalCapsuleObstacle@ObstacleContext@Cct@physx@@VNamedAllocator@shdfnd@4@@shdfnd@physx@@QAEAAUInternalCapsuleObstacle@ObstacleContext@Cct@2@I@Z 10030950 f i CctObstacleContext.obj
 0001:0002f9c0       ??_EObstacleContext@Cct@physx@@UAEPAXI@Z 100309c0 f i CctObstacleContext.obj
 0001:0002f9c0       ??_GObstacleContext@Cct@physx@@UAEPAXI@Z 100309c0 f i CctObstacleContext.obj
 0001:0002fa20       ??_EPxObstacleContext@physx@@UAEPAXI@Z 10030a20 f i CctObstacleContext.obj
 0001:0002fa20       ??_GPxObstacleContext@physx@@UAEPAXI@Z 10030a20 f i CctObstacleContext.obj
 0001:0002fa60       ?PxMemCopy@physx@@YAPAXPAXPBXI@Z 10030a60 f i CctObstacleContext.obj
 0001:0002fa80       ?PxMemSet@physx@@YAPAXPAXHI@Z 10030a80 f i CctObstacleContext.obj
 0001:0002faa0       ?PxMemZero@physx@@YAPAXPAXI@Z 10030aa0 f i CctObstacleContext.obj
 0001:0002fac0       ?allocate@?$Array@UInternalBoxObstacle@ObstacleContext@Cct@physx@@VNamedAllocator@shdfnd@4@@shdfnd@physx@@IAEPAUInternalBoxObstacle@ObstacleContext@Cct@3@I@Z 10030ac0 f i CctObstacleContext.obj
 0001:0002fb40       ?allocate@?$Array@UInternalCapsuleObstacle@ObstacleContext@Cct@physx@@VNamedAllocator@shdfnd@4@@shdfnd@physx@@IAEPAUInternalCapsuleObstacle@ObstacleContext@Cct@3@I@Z 10030b40 f i CctObstacleContext.obj
 0001:0002fbc0       ?capacity@?$Array@UInternalBoxObstacle@ObstacleContext@Cct@physx@@VNamedAllocator@shdfnd@4@@shdfnd@physx@@QBEIXZ 10030bc0 f i CctObstacleContext.obj
 0001:0002fbe0       ?capacity@?$Array@UInternalCapsuleObstacle@ObstacleContext@Cct@physx@@VNamedAllocator@shdfnd@4@@shdfnd@physx@@QBEIXZ 10030be0 f i CctObstacleContext.obj
 0001:0002fc00       ?capacityIncrement@?$Array@UInternalBoxObstacle@ObstacleContext@Cct@physx@@VNamedAllocator@shdfnd@4@@shdfnd@physx@@IBEIXZ 10030c00 f i CctObstacleContext.obj
 0001:0002fc40       ?capacityIncrement@?$Array@UInternalCapsuleObstacle@ObstacleContext@Cct@physx@@VNamedAllocator@shdfnd@4@@shdfnd@physx@@IBEIXZ 10030c40 f i CctObstacleContext.obj
 0001:0002fc80       ?copy@?$Array@UInternalBoxObstacle@ObstacleContext@Cct@physx@@VNamedAllocator@shdfnd@4@@shdfnd@physx@@KAXPAUInternalBoxObstacle@ObstacleContext@Cct@3@0PBU4563@@Z 10030c80 f i CctObstacleContext.obj
 0001:0002fce0       ?copy@?$Array@UInternalCapsuleObstacle@ObstacleContext@Cct@physx@@VNamedAllocator@shdfnd@4@@shdfnd@physx@@KAXPAUInternalCapsuleObstacle@ObstacleContext@Cct@3@0PBU4563@@Z 10030ce0 f i CctObstacleContext.obj
 0001:0002fd40       ?deallocate@?$Array@UInternalBoxObstacle@ObstacleContext@Cct@physx@@VNamedAllocator@shdfnd@4@@shdfnd@physx@@IAEXPAX@Z 10030d40 f i CctObstacleContext.obj
 0001:0002fd60       ?deallocate@?$Array@UInternalCapsuleObstacle@ObstacleContext@Cct@physx@@VNamedAllocator@shdfnd@4@@shdfnd@physx@@IAEXPAX@Z 10030d60 f i CctObstacleContext.obj
 0001:0002fd80       ?destroy@?$Array@UInternalBoxObstacle@ObstacleContext@Cct@physx@@VNamedAllocator@shdfnd@4@@shdfnd@physx@@KAXPAUInternalBoxObstacle@ObstacleContext@Cct@3@0@Z 10030d80 f i CctObstacleContext.obj
 0001:0002fda0       ?destroy@?$Array@UInternalCapsuleObstacle@ObstacleContext@Cct@physx@@VNamedAllocator@shdfnd@4@@shdfnd@physx@@KAXPAUInternalCapsuleObstacle@ObstacleContext@Cct@3@0@Z 10030da0 f i CctObstacleContext.obj
 0001:0002fdc0       ?getType@PxObstacle@physx@@QBE?AW4Enum@PxGeometryType@2@XZ 10030dc0 f i CctObstacleContext.obj
 0001:0002fde0       ?growAndPushBack@?$Array@UInternalBoxObstacle@ObstacleContext@Cct@physx@@VNamedAllocator@shdfnd@4@@shdfnd@physx@@IAEAAUInternalBoxObstacle@ObstacleContext@Cct@3@ABU4563@@Z 10030de0 f i CctObstacleContext.obj
 0001:0002ff50       ?growAndPushBack@?$Array@UInternalCapsuleObstacle@ObstacleContext@Cct@physx@@VNamedAllocator@shdfnd@4@@shdfnd@physx@@IAEAAUInternalCapsuleObstacle@ObstacleContext@Cct@3@ABU4563@@Z 10030f50 f i CctObstacleContext.obj
 0001:000300c0       ?isInUserMemory@?$Array@UInternalBoxObstacle@ObstacleContext@Cct@physx@@VNamedAllocator@shdfnd@4@@shdfnd@physx@@QBEIXZ 100310c0 f i CctObstacleContext.obj
 0001:000300e0       ?isInUserMemory@?$Array@UInternalCapsuleObstacle@ObstacleContext@Cct@physx@@VNamedAllocator@shdfnd@4@@shdfnd@physx@@QBEIXZ 100310e0 f i CctObstacleContext.obj
 0001:00030100       ?memZero@intrinsics@physx@@YAPAXPAXI@Z 10031100 f i CctObstacleContext.obj
 0001:00030120       ?pushBack@?$Array@UInternalBoxObstacle@ObstacleContext@Cct@physx@@VNamedAllocator@shdfnd@4@@shdfnd@physx@@QAEAAUInternalBoxObstacle@ObstacleContext@Cct@3@ABU4563@@Z 10031120 f i CctObstacleContext.obj
 0001:000301c0       ?pushBack@?$Array@UInternalCapsuleObstacle@ObstacleContext@Cct@physx@@VNamedAllocator@shdfnd@4@@shdfnd@physx@@QAEAAUInternalCapsuleObstacle@ObstacleContext@Cct@3@ABU4563@@Z 100311c0 f i CctObstacleContext.obj
 0001:00030260       ?replaceWithLast@?$Array@UInternalBoxObstacle@ObstacleContext@Cct@physx@@VNamedAllocator@shdfnd@4@@shdfnd@physx@@QAEXI@Z 10031260 f i CctObstacleContext.obj
 0001:00030300       ?replaceWithLast@?$Array@UInternalCapsuleObstacle@ObstacleContext@Cct@physx@@VNamedAllocator@shdfnd@4@@shdfnd@physx@@QAEXI@Z 10031300 f i CctObstacleContext.obj
 0001:000303a0       ?to16@shdfnd@physx@@YAGI@Z 100313a0 f i CctObstacleContext.obj
 0001:00030400       ??0SweptBox@Cct@physx@@QAE@XZ 10031400 f   CctSweptBox.obj
 0001:00030440       ??1SweptBox@Cct@physx@@UAE@XZ 10031440 f   CctSweptBox.obj
 0001:00030460       ?computeTemporalBox@SweptBox@Cct@physx@@UBEXABVSweepTest@23@AAUPxExtendedBounds3@3@ABUPxExtendedVec3@3@ABVPxVec3@3@@Z 10031460 f   CctSweptBox.obj
 0001:00030550       ??$PxMax@M@physx@@YAMMM@Z  10031550 f i CctSweptBox.obj
 0001:00030580       ??_ESweptBox@Cct@physx@@UAEPAXI@Z 10031580 f i CctSweptBox.obj
 0001:00030580       ??_GSweptBox@Cct@physx@@UAEPAXI@Z 10031580 f i CctSweptBox.obj
 0001:000305c0       ??0SweptCapsule@Cct@physx@@QAE@XZ 100315c0 f   CctSweptCapsule.obj
 0001:000305f0       ??1SweptCapsule@Cct@physx@@UAE@XZ 100315f0 f   CctSweptCapsule.obj
 0001:00030610       ?computeTemporalBox@SweptCapsule@Cct@physx@@UBEXABVSweepTest@23@AAUPxExtendedBounds3@3@ABUPxExtendedVec3@3@ABVPxVec3@3@@Z 10031610 f   CctSweptCapsule.obj
 0001:000306b0       ??_ESweptCapsule@Cct@physx@@UAEPAXI@Z 100316b0 f i CctSweptCapsule.obj
 0001:000306b0       ??_GSweptCapsule@Cct@physx@@UAEPAXI@Z 100316b0 f i CctSweptCapsule.obj
 0001:000306f0       ??0SweptVolume@Cct@physx@@QAE@XZ 100316f0 f   CctSweptVolume.obj
 0001:00030720       ??1SweptVolume@Cct@physx@@UAE@XZ 10031720 f   CctSweptVolume.obj
 0001:00030740       ?computeTemporalBox@Cct@physx@@YAXAAUPxExtendedBounds3@2@MMMMABVPxVec3@2@ABUPxExtendedVec3@2@1@Z 10031740 f   CctSweptVolume.obj
 0001:000309c0       ??_GSweptVolume@Cct@physx@@UAEPAXI@Z 100319c0 f i CctSweptVolume.obj
 0001:000309c0       ??_ESweptVolume@Cct@physx@@UAEPAXI@Z 100319c0 f i CctSweptVolume.obj
 0001:00030a00       ??0PxMeshOverlapUtil@physx@@QAE@XZ 10031a00 f   PhysX3ExtensionsDEBUG:ExtTriangleMeshExt.obj
 0001:00030a40       ??1PxMeshOverlapUtil@physx@@QAE@XZ 10031a40 f   PhysX3ExtensionsDEBUG:ExtTriangleMeshExt.obj
 0001:00030a80       ?findOverlap@PxMeshOverlapUtil@physx@@QAEIABVPxGeometry@2@ABVPxTransform@2@ABVPxTriangleMeshGeometry@2@1@Z 10031a80 f   PhysX3ExtensionsDEBUG:ExtTriangleMeshExt.obj
 0001:00030c20       ?findOverlap@PxMeshOverlapUtil@physx@@QAEIABVPxGeometry@2@ABVPxTransform@2@ABVPxHeightFieldGeometry@2@1@Z 10031c20 f   PhysX3ExtensionsDEBUG:ExtTriangleMeshExt.obj
 0001:00030d00       ?PxComputeMeshPenetration@physx@@YA?AVPxVec3@1@IABVPxGeometry@1@ABVPxTransform@1@ABVPxTriangleMeshGeometry@1@1AAI@Z 10031d00 f   PhysX3ExtensionsDEBUG:ExtTriangleMeshExt.obj
 0001:00030d60       ?PxComputeTriangleMeshPenetration@physx@@YA_NAAVPxVec3@1@AAMABVPxGeometry@1@ABVPxTransform@1@ABVPxTriangleMeshGeometry@1@3IPAI@Z 10031d60 f   PhysX3ExtensionsDEBUG:ExtTriangleMeshExt.obj
 0001:00030d90       ?PxComputeHeightFieldPenetration@physx@@YA?AVPxVec3@1@IABVPxGeometry@1@ABVPxTransform@1@ABVPxHeightFieldGeometry@1@1AAI@Z 10031d90 f   PhysX3ExtensionsDEBUG:ExtTriangleMeshExt.obj
 0001:00030df0       ?PxComputeHeightFieldPenetration@physx@@YA_NAAVPxVec3@1@AAMABVPxGeometry@1@ABVPxTransform@1@ABVPxHeightFieldGeometry@1@3IPAI@Z 10031df0 f   PhysX3ExtensionsDEBUG:ExtTriangleMeshExt.obj
 0001:000311b0       ??0PxTransform@physx@@QAE@ABV01@@Z 100321b0 f i PhysX3ExtensionsDEBUG:ExtTriangleMeshExt.obj
 0001:000311f0       ??KPxVec3@physx@@QBE?AV01@M@Z 100321f0 f i PhysX3ExtensionsDEBUG:ExtTriangleMeshExt.obj
 0001:00031270       ?updateMassAndInertia@PxRigidBodyExt@physx@@SA_NAAVPxRigidBody@2@PBMIPBVPxVec3@2@_N@Z 10032270 f   PhysX3ExtensionsDEBUG:ExtRigidBodyExt.obj
 0001:000312a0       ?updateMassAndInertia@PxRigidBodyExt@physx@@SA_NAAVPxRigidBody@2@MPBVPxVec3@2@_N@Z 100322a0 f   PhysX3ExtensionsDEBUG:ExtRigidBodyExt.obj
 0001:000312d0       ?setMassAndUpdateInertia@PxRigidBodyExt@physx@@SA_NAAVPxRigidBody@2@PBMIPBVPxVec3@2@_N@Z 100322d0 f   PhysX3ExtensionsDEBUG:ExtRigidBodyExt.obj
 0001:00031300       ?setMassAndUpdateInertia@PxRigidBodyExt@physx@@SA_NAAVPxRigidBody@2@MPBVPxVec3@2@_N@Z 10032300 f   PhysX3ExtensionsDEBUG:ExtRigidBodyExt.obj
 0001:00031330       ?computeMassPropertiesFromShapes@PxRigidBodyExt@physx@@SA?AVPxMassProperties@2@PBQBVPxShape@2@I@Z 10032330 f   PhysX3ExtensionsDEBUG:ExtRigidBodyExt.obj
 0001:00031460       ?addForceAtPos@PxRigidBodyExt@physx@@SAXAAVPxRigidBody@2@ABVPxVec3@2@1W4Enum@PxForceMode@2@_N@Z 10032460 f   PhysX3ExtensionsDEBUG:ExtRigidBodyExt.obj
 0001:00031490       ?addForceAtLocalPos@PxRigidBodyExt@physx@@SAXAAVPxRigidBody@2@ABVPxVec3@2@1W4Enum@PxForceMode@2@_N@Z 10032490 f   PhysX3ExtensionsDEBUG:ExtRigidBodyExt.obj
 0001:000314e0       ?addLocalForceAtPos@PxRigidBodyExt@physx@@SAXAAVPxRigidBody@2@ABVPxVec3@2@1W4Enum@PxForceMode@2@_N@Z 100324e0 f   PhysX3ExtensionsDEBUG:ExtRigidBodyExt.obj
 0001:00031530       ?addLocalForceAtLocalPos@PxRigidBodyExt@physx@@SAXAAVPxRigidBody@2@ABVPxVec3@2@1W4Enum@PxForceMode@2@_N@Z 10032530 f   PhysX3ExtensionsDEBUG:ExtRigidBodyExt.obj
 0001:00031590       ?getVelocityAtPos@PxRigidBodyExt@physx@@SA?AVPxVec3@2@ABVPxRigidBody@2@ABV32@@Z 10032590 f   PhysX3ExtensionsDEBUG:ExtRigidBodyExt.obj
 0001:00031600       ?getLocalVelocityAtLocalPos@PxRigidBodyExt@physx@@SA?AVPxVec3@2@ABVPxRigidBody@2@ABV32@@Z 10032600 f   PhysX3ExtensionsDEBUG:ExtRigidBodyExt.obj
 0001:00031680       ?getVelocityAtOffset@PxRigidBodyExt@physx@@SA?AVPxVec3@2@ABVPxRigidBody@2@ABV32@@Z 10032680 f   PhysX3ExtensionsDEBUG:ExtRigidBodyExt.obj
 0001:000316f0       ?linearSweepSingle@PxRigidBodyExt@physx@@SA_NAAVPxRigidBody@2@AAVPxScene@2@ABVPxVec3@2@MV?$PxFlags@W4Enum@PxHitFlag@physx@@G@2@AAUPxSweepHit@2@AAIABUPxQueryFilterData@2@PAVPxQueryFilterCallback@2@PBUPxQueryCache@2@M@Z 100326f0 f   PhysX3ExtensionsDEBUG:ExtRigidBodyExt.obj
 0001:000318f0       ?linearSweepMultiple@PxRigidBodyExt@physx@@SAIAAVPxRigidBody@2@AAVPxScene@2@ABVPxVec3@2@MV?$PxFlags@W4Enum@PxHitFlag@physx@@G@2@PAUPxSweepHit@2@PAIIAAU72@AAHAA_NABUPxQueryFilterData@2@PAVPxQueryFilterCallback@2@PBUPxQueryCache@2@M@Z 100328f0 f   PhysX3ExtensionsDEBUG:ExtRigidBodyExt.obj
 0001:00031cf0       ?computeVelocityDeltaFromImpulse@PxRigidBodyExt@physx@@SAXABVPxRigidBody@2@ABVPxVec3@2@1AAV42@2@Z 10032cf0 f   PhysX3ExtensionsDEBUG:ExtRigidBodyExt.obj
 0001:00032200       ?computeVelocityDeltaFromImpulse@PxRigidBodyExt@physx@@SAXABVPxRigidBody@2@ABVPxTransform@2@ABVPxVec3@2@2MMAAV52@3@Z 10033200 f   PhysX3ExtensionsDEBUG:ExtRigidBodyExt.obj
 0001:00032300       ?computeLinearAngularImpulse@PxRigidBodyExt@physx@@SAXABVPxRigidBody@2@ABVPxTransform@2@ABVPxVec3@2@2MMAAV52@3@Z 10033300 f   PhysX3ExtensionsDEBUG:ExtRigidBodyExt.obj
 0001:00032390       ??0InertiaTensorComputer@Ext@physx@@QAE@_N@Z 10033390 f   PhysX3ExtensionsDEBUG:ExtRigidBodyExt.obj
 0001:000323d0       ??0InertiaTensorComputer@Ext@physx@@QAE@ABVPxMat33@2@ABVPxVec3@2@M@Z 100333d0 f   PhysX3ExtensionsDEBUG:ExtRigidBodyExt.obj
 0001:00032410       ??1InertiaTensorComputer@Ext@physx@@QAE@XZ 10033410 f   PhysX3ExtensionsDEBUG:ExtRigidBodyExt.obj
 0001:00032420       ?translate@InertiaTensorComputer@Ext@physx@@QAEXABVPxVec3@3@@Z 10033420 f   PhysX3ExtensionsDEBUG:ExtRigidBodyExt.obj
 0001:00032740       ?setBox@InertiaTensorComputer@Ext@physx@@QAEXABVPxVec3@3@@Z 10033740 f   PhysX3ExtensionsDEBUG:ExtRigidBodyExt.obj
 0001:00032830       ?setSphere@InertiaTensorComputer@Ext@physx@@QAEXM@Z 10033830 f   PhysX3ExtensionsDEBUG:ExtRigidBodyExt.obj
 0001:000328b0       ?setCylinder@InertiaTensorComputer@Ext@physx@@QAEXHMM@Z 100338b0 f   PhysX3ExtensionsDEBUG:ExtRigidBodyExt.obj
 0001:00032a10       ?setCapsule@InertiaTensorComputer@Ext@physx@@QAEXHMM@Z 10033a10 f   PhysX3ExtensionsDEBUG:ExtRigidBodyExt.obj
 0001:00032c00       ?setEllipsoid@InertiaTensorComputer@Ext@physx@@QAEXMMM@Z 10033c00 f   PhysX3ExtensionsDEBUG:ExtRigidBodyExt.obj
 0001:00032cc0       ?computeSphereMass@Ext@physx@@YAMMM@Z 10033cc0 f   PhysX3ExtensionsDEBUG:ExtRigidBodyExt.obj
 0001:00032d00       ?computeSphereDensity@Ext@physx@@YAMMM@Z 10033d00 f   PhysX3ExtensionsDEBUG:ExtRigidBodyExt.obj
 0001:00032d40       ?computeBoxMass@Ext@physx@@YAMABVPxVec3@2@M@Z 10033d40 f   PhysX3ExtensionsDEBUG:ExtRigidBodyExt.obj
 0001:00032d70       ?computeBoxDensity@Ext@physx@@YAMABVPxVec3@2@M@Z 10033d70 f   PhysX3ExtensionsDEBUG:ExtRigidBodyExt.obj
 0001:00032da0       ?computeEllipsoidMass@Ext@physx@@YAMABVPxVec3@2@M@Z 10033da0 f   PhysX3ExtensionsDEBUG:ExtRigidBodyExt.obj
 0001:00032dd0       ?computeEllipsoidDensity@Ext@physx@@YAMABVPxVec3@2@M@Z 10033dd0 f   PhysX3ExtensionsDEBUG:ExtRigidBodyExt.obj
 0001:00032e00       ?computeCylinderMass@Ext@physx@@YAMMMM@Z 10033e00 f   PhysX3ExtensionsDEBUG:ExtRigidBodyExt.obj
 0001:00032e40       ?computeCylinderDensity@Ext@physx@@YAMMMM@Z 10033e40 f   PhysX3ExtensionsDEBUG:ExtRigidBodyExt.obj
 0001:00032e80       ?computeCapsuleMass@Ext@physx@@YAMMMM@Z 10033e80 f   PhysX3ExtensionsDEBUG:ExtRigidBodyExt.obj
 0001:00032ec0       ?computeCapsuleDensity@Ext@physx@@YAMMMM@Z 10033ec0 f   PhysX3ExtensionsDEBUG:ExtRigidBodyExt.obj
 0001:00032f00       ?computeConeMass@Ext@physx@@YAMMMM@Z 10033f00 f   PhysX3ExtensionsDEBUG:ExtRigidBodyExt.obj
 0001:00032f40       ?computeConeDensity@Ext@physx@@YAMMMM@Z 10033f40 f   PhysX3ExtensionsDEBUG:ExtRigidBodyExt.obj
 0001:00032f80       ?computeBoxInertiaTensor@Ext@physx@@YAXAAVPxVec3@2@MMMM@Z 10033f80 f   PhysX3ExtensionsDEBUG:ExtRigidBodyExt.obj
 0001:00033130       ?computeSphereInertiaTensor@Ext@physx@@YAXAAVPxVec3@2@MM_N@Z 10034130 f   PhysX3ExtensionsDEBUG:ExtRigidBodyExt.obj
 0001:00034e60       ??$PX_UNUSED@PBUPxSweepHit@physx@@@@YAXABQBUPxSweepHit@physx@@@Z 10035e60 f i PhysX3ExtensionsDEBUG:ExtRigidBodyExt.obj
 0001:00034e70       ??$PX_UNUSED@W4PxZERO@physx@@@@YAXABW4PxZERO@physx@@@Z 10035e70 f i PhysX3ExtensionsDEBUG:ExtRigidBodyExt.obj
 0001:00034e80       ??$PxUnionCast@PAVPxGeometry@physx@@PAY03E@physx@@YAPAVPxGeometry@0@PAY03E@Z 10035e80 f i PhysX3ExtensionsDEBUG:ExtRigidBodyExt.obj
 0001:00034ea0       ??0?$Array@PAVPxShape@physx@@V?$InlineAllocator@$0EA@VNamedAllocator@shdfnd@physx@@@shdfnd@2@@shdfnd@physx@@QAE@ABV?$InlineAllocator@$0EA@VNamedAllocator@shdfnd@physx@@@12@@Z 10035ea0 f i PhysX3ExtensionsDEBUG:ExtRigidBodyExt.obj
 0001:00034ef0       ??0?$Array@VPxMassProperties@physx@@V?$InlineAllocator@$0DEA@VNamedAllocator@shdfnd@physx@@@shdfnd@2@@shdfnd@physx@@QAE@ABV?$InlineAllocator@$0DEA@VNamedAllocator@shdfnd@physx@@@12@@Z 10035ef0 f i PhysX3ExtensionsDEBUG:ExtRigidBodyExt.obj
 0001:00034f50       ??0?$Array@VPxTransform@physx@@V?$InlineAllocator@$0BMA@VNamedAllocator@shdfnd@physx@@@shdfnd@2@@shdfnd@physx@@QAE@ABV?$InlineAllocator@$0BMA@VNamedAllocator@shdfnd@physx@@@12@@Z 10035f50 f i PhysX3ExtensionsDEBUG:ExtRigidBodyExt.obj
 0001:00034fb0       ??0?$InlineAllocator@$0BMA@VNamedAllocator@shdfnd@physx@@@shdfnd@physx@@QAE@ABV012@@Z 10035fb0 f i PhysX3ExtensionsDEBUG:ExtRigidBodyExt.obj
 0001:00034fe0       ??0?$InlineAllocator@$0BMA@VNamedAllocator@shdfnd@physx@@@shdfnd@physx@@QAE@ABVNamedAllocator@12@@Z 10035fe0 f i PhysX3ExtensionsDEBUG:ExtRigidBodyExt.obj
 0001:00035010       ??0?$InlineAllocator@$0DEA@VNamedAllocator@shdfnd@physx@@@shdfnd@physx@@QAE@ABV012@@Z 10036010 f i PhysX3ExtensionsDEBUG:ExtRigidBodyExt.obj
 0001:00035040       ??0?$InlineAllocator@$0DEA@VNamedAllocator@shdfnd@physx@@@shdfnd@physx@@QAE@ABVNamedAllocator@12@@Z 10036040 f i PhysX3ExtensionsDEBUG:ExtRigidBodyExt.obj
 0001:00035070       ??0?$InlineAllocator@$0EA@VNamedAllocator@shdfnd@physx@@@shdfnd@physx@@QAE@ABV012@@Z 10036070 f i PhysX3ExtensionsDEBUG:ExtRigidBodyExt.obj
 0001:000350a0       ??0?$InlineAllocator@$0EA@VNamedAllocator@shdfnd@physx@@@shdfnd@physx@@QAE@ABVNamedAllocator@12@@Z 100360a0 f i PhysX3ExtensionsDEBUG:ExtRigidBodyExt.obj
 0001:000350d0       ??0?$InlineArray@PAVPxShape@physx@@$0BA@VNamedAllocator@shdfnd@2@@shdfnd@physx@@QAE@ABVNamedAllocator@12@@Z 100360d0 f i PhysX3ExtensionsDEBUG:ExtRigidBodyExt.obj
 0001:00035130       ??0?$InlineArray@VPxMassProperties@physx@@$0BA@VNamedAllocator@shdfnd@2@@shdfnd@physx@@QAE@ABVNamedAllocator@12@@Z 10036130 f i PhysX3ExtensionsDEBUG:ExtRigidBodyExt.obj
 0001:000351b0       ??0?$InlineArray@VPxTransform@physx@@$0BA@VNamedAllocator@shdfnd@2@@shdfnd@physx@@QAE@ABVNamedAllocator@12@@Z 100361b0 f i PhysX3ExtensionsDEBUG:ExtRigidBodyExt.obj
 0001:00035230       ??0?$PxHitBuffer@UPxSweepHit@physx@@@physx@@QAE@PAUPxSweepHit@1@I@Z 10036230 f i PhysX3ExtensionsDEBUG:ExtRigidBodyExt.obj
 0001:00035270       ??0?$PxHitCallback@UPxSweepHit@physx@@@physx@@QAE@PAUPxSweepHit@1@I@Z 10036270 f i PhysX3ExtensionsDEBUG:ExtRigidBodyExt.obj
 0001:000352d0       ??0AB@?1???$PxUnionCast@PAVPxGeometry@physx@@PAY03E@physx@@YAPAVPxGeometry@1@PAY03E@Z@QAE@0@Z 100362d0 f i PhysX3ExtensionsDEBUG:ExtRigidBodyExt.obj
 0001:000352f0       ??0PxMassProperties@physx@@QAE@ABV01@@Z 100362f0 f i PhysX3ExtensionsDEBUG:ExtRigidBodyExt.obj
 0001:00035340       ??0PxMassProperties@physx@@QAE@ABVPxGeometry@1@@Z 10036340 f i PhysX3ExtensionsDEBUG:ExtRigidBodyExt.obj
 0001:00035d60       ??0PxMassProperties@physx@@QAE@MABVPxMat33@1@ABVPxVec3@1@@Z 10036d60 f i PhysX3ExtensionsDEBUG:ExtRigidBodyExt.obj
 0001:00035db0       ??0PxMassProperties@physx@@QAE@XZ 10036db0 f i PhysX3ExtensionsDEBUG:ExtRigidBodyExt.obj
 0001:00035e00       ??0PxMat33@physx@@QAE@ABV01@@Z 10036e00 f i PhysX3ExtensionsDEBUG:ExtRigidBodyExt.obj
 0001:00035e50       ??0PxMat33@physx@@QAE@W4PxZERO@1@@Z 10036e50 f i PhysX3ExtensionsDEBUG:ExtRigidBodyExt.obj
 0001:00035ec0       ??0PxMat33@physx@@QAE@XZ   10036ec0 f i PhysX3ExtensionsDEBUG:ExtRigidBodyExt.obj
 0001:00035f00       ??0PxQueryFilterData@physx@@QAE@XZ 10036f00 f i PhysX3ExtensionsDEBUG:ExtRigidBodyExt.obj
 0001:00035f40       ??1?$Array@PAVPxShape@physx@@V?$InlineAllocator@$0EA@VNamedAllocator@shdfnd@physx@@@shdfnd@2@@shdfnd@physx@@QAE@XZ 10036f40 f i PhysX3ExtensionsDEBUG:ExtRigidBodyExt.obj
 0001:00035fb0       ??1?$Array@VPxMassProperties@physx@@V?$InlineAllocator@$0DEA@VNamedAllocator@shdfnd@physx@@@shdfnd@2@@shdfnd@physx@@QAE@XZ 10036fb0 f i PhysX3ExtensionsDEBUG:ExtRigidBodyExt.obj
 0001:00036030       ??1?$Array@VPxTransform@physx@@V?$InlineAllocator@$0BMA@VNamedAllocator@shdfnd@physx@@@shdfnd@2@@shdfnd@physx@@QAE@XZ 10037030 f i PhysX3ExtensionsDEBUG:ExtRigidBodyExt.obj
 0001:000360b0       ??1?$InlineAllocator@$0BMA@VNamedAllocator@shdfnd@physx@@@shdfnd@physx@@QAE@XZ 100370b0 f i PhysX3ExtensionsDEBUG:ExtRigidBodyExt.obj
 0001:000360d0       ??1?$InlineAllocator@$0DEA@VNamedAllocator@shdfnd@physx@@@shdfnd@physx@@QAE@XZ 100370d0 f i PhysX3ExtensionsDEBUG:ExtRigidBodyExt.obj
 0001:000360f0       ??1?$InlineAllocator@$0EA@VNamedAllocator@shdfnd@physx@@@shdfnd@physx@@QAE@XZ 100370f0 f i PhysX3ExtensionsDEBUG:ExtRigidBodyExt.obj
 0001:00036110       ??1?$InlineArray@PAVPxShape@physx@@$0BA@VNamedAllocator@shdfnd@2@@shdfnd@physx@@QAE@XZ 10037110 f i PhysX3ExtensionsDEBUG:ExtRigidBodyExt.obj
 0001:00036130       ??1?$InlineArray@VPxMassProperties@physx@@$0BA@VNamedAllocator@shdfnd@2@@shdfnd@physx@@QAE@XZ 10037130 f i PhysX3ExtensionsDEBUG:ExtRigidBodyExt.obj
 0001:00036150       ??1?$InlineArray@VPxTransform@physx@@$0BA@VNamedAllocator@shdfnd@2@@shdfnd@physx@@QAE@XZ 10037150 f i PhysX3ExtensionsDEBUG:ExtRigidBodyExt.obj
 0001:00036170       ??1?$PxHitBuffer@UPxSweepHit@physx@@@physx@@UAE@XZ 10037170 f i PhysX3ExtensionsDEBUG:ExtRigidBodyExt.obj
 0001:000361a0       ??1?$PxHitCallback@UPxSweepHit@physx@@@physx@@UAE@XZ 100371a0 f i PhysX3ExtensionsDEBUG:ExtRigidBodyExt.obj
 0001:000361c0       ??4InertiaTensorComputer@Ext@physx@@QAEAAV012@ABV012@@Z 100371c0 f i PhysX3ExtensionsDEBUG:ExtRigidBodyExt.obj
 0001:00036210       ??4PxFilterData@physx@@QAEXABU01@@Z 10037210 f i PhysX3ExtensionsDEBUG:ExtRigidBodyExt.obj
 0001:00036260       ??4PxMassProperties@physx@@QAEAAV01@$$QAV01@@Z 10037260 f i PhysX3ExtensionsDEBUG:ExtRigidBodyExt.obj
 0001:000362b0       ??4PxMat33@physx@@QAEAAV01@ABV01@@Z 100372b0 f i PhysX3ExtensionsDEBUG:ExtRigidBodyExt.obj
 0001:00036300       ??4PxSweepHit@physx@@QAEAAU01@ABU01@@Z 10037300 f i PhysX3ExtensionsDEBUG:ExtRigidBodyExt.obj
 0001:00036340       ??A?$Array@PAVPxShape@physx@@V?$InlineAllocator@$0EA@VNamedAllocator@shdfnd@physx@@@shdfnd@2@@shdfnd@physx@@QAEAAPAVPxShape@2@I@Z 10037340 f i PhysX3ExtensionsDEBUG:ExtRigidBodyExt.obj
 0001:000363c0       ??APxMat33@physx@@QAEAAVPxVec3@1@I@Z 100373c0 f i PhysX3ExtensionsDEBUG:ExtRigidBodyExt.obj
 0001:000363e0       ??APxVec3@physx@@QAEAAMI@Z 100373e0 f i PhysX3ExtensionsDEBUG:ExtRigidBodyExt.obj
 0001:00036450       ??DPxMat33@physx@@QBE?BV01@M@Z 10037450 f i PhysX3ExtensionsDEBUG:ExtRigidBodyExt.obj
 0001:000364e0       ??DPxMat33@physx@@QBE?BVPxVec3@1@ABV21@@Z 100374e0 f i PhysX3ExtensionsDEBUG:ExtRigidBodyExt.obj
 0001:00036510       ??GPxMat33@physx@@QBE?BV01@ABV01@@Z 10037510 f i PhysX3ExtensionsDEBUG:ExtRigidBodyExt.obj
 0001:00036580       ??HPxMat33@physx@@QBE?BV01@ABV01@@Z 10037580 f i PhysX3ExtensionsDEBUG:ExtRigidBodyExt.obj
 0001:000365f0       ??RPxMat33@physx@@QAEAAMII@Z 100375f0 f i PhysX3ExtensionsDEBUG:ExtRigidBodyExt.obj
 0001:00036620       ??RPxMat33@physx@@QBEMII@Z 10037620 f i PhysX3ExtensionsDEBUG:ExtRigidBodyExt.obj
 0001:00036650       ??XPxMat33@physx@@QAEAAV01@M@Z 10037650 f i PhysX3ExtensionsDEBUG:ExtRigidBodyExt.obj
 0001:000366c0       ??YPxMat33@physx@@QAEAAV01@ABV01@@Z 100376c0 f i PhysX3ExtensionsDEBUG:ExtRigidBodyExt.obj
 0001:00036710       ??_E?$PxHitBuffer@UPxSweepHit@physx@@@physx@@UAEPAXI@Z 10037710 f i PhysX3ExtensionsDEBUG:ExtRigidBodyExt.obj
 0001:00036710       ??_G?$PxHitBuffer@UPxSweepHit@physx@@@physx@@UAEPAXI@Z 10037710 f i PhysX3ExtensionsDEBUG:ExtRigidBodyExt.obj
 0001:00036750       ??_E?$PxHitCallback@UPxSweepHit@physx@@@physx@@UAEPAXI@Z 10037750 f i PhysX3ExtensionsDEBUG:ExtRigidBodyExt.obj
 0001:00036750       ??_G?$PxHitCallback@UPxSweepHit@physx@@@physx@@UAEPAXI@Z 10037750 f i PhysX3ExtensionsDEBUG:ExtRigidBodyExt.obj
 0001:00036790       ?add@InertiaTensorComputer@Ext@physx@@QAEXABV123@@Z 10037790 f i PhysX3ExtensionsDEBUG:ExtRigidBodyExt.obj
 0001:000369a0       ?addForceAtPosInternal@@YAXAAVPxRigidBody@physx@@ABVPxVec3@2@1W4Enum@PxForceMode@2@_N@Z 100379a0 f i PhysX3ExtensionsDEBUG:ExtRigidBodyExt.obj
 0001:00036aa0       ?allocate@?$Array@PAVPxShape@physx@@V?$InlineAllocator@$0EA@VNamedAllocator@shdfnd@physx@@@shdfnd@2@@shdfnd@physx@@IAEPAPAVPxShape@3@I@Z 10037aa0 f i PhysX3ExtensionsDEBUG:ExtRigidBodyExt.obj
 0001:00036b20       ?allocate@?$Array@VPxMassProperties@physx@@V?$InlineAllocator@$0DEA@VNamedAllocator@shdfnd@physx@@@shdfnd@2@@shdfnd@physx@@IAEPAVPxMassProperties@3@I@Z 10037b20 f i PhysX3ExtensionsDEBUG:ExtRigidBodyExt.obj
 0001:00036ba0       ?allocate@?$Array@VPxTransform@physx@@V?$InlineAllocator@$0BMA@VNamedAllocator@shdfnd@physx@@@shdfnd@2@@shdfnd@physx@@IAEPAVPxTransform@3@I@Z 10037ba0 f i PhysX3ExtensionsDEBUG:ExtRigidBodyExt.obj
 0001:00036c20       ?allocate@?$InlineAllocator@$0BMA@VNamedAllocator@shdfnd@physx@@@shdfnd@physx@@QAEPAXIPBDH@Z 10037c20 f i PhysX3ExtensionsDEBUG:ExtRigidBodyExt.obj
 0001:00036c80       ?allocate@?$InlineAllocator@$0DEA@VNamedAllocator@shdfnd@physx@@@shdfnd@physx@@QAEPAXIPBDH@Z 10037c80 f i PhysX3ExtensionsDEBUG:ExtRigidBodyExt.obj
 0001:00036ce0       ?allocate@?$InlineAllocator@$0EA@VNamedAllocator@shdfnd@physx@@@shdfnd@physx@@QAEPAXIPBDH@Z 10037ce0 f i PhysX3ExtensionsDEBUG:ExtRigidBodyExt.obj
 0001:00036d30       ?any@PxGeometryHolder@physx@@QAEAAVPxGeometry@2@XZ 10037d30 f i PhysX3ExtensionsDEBUG:ExtRigidBodyExt.obj
 0001:00036d50       ?basisExtent@PxBounds3@physx@@SA?AV12@ABVPxVec3@2@ABVPxMat33@2@0@Z 10037d50 f i PhysX3ExtensionsDEBUG:ExtRigidBodyExt.obj
 0001:00036fa0       ?begin@?$Array@PAVPxShape@physx@@V?$InlineAllocator@$0EA@VNamedAllocator@shdfnd@physx@@@shdfnd@2@@shdfnd@physx@@QAEPAPAVPxShape@3@XZ 10037fa0 f i PhysX3ExtensionsDEBUG:ExtRigidBodyExt.obj
 0001:00036fc0       ?begin@?$Array@VPxMassProperties@physx@@V?$InlineAllocator@$0DEA@VNamedAllocator@shdfnd@physx@@@shdfnd@2@@shdfnd@physx@@QAEPAVPxMassProperties@3@XZ 10037fc0 f i PhysX3ExtensionsDEBUG:ExtRigidBodyExt.obj
 0001:00036fe0       ?begin@?$Array@VPxTransform@physx@@V?$InlineAllocator@$0BMA@VNamedAllocator@shdfnd@physx@@@shdfnd@2@@shdfnd@physx@@QAEPAVPxTransform@3@XZ 10037fe0 f i PhysX3ExtensionsDEBUG:ExtRigidBodyExt.obj
 0001:00037000       ?capacity@?$Array@PAVPxShape@physx@@V?$InlineAllocator@$0EA@VNamedAllocator@shdfnd@physx@@@shdfnd@2@@shdfnd@physx@@QBEIXZ 10038000 f i PhysX3ExtensionsDEBUG:ExtRigidBodyExt.obj
 0001:00037020       ?capacity@?$Array@VPxMassProperties@physx@@V?$InlineAllocator@$0DEA@VNamedAllocator@shdfnd@physx@@@shdfnd@2@@shdfnd@physx@@QBEIXZ 10038020 f i PhysX3ExtensionsDEBUG:ExtRigidBodyExt.obj
 0001:00037040       ?capacity@?$Array@VPxTransform@physx@@V?$InlineAllocator@$0BMA@VNamedAllocator@shdfnd@physx@@@shdfnd@2@@shdfnd@physx@@QBEIXZ 10038040 f i PhysX3ExtensionsDEBUG:ExtRigidBodyExt.obj
 0001:00037060       ?capacityIncrement@?$Array@VPxMassProperties@physx@@V?$InlineAllocator@$0DEA@VNamedAllocator@shdfnd@physx@@@shdfnd@2@@shdfnd@physx@@IBEIXZ 10038060 f i PhysX3ExtensionsDEBUG:ExtRigidBodyExt.obj
 0001:000370a0       ?capacityIncrement@?$Array@VPxTransform@physx@@V?$InlineAllocator@$0BMA@VNamedAllocator@shdfnd@physx@@@shdfnd@2@@shdfnd@physx@@IBEIXZ 100380a0 f i PhysX3ExtensionsDEBUG:ExtRigidBodyExt.obj
 0001:000370e0       ?center@InertiaTensorComputer@Ext@physx@@QAEXXZ 100380e0 f i PhysX3ExtensionsDEBUG:ExtRigidBodyExt.obj
 0001:00037120       ?computeBoxRatio@Ext@physx@@YAMABVPxVec3@2@@Z 10038120 f i PhysX3ExtensionsDEBUG:ExtRigidBodyExt.obj
 0001:00037140       ?computeCapsuleRatio@Ext@physx@@YAMMM@Z 10038140 f i PhysX3ExtensionsDEBUG:ExtRigidBodyExt.obj
 0001:000371c0       ?computeConeRatio@Ext@physx@@YAMMM@Z 100381c0 f i PhysX3ExtensionsDEBUG:ExtRigidBodyExt.obj
 0001:00037230       ?computeCylinderRatio@Ext@physx@@YAMMM@Z 10038230 f i PhysX3ExtensionsDEBUG:ExtRigidBodyExt.obj
 0001:00037270       ?computeEllipsoidRatio@Ext@physx@@YAMABVPxVec3@2@@Z 10038270 f i PhysX3ExtensionsDEBUG:ExtRigidBodyExt.obj
 0001:000372b0       ?computeSphereRatio@Ext@physx@@YAMM@Z 100382b0 f i PhysX3ExtensionsDEBUG:ExtRigidBodyExt.obj
 0001:000372e0       ?copy@?$Array@PAVPxShape@physx@@V?$InlineAllocator@$0EA@VNamedAllocator@shdfnd@physx@@@shdfnd@2@@shdfnd@physx@@KAXPAPAVPxShape@3@0PBQAV43@@Z 100382e0 f i PhysX3ExtensionsDEBUG:ExtRigidBodyExt.obj
 0001:00037340       ?copy@?$Array@VPxMassProperties@physx@@V?$InlineAllocator@$0DEA@VNamedAllocator@shdfnd@physx@@@shdfnd@2@@shdfnd@physx@@KAXPAVPxMassProperties@3@0PBV43@@Z 10038340 f i PhysX3ExtensionsDEBUG:ExtRigidBodyExt.obj
 0001:000373a0       ?copy@?$Array@VPxTransform@physx@@V?$InlineAllocator@$0BMA@VNamedAllocator@shdfnd@physx@@@shdfnd@2@@shdfnd@physx@@KAXPAVPxTransform@3@0PBV43@@Z 100383a0 f i PhysX3ExtensionsDEBUG:ExtRigidBodyExt.obj
 0001:00037400       ?create@?$Array@PAVPxShape@physx@@V?$InlineAllocator@$0EA@VNamedAllocator@shdfnd@physx@@@shdfnd@2@@shdfnd@physx@@KAXPAPAVPxShape@3@0ABQAV43@@Z 10038400 f i PhysX3ExtensionsDEBUG:ExtRigidBodyExt.obj
 0001:00037450       ?createDiagonal@PxMat33@physx@@SA?BV12@ABVPxVec3@2@@Z 10038450 f i PhysX3ExtensionsDEBUG:ExtRigidBodyExt.obj
 0001:00037510       ?deallocate@?$Array@PAVPxShape@physx@@V?$InlineAllocator@$0EA@VNamedAllocator@shdfnd@physx@@@shdfnd@2@@shdfnd@physx@@IAEXPAX@Z 10038510 f i PhysX3ExtensionsDEBUG:ExtRigidBodyExt.obj
 0001:00037530       ?deallocate@?$Array@VPxMassProperties@physx@@V?$InlineAllocator@$0DEA@VNamedAllocator@shdfnd@physx@@@shdfnd@2@@shdfnd@physx@@IAEXPAX@Z 10038530 f i PhysX3ExtensionsDEBUG:ExtRigidBodyExt.obj
 0001:00037550       ?deallocate@?$Array@VPxTransform@physx@@V?$InlineAllocator@$0BMA@VNamedAllocator@shdfnd@physx@@@shdfnd@2@@shdfnd@physx@@IAEXPAX@Z 10038550 f i PhysX3ExtensionsDEBUG:ExtRigidBodyExt.obj
 0001:00037570       ?deallocate@?$InlineAllocator@$0BMA@VNamedAllocator@shdfnd@physx@@@shdfnd@physx@@QAEXPAX@Z 10038570 f i PhysX3ExtensionsDEBUG:ExtRigidBodyExt.obj
 0001:000375b0       ?deallocate@?$InlineAllocator@$0DEA@VNamedAllocator@shdfnd@physx@@@shdfnd@physx@@QAEXPAX@Z 100385b0 f i PhysX3ExtensionsDEBUG:ExtRigidBodyExt.obj
 0001:000375f0       ?deallocate@?$InlineAllocator@$0EA@VNamedAllocator@shdfnd@physx@@@shdfnd@physx@@QAEXPAX@Z 100385f0 f i PhysX3ExtensionsDEBUG:ExtRigidBodyExt.obj
 0001:00037630       ?destroy@?$Array@PAVPxShape@physx@@V?$InlineAllocator@$0EA@VNamedAllocator@shdfnd@physx@@@shdfnd@2@@shdfnd@physx@@KAXPAPAVPxShape@3@0@Z 10038630 f i PhysX3ExtensionsDEBUG:ExtRigidBodyExt.obj
 0001:00037650       ?destroy@?$Array@VPxMassProperties@physx@@V?$InlineAllocator@$0DEA@VNamedAllocator@shdfnd@physx@@@shdfnd@2@@shdfnd@physx@@KAXPAVPxMassProperties@3@0@Z 10038650 f i PhysX3ExtensionsDEBUG:ExtRigidBodyExt.obj
 0001:00037670       ?destroy@?$Array@VPxTransform@physx@@V?$InlineAllocator@$0BMA@VNamedAllocator@shdfnd@physx@@@shdfnd@2@@shdfnd@physx@@KAXPAVPxTransform@3@0@Z 10038670 f i PhysX3ExtensionsDEBUG:ExtRigidBodyExt.obj
 0001:00037690       ?finalizeQuery@?$PxHitCallback@UPxSweepHit@physx@@@physx@@UAEXXZ 10038690 f i PhysX3ExtensionsDEBUG:ExtRigidBodyExt.obj
 0001:000376a0       ?getCenterOfMass@InertiaTensorComputer@Ext@physx@@QBE?AVPxVec3@3@XZ 100386a0 f i PhysX3ExtensionsDEBUG:ExtRigidBodyExt.obj
 0001:000376d0       ?getConjugate@PxQuat@physx@@QBE?AV12@XZ 100386d0 f i PhysX3ExtensionsDEBUG:ExtRigidBodyExt.obj
 0001:00037750       ?getInertia@InertiaTensorComputer@Ext@physx@@QBE?AVPxMat33@3@XZ 10038750 f i PhysX3ExtensionsDEBUG:ExtRigidBodyExt.obj
 0001:00037780       ?getInverse@PxTransform@physx@@QBE?AV12@XZ 10038780 f i PhysX3ExtensionsDEBUG:ExtRigidBodyExt.obj
 0001:00037830       ?getMass@InertiaTensorComputer@Ext@physx@@QBEMXZ 10038830 f i PhysX3ExtensionsDEBUG:ExtRigidBodyExt.obj
 0001:00037850       ?getNbTouches@?$PxHitBuffer@UPxSweepHit@physx@@@physx@@QBEIXZ 10038850 f i PhysX3ExtensionsDEBUG:ExtRigidBodyExt.obj
 0001:00037870       ?getType@PxGeometry@physx@@QBE?AW4Enum@PxGeometryType@2@XZ 10038870 f i PhysX3ExtensionsDEBUG:ExtRigidBodyExt.obj
 0001:00037890       ?getVelocityAtPosInternal@@YA?AVPxVec3@physx@@ABVPxRigidBody@2@ABV12@@Z 10038890 f i PhysX3ExtensionsDEBUG:ExtRigidBodyExt.obj
 0001:00037900       ?grow@?$Array@PAVPxShape@physx@@V?$InlineAllocator@$0EA@VNamedAllocator@shdfnd@physx@@@shdfnd@2@@shdfnd@physx@@IAEXI@Z 10038900 f i PhysX3ExtensionsDEBUG:ExtRigidBodyExt.obj
 0001:00037980       ?grow@?$Array@VPxMassProperties@physx@@V?$InlineAllocator@$0DEA@VNamedAllocator@shdfnd@physx@@@shdfnd@2@@shdfnd@physx@@IAEXI@Z 10038980 f i PhysX3ExtensionsDEBUG:ExtRigidBodyExt.obj
 0001:00037a00       ?grow@?$Array@VPxTransform@physx@@V?$InlineAllocator@$0BMA@VNamedAllocator@shdfnd@physx@@@shdfnd@2@@shdfnd@physx@@IAEXI@Z 10038a00 f i PhysX3ExtensionsDEBUG:ExtRigidBodyExt.obj
 0001:00037a80       ?growAndPushBack@?$Array@VPxMassProperties@physx@@V?$InlineAllocator@$0DEA@VNamedAllocator@shdfnd@physx@@@shdfnd@2@@shdfnd@physx@@IAEAAVPxMassProperties@3@ABV43@@Z 10038a80 f i PhysX3ExtensionsDEBUG:ExtRigidBodyExt.obj
 0001:00037c20       ?growAndPushBack@?$Array@VPxTransform@physx@@V?$InlineAllocator@$0BMA@VNamedAllocator@shdfnd@physx@@@shdfnd@2@@shdfnd@physx@@IAEAAVPxTransform@3@ABV43@@Z 10038c20 f i PhysX3ExtensionsDEBUG:ExtRigidBodyExt.obj
 0001:00037dc0       ?isIdentity@PxMeshScale@physx@@QBE_NXZ 10038dc0 f i PhysX3ExtensionsDEBUG:ExtRigidBodyExt.obj
 0001:00037e40       ?isInUserMemory@?$Array@PAVPxShape@physx@@V?$InlineAllocator@$0EA@VNamedAllocator@shdfnd@physx@@@shdfnd@2@@shdfnd@physx@@QBEIXZ 10038e40 f i PhysX3ExtensionsDEBUG:ExtRigidBodyExt.obj
 0001:00037e60       ?isInUserMemory@?$Array@VPxMassProperties@physx@@V?$InlineAllocator@$0DEA@VNamedAllocator@shdfnd@physx@@@shdfnd@2@@shdfnd@physx@@QBEIXZ 10038e60 f i PhysX3ExtensionsDEBUG:ExtRigidBodyExt.obj
 0001:00037e80       ?isInUserMemory@?$Array@VPxTransform@physx@@V?$InlineAllocator@$0BMA@VNamedAllocator@shdfnd@physx@@@shdfnd@2@@shdfnd@physx@@QBEIXZ 10038e80 f i PhysX3ExtensionsDEBUG:ExtRigidBodyExt.obj
 0001:00037ea0       ?isUnit@PxQuat@physx@@QBE_NXZ 10038ea0 f i PhysX3ExtensionsDEBUG:ExtRigidBodyExt.obj
 0001:00037f30       ?multiply@PxVec3@physx@@QBE?AV12@ABV12@@Z 10038f30 f i PhysX3ExtensionsDEBUG:ExtRigidBodyExt.obj
 0001:00037fa0       ?processTouches@?$PxHitBuffer@UPxSweepHit@physx@@@physx@@MAE_NPBUPxSweepHit@2@I@Z 10038fa0 f i PhysX3ExtensionsDEBUG:ExtRigidBodyExt.obj
 0001:00037fd0       ?pushBack@?$Array@VPxMassProperties@physx@@V?$InlineAllocator@$0DEA@VNamedAllocator@shdfnd@physx@@@shdfnd@2@@shdfnd@physx@@QAEAAVPxMassProperties@3@ABV43@@Z 10038fd0 f i PhysX3ExtensionsDEBUG:ExtRigidBodyExt.obj
 0001:00038080       ?pushBack@?$Array@VPxTransform@physx@@V?$InlineAllocator@$0BMA@VNamedAllocator@shdfnd@physx@@@shdfnd@2@@shdfnd@physx@@QAEAAVPxTransform@3@ABV43@@Z 10039080 f i PhysX3ExtensionsDEBUG:ExtRigidBodyExt.obj
 0001:00038130       ?recreate@?$Array@PAVPxShape@physx@@V?$InlineAllocator@$0EA@VNamedAllocator@shdfnd@physx@@@shdfnd@2@@shdfnd@physx@@IAEXI@Z 10039130 f i PhysX3ExtensionsDEBUG:ExtRigidBodyExt.obj
 0001:00038240       ?recreate@?$Array@VPxMassProperties@physx@@V?$InlineAllocator@$0DEA@VNamedAllocator@shdfnd@physx@@@shdfnd@2@@shdfnd@physx@@IAEXI@Z 10039240 f i PhysX3ExtensionsDEBUG:ExtRigidBodyExt.obj
 0001:00038370       ?recreate@?$Array@VPxTransform@physx@@V?$InlineAllocator@$0BMA@VNamedAllocator@shdfnd@physx@@@shdfnd@2@@shdfnd@physx@@IAEXI@Z 10039370 f i PhysX3ExtensionsDEBUG:ExtRigidBodyExt.obj
 0001:000384a0       ?reserve@?$Array@PAVPxShape@physx@@V?$InlineAllocator@$0EA@VNamedAllocator@shdfnd@physx@@@shdfnd@2@@shdfnd@physx@@QAEXI@Z 100394a0 f i PhysX3ExtensionsDEBUG:ExtRigidBodyExt.obj
 0001:000384d0       ?reserve@?$Array@VPxMassProperties@physx@@V?$InlineAllocator@$0DEA@VNamedAllocator@shdfnd@physx@@@shdfnd@2@@shdfnd@physx@@QAEXI@Z 100394d0 f i PhysX3ExtensionsDEBUG:ExtRigidBodyExt.obj
 0001:00038500       ?reserve@?$Array@VPxTransform@physx@@V?$InlineAllocator@$0BMA@VNamedAllocator@shdfnd@physx@@@shdfnd@2@@shdfnd@physx@@QAEXI@Z 10039500 f i PhysX3ExtensionsDEBUG:ExtRigidBodyExt.obj
 0001:00038530       ?resize@?$Array@PAVPxShape@physx@@V?$InlineAllocator@$0EA@VNamedAllocator@shdfnd@physx@@@shdfnd@2@@shdfnd@physx@@QAEXIABQAVPxShape@3@@Z 10039530 f i PhysX3ExtensionsDEBUG:ExtRigidBodyExt.obj
 0001:000385c0       ?rotate@InertiaTensorComputer@Ext@physx@@QAEXABVPxMat33@3@@Z 100395c0 f i PhysX3ExtensionsDEBUG:ExtRigidBodyExt.obj
 0001:00038720       ?rotateInertia@PxMassProperties@physx@@SA?AVPxMat33@2@ABV32@ABVPxQuat@2@@Z 10039720 f i PhysX3ExtensionsDEBUG:ExtRigidBodyExt.obj
 0001:000388e0       ?scaleDensity@InertiaTensorComputer@Ext@physx@@QAEXM@Z 100398e0 f i PhysX3ExtensionsDEBUG:ExtRigidBodyExt.obj
 0001:00038a10       ?scaleInertia@PxMassProperties@physx@@SA?AVPxMat33@2@ABV32@ABVPxQuat@2@ABVPxVec3@2@@Z 10039a10 f i PhysX3ExtensionsDEBUG:ExtRigidBodyExt.obj
 0001:00038ef0       ?setBox@InertiaTensorComputer@Ext@physx@@QAEXABVPxVec3@3@PBVPxTransform@3@@Z 10039ef0 f i PhysX3ExtensionsDEBUG:ExtRigidBodyExt.obj
 0001:00038f30       ?setCapsule@InertiaTensorComputer@Ext@physx@@QAEXHMMPBVPxTransform@3@@Z 10039f30 f i PhysX3ExtensionsDEBUG:ExtRigidBodyExt.obj
 0001:00038f90       ?setDiagonal@InertiaTensorComputer@Ext@physx@@QAEXMABVPxVec3@3@@Z 10039f90 f i PhysX3ExtensionsDEBUG:ExtRigidBodyExt.obj
 0001:000390e0       ?setSphere@InertiaTensorComputer@Ext@physx@@QAEXMPBVPxTransform@3@@Z 1003a0e0 f i PhysX3ExtensionsDEBUG:ExtRigidBodyExt.obj
 0001:00039120       ?size@?$Array@PAVPxShape@physx@@V?$InlineAllocator@$0EA@VNamedAllocator@shdfnd@physx@@@shdfnd@2@@shdfnd@physx@@QBEIXZ 1003a120 f i PhysX3ExtensionsDEBUG:ExtRigidBodyExt.obj
 0001:00039140       ?sum@PxMassProperties@physx@@SA?AV12@PBV12@PBVPxTransform@2@I@Z 1003a140 f i PhysX3ExtensionsDEBUG:ExtRigidBodyExt.obj
 0001:000395b0       ?transform@InertiaTensorComputer@Ext@physx@@QAEXABVPxTransform@3@@Z 1003a5b0 f i PhysX3ExtensionsDEBUG:ExtRigidBodyExt.obj
 0001:000395f0       ?transformFast@PxBounds3@physx@@SA?AV12@ABVPxTransform@2@ABV12@@Z 1003a5f0 f i PhysX3ExtensionsDEBUG:ExtRigidBodyExt.obj
 0001:000396b0       ?transformInertiaTensor@Cm@physx@@YAXABVPxVec3@2@ABVPxMat33@2@AAV42@@Z 1003a6b0 f i PhysX3ExtensionsDEBUG:ExtRigidBodyExt.obj
 0001:00039cf0       ?translateInertia@PxMassProperties@physx@@SA?AVPxMat33@2@ABV32@MABVPxVec3@2@@Z 1003acf0 f i PhysX3ExtensionsDEBUG:ExtRigidBodyExt.obj
 0001:00039ff0       ?volume@Ext@physx@@YAMABVPxVec3@2@@Z 1003aff0 f i PhysX3ExtensionsDEBUG:ExtRigidBodyExt.obj
 0001:0003a0a0       ?zero@InertiaTensorComputer@Ext@physx@@QAEXXZ 1003b0a0 f i PhysX3ExtensionsDEBUG:ExtRigidBodyExt.obj
 0001:0003a0fa       ?PxGetAssertHandler@physx@@YAAAVPxAssertHandler@1@XZ 1003b0fa f   PxFoundationDEBUG_x86:PxFoundationDEBUG_x86.dll
 0001:0003a100       ?getAllocator@shdfnd@physx@@YAAAVPxAllocatorCallback@2@XZ 1003b100 f   PxFoundationDEBUG_x86:PxFoundationDEBUG_x86.dll
 0001:0003a106       ??0NamedAllocator@shdfnd@physx@@QAE@PBD@Z 1003b106 f   PxFoundationDEBUG_x86:PxFoundationDEBUG_x86.dll
 0001:0003a10c       ?lock@MutexImpl@shdfnd@physx@@QAEXXZ 1003b10c f   PxFoundationDEBUG_x86:PxFoundationDEBUG_x86.dll
 0001:0003a112       ?unlock@MutexImpl@shdfnd@physx@@QAEXXZ 1003b112 f   PxFoundationDEBUG_x86:PxFoundationDEBUG_x86.dll
 0001:0003a118       _PxGetProfilerCallback     1003b118 f   PxFoundationDEBUG_x86:PxFoundationDEBUG_x86.dll
 0001:0003a11e       ??0NamedAllocator@shdfnd@physx@@QAE@ABV012@@Z 1003b11e f   PxFoundationDEBUG_x86:PxFoundationDEBUG_x86.dll
 0001:0003a124       ??1NamedAllocator@shdfnd@physx@@QAE@XZ 1003b124 f   PxFoundationDEBUG_x86:PxFoundationDEBUG_x86.dll
 0001:0003a12a       ?allocate@NamedAllocator@shdfnd@physx@@QAEPAXIPBDH@Z 1003b12a f   PxFoundationDEBUG_x86:PxFoundationDEBUG_x86.dll
 0001:0003a130       ?deallocate@NamedAllocator@shdfnd@physx@@QAEXPAX@Z 1003b130 f   PxFoundationDEBUG_x86:PxFoundationDEBUG_x86.dll
 0001:0003a136       _PxGetFoundation           1003b136 f   PxFoundationDEBUG_x86:PxFoundationDEBUG_x86.dll
 0001:0003a13c       ??0MutexImpl@shdfnd@physx@@QAE@XZ 1003b13c f   PxFoundationDEBUG_x86:PxFoundationDEBUG_x86.dll
 0001:0003a142       ??1MutexImpl@shdfnd@physx@@QAE@XZ 1003b142 f   PxFoundationDEBUG_x86:PxFoundationDEBUG_x86.dll
 0001:0003a148       ?getSize@MutexImpl@shdfnd@physx@@SAIXZ 1003b148 f   PxFoundationDEBUG_x86:PxFoundationDEBUG_x86.dll
 0001:0003a14e       ?getInstance@Foundation@shdfnd@physx@@SAAAV123@XZ 1003b14e f   PxFoundationDEBUG_x86:PxFoundationDEBUG_x86.dll
 0001:0003a154       ?incRefCount@Foundation@shdfnd@physx@@SAXXZ 1003b154 f   PxFoundationDEBUG_x86:PxFoundationDEBUG_x86.dll
 0001:0003a15a       ?decRefCount@Foundation@shdfnd@physx@@SAXXZ 1003b15a f   PxFoundationDEBUG_x86:PxFoundationDEBUG_x86.dll
 0001:0003a160       ?error@Foundation@shdfnd@physx@@QAAXW4Enum@PxErrorCode@3@PBDH1ZZ 1003b160 f   PxFoundationDEBUG_x86:PxFoundationDEBUG_x86.dll
 0001:0003a166       ?PxShortestRotation@physx@@YA?AVPxQuat@1@ABVPxVec3@1@0@Z 1003b166 f   PxFoundationDEBUG_x86:PxFoundationDEBUG_x86.dll
 0001:0003a16c       ?PxDiagonalize@physx@@YA?AVPxVec3@1@ABVPxMat33@1@AAVPxQuat@1@@Z 1003b16c f   PxFoundationDEBUG_x86:PxFoundationDEBUG_x86.dll
 0001:0003a172       ?sweep@PxMeshQuery@physx@@SA_NABVPxVec3@2@MABVPxGeometry@2@ABVPxTransform@2@IPBVPxTriangle@2@AAUPxSweepHit@2@V?$PxFlags@W4Enum@PxHitFlag@physx@@G@2@PBIM_N@Z 1003b172 f   PhysX3CommonDEBUG_x86:PhysX3CommonDEBUG_x86.dll
 0001:0003a178       ??0RenderOutput@Cm@physx@@QAE@AAVRenderBuffer@12@@Z 1003b178 f   PhysX3CommonDEBUG_x86:PhysX3CommonDEBUG_x86.dll
 0001:0003a17e       ??6RenderOutput@Cm@physx@@QAEAAV012@I@Z 1003b17e f   PhysX3CommonDEBUG_x86:PhysX3CommonDEBUG_x86.dll
 0001:0003a184       ??6RenderOutput@Cm@physx@@QAEAAV012@ABVPxTransform@2@@Z 1003b184 f   PhysX3CommonDEBUG_x86:PhysX3CommonDEBUG_x86.dll
 0001:0003a18a       ?outputCapsule@RenderOutput@Cm@physx@@QAEAAV123@MMABVPxMat44@3@@Z 1003b18a f   PhysX3CommonDEBUG_x86:PhysX3CommonDEBUG_x86.dll
 0001:0003a190       ??6Cm@physx@@YAAAVRenderOutput@01@AAV201@ABUDebugBox@01@@Z 1003b190 f   PhysX3CommonDEBUG_x86:PhysX3CommonDEBUG_x86.dll
 0001:0003a196       ?PxTransformFromSegment@physx@@YA?AVPxTransform@1@ABVPxVec3@1@0PAM@Z 1003b196 f   PhysX3CommonDEBUG_x86:PhysX3CommonDEBUG_x86.dll
 0001:0003a19c       ?sweep@PxGeometryQuery@physx@@SA_NABVPxVec3@2@MABVPxGeometry@2@ABVPxTransform@2@12AAUPxSweepHit@2@V?$PxFlags@W4Enum@PxHitFlag@physx@@G@2@M@Z 1003b19c f   PhysX3CommonDEBUG_x86:PhysX3CommonDEBUG_x86.dll
 0001:0003a1a2       ?computePenetration@PxGeometryQuery@physx@@SA_NAAVPxVec3@2@AAMABVPxGeometry@2@ABVPxTransform@2@23@Z 1003b1a2 f   PhysX3CommonDEBUG_x86:PhysX3CommonDEBUG_x86.dll
 0001:0003a1a8       ??0Box@Gu@physx@@QAE@ABVPxVec3@2@0ABVPxMat33@2@@Z 1003b1a8 f   PhysX3CommonDEBUG_x86:PhysX3CommonDEBUG_x86.dll
 0001:0003a1ae       ??1Box@Gu@physx@@QAE@XZ    1003b1ae f   PhysX3CommonDEBUG_x86:PhysX3CommonDEBUG_x86.dll
 0001:0003a1b4       ?intersectOBBOBB@Gu@physx@@YA_NABVPxVec3@2@0ABVPxMat33@2@001_N@Z 1003b1b4 f   PhysX3CommonDEBUG_x86:PhysX3CommonDEBUG_x86.dll
 0001:0003a1ba       ?distanceSegmentBoxSquared@Gu@physx@@YAMABVPxVec3@2@000ABVPxMat33@2@PAMPAV32@@Z 1003b1ba f   PhysX3CommonDEBUG_x86:PhysX3CommonDEBUG_x86.dll
 0001:0003a1c0       ?getTriangle@PxMeshQuery@physx@@SAXABVPxTriangleMeshGeometry@2@ABVPxTransform@2@IAAVPxTriangle@2@PAI3@Z 1003b1c0 f   PhysX3CommonDEBUG_x86:PhysX3CommonDEBUG_x86.dll
 0001:0003a1c6       ?getTriangle@PxMeshQuery@physx@@SAXABVPxHeightFieldGeometry@2@ABVPxTransform@2@IAAVPxTriangle@2@PAI3@Z 1003b1c6 f   PhysX3CommonDEBUG_x86:PhysX3CommonDEBUG_x86.dll
 0001:0003a1cc       ??6RenderOutput@Cm@physx@@QAEAAV012@W4Primitive@012@@Z 1003b1cc f   PhysX3CommonDEBUG_x86:PhysX3CommonDEBUG_x86.dll
 0001:0003a1d2       ??6RenderOutput@Cm@physx@@QAEAAV012@VPxVec3@2@@Z 1003b1d2 f   PhysX3CommonDEBUG_x86:PhysX3CommonDEBUG_x86.dll
 0001:0003a1d8       ?intersectTriangleBox_Unsafe@Gu@physx@@YAHABVPxVec3@2@0000@Z 1003b1d8 f   PhysX3CommonDEBUG_x86:PhysX3CommonDEBUG_x86.dll
 0001:0003a1de       ?CompleteBoxPruning@Cm@physx@@YA_NPBVPxBounds3@2@IAAV?$Array@IVNamedAllocator@shdfnd@physx@@@shdfnd@2@ABVAxes@Gu@2@@Z 1003b1de f   PhysX3CommonDEBUG_x86:PhysX3CommonDEBUG_x86.dll
 0001:0003a1e4       ?distanceSegmentSegmentSquared@Gu@physx@@YAMABVPxVec3@2@000PAM1@Z 1003b1e4 f   PhysX3CommonDEBUG_x86:PhysX3CommonDEBUG_x86.dll
 0001:0003a1ea       ?getRaycastFuncTable@Gu@physx@@YAAAY06Q6AIABVPxGeometry@2@ABVPxTransform@2@ABVPxVec3@2@2MV?$PxFlags@W4Enum@PxHitFlag@physx@@G@2@IPIAUPxRaycastHit@2@@ZXZ 1003b1ea f   PhysX3CommonDEBUG_x86:PhysX3CommonDEBUG_x86.dll
 0001:0003a1f0       ?findOverlapTriangleMesh@PxMeshQuery@physx@@SAIABVPxGeometry@2@ABVPxTransform@2@ABVPxTriangleMeshGeometry@2@1PAIIIAA_N@Z 1003b1f0 f   PhysX3CommonDEBUG_x86:PhysX3CommonDEBUG_x86.dll
 0001:0003a1f6       ?findOverlapHeightField@PxMeshQuery@physx@@SAIABVPxGeometry@2@ABVPxTransform@2@ABVPxHeightFieldGeometry@2@1PAIIIAA_N@Z 1003b1f6 f   PhysX3CommonDEBUG_x86:PhysX3CommonDEBUG_x86.dll
 0001:0003a200       ??3@YAXPAXI@Z              1003b200 f   LIBCMTD:delete_scalar_size.obj
 0001:0003a220       ??_V@YAXPAXI@Z             1003b220 f   LIBCMTD:delete_array_size.obj
 0001:0003a240       __CRT_RTC_INIT             1003b240 f   LIBCMTD:init.obj
 0001:0003a250       __CRT_RTC_INITW            1003b250 f   LIBCMTD:init.obj
 0001:0003a260       __RTC_InitBase             1003b260 f   LIBCMTD:init.obj
 0001:0003a2a0       __RTC_Shutdown             1003b2a0 f   LIBCMTD:init.obj
 0001:0003a2c0       __alloca_probe_16          1003b2c0 f   LIBCMTD:alloca16.obj
 0001:0003a2d6       __alloca_probe_8           1003b2d6     LIBCMTD:alloca16.obj
 0001:0003a300       __ftoui3                   1003b300 f   LIBCMTD:ftol3.obj
 0001:0003a30f       __ftoul3                   1003b30f f   LIBCMTD:ftol3.obj
 0001:0003a31e       __ftol3                    1003b31e f   LIBCMTD:ftol3.obj
 0001:0003a32b       __ftol3_NaN                1003b32b f   LIBCMTD:ftol3.obj
 0001:0003a343       __ftol3_work               1003b343 f   LIBCMTD:ftol3.obj
 0001:0003a3c9       __ftol3_common             1003b3c9 f   LIBCMTD:ftol3.obj
 0001:0003a48b       __ftol3_arg_error          1003b48b f   LIBCMTD:ftol3.obj
 0001:0003a49d       __ftol3_except             1003b49d f   LIBCMTD:ftol3.obj
 0001:0003a4e1       __dtoui3                   1003b4e1 f   LIBCMTD:ftol3.obj
 0001:0003a4f0       __dtoul3                   1003b4f0 f   LIBCMTD:ftol3.obj
 0001:0003a4ff       __dtol3                    1003b4ff f   LIBCMTD:ftol3.obj
 0001:0003a50c       __dtol3_NaN                1003b50c f   LIBCMTD:ftol3.obj
 0001:0003a529       __dtol3_work               1003b529 f   LIBCMTD:ftol3.obj
 0001:0003a610       __ultod3                   1003b610 f   LIBCMTD:ftol3.obj
 0001:0003a650       __ltod3                    1003b650 f   LIBCMTD:ftol3.obj
 0001:0003a760       ?__scrt_initialize_type_info@@YAXXZ 1003b760 f   LIBCMTD:tncleanup.obj
 0001:0003a780       ?__scrt_uninitialize_type_info@@YAXXZ 1003b780 f   LIBCMTD:tncleanup.obj
 0001:0003a7a0       ??1type_info@@UAE@XZ       1003b7a0 f   LIBCMTD:std_type_info_static.obj
 0001:0003a7c0       ??_Gtype_info@@UAEPAXI@Z   1003b7c0 f i LIBCMTD:std_type_info_static.obj
 0001:0003a7c0       ??_Etype_info@@UAEPAXI@Z   1003b7c0 f i LIBCMTD:std_type_info_static.obj
 0001:0003adc0       __CRT_INIT@12              1003bdc0 f   LIBCMTD:dll_dllmain.obj
 0001:0003ade0       __DllMainCRTStartup@12     1003bde0 f   LIBCMTD:dll_dllmain.obj
 0001:0003ae10       ??3@YAXPAX@Z               1003be10 f   LIBCMTD:delete_scalar.obj
 0001:0003ae30       ??_V@YAXPAX@Z              1003be30 f   LIBCMTD:delete_array.obj
 0001:0003ae50       ?_RTC_GetErrorFunc@@YAP6AHHPBDH00ZZPBX@Z 1003be50 f   LIBCMTD:userapi.obj
 0001:0003ae60       ?_RTC_GetErrorFuncW@@YAP6AHHPB_WH00ZZPBX@Z 1003be60 f   LIBCMTD:userapi.obj
 0001:0003ae70       __RTC_GetErrDesc           1003be70 f   LIBCMTD:userapi.obj
 0001:0003ae90       __RTC_NumErrors            1003be90 f   LIBCMTD:userapi.obj
 0001:0003aea0       __RTC_SetErrorFunc         1003bea0 f   LIBCMTD:userapi.obj
 0001:0003aed0       __RTC_SetErrorFuncW        1003bed0 f   LIBCMTD:userapi.obj
 0001:0003af00       __RTC_SetErrorType         1003bf00 f   LIBCMTD:userapi.obj
 0001:0003af30       __alloca_probe             1003bf30 f   LIBCMTD:chkstk.obj
 0001:0003af30       __chkstk                   1003bf30 f   LIBCMTD:chkstk.obj
 0001:0003b000       ___security_init_cookie    1003c000 f   LIBCMTD:gs_support.obj
 0001:0003b0a0       _DllMain@12                1003c0a0 f   LIBCMTD:dll_dllmain_stub.obj
 0001:0003b0b0       ___local_stdio_printf_options 1003c0b0 f i LIBCMTD:default_local_stdio_options.obj
 0001:0003b0c0       ___local_stdio_scanf_options 1003c0c0 f i LIBCMTD:default_local_stdio_options.obj
 0001:0003b0d0       ___scrt_initialize_default_local_stdio_options 1003c0d0 f   LIBCMTD:default_local_stdio_options.obj
 0001:0003b120       ??$__crt_fast_decode_pointer@PAP6AXXZ@@YAPAP6AXXZQAP6AXXZ@Z 1003c120 f i LIBCMTD:utility.obj
 0001:0003b150       ??$__crt_fast_encode_pointer@PAP6AXXZ@@YAPAP6AXXZQAP6AXXZ@Z 1003c150 f i LIBCMTD:utility.obj
 0001:0003b190       ?__crt_rotate_pointer_value@@YAIIH@Z 1003c190 f i LIBCMTD:utility.obj
 0001:0003b1a0       ?configure_argv@__scrt_narrow_argv_policy@@SAHXZ 1003c1a0 f i LIBCMTD:utility.obj
 0001:0003b270       ?initialize_environment@__scrt_narrow_environment_policy@@SAHXZ 1003c270 f i LIBCMTD:utility.obj
 0001:0003b310       _NtCurrentTeb              1003c310 f i LIBCMTD:utility.obj
 0001:0003b320       ___scrt_acquire_startup_lock 1003c320 f   LIBCMTD:utility.obj
 0001:0003b380       ___scrt_dllmain_after_initialize_c 1003c380 f   LIBCMTD:utility.obj
 0001:0003b3c0       ___scrt_dllmain_before_initialize_c 1003c3c0 f   LIBCMTD:utility.obj
 0001:0003b3f0       ___scrt_dllmain_crt_thread_attach 1003c3f0 f   LIBCMTD:utility.obj
 0001:0003b430       ___scrt_dllmain_crt_thread_detach 1003c430 f   LIBCMTD:utility.obj
 0001:0003b450       ___scrt_dllmain_exception_filter 1003c450 f   LIBCMTD:utility.obj
 0001:0003b4b0       ___scrt_dllmain_uninitialize_c 1003c4b0 f   LIBCMTD:utility.obj
 0001:0003b4f0       ___scrt_dllmain_uninitialize_critical 1003c4f0 f   LIBCMTD:utility.obj
 0001:0003b510       ___scrt_initialize_crt     1003c510 f   LIBCMTD:utility.obj
 0001:0003b570       ___scrt_initialize_onexit_tables 1003c570 f   LIBCMTD:utility.obj
 0001:0003b690       ___scrt_is_nonwritable_in_current_image 1003c690 f   LIBCMTD:utility.obj
 0001:0003b810       ___scrt_release_startup_lock 1003c810 f   LIBCMTD:utility.obj
 0001:0003b840       ___scrt_uninitialize_crt   1003c840 f   LIBCMTD:utility.obj
 0001:0003b890       __onexit                   1003c890 f   LIBCMTD:utility.obj
 0001:0003b920       _at_quick_exit             1003c920 f   LIBCMTD:utility.obj
 0001:0003b980       _atexit                    1003c980 f   LIBCMTD:utility.obj
 0001:0003b9c0       ___scrt_get_dyn_tls_init_callback 1003c9c0 f   LIBCMTD:dyn_tls_init.obj
 0001:0003b9d0       ___scrt_fastfail           1003c9d0 f   LIBCMTD:utility_desktop.obj
 0001:0003bb60       ___scrt_get_show_window_mode 1003cb60 f   LIBCMTD:utility_desktop.obj
 0001:0003bbb0       ___scrt_initialize_mta     1003cbb0 f   LIBCMTD:utility_desktop.obj
 0001:0003bbc0       ___scrt_initialize_winrt   1003cbc0 f   LIBCMTD:utility_desktop.obj
 0001:0003bbd0       ___scrt_is_managed_app     1003cbd0 f   LIBCMTD:utility_desktop.obj
 0001:0003bc80       ___scrt_set_unhandled_exception_filter 1003cc80 f   LIBCMTD:utility_desktop.obj
 0001:0003bca0       ___scrt_stub_for_initialize_mta 1003cca0 f   LIBCMTD:utility_desktop.obj
 0001:0003bca0       ___scrt_exe_initialize_mta 1003cca0 f   LIBCMTD:utility_desktop.obj
 0001:0003bcb0       ___scrt_unhandled_exception_filter@4 1003ccb0 f   LIBCMTD:utility_desktop.obj
 0001:0003bd30       __crt_debugger_hook        1003cd30 f   LIBCMTD:utility_desktop.obj
 0001:0003bd50       __RTC_Initialize           1003cd50 f   LIBCMTD:initsect.obj
 0001:0003bd90       __RTC_Terminate            1003cd90 f   LIBCMTD:initsect.obj
 0001:0003bdd0       @_guard_check_icall_nop@4  1003cdd0 f i LIBCMTD:guard_support.obj
 0001:0003bde0       _ReadNoFence               1003cde0 f i LIBCMTD:guard_support.obj
 0001:0003be00       _ReadPointerNoFence        1003ce00 f i LIBCMTD:guard_support.obj
 0001:0003be20       __guard_icall_checks_enforced 1003ce20 f i LIBCMTD:guard_support.obj
 0001:0003bf10       ?_RTC_AllocaFailure@@YAXPAXPAU_RTC_ALLOCA_NODE@@H@Z 1003cf10 f   LIBCMTD:error.obj
 0001:0003c030       ?_RTC_Failure@@YAXPAXH@Z   1003d030 f   LIBCMTD:error.obj
 0001:0003c0a0       ?_RTC_StackFailure@@YAXPAXPBD@Z 1003d0a0 f   LIBCMTD:error.obj
 0001:0003c550       __RTC_UninitUse            1003d550 f   LIBCMTD:error.obj
 0001:0003c630       __vsprintf_s_l             1003d630 f i LIBCMTD:error.obj
 0001:0003c670       _sprintf_s                 1003d670 f i LIBCMTD:error.obj
 0001:0003c6a0       ___isa_available_init      1003d6a0 f   LIBCMTD:cpu_disp.obj
 0001:0003ca30       __get_startup_argv_mode    1003da30 f   LIBCMTD:argv_mode.obj
 0001:0003ca40       ___scrt_is_ucrt_dll_in_use 1003da40 f   LIBCMTD:ucrt_detection.obj
 0001:0003d000       ?_RTC_GetSrcLine@@YAHPAEPA_WKPAH1K@Z 1003e000 f   LIBCMTD:pdblkup.obj
 0001:0003d470       @__security_check_cookie@4 1003e470 f   LIBCMTD:secchk.obj
 0001:0003d490       __except_handler4_noexcept 1003e490 f   LIBCMTD:chandler4_noexcept.obj
 0001:0003d4f0       ___raise_securityfailure   1003e4f0 f   LIBCMTD:gs_report.obj
 0001:0003d530       ___report_gsfailure        1003e530 f   LIBCMTD:gs_report.obj
 0001:0003d680       ___report_rangecheckfailure 1003e680 f   LIBCMTD:gs_report.obj
 0001:0003d690       ___report_securityfailure  1003e690 f   LIBCMTD:gs_report.obj
 0001:0003d7a0       ___report_securityfailureEx 1003e7a0 f   LIBCMTD:gs_report.obj
 0001:0003d910       ??$__crt_fast_decode_pointer@P6AXXZ@@YAP6AXXZQ6AXXZ@Z 1003e910 f i libvcruntimed:purevirt.obj
 0001:0003d940       ??$__crt_fast_encode_pointer@P6AXXZ@@YAP6AXXZQ6AXXZ@Z 1003e940 f i libvcruntimed:purevirt.obj
 0001:0003d980       ??$__crt_interlocked_exchange_pointer@$$A6AXXZP6AXXZ@@YAP6AXXZPDS6AXXZQ6AXXZ@Z 1003e980 f i libvcruntimed:purevirt.obj
 0001:0003d990       ??$__crt_interlocked_read_pointer@$$A6AXXZ@@YAP6AXXZPDS6AXXZ@Z 1003e990 f i libvcruntimed:purevirt.obj
 0001:0003d9b0       ?__crt_interlocked_read_32@@YAHPDH@Z 1003e9b0 f i libvcruntimed:purevirt.obj
 0001:0003d9d0       __get_purecall_handler     1003e9d0 f   libvcruntimed:purevirt.obj
 0001:0003da00       __purecall                 1003ea00 f   libvcruntimed:purevirt.obj
 0001:0003da40       __set_purecall_handler     1003ea40 f   libvcruntimed:purevirt.obj
 0001:0003da80       _memcpy                    1003ea80 f   libvcruntimed:memcpy.obj
 0001:0003e160       _memset                    1003f160 f   libvcruntimed:memset.obj
 0001:0003e350       ??$?RD@__crt_internal_free_policy@@QBEXQBD@Z 1003f350 f i libvcruntimed:std_type_info.obj
 0001:0003e380       ??$?RX@__crt_internal_free_policy@@QBEXQBX@Z 1003f380 f i libvcruntimed:std_type_info.obj
 0001:0003e3b0       ??$__crt_interlocked_compare_exchange_pointer@$$CBDPAD$$T@@YAPBDPDSBDQAD$$T@Z 1003f3b0 f i libvcruntimed:std_type_info.obj
 0001:0003e3d0       ??$__crt_interlocked_read_pointer@$$CBD@@YAPBDPDSBD@Z 1003f3d0 f i libvcruntimed:std_type_info.obj
 0001:0003e3f0       ??0?$__crt_unique_heap_ptr@DU__crt_internal_free_policy@@@@QAE@QAD@Z 1003f3f0 f i libvcruntimed:std_type_info.obj
 0001:0003e410       ??0?$__crt_unique_heap_ptr@XU__crt_internal_free_policy@@@@QAE@QAX@Z 1003f410 f i libvcruntimed:std_type_info.obj
 0001:0003e430       ??1?$__crt_unique_heap_ptr@DU__crt_internal_free_policy@@@@QAE@XZ 1003f430 f i libvcruntimed:std_type_info.obj
 0001:0003e450       ??1?$__crt_unique_heap_ptr@XU__crt_internal_free_policy@@@@QAE@XZ 1003f450 f i libvcruntimed:std_type_info.obj
 0001:0003e4b0       ??B?$__crt_unique_heap_ptr@DU__crt_internal_free_policy@@@@QBE_NXZ 1003f4b0 f i libvcruntimed:std_type_info.obj
 0001:0003e4d0       ??B?$__crt_unique_heap_ptr@XU__crt_internal_free_policy@@@@QBE_NXZ 1003f4d0 f i libvcruntimed:std_type_info.obj
 0001:0003e550       ?detach@?$__crt_unique_heap_ptr@XU__crt_internal_free_policy@@@@QAEPAXXZ 1003f550 f i libvcruntimed:std_type_info.obj
 0001:0003e580       ?get@?$__crt_unique_heap_ptr@DU__crt_internal_free_policy@@@@QBEPADXZ 1003f580 f i libvcruntimed:std_type_info.obj
 0001:0003e5a0       ?get@?$__crt_unique_heap_ptr@XU__crt_internal_free_policy@@@@QBEPAXXZ 1003f5a0 f i libvcruntimed:std_type_info.obj
 0001:0003e5c0       ?is_valid@?$__crt_unique_heap_ptr@DU__crt_internal_free_policy@@@@QBE_NXZ 1003f5c0 f i libvcruntimed:std_type_info.obj
 0001:0003e600       ?is_valid@?$__crt_unique_heap_ptr@XU__crt_internal_free_policy@@@@QBE_NXZ 1003f600 f i libvcruntimed:std_type_info.obj
 0001:0003e640       ?release@?$__crt_unique_heap_ptr@DU__crt_internal_free_policy@@@@QAEXXZ 1003f640 f i libvcruntimed:std_type_info.obj
 0001:0003e670       ?release@?$__crt_unique_heap_ptr@XU__crt_internal_free_policy@@@@QAEXXZ 1003f670 f i libvcruntimed:std_type_info.obj
 0001:0003e6a0       ___std_type_info_compare   1003f6a0 f   libvcruntimed:std_type_info.obj
 0001:0003e6d0       ___std_type_info_destroy_list 1003f6d0 f   libvcruntimed:std_type_info.obj
 0001:0003e720       ___std_type_info_hash      1003f720 f   libvcruntimed:std_type_info.obj
 0001:0003e790       ___std_type_info_name      1003f790 f   libvcruntimed:std_type_info.obj
 0001:0003ea70       __except_handler4          1003fa70 f   libvcruntimed:chandler4.obj
 0001:0003ecc0       ___vcrt_initialize         1003fcc0 f   libvcruntimed:initialization.obj
 0001:0003ed10       ___vcrt_thread_attach      1003fd10 f   libvcruntimed:initialization.obj
 0001:0003ed30       ___vcrt_thread_detach      1003fd30 f   libvcruntimed:initialization.obj
 0001:0003ed50       ___vcrt_uninitialize       1003fd50 f   libvcruntimed:initialization.obj
 0001:0003ed80       ___vcrt_uninitialize_critical 1003fd80 f   libvcruntimed:initialization.obj
 0001:0003eda0       ___vcrt_GetModuleFileNameW 1003fda0 f   libvcruntimed:winapi_thunks.obj
 0001:0003edc0       ___vcrt_GetModuleHandleW   1003fdc0 f   libvcruntimed:winapi_thunks.obj
 0001:0003ede0       ___vcrt_LoadLibraryExW     1003fde0 f   libvcruntimed:winapi_thunks.obj
 0001:0003ee00       ??$?B$$A6AXXZ@__crt_fast_encoded_nullptr_t@@QBEP6AXXZXZ 1003fe00 f i libvcruntimed:purevirt_data.obj
 0001:0003ee20       ?__crt_fast_encode_pointer@@YA?AU__crt_fast_encoded_nullptr_t@@$$T@Z 1003fe20 f i libvcruntimed:purevirt_data.obj
 0001:0003ee30       ___vcrt_initialize_pure_virtual_call_handler 1003fe30 f   libvcruntimed:purevirt_data.obj
 0001:0003ee60       ??0Block@_HeapManager@@QAE@XZ 1003fe60 f i libvcruntimed:undname.obj
 0001:0003ee80       ??0DName@@QAE@AAPBDD@Z     1003fe80 f   libvcruntimed:undname.obj
 0001:0003f130       ??0DName@@QAE@ABV0@@Z      10040130 f i libvcruntimed:undname.obj
 0001:0003f160       ??0DName@@QAE@D@Z          10040160 f   libvcruntimed:undname.obj
 0001:0003f1b0       ??0DName@@QAE@PAV0@@Z      100401b0 f   libvcruntimed:undname.obj
 0001:0003f290       ??0DName@@QAE@PBD@Z        10040290 f   libvcruntimed:undname.obj
 0001:0003f300       ??0DName@@QAE@W4DNameStatus@@@Z 10040300 f   libvcruntimed:undname.obj
 0001:0003f3c0       ??0DName@@QAE@XZ           100403c0 f i libvcruntimed:undname.obj
 0001:0003f3f0       ??0DName@@QAE@_J@Z         100403f0 f   libvcruntimed:undname.obj
 0001:0003f510       ??0DName@@QAE@_K@Z         10040510 f   libvcruntimed:undname.obj
 0001:0003f5e0       ??0DNameNode@@IAE@XZ       100405e0 f i libvcruntimed:undname.obj
 0001:0003f600       ??0Replicator@@QAE@XZ      10040600 f i libvcruntimed:undname.obj
 0001:0003f650       ??0UnDecorator@@QAE@PBDP6APADJ@ZK@Z 10040650 f i libvcruntimed:undname.obj
 0001:0003f6f0       ??0charNode@@QAE@D@Z       100406f0 f i libvcruntimed:undname.obj
 0001:0003f730       ??0pDNameNode@@QAE@PAVDName@@@Z 10040730 f   libvcruntimed:undname.obj
 0001:0003f7b0       ??0pairNode@@QAE@PBVDNameNode@@0@Z 100407b0 f i libvcruntimed:undname.obj
 0001:0003f800       ??0pcharNode@@QAE@PBDH@Z   10040800 f   libvcruntimed:undname.obj
 0001:0003f8e0       ??2@YAPAXIAAV_HeapManager@@H@Z 100408e0 f i libvcruntimed:undname.obj
 0001:0003f900       ??4DName@@QAEAAV0@ABV0@@Z  10040900 f   libvcruntimed:undname.obj
 0001:0003f930       ??4DName@@QAEAAV0@D@Z      10040930 f i libvcruntimed:undname.obj
 0001:0003f980       ??4DName@@QAEAAV0@PAV0@@Z  10040980 f   libvcruntimed:undname.obj
 0001:0003fa40       ??4DName@@QAEAAV0@PBD@Z    10040a40 f   libvcruntimed:undname.obj
 0001:0003fa90       ??4DName@@QAEAAV0@W4DNameStatus@@@Z 10040a90 f   libvcruntimed:undname.obj
 0001:0003fb30       ??AReplicator@@QBE?AVDName@@H@Z 10040b30 f   libvcruntimed:undname.obj
 0001:0003fbb0       ??H@YA?AVDName@@DABV0@@Z   10040bb0 f i libvcruntimed:undname.obj
 0001:0003fbf0       ??H@YA?AVDName@@PBDABV0@@Z 10040bf0 f i libvcruntimed:undname.obj
 0001:0003fc30       ??H@YA?AVDName@@W4DNameStatus@@ABV0@@Z 10040c30 f i libvcruntimed:undname.obj
 0001:0003fc70       ??HDName@@QBE?AV0@ABV0@@Z  10040c70 f   libvcruntimed:undname.obj
 0001:0003fcc0       ??HDName@@QBE?AV0@D@Z      10040cc0 f   libvcruntimed:undname.obj
 0001:0003fd10       ??HDName@@QBE?AV0@PAV0@@Z  10040d10 f   libvcruntimed:undname.obj
 0001:0003fd60       ??HDName@@QBE?AV0@PBD@Z    10040d60 f   libvcruntimed:undname.obj
 0001:0003fdb0       ??HDName@@QBE?AV0@W4DNameStatus@@@Z 10040db0 f   libvcruntimed:undname.obj
 0001:0003fe00       ??YDName@@QAEAAV0@ABV0@@Z  10040e00 f   libvcruntimed:undname.obj
 0001:0003fe90       ??YDName@@QAEAAV0@D@Z      10040e90 f   libvcruntimed:undname.obj
 0001:0003ff30       ??YDName@@QAEAAV0@PAV0@@Z  10040f30 f   libvcruntimed:undname.obj
 0001:00040020       ??YDName@@QAEAAV0@PBD@Z    10041020 f   libvcruntimed:undname.obj
 0001:000400e0       ??YDName@@QAEAAV0@W4DNameStatus@@@Z 100410e0 f   libvcruntimed:undname.obj
 0001:00040160       ??YReplicator@@QAEAAV0@ABVDName@@@Z 10041160 f   libvcruntimed:undname.obj
 0001:00040210       ??_5DName@@QAEAAV0@ABV0@@Z 10041210 f   libvcruntimed:undname.obj
 0001:00040280       ?Constructor@_HeapManager@@QAEXP6APAXI@ZP6AXPAX@Z@Z 10041280 f i libvcruntimed:undname.obj
 0001:000402d0       ?Destructor@_HeapManager@@QAEXXZ 100412d0 f i libvcruntimed:undname.obj
 0001:00040350       ?UScore@UnDecorator@@SAPBDW4Tokens@@@Z 10041350 f   libvcruntimed:undname.obj
 0001:00040390       ?append@DName@@AAEXPBVDNameNode@@@Z 10041390 f   libvcruntimed:undname.obj
 0001:00040440       ?composeDeclaration@UnDecorator@@CA?AVDName@@ABV2@@Z 10041440 f i libvcruntimed:undname.obj
 0001:00042b30       ?dbGetString@DName@@QBEPADXZ 10043b30 f   libvcruntimed:undname.obj
 0001:00042b60       ?doAccessSpecifiers@UnDecorator@@SAHXZ 10043b60 f i libvcruntimed:undname.obj
 0001:00042b90       ?doAllocationLanguage@UnDecorator@@SAHXZ 10043b90 f i libvcruntimed:undname.obj
 0001:00042bc0       ?doAllocationModel@UnDecorator@@SAHXZ 10043bc0 f i libvcruntimed:undname.obj
 0001:00042bf0       ?doEcsu@UnDecorator@@SAHXZ 10043bf0 f i libvcruntimed:undname.obj
 0001:00042c20       ?doEllipsis@UnDecorator@@SAHXZ 10043c20 f i libvcruntimed:undname.obj
 0001:00042c50       ?doFunctionReturns@UnDecorator@@SAHXZ 10043c50 f i libvcruntimed:undname.obj
 0001:00042c80       ?doMSKeywords@UnDecorator@@SAHXZ 10043c80 f i libvcruntimed:undname.obj
 0001:00042cb0       ?doMemberTypes@UnDecorator@@SAHXZ 10043cb0 f i libvcruntimed:undname.obj
 0001:00042ce0       ?doNameOnly@UnDecorator@@SAHXZ 10043ce0 f i libvcruntimed:undname.obj
 0001:00042d00       ?doNoIdentCharCheck@UnDecorator@@SAHXZ 10043d00 f i libvcruntimed:undname.obj
 0001:00042d20       ?doPchar@DName@@AAEXPBDH@Z 10043d20 f   libvcruntimed:undname.obj
 0001:00042eb0       ?doPtr64@UnDecorator@@SAHXZ 10043eb0 f i libvcruntimed:undname.obj
 0001:00042ee0       ?doRestrictionSpec@UnDecorator@@SAHXZ 10043ee0 f i libvcruntimed:undname.obj
 0001:00042f10       ?doThisTypes@UnDecorator@@SAHXZ 10043f10 f i libvcruntimed:undname.obj
 0001:00042f50       ?doThrowTypes@UnDecorator@@SAHXZ 10043f50 f i libvcruntimed:undname.obj
 0001:00042f80       ?doTypeOnly@UnDecorator@@SAHXZ 10043f80 f i libvcruntimed:undname.obj
 0001:00042fa0       ?doUnderScore@UnDecorator@@SAHXZ 10043fa0 f i libvcruntimed:undname.obj
 0001:00042fd0       ?getArgumentList@UnDecorator@@CA?AVDName@@XZ 10043fd0 f   libvcruntimed:undname.obj
 0001:00043170       ?getArgumentTypes@UnDecorator@@CA?AVDName@@XZ 10044170 f   libvcruntimed:undname.obj
 0001:00043310       ?getArrayType@UnDecorator@@CA?AVDName@@ABV2@@Z 10044310 f i libvcruntimed:undname.obj
 0001:00043630       ?getBasedType@UnDecorator@@CA?AVDName@@XZ 10044630 f   libvcruntimed:undname.obj
 0001:00043730       ?getBasicDataType@UnDecorator@@CA?AVDName@@ABV2@@Z 10044730 f   libvcruntimed:undname.obj
 0001:00043ed0       ?getCHPEName@UnDecorator@@QAEPADPADH@Z 10044ed0 f i libvcruntimed:undname.obj
 0001:00044090       ?getCallIndex@UnDecorator@@CA?AVDName@@XZ 10045090 f i libvcruntimed:undname.obj
 0001:000440b0       ?getCallingConvention@UnDecorator@@CA?AVDName@@XZ 100450b0 f   libvcruntimed:undname.obj
 0001:00044350       ?getDataIndirectType@UnDecorator@@CA?AVDName@@ABV2@PBD0H@Z 10045350 f   libvcruntimed:undname.obj
 0001:00044e90       ?getDataIndirectType@UnDecorator@@CA?AVDName@@XZ 10045e90 f i libvcruntimed:undname.obj
 0001:00044ee0       ?getDataType@UnDecorator@@CA?AVDName@@PAV2@@Z 10045ee0 f   libvcruntimed:undname.obj
 0001:00045050       ?getDecoratedName@UnDecorator@@CA?AVDName@@XZ 10046050 f   libvcruntimed:undname.obj
 0001:00045580       ?getDimension@UnDecorator@@CA?AVDName@@_N@Z 10046580 f   libvcruntimed:undname.obj
 0001:000458e0       ?getDispatchTarget@UnDecorator@@CA?AVDName@@XZ 100468e0 f   libvcruntimed:undname.obj
 0001:000459b0       ?getDisplacement@UnDecorator@@CA?AVDName@@XZ 100469b0 f i libvcruntimed:undname.obj
 0001:000459d0       ?getECSUDataType@UnDecorator@@CA?AVDName@@XZ 100469d0 f   libvcruntimed:undname.obj
 0001:00045c20       ?getECSUName@UnDecorator@@CA?AVDName@@XZ 10046c20 f i libvcruntimed:undname.obj
 0001:00045c40       ?getEnumType@UnDecorator@@CA?AVDName@@XZ 10046c40 f i libvcruntimed:undname.obj
 0001:00045de0       ?getExtendedDataIndirectType@UnDecorator@@CA?AVDName@@AAPBDAA_NH@Z 10046de0 f   libvcruntimed:undname.obj
 0001:000460d0       ?getExternalDataType@UnDecorator@@CA?AVDName@@ABV2@@Z 100470d0 f i libvcruntimed:undname.obj
 0001:000461a0       ?getFunctionIndirectType@UnDecorator@@CA?AVDName@@ABV2@@Z 100471a0 f   libvcruntimed:undname.obj
 0001:00046840       ?getGuardNumber@UnDecorator@@CA?AVDName@@XZ 10047840 f i libvcruntimed:undname.obj
 0001:00046860       ?getLastChar@DName@@QBEDXZ 10047860 f i libvcruntimed:undname.obj
 0001:000468b0       ?getLastChar@DNameStatusNode@@UBEDXZ 100478b0 f i libvcruntimed:undname.obj
 0001:000468f0       ?getLastChar@charNode@@UBEDXZ 100478f0 f i libvcruntimed:undname.obj
 0001:00046910       ?getLastChar@pDNameNode@@UBEDXZ 10047910 f i libvcruntimed:undname.obj
 0001:00046950       ?getLastChar@pairNode@@UBEDXZ 10047950 f i libvcruntimed:undname.obj
 0001:000469d0       ?getLastChar@pcharNode@@UBEDXZ 100479d0 f i libvcruntimed:undname.obj
 0001:00046a10       ?getLexicalFrame@UnDecorator@@CA?AVDName@@XZ 10047a10 f i libvcruntimed:undname.obj
 0001:00046a60       ?getMemory@_HeapManager@@QAEPAXIH@Z 10047a60 f   libvcruntimed:undname.obj
 0001:00046bd0       ?getNoexcept@UnDecorator@@CA?AVDName@@XZ 10047bd0 f   libvcruntimed:undname.obj
 0001:00046c50       ?getNumberOfDimensions@UnDecorator@@CAHXZ 10047c50 f   libvcruntimed:undname.obj
 0001:00046d90       ?getOperatorName@UnDecorator@@CA?AVDName@@_NPA_N@Z 10047d90 f i libvcruntimed:undname.obj
 0001:00047b40       ?getPointerType@UnDecorator@@CA?AVDName@@ABV2@0@Z 10048b40 f i libvcruntimed:undname.obj
 0001:00047b80       ?getPointerTypeArray@UnDecorator@@CA?AVDName@@ABV2@0@Z 10048b80 f i libvcruntimed:undname.obj
 0001:00047bc0       ?getPrimaryDataType@UnDecorator@@CA?AVDName@@ABV2@@Z 10048bc0 f   libvcruntimed:undname.obj
 0001:000480b0       ?getPtrRefDataType@UnDecorator@@CA?AVDName@@ABV2@H@Z 100490b0 f   libvcruntimed:undname.obj
 0001:00048370       ?getPtrRefType@UnDecorator@@CA?AVDName@@ABV2@0PBD@Z 10049370 f   libvcruntimed:undname.obj
 0001:00048540       ?getReferenceType@UnDecorator@@CA?AVDName@@ABV2@0PBD@Z 10049540 f i libvcruntimed:undname.obj
 0001:00048570       ?getRestrictionSpec@UnDecorator@@CA?AVDName@@XZ 10049570 f   libvcruntimed:undname.obj
 0001:00048740       ?getReturnType@UnDecorator@@CA?AVDName@@PAV2@@Z 10049740 f   libvcruntimed:undname.obj
 0001:000487a0       ?getScope@UnDecorator@@CA?AVDName@@XZ 100497a0 f   libvcruntimed:undname.obj
 0001:00048ea0       ?getScopedName@UnDecorator@@CA?AVDName@@XZ 10049ea0 f   libvcruntimed:undname.obj
 0001:00049030       ?getSignedDimension@UnDecorator@@CA?AVDName@@XZ 1004a030 f   libvcruntimed:undname.obj
 0001:000490d0       ?getStorageConvention@UnDecorator@@CA?AVDName@@XZ 1004a0d0 f i libvcruntimed:undname.obj
 0001:000490f0       ?getString@DName@@QBEPADPAD0@Z 1004a0f0 f i libvcruntimed:undname.obj
 0001:00049160       ?getString@DName@@QBEPADPADH@Z 1004a160 f i libvcruntimed:undname.obj
 0001:00049210       ?getString@DNameStatusNode@@UBEPADPAD0@Z 1004a210 f i libvcruntimed:undname.obj
 0001:00049250       ?getString@charNode@@UBEPADPAD0@Z 1004a250 f i libvcruntimed:undname.obj
 0001:00049290       ?getString@pDNameNode@@UBEPADPAD0@Z 1004a290 f i libvcruntimed:undname.obj
 0001:000492e0       ?getString@pairNode@@UBEPADPAD0@Z 1004a2e0 f i libvcruntimed:undname.obj
 0001:00049390       ?getString@pcharNode@@UBEPADPAD0@Z 1004a390 f i libvcruntimed:undname.obj
 0001:000493d0       ?getStringEncoding@UnDecorator@@CA?AVDName@@PBDH@Z 1004a3d0 f   libvcruntimed:undname.obj
 0001:00049520       ?getStringHelper@@YAPADPADPBD1H@Z 1004a520 f i libvcruntimed:undname.obj
 0001:00049570       ?getSymbolName@UnDecorator@@CA?AVDName@@XZ 1004a570 f i libvcruntimed:undname.obj
 0001:00049620       ?getTemplateArgumentList@UnDecorator@@CA?AVDName@@XZ 1004a620 f   libvcruntimed:undname.obj
 0001:00049b40       ?getTemplateConstant@UnDecorator@@CA?AVDName@@XZ 1004ab40 f   libvcruntimed:undname.obj
 0001:0004a2f0       ?getTemplateName@UnDecorator@@CA?AVDName@@_N@Z 1004b2f0 f   libvcruntimed:undname.obj
 0001:0004a540       ?getThisType@UnDecorator@@CA?AVDName@@XZ 1004b540 f i libvcruntimed:undname.obj
 0001:0004a590       ?getThrowTypes@UnDecorator@@CA?AVDName@@XZ 1004b590 f   libvcruntimed:undname.obj
 0001:0004a5e0       ?getTypeEncoding@UnDecorator@@CAHXZ 1004b5e0 f i libvcruntimed:undname.obj
 0001:0004b310       ?getUndecoratedName@UnDecorator@@QAEPADPADH@Z 1004c310 f i libvcruntimed:undname.obj
 0001:0004b4b0       ?getVCallThunkType@UnDecorator@@CA?AVDName@@XZ 1004c4b0 f i libvcruntimed:undname.obj
 0001:0004b530       ?getVbTableType@UnDecorator@@CA?AVDName@@ABV2@@Z 1004c530 f i libvcruntimed:undname.obj
 0001:0004b550       ?getVdispMapType@UnDecorator@@CA?AVDName@@ABV2@@Z 1004c550 f i libvcruntimed:undname.obj
 0001:0004b5e0       ?getVfTableType@UnDecorator@@CA?AVDName@@ABV2@@Z 1004c5e0 f i libvcruntimed:undname.obj
 0001:0004b840       ?getZName@UnDecorator@@CA?AVDName@@_N0@Z 1004c840 f   libvcruntimed:undname.obj
 0001:0004bc00       ?haveTemplateParameters@UnDecorator@@SAHXZ 1004cc00 f i libvcruntimed:undname.obj
 0001:0004bc20       ?isArray@DName@@QBEHXZ     1004cc20 f i libvcruntimed:undname.obj
 0001:0004bc40       ?isComArray@DName@@QBEHXZ  1004cc40 f i libvcruntimed:undname.obj
 0001:0004bc60       ?isEmpty@DName@@QBEHXZ     1004cc60 f i libvcruntimed:undname.obj
 0001:0004bca0       ?isFull@Replicator@@QBEHXZ 1004cca0 f i libvcruntimed:undname.obj
 0001:0004bce0       ?isNoTE@DName@@QBEHXZ      1004cce0 f i libvcruntimed:undname.obj
 0001:0004bd00       ?isPinPtr@DName@@QBEHXZ    1004cd00 f i libvcruntimed:undname.obj
 0001:0004bd20       ?isPtrRef@DName@@QBEHXZ    1004cd20 f i libvcruntimed:undname.obj
 0001:0004bd40       ?isUDC@DName@@QBEHXZ       1004cd40 f i libvcruntimed:undname.obj
 0001:0004bd90       ?isUDTThunk@DName@@QBEHXZ  1004cd90 f i libvcruntimed:undname.obj
 0001:0004bde0       ?isVCallThunk@DName@@QBEHXZ 1004cde0 f i libvcruntimed:undname.obj
 0001:0004be00       ?isValid@DName@@QBEHXZ     1004ce00 f i libvcruntimed:undname.obj
 0001:0004be40       ?length@DName@@QBEHXZ      1004ce40 f i libvcruntimed:undname.obj
 0001:0004be90       ?length@DNameStatusNode@@UBEHXZ 1004ce90 f i libvcruntimed:undname.obj
 0001:0004beb0       ?length@charNode@@UBEHXZ   1004ceb0 f i libvcruntimed:undname.obj
 0001:0004bed0       ?length@pDNameNode@@UBEHXZ 1004ced0 f i libvcruntimed:undname.obj
 0001:0004bf10       ?length@pairNode@@UBEHXZ   1004cf10 f i libvcruntimed:undname.obj
 0001:0004bfa0       ?length@pcharNode@@UBEHXZ  1004cfa0 f i libvcruntimed:undname.obj
 0001:0004bfc0       ?make@DNameStatusNode@@SAPBV1@W4DNameStatus@@@Z 1004cfc0 f i libvcruntimed:undname.obj
 0001:0004c000       ?parseDecoratedName@UnDecorator@@CA?AVDName@@XZ 1004d000 f   libvcruntimed:undname.obj
 0001:0004c1f0       ?setIsArray@DName@@QAEXXZ  1004d1f0 f i libvcruntimed:undname.obj
 0001:0004c220       ?setIsComArray@DName@@QAEXXZ 1004d220 f i libvcruntimed:undname.obj
 0001:0004c250       ?setIsNoTE@DName@@QAEXXZ   1004d250 f i libvcruntimed:undname.obj
 0001:0004c280       ?setIsPinPtr@DName@@QAEXXZ 1004d280 f i libvcruntimed:undname.obj
 0001:0004c2b0       ?setIsUDC@DName@@QAEXXZ    1004d2b0 f i libvcruntimed:undname.obj
 0001:0004c2f0       ?setIsVCallThunk@DName@@QAEXXZ 1004d2f0 f i libvcruntimed:undname.obj
 0001:0004c320       ?setPtrRef@DName@@QAEAAV1@XZ 1004d320 f i libvcruntimed:undname.obj
 0001:0004c350       ?status@DName@@QBE?AW4DNameStatus@@XZ 1004d350 f i libvcruntimed:undname.obj
 0001:0004c470       ___unDName                 1004d470 f   libvcruntimed:undname.obj
 0001:0004c4b0       ___unDNameEx               1004d4b0 f   libvcruntimed:undname.obj
 0001:0004c5b0       _unDNameGenerateCHPE       1004d5b0 f   libvcruntimed:undname.obj
 0001:0004c630       __local_unwind4            1004d630 f   libvcruntimed:exsup4.obj
 0001:0004c708       __seh_longjmp_unwind4@4    1004d708 f   libvcruntimed:exsup4.obj
 0001:0004c730       @_EH4_CallFilterFunc@8     1004d730 f   libvcruntimed:exsup4.obj
 0001:0004c748       @_EH4_TransferToHandler@8  1004d748 f   libvcruntimed:exsup4.obj
 0001:0004c764       @_EH4_GlobalUnwind2@8      1004d764 f   libvcruntimed:exsup4.obj
 0001:0004c780       @_EH4_LocalUnwind@16       1004d780 f   libvcruntimed:exsup4.obj
 0001:0004c800       ___except_validate_context_record 1004d800 f   libvcruntimed:jbcxrval.obj
 0001:0004c860       ___except_validate_jump_buffer 1004d860 f   libvcruntimed:jbcxrval.obj
 0001:0004c880       ___except_validate_jump_buffer_common 1004d880 f i libvcruntimed:jbcxrval.obj
 0001:0004c8f0       ??$?RU__vcrt_ptd@@@__crt_internal_free_policy@@QBEXQBU__vcrt_ptd@@@Z 1004d8f0 f i libvcruntimed:per_thread_data.obj
 0001:0004c920       ??0?$__crt_unique_heap_ptr@U__vcrt_ptd@@U__crt_internal_free_policy@@@@QAE@QAU__vcrt_ptd@@@Z 1004d920 f i libvcruntimed:per_thread_data.obj
 0001:0004c960       ??1?$__crt_unique_heap_ptr@U__vcrt_ptd@@U__crt_internal_free_policy@@@@QAE@XZ 1004d960 f i libvcruntimed:per_thread_data.obj
 0001:0004c9a0       ??B?$__crt_unique_heap_ptr@U__vcrt_ptd@@U__crt_internal_free_policy@@@@QBE_NXZ 1004d9a0 f i libvcruntimed:per_thread_data.obj
 0001:0004c9c0       ?detach@?$__crt_unique_heap_ptr@U__vcrt_ptd@@U__crt_internal_free_policy@@@@QAEPAU__vcrt_ptd@@XZ 1004d9c0 f i libvcruntimed:per_thread_data.obj
 0001:0004c9f0       ?get@?$__crt_unique_heap_ptr@U__vcrt_ptd@@U__crt_internal_free_policy@@@@QBEPAU__vcrt_ptd@@XZ 1004d9f0 f i libvcruntimed:per_thread_data.obj
 0001:0004ca10       ?is_valid@?$__crt_unique_heap_ptr@U__vcrt_ptd@@U__crt_internal_free_policy@@@@QBE_NXZ 1004da10 f i libvcruntimed:per_thread_data.obj
 0001:0004ca50       ?release@?$__crt_unique_heap_ptr@U__vcrt_ptd@@U__crt_internal_free_policy@@@@QAEXXZ 1004da50 f i libvcruntimed:per_thread_data.obj
 0001:0004cab0       ___vcrt_freefls@4          1004dab0 f   libvcruntimed:per_thread_data.obj
 0001:0004cae0       ___vcrt_freeptd            1004dae0 f   libvcruntimed:per_thread_data.obj
 0001:0004cb50       ___vcrt_getptd             1004db50 f   libvcruntimed:per_thread_data.obj
 0001:0004cb80       ___vcrt_getptd_noexit      1004db80 f   libvcruntimed:per_thread_data.obj
 0001:0004cd30       ___vcrt_getptd_noinit      1004dd30 f   libvcruntimed:per_thread_data.obj
 0001:0004cda0       ___vcrt_initialize_ptd     1004dda0 f   libvcruntimed:per_thread_data.obj
 0001:0004ce00       ___vcrt_uninitialize_ptd   1004de00 f   libvcruntimed:per_thread_data.obj
 0001:0004ce40       ___vcrt_initialize_locks   1004de40 f   libvcruntimed:locks.obj
 0001:0004ceb0       ___vcrt_lock               1004deb0 f   libvcruntimed:locks.obj
 0001:0004ced0       ___vcrt_uninitialize_locks 1004ded0 f   libvcruntimed:locks.obj
 0001:0004cf30       ___vcrt_unlock             1004df30 f   libvcruntimed:locks.obj
 0001:0004cf50       ??$?BX@__crt_fast_encoded_nullptr_t@@QBEPAXXZ 1004df50 f i libvcruntimed:winapi_downlevel.obj
 0001:0004cf70       ??$__crt_fast_decode_pointer@PAX@@YAPAXQAX@Z 1004df70 f i libvcruntimed:winapi_downlevel.obj
 0001:0004cfa0       ??$__crt_fast_encode_pointer@PAX@@YAPAXQAX@Z 1004dfa0 f i libvcruntimed:winapi_downlevel.obj
 0001:0004cfe0       ??$__crt_interlocked_exchange_pointer@UHINSTANCE__@@PAU1@@@YAPAUHINSTANCE__@@PDSAU0@QAU0@@Z 1004dfe0 f i libvcruntimed:winapi_downlevel.obj
 0001:0004cff0       ??$__crt_interlocked_exchange_pointer@UHINSTANCE__@@PAX@@YAPAUHINSTANCE__@@PDSAU0@QAX@Z 1004dff0 f i libvcruntimed:winapi_downlevel.obj
 0001:0004d000       ??$__crt_interlocked_exchange_pointer@XPAX@@YAPAXPDSAXQAX@Z 1004e000 f i libvcruntimed:winapi_downlevel.obj
 0001:0004d010       ??$__crt_interlocked_read_pointer@UHINSTANCE__@@@@YAPAUHINSTANCE__@@PDSAU0@@Z 1004e010 f i libvcruntimed:winapi_downlevel.obj
 0001:0004d030       ??$__crt_interlocked_read_pointer@X@@YAPAXPDSAX@Z 1004e030 f i libvcruntimed:winapi_downlevel.obj
 0001:0004d540       ___vcrt_FlsAlloc           1004e540 f   libvcruntimed:winapi_downlevel.obj
 0001:0004d590       ___vcrt_FlsFree            1004e590 f   libvcruntimed:winapi_downlevel.obj
 0001:0004d5e0       ___vcrt_FlsGetValue        1004e5e0 f   libvcruntimed:winapi_downlevel.obj
 0001:0004d630       ___vcrt_FlsSetValue        1004e630 f   libvcruntimed:winapi_downlevel.obj
 0001:0004d690       ___vcrt_InitializeCriticalSectionEx 1004e690 f   libvcruntimed:winapi_downlevel.obj
 0001:0004d6f0       ___vcrt_initialize_winapi_thunks 1004e6f0 f   libvcruntimed:winapi_downlevel.obj
 0001:0004d770       ___vcrt_uninitialize_winapi_thunks 1004e770 f   libvcruntimed:winapi_downlevel.obj
 0001:0004d800       ??$?0AAViterator@TryBlockMap@__FrameHandler3@@AAV012@$0A@@?$pair@Viterator@TryBlockMap@__FrameHandler3@@V123@@std@@QAE@AAViterator@TryBlockMap@__FrameHandler3@@0@Z 1004e800 f i libvcruntimed:trnsctrl.obj
 0001:0004d860       ??$forward@AAViterator@TryBlockMap@__FrameHandler3@@@std@@YAAAViterator@TryBlockMap@__FrameHandler3@@AAV123@@Z 1004e860 f i libvcruntimed:trnsctrl.obj
 0001:0004d870       ??0iterator@TryBlockMap@__FrameHandler3@@QAE@AAV12@I@Z 1004e870 f i libvcruntimed:trnsctrl.obj
 0001:0004d8a0       ?GetRangeOfTrysToCheck@__FrameHandler3@@SA?AU?$pair@Viterator@TryBlockMap@__FrameHandler3@@V123@@std@@AAVTryBlockMap@1@HH@Z 1004e8a0 f   libvcruntimed:trnsctrl.obj
 0001:0004d9d0       ?_CallCatchBlock2@@YAPAXPAUEHRegistrationNode@@PBU_s_FuncInfo@@PAXHK@Z 1004e9d0 f   libvcruntimed:trnsctrl.obj
 0001:0004da60       ?_CallSETranslator@@YAHPAUEHExceptionRecord@@PAUEHRegistrationNode@@PAX2PBU_s_FuncInfo@@H1@Z 1004ea60 f   libvcruntimed:trnsctrl.obj
 0001:0004db90       ?_JumpToContinuation@@YGXPAXPAUEHRegistrationNode@@@Z 1004eb90 f   libvcruntimed:trnsctrl.obj
 0001:0004dbd0       ?_UnwindNestedFrames@@YGXPAUEHRegistrationNode@@PAUEHExceptionRecord@@@Z 1004ebd0 f   libvcruntimed:trnsctrl.obj
 0001:0004dc40       ?getFuncInfo@TryBlockMap@__FrameHandler3@@QAEPBU_s_FuncInfo@@XZ 1004ec40 f i libvcruntimed:trnsctrl.obj
 0001:0004dc60       __CatchGuardHandler        1004ec60 f   libvcruntimed:trnsctrl.obj
 0001:0004dcc0       __CreateFrameInfo          1004ecc0 f   libvcruntimed:trnsctrl.obj
 0001:0004dd00       __FindAndUnlinkFrame       1004ed00 f   libvcruntimed:trnsctrl.obj
 0001:0004dd90       __TranslatorGuardHandler   1004ed90 f   libvcruntimed:trnsctrl.obj
 0001:0004de70       ___CxxFrameHandler         1004ee70 f   libvcruntimed:trnsctrl.obj
 0001:0004dec0       ___CxxFrameHandler2        1004eec0 f   libvcruntimed:trnsctrl.obj
 0001:0004df10       ___CxxFrameHandler3        1004ef10 f   libvcruntimed:trnsctrl.obj
 0001:0004df60       ___CxxLongjmpUnwind@4      1004ef60 f   libvcruntimed:trnsctrl.obj
 0001:0004dfb0       __global_unwind2           1004efb0 f   libvcruntimed:exsup.obj
 0001:0004e016       __local_unwind2            1004f016 f   libvcruntimed:exsup.obj
 0001:0004e09a       __abnormal_termination     1004f09a f   libvcruntimed:exsup.obj
 0001:0004e0c0       __NLG_Notify1              1004f0c0 f   libvcruntimed:exsup.obj
 0001:0004e0cc       __NLG_Notify               1004f0cc f   libvcruntimed:exsup.obj
 0001:0004e0e3       __NLG_Dispatch2            1004f0e3     libvcruntimed:exsup.obj
 0001:0004e0e3       __NLG_Dispatch             1004f0e3     libvcruntimed:exsup.obj
 0001:0004e0eb       __NLG_Call                 1004f0eb f   libvcruntimed:exsup.obj
 0001:0004e0ed       __NLG_Return2              1004f0ed     libvcruntimed:exsup.obj
 0001:0004efe0       ??$TypeMatchHelper@V__FrameHandler3@@@@YAHPBU_s_HandlerType@@PBU_s_CatchableType@@PBU_s_ThrowInfo@@@Z 1004ffe0 f i libvcruntimed:frame.obj
 0001:0004f0f0       ??$__InternalCxxFrameHandler@V__FrameHandler3@@@@YA?AW4_EXCEPTION_DISPOSITION@@PAUEHExceptionRecord@@PAUEHRegistrationNode@@PAU_CONTEXT@@PAXPBU_s_FuncInfo@@H1E@Z 100500f0 f i libvcruntimed:frame.obj
 0001:0004f340       ??0HandlerMap@__FrameHandler3@@QAE@PBU_s_TryBlockMapEntry@@PAX@Z 10050340 f i libvcruntimed:frame.obj
 0001:0004f370       ??0TryBlockMap@__FrameHandler3@@QAE@PBU_s_FuncInfo@@PAX@Z 10050370 f i libvcruntimed:frame.obj
 0001:0004f3a0       ??0bad_exception@std@@QAE@ABV01@@Z 100503a0 f i libvcruntimed:frame.obj
 0001:0004f3d0       ??0bad_exception@std@@QAE@XZ 100503d0 f i libvcruntimed:frame.obj
 0001:0004f400       ??0exception@std@@QAE@ABV01@@Z 10050400 f i libvcruntimed:frame.obj
 0001:0004f450       ??0exception@std@@QAE@QBDH@Z 10050450 f i libvcruntimed:frame.obj
 0001:0004f490       ??0iterator@HandlerMap@__FrameHandler3@@QAE@AAV12@I@Z 10050490 f i libvcruntimed:frame.obj
 0001:0004f4c0       ??1bad_exception@std@@UAE@XZ 100504c0 f i libvcruntimed:frame.obj
 0001:0004f4e0       ??1exception@std@@UAE@XZ   100504e0 f i libvcruntimed:frame.obj
 0001:0004f510       ??8iterator@HandlerMap@__FrameHandler3@@QBE_NABV012@@Z 10050510 f i libvcruntimed:frame.obj
 0001:0004f550       ??8type_info@@QBE_NABV0@@Z 10050550 f i libvcruntimed:frame.obj
 0001:0004f5a0       ??9iterator@HandlerMap@__FrameHandler3@@QBE_NABV012@@Z 100505a0 f i libvcruntimed:frame.obj
 0001:0004f5f0       ??Diterator@HandlerMap@__FrameHandler3@@QAEPBU_s_HandlerType@@XZ 100505f0 f i libvcruntimed:frame.obj
 0001:0004f620       ??Diterator@TryBlockMap@__FrameHandler3@@QAEPBU_s_TryBlockMapEntry@@XZ 10050620 f i libvcruntimed:frame.obj
 0001:0004f650       ??Eiterator@HandlerMap@__FrameHandler3@@QAEAAV012@XZ 10050650 f i libvcruntimed:frame.obj
 0001:0004f680       ??Eiterator@TryBlockMap@__FrameHandler3@@QAEAAV012@XZ 10050680 f i libvcruntimed:frame.obj
 0001:0004f6b0       ??Miterator@TryBlockMap@__FrameHandler3@@QBE_NABV012@@Z 100506b0 f i libvcruntimed:frame.obj
 0001:0004f6f0       ??_Gbad_exception@std@@UAEPAXI@Z 100506f0 f i libvcruntimed:frame.obj
 0001:0004f6f0       ??_Ebad_exception@std@@UAEPAXI@Z 100506f0 f i libvcruntimed:frame.obj
 0001:0004f730       ??_Gexception@std@@UAEPAXI@Z 10050730 f i libvcruntimed:frame.obj
 0001:0004f730       ??_Eexception@std@@UAEPAXI@Z 10050730 f i libvcruntimed:frame.obj
 0001:0004f770       ?BuildCatchObject@__FrameHandler3@@SAXPAUEHExceptionRecord@@PAXPBU_s_HandlerType@@PBU_s_CatchableType@@@Z 10050770 f   libvcruntimed:frame.obj
 0001:0004f7a0       ?BuildCatchObjectHelper@__FrameHandler3@@SAHPAUEHExceptionRecord@@PAXPBU_s_HandlerType@@PBU_s_CatchableType@@@Z 100507a0 f   libvcruntimed:frame.obj
 0001:0004fc20       ?FrameUnwindToEmptyState@__FrameHandler3@@SAXPAUEHRegistrationNode@@PAXPBU_s_FuncInfo@@@Z 10050c20 f   libvcruntimed:frame.obj
 0001:0004fc50       ?FrameUnwindToState@__FrameHandler3@@SAXPAUEHRegistrationNode@@PAXPBU_s_FuncInfo@@H@Z 10050c50 f   libvcruntimed:frame.obj
 0001:0004fe30       ?GetMaxState@__FrameHandler3@@SAHPAXPBU_s_FuncInfo@@@Z 10050e30 f i libvcruntimed:frame.obj
 0001:0004ff90       ?TypeMatch@__FrameHandler3@@SAHPBU_s_HandlerType@@PBU_s_CatchableType@@PBU_s_ThrowInfo@@@Z 10050f90 f   libvcruntimed:frame.obj
 0001:0004ffb0       ?_CallMemberFunction1@@YGXQAX00@Z 10050fb0 f i libvcruntimed:frame.obj
 0001:0004ffd0       ?_CallMemberFunction2@@YGXQAX00H@Z 10050fd0 f i libvcruntimed:frame.obj
 0001:00050000       ?_ValidateExecute@@YA_NP6GHXZ@Z 10051000 f i libvcruntimed:frame.obj
 0001:00050020       ?_ValidateRead@@YA_NPBXI@Z 10051020 f i libvcruntimed:frame.obj
 0001:00050040       ?_ValidateWrite@@YA_NPAXI@Z 10051040 f i libvcruntimed:frame.obj
 0001:00050060       ?begin@HandlerMap@__FrameHandler3@@QAE?AViterator@12@XZ 10051060 f i libvcruntimed:frame.obj
 0001:00050090       ?end@HandlerMap@__FrameHandler3@@QAE?AViterator@12@XZ 10051090 f i libvcruntimed:frame.obj
 0001:000500c0       ?getESTypes@__FrameHandler3@@SAPBU_s_ESTypeList@@PBU_s_FuncInfo@@@Z 100510c0 f i libvcruntimed:frame.obj
 0001:000500d0       ?getLastEntry@HandlerMap@__FrameHandler3@@QAEPBU_s_HandlerType@@XZ 100510d0 f i libvcruntimed:frame.obj
 0001:00050100       ?getMagicNum@__FrameHandler3@@SAIPBU_s_FuncInfo@@@Z 10051100 f i libvcruntimed:frame.obj
 0001:00050120       ?getNumTryBlocks@TryBlockMap@__FrameHandler3@@QAEIXZ 10051120 f i libvcruntimed:frame.obj
 0001:00050140       ?isEHs@__FrameHandler3@@SA_NPBU_s_FuncInfo@@@Z 10051140 f i libvcruntimed:frame.obj
 0001:00050170       ?isNoExcept@__FrameHandler3@@SA_NPBU_s_FuncInfo@@@Z 10051170 f i libvcruntimed:frame.obj
 0001:000501a0       ?what@exception@std@@UBEPBDXZ 100511a0 f i libvcruntimed:frame.obj
 0001:000501e0       ___BuildCatchObject        100511e0 f   libvcruntimed:frame.obj
 0001:00050210       ___BuildCatchObjectHelper  10051210 f   libvcruntimed:frame.obj
 0001:00050240       ___TypeMatch               10051240 f   libvcruntimed:frame.obj
 0001:00050260       ___vcrt_EncodePointer      10051260 f i libvcruntimed:frame.obj
 0001:00050280       __CallSettingFrame@12      10051280 f   libvcruntimed:lowhelpr.obj
 0001:000502a7       __NLG_Return               100512a7     libvcruntimed:lowhelpr.obj
 0001:00050310       __get_unexpected           10051310 f   libvcruntimed:unexpected.obj
 0001:00050330       _set_unexpected            10051330 f   libvcruntimed:unexpected.obj
 0001:00050370       _unexpected                10051370 f   libvcruntimed:unexpected.obj
 0001:000503b0       _memmove                   100513b0 f   libvcruntimed:memmove.obj
 0001:00050a90       ?GetCurrentState@__FrameHandler3@@SAHPAUEHRegistrationNode@@PAXPBU_s_FuncInfo@@@Z 10051a90 f   libvcruntimed:ehstate.obj
 0001:00050ad0       ?SetState@__FrameHandler3@@SAXPAUEHRegistrationNode@@PBU_s_FuncInfo@@H@Z 10051ad0 f   libvcruntimed:ehstate.obj
 0001:00050af0       ___DestructExceptionObject 10051af0 f   libvcruntimed:ehhelpers.obj
 0001:00050c70       ?_CallMemberFunction0@@YGXQAX0@Z 10051c70 f i libvcruntimed:ehhelpers.obj
 0001:00050c90       ?raw_name@type_info@@QBEPBDXZ 10051c90 f i libvcruntimed:ehhelpers.obj
 0001:00050cb0       __IsExceptionObjectToBeDestroyed 10051cb0 f   libvcruntimed:ehhelpers.obj
 0001:00050d00       __SetWinRTOutOfMemoryExceptionCallback 10051d00 f   libvcruntimed:ehhelpers.obj
 0001:00050d10       ___AdjustPointer           10051d10 f   libvcruntimed:ehhelpers.obj
 0001:00050d70       ___FrameUnwindFilter       10051d70 f   libvcruntimed:ehhelpers.obj
 0001:00050e00       ___GetPlatformExceptionInfo 10051e00 f   libvcruntimed:ehhelpers.obj
 0001:00050ea0       ___current_exception       10051ea0 f   libvcruntimed:ehhelpers.obj
 0001:00050eb0       ___current_exception_context 10051eb0 f   libvcruntimed:ehhelpers.obj
 0001:00050ec0       ___processing_throw        10051ec0 f   libvcruntimed:ehhelpers.obj
 0001:00050ed0       ___std_terminate           10051ed0 f   libvcruntimed:ehhelpers.obj
 0001:00050ee0       __is_exception_typeof      10051ee0 f   libvcruntimed:ehhelpers.obj
 0001:00050ff0       ??$?RD@__crt_public_free_policy@@QBEXQBD@Z 10051ff0 f i libvcruntimed:std_exception.obj
 0001:00051010       ??0?$__crt_unique_heap_ptr@DU__crt_public_free_policy@@@@QAE@QAD@Z 10052010 f i libvcruntimed:std_exception.obj
 0001:00051030       ??1?$__crt_unique_heap_ptr@DU__crt_public_free_policy@@@@QAE@XZ 10052030 f i libvcruntimed:std_exception.obj
 0001:00051050       ??B?$__crt_unique_heap_ptr@DU__crt_public_free_policy@@@@QBE_NXZ 10052050 f i libvcruntimed:std_exception.obj
 0001:00051070       ?detach@?$__crt_unique_heap_ptr@DU__crt_public_free_policy@@@@QAEPADXZ 10052070 f i libvcruntimed:std_exception.obj
 0001:000510a0       ?get@?$__crt_unique_heap_ptr@DU__crt_public_free_policy@@@@QBEPADXZ 100520a0 f i libvcruntimed:std_exception.obj
 0001:000510c0       ?is_valid@?$__crt_unique_heap_ptr@DU__crt_public_free_policy@@@@QBE_NXZ 100520c0 f i libvcruntimed:std_exception.obj
 0001:00051100       ?release@?$__crt_unique_heap_ptr@DU__crt_public_free_policy@@@@QAEXXZ 10052100 f i libvcruntimed:std_exception.obj
 0001:00051130       ___std_exception_copy      10052130 f   libvcruntimed:std_exception.obj
 0001:00051250       ___std_exception_destroy   10052250 f   libvcruntimed:std_exception.obj
 0001:00051290       __CxxThrowException@8      10052290 f   libvcruntimed:throw.obj
 0001:00051380       _fabs                      10052380 f   libucrtd:fabs.obj
 0001:00051440       _sqrt                      10052440 f   libucrtd:sqrt.obj
 0001:00051460       __chgsign                  10052460 f   libucrtd:ieeemisc.obj
 0001:000514a0       __chgsignf                 100524a0 f   libucrtd:ieeemisc.obj
 0001:000514f0       __copysign                 100524f0 f   libucrtd:ieeemisc.obj
 0001:00051530       __copysignf                10052530 f   libucrtd:ieeemisc.obj
 0001:00051590       __finite                   10052590 f   libucrtd:ieeemisc.obj
 0001:000515c0       __fpclass                  100525c0 f   libucrtd:ieeemisc.obj
 0001:000516f0       __isnan                    100526f0 f   libucrtd:ieeemisc.obj
 0001:00051750       __logb                     10052750 f   libucrtd:ieeemisc.obj
 0001:000518b0       __nextafter                100528b0 f   libucrtd:ieeemisc.obj
 0001:000518e0       __scalb                    100528e0 f   libucrtd:ieeemisc.obj
 0001:00051910       ??$?RU?$__crt_report_hook_node@D@@@__crt_internal_free_policy@@QBEXQBU?$__crt_report_hook_node@D@@@Z 10052910 f i libucrtd:dbgrpt.obj
 0001:00051940       ??$?RU?$__crt_report_hook_node@_W@@@__crt_internal_free_policy@@QBEXQBU?$__crt_report_hook_node@_W@@@Z 10052940 f i libucrtd:dbgrpt.obj
 0001:00052a90       ??$get_module_file_name@AAPAUHINSTANCE__@@AAY0BAF@DK@?$__crt_char_traits@D@@SAKAAPAUHINSTANCE__@@AAY0BAF@D$$QAK@Z 10053a90 f i libucrtd:dbgrpt.obj
 0001:00052ac0       ??$get_module_file_name@AAPAUHINSTANCE__@@AAY0BAF@_WK@?$__crt_char_traits@_W@@SAKAAPAUHINSTANCE__@@AAY0BAF@_W$$QAK@Z 10053ac0 f i libucrtd:dbgrpt.obj
 0001:00052af0       ??$tcscpy_s@AAY0BAF@DIPBD@?$__crt_char_traits@D@@SAHAAY0BAF@D$$QAI$$QAPBD@Z 10053af0 f i libucrtd:dbgrpt.obj
 0001:00052b20       ??$tcscpy_s@AAY0BAF@_WIPB_W@?$__crt_char_traits@_W@@SAHAAY0BAF@_W$$QAI$$QAPB_W@Z 10053b20 f i libucrtd:dbgrpt.obj
 0001:00052b50       ??$tcslen@AAY0BAF@D@?$__crt_char_traits@D@@SAIAAY0BAF@D@Z 10053b50 f i libucrtd:dbgrpt.obj
 0001:00052b70       ??$tcslen@AAY0BAF@_W@?$__crt_char_traits@_W@@SAIAAY0BAF@_W@Z 10053b70 f i libucrtd:dbgrpt.obj
 0001:00052b90       ??$tcslen@ABQBD@?$__crt_char_traits@D@@SAIABQBD@Z 10053b90 f i libucrtd:dbgrpt.obj
 0001:00052bb0       ??$tcslen@ABQB_W@?$__crt_char_traits@_W@@SAIABQB_W@Z 10053bb0 f i libucrtd:dbgrpt.obj
 0001:00052cf0       ??0?$__crt_unique_heap_ptr@U?$__crt_report_hook_node@D@@U__crt_internal_free_policy@@@@QAE@QAU?$__crt_report_hook_node@D@@@Z 10053cf0 f i libucrtd:dbgrpt.obj
 0001:00052d10       ??0?$__crt_unique_heap_ptr@U?$__crt_report_hook_node@_W@@U__crt_internal_free_policy@@@@QAE@QAU?$__crt_report_hook_node@_W@@@Z 10053d10 f i libucrtd:dbgrpt.obj
 0001:00052d30       ??1?$__crt_unique_heap_ptr@U?$__crt_report_hook_node@D@@U__crt_internal_free_policy@@@@QAE@XZ 10053d30 f i libucrtd:dbgrpt.obj
 0001:00052d50       ??1?$__crt_unique_heap_ptr@U?$__crt_report_hook_node@_W@@U__crt_internal_free_policy@@@@QAE@XZ 10053d50 f i libucrtd:dbgrpt.obj
 0001:00052d70       ??B?$__crt_unique_heap_ptr@U?$__crt_report_hook_node@D@@U__crt_internal_free_policy@@@@QBE_NXZ 10053d70 f i libucrtd:dbgrpt.obj
 0001:00052d90       ??B?$__crt_unique_heap_ptr@U?$__crt_report_hook_node@_W@@U__crt_internal_free_policy@@@@QBE_NXZ 10053d90 f i libucrtd:dbgrpt.obj
 0001:00053430       ?detach@?$__crt_unique_heap_ptr@U?$__crt_report_hook_node@D@@U__crt_internal_free_policy@@@@QAEPAU?$__crt_report_hook_node@D@@XZ 10054430 f i libucrtd:dbgrpt.obj
 0001:00053460       ?detach@?$__crt_unique_heap_ptr@U?$__crt_report_hook_node@_W@@U__crt_internal_free_policy@@@@QAEPAU?$__crt_report_hook_node@_W@@XZ 10054460 f i libucrtd:dbgrpt.obj
 0001:00053490       ?get@?$__crt_unique_heap_ptr@U?$__crt_report_hook_node@D@@U__crt_internal_free_policy@@@@QBEPAU?$__crt_report_hook_node@D@@XZ 10054490 f i libucrtd:dbgrpt.obj
 0001:000534b0       ?get@?$__crt_unique_heap_ptr@U?$__crt_report_hook_node@_W@@U__crt_internal_free_policy@@@@QBEPAU?$__crt_report_hook_node@_W@@XZ 100544b0 f i libucrtd:dbgrpt.obj
 0001:00053530       ?is_valid@?$__crt_unique_heap_ptr@U?$__crt_report_hook_node@D@@U__crt_internal_free_policy@@@@QBE_NXZ 10054530 f i libucrtd:dbgrpt.obj
 0001:00053570       ?is_valid@?$__crt_unique_heap_ptr@U?$__crt_report_hook_node@_W@@U__crt_internal_free_policy@@@@QBE_NXZ 10054570 f i libucrtd:dbgrpt.obj
 0001:000535b0       ?release@?$__crt_unique_heap_ptr@U?$__crt_report_hook_node@D@@U__crt_internal_free_policy@@@@QAEXXZ 100545b0 f i libucrtd:dbgrpt.obj
 0001:000535e0       ?release@?$__crt_unique_heap_ptr@U?$__crt_report_hook_node@_W@@U__crt_internal_free_policy@@@@QAEXXZ 100545e0 f i libucrtd:dbgrpt.obj
 0001:00053610       __CrtDbgReport             10054610 f   libucrtd:dbgrpt.obj
 0001:00053670       __CrtDbgReportW            10054670 f   libucrtd:dbgrpt.obj
 0001:000536d0       __CrtSetReportHook2        100546d0 f   libucrtd:dbgrpt.obj
 0001:000536f0       __CrtSetReportHookW2       100546f0 f   libucrtd:dbgrpt.obj
 0001:00053710       ___acrt_MessageWindowA     10054710 f   libucrtd:dbgrpt.obj
 0001:00053740       ___acrt_MessageWindowW     10054740 f   libucrtd:dbgrpt.obj
 0001:00053770       __invoke_watson_if_error   10054770 f i libucrtd:dbgrpt.obj
 0001:000537b0       __invoke_watson_if_oneof   100547b0 f i libucrtd:dbgrpt.obj
 0001:00053800       __snwprintf_s              10054800 f i libucrtd:dbgrpt.obj
 0001:00053850       __vsnwprintf_s_l           10054850 f i libucrtd:dbgrpt.obj
 0001:000538c0       __errcode                  100548c0 f   libucrtd:fpexcept.obj
 0001:00053950       __except1                  10054950 f   libucrtd:fpexcept.obj
 0001:00053a90       __except2                  10054a90 f   libucrtd:fpexcept.obj
 0001:00053c40       __handle_exc               10054c40 f   libucrtd:fpexcept.obj
 0001:00054020       __handle_qnan2             10055020 f   libucrtd:fpexcept.obj
 0001:00054040       __raise_exc                10055040 f   libucrtd:fpexcept.obj
 0001:00054080       __raise_exc_ex             10055080 f   libucrtd:fpexcept.obj
 0001:00054760       __raise_excf               10055760 f   libucrtd:fpexcept.obj
 0001:000547a0       __set_errno_from_matherr   100557a0 f   libucrtd:fpexcept.obj
 0001:000547f0       __umatherr                 100557f0 f   libucrtd:fpexcept.obj
 0001:000548c0       __initterm                 100558c0 f   libucrtd:initterm.obj
 0001:00054920       __initterm_e               10055920 f   libucrtd:initterm.obj
 0001:00054990       ??0_LocaleUpdate@@QAE@QAU__crt_locale_pointers@@@Z 10055990 f i libucrtd:debug_heap.obj
 0001:00054aa0       ??1_LocaleUpdate@@QAE@XZ   10055aa0 f i libucrtd:debug_heap.obj
 0001:00054ae0       ?GetLocaleT@_LocaleUpdate@@QAEPAU__crt_locale_pointers@@XZ 10055ae0 f i libucrtd:debug_heap.obj
 0001:00056940       __CrtCheckMemory           10057940 f   libucrtd:debug_heap.obj
 0001:00056b30       __CrtDoForAllClientObjects 10057b30 f   libucrtd:debug_heap.obj
 0001:00056cd0       __CrtDumpMemoryLeaks       10057cd0 f   libucrtd:debug_heap.obj
 0001:00056d90       __CrtGetAllocHook          10057d90 f   libucrtd:debug_heap.obj
 0001:00056da0       __CrtGetDumpClient         10057da0 f   libucrtd:debug_heap.obj
 0001:00056db0       __CrtIsMemoryBlock         10057db0 f   libucrtd:debug_heap.obj
 0001:00056f50       __CrtIsValidHeapPointer    10057f50 f   libucrtd:debug_heap.obj
 0001:00056f90       __CrtIsValidPointer        10057f90 f   libucrtd:debug_heap.obj
 0001:00056fc0       __CrtMemCheckpoint         10057fc0 f   libucrtd:debug_heap.obj
 0001:00057280       __CrtMemDifference         10058280 f   libucrtd:debug_heap.obj
 0001:00057590       __CrtMemDumpAllObjectsSince 10058590 f   libucrtd:debug_heap.obj
 0001:00057650       __CrtMemDumpStatistics     10058650 f   libucrtd:debug_heap.obj
 0001:000577c0       __CrtReportBlockType       100587c0 f   libucrtd:debug_heap.obj
 0001:00057800       __CrtSetAllocHook          10058800 f   libucrtd:debug_heap.obj
 0001:00057830       __CrtSetBreakAlloc         10058830 f   libucrtd:debug_heap.obj
 0001:00057860       __CrtSetDbgBlockType       10058860 f   libucrtd:debug_heap.obj
 0001:00057970       __CrtSetDbgFlag            10058970 f   libucrtd:debug_heap.obj
 0001:00057b40       __CrtSetDumpClient         10058b40 f   libucrtd:debug_heap.obj
 0001:00057b70       ___acrt_disable_global_locale_sync 10058b70 f i libucrtd:debug_heap.obj
 0001:00057ba0       ___acrt_enable_global_locale_sync 10058ba0 f i libucrtd:debug_heap.obj
 0001:00057bd0       ___acrt_get_locale_data_prefix 10058bd0 f i libucrtd:debug_heap.obj
 0001:00057bf0       ___acrt_locale_changed     10058bf0 f i libucrtd:debug_heap.obj
 0001:00057c20       ___p__crtBreakAlloc        10058c20 f   libucrtd:debug_heap.obj
 0001:00057c30       ___p__crtDbgFlag           10058c30 f   libucrtd:debug_heap.obj
 0001:00057c40       __aligned_free_dbg         10058c40 f   libucrtd:debug_heap.obj
 0001:00057d20       __aligned_malloc_dbg       10058d20 f   libucrtd:debug_heap.obj
 0001:00057d50       __aligned_msize_dbg        10058d50 f   libucrtd:debug_heap.obj
 0001:00057ec0       __aligned_offset_malloc_dbg 10058ec0 f   libucrtd:debug_heap.obj
 0001:00058110       __aligned_offset_realloc_dbg 10059110 f   libucrtd:debug_heap.obj
 0001:000584e0       __aligned_offset_recalloc_dbg 100594e0 f   libucrtd:debug_heap.obj
 0001:000585d0       __aligned_realloc_dbg      100595d0 f   libucrtd:debug_heap.obj
 0001:00058600       __aligned_recalloc_dbg     10059600 f   libucrtd:debug_heap.obj
 0001:00058640       __calloc_dbg               10059640 f   libucrtd:debug_heap.obj
 0001:000586d0       __chvalidchk_l             100596d0 f i libucrtd:debug_heap.obj
 0001:00058700       __expand_dbg               10059700 f   libucrtd:debug_heap.obj
 0001:00058880       __free_dbg                 10059880 f   libucrtd:debug_heap.obj
 0001:00058960       __ischartype_l             10059960 f i libucrtd:debug_heap.obj
 0001:00058a00       __malloc_dbg               10059a00 f   libucrtd:debug_heap.obj
 0001:00058a30       __msize_dbg                10059a30 f   libucrtd:debug_heap.obj
 0001:00058c20       __realloc_dbg              10059c20 f   libucrtd:debug_heap.obj
 0001:00058cf0       __recalloc_dbg             10059cf0 f   libucrtd:debug_heap.obj
 0001:00058e30       __seh_filter_dll           10059e30 f   libucrtd:exception_filter.obj
 0001:00058e60       __seh_filter_exe           10059e60 f   libucrtd:exception_filter.obj
 0001:000590f0       ??$?B$$A6GXPAXK0@Z@__crt_fast_encoded_nullptr_t@@QBEP6GXPAXK0@ZXZ 1005a0f0 f i libucrtd:exit.obj
 0001:000591f0       ??$__crt_fast_decode_pointer@P6GXPAXK0@Z@@YAP6GXPAXK0@ZQ6GX0K0@Z@Z 1005a1f0 f i libucrtd:exit.obj
 0001:00059230       ??$__crt_fast_encode_pointer@P6GXPAXK0@Z@@YAP6GXPAXK0@ZQ6GX0K0@Z@Z 1005a230 f i libucrtd:exit.obj
 0001:00059270       ??$__crt_get_proc_address@P6GXI@Z@@YAP6GXI@ZQAUHINSTANCE__@@QBD@Z 1005a270 f i libucrtd:exit.obj
 0001:00059290       ??$__crt_interlocked_read@J@@YAJPDJ@Z 1005a290 f i libucrtd:exit.obj
 0001:00059350       ??0?$__crt_unique_handle_t@U__crt_hmodule_traits@@@@QAE@QAUHINSTANCE__@@@Z 1005a350 f i libucrtd:exit.obj
 0001:00059370       ??1?$__crt_unique_handle_t@U__crt_hmodule_traits@@@@QAE@XZ 1005a370 f i libucrtd:exit.obj
 0001:000595a0       ?__acrt_select_exit_lock@@YA?AW4__acrt_lock_id@@XZ 1005a5a0 f i libucrtd:exit.obj
 0001:000595d0       ?close@?$__crt_unique_handle_t@U__crt_hmodule_traits@@@@QAEXXZ 1005a5d0 f i libucrtd:exit.obj
 0001:00059610       ?close@__crt_hmodule_traits@@SA_NPAUHINSTANCE__@@@Z 1005a610 f i libucrtd:exit.obj
 0001:00059740       ?get@?$__crt_unique_handle_t@U__crt_hmodule_traits@@@@QBEPAUHINSTANCE__@@XZ 1005a740 f i libucrtd:exit.obj
 0001:00059760       ?get_address_of@?$__crt_unique_handle_t@U__crt_hmodule_traits@@@@QAEPAPAUHINSTANCE__@@XZ 1005a760 f i libucrtd:exit.obj
 0001:00059780       ?get_invalid_value@__crt_hmodule_traits@@SAPAUHINSTANCE__@@XZ 1005a780 f i libucrtd:exit.obj
 0001:00059950       __Exit                     1005a950 f   libucrtd:exit.obj
 0001:00059970       ___acrt_initialize_thread_local_exit_callback 1005a970 f   libucrtd:exit.obj
 0001:00059990       __c_exit                   1005a990 f   libucrtd:exit.obj
 0001:000599b0       __cexit                    1005a9b0 f   libucrtd:exit.obj
 0001:000599d0       __exit                     1005a9d0 f   libucrtd:exit.obj
 0001:000599f0       __is_c_termination_complete 1005a9f0 f   libucrtd:exit.obj
 0001:00059a10       __register_thread_local_exe_atexit_callback 1005aa10 f   libucrtd:exit.obj
 0001:00059a60       _exit                      1005aa60 f   libucrtd:exit.obj
 0001:00059a80       _quick_exit                1005aa80 f   libucrtd:exit.obj
 0001:00059aa0       ??$?RE@__crt_internal_free_policy@@QBEXQBE@Z 1005aaa0 f i libucrtd:argv_parsing.obj
 0001:00059ad0       ??$?RPAD@__crt_internal_free_policy@@QBEXQBQAD@Z 1005aad0 f i libucrtd:argv_parsing.obj
 0001:00059b00       ??$?RPA_W@__crt_internal_free_policy@@QBEXQBQA_W@Z 1005ab00 f i libucrtd:argv_parsing.obj
 0001:0005a1d0       ??$get_module_file_name@$$TAAY0BAF@DH@?$__crt_char_traits@D@@SAK$$QA$$TAAY0BAF@D$$QAH@Z 1005b1d0 f i libucrtd:argv_parsing.obj
 0001:0005a200       ??$get_module_file_name@$$TAAY0BAF@_WH@?$__crt_char_traits@_W@@SAK$$QA$$TAAY0BAF@_W$$QAH@Z 1005b200 f i libucrtd:argv_parsing.obj
 0001:0005aaf0       ??$set_program_name@PAD@?$__crt_char_traits@D@@SAX$$QAPAD@Z 1005baf0 f i libucrtd:argv_parsing.obj
 0001:0005ab10       ??$set_program_name@PA_W@?$__crt_char_traits@_W@@SAX$$QAPA_W@Z 1005bb10 f i libucrtd:argv_parsing.obj
 0001:0005ab70       ??0?$__crt_unique_heap_ptr@EU__crt_internal_free_policy@@@@QAE@QAE@Z 1005bb70 f i libucrtd:argv_parsing.obj
 0001:0005ab90       ??0?$__crt_unique_heap_ptr@PADU__crt_internal_free_policy@@@@QAE@QAPAD@Z 1005bb90 f i libucrtd:argv_parsing.obj
 0001:0005abb0       ??0?$__crt_unique_heap_ptr@PA_WU__crt_internal_free_policy@@@@QAE@QAPA_W@Z 1005bbb0 f i libucrtd:argv_parsing.obj
 0001:0005abd0       ??1?$__crt_unique_heap_ptr@EU__crt_internal_free_policy@@@@QAE@XZ 1005bbd0 f i libucrtd:argv_parsing.obj
 0001:0005abf0       ??1?$__crt_unique_heap_ptr@PADU__crt_internal_free_policy@@@@QAE@XZ 1005bbf0 f i libucrtd:argv_parsing.obj
 0001:0005ac10       ??1?$__crt_unique_heap_ptr@PA_WU__crt_internal_free_policy@@@@QAE@XZ 1005bc10 f i libucrtd:argv_parsing.obj
 0001:0005ac30       ??B?$__crt_unique_heap_ptr@EU__crt_internal_free_policy@@@@QBE_NXZ 1005bc30 f i libucrtd:argv_parsing.obj
 0001:0005ad10       ?detach@?$__crt_unique_heap_ptr@EU__crt_internal_free_policy@@@@QAEPAEXZ 1005bd10 f i libucrtd:argv_parsing.obj
 0001:0005ad40       ?detach@?$__crt_unique_heap_ptr@PADU__crt_internal_free_policy@@@@QAEPAPADXZ 1005bd40 f i libucrtd:argv_parsing.obj
 0001:0005ad70       ?detach@?$__crt_unique_heap_ptr@PA_WU__crt_internal_free_policy@@@@QAEPAPA_WXZ 1005bd70 f i libucrtd:argv_parsing.obj
 0001:0005ae00       ?get@?$__crt_unique_heap_ptr@EU__crt_internal_free_policy@@@@QBEPAEXZ 1005be00 f i libucrtd:argv_parsing.obj
 0001:0005ae20       ?get@?$__crt_unique_heap_ptr@PADU__crt_internal_free_policy@@@@QBEPAPADXZ 1005be20 f i libucrtd:argv_parsing.obj
 0001:0005ae40       ?get@?$__crt_unique_heap_ptr@PA_WU__crt_internal_free_policy@@@@QBEPAPA_WXZ 1005be40 f i libucrtd:argv_parsing.obj
 0001:0005ae60       ?get_address_of@?$__crt_unique_heap_ptr@PADU__crt_internal_free_policy@@@@QAEPAPAPADXZ 1005be60 f i libucrtd:argv_parsing.obj
 0001:0005ae80       ?get_address_of@?$__crt_unique_heap_ptr@PA_WU__crt_internal_free_policy@@@@QAEPAPAPA_WXZ 1005be80 f i libucrtd:argv_parsing.obj
 0001:0005aee0       ?is_valid@?$__crt_unique_heap_ptr@EU__crt_internal_free_policy@@@@QBE_NXZ 1005bee0 f i libucrtd:argv_parsing.obj
 0001:0005af20       ?release@?$__crt_unique_heap_ptr@EU__crt_internal_free_policy@@@@QAEXXZ 1005bf20 f i libucrtd:argv_parsing.obj
 0001:0005af50       ?release@?$__crt_unique_heap_ptr@PADU__crt_internal_free_policy@@@@QAEXXZ 1005bf50 f i libucrtd:argv_parsing.obj
 0001:0005af80       ?release@?$__crt_unique_heap_ptr@PA_WU__crt_internal_free_policy@@@@QAEXXZ 1005bf80 f i libucrtd:argv_parsing.obj
 0001:0005b000       ___acrt_allocate_buffer_for_argv 1005c000 f   libucrtd:argv_parsing.obj
 0001:0005b0f0       __configure_narrow_argv    1005c0f0 f   libucrtd:argv_parsing.obj
 0001:0005b110       __configure_wide_argv      1005c110 f   libucrtd:argv_parsing.obj
 0001:0005b130       __set_pgmptr               1005c130 f i libucrtd:argv_parsing.obj
 0001:0005b150       __set_wpgmptr              1005c150 f i libucrtd:argv_parsing.obj
 0001:0005b162       ??$?R_W@__crt_internal_free_policy@@QBEXQB_W@Z 1005c162 f i libucrtd:environment_initialization.obj
 0001:0005b6e2       ??$get_environment_from_os@$$V@?$__crt_char_traits@D@@SAPADXZ 1005c6e2 f i libucrtd:environment_initialization.obj
 0001:0005b6e7       ??$get_environment_from_os@$$V@?$__crt_char_traits@_W@@SAPA_WXZ 1005c6e7 f i libucrtd:environment_initialization.obj
 0001:0005b858       ??$set_variable_in_environment_nolock@PADH@?$__crt_char_traits@D@@SAH$$QAPAD$$QAH@Z 1005c858 f i libucrtd:environment_initialization.obj
 0001:0005b876       ??$set_variable_in_environment_nolock@PA_WH@?$__crt_char_traits@_W@@SAH$$QAPA_W$$QAH@Z 1005c876 f i libucrtd:environment_initialization.obj
 0001:0005b894       ??$tcscpy_s@PADABIAAPAD@?$__crt_char_traits@D@@SAH$$QAPADABIAAPAD@Z 1005c894 f i libucrtd:environment_initialization.obj
 0001:0005b8b9       ??$tcscpy_s@PA_WABIAAPA_W@?$__crt_char_traits@_W@@SAH$$QAPA_WABIAAPA_W@Z 1005c8b9 f i libucrtd:environment_initialization.obj
 0001:0005b8de       ??$tcslen@AAPAD@?$__crt_char_traits@D@@SAIAAPAD@Z 1005c8de f i libucrtd:environment_initialization.obj
 0001:0005b8fc       ??$tcslen@AAPA_W@?$__crt_char_traits@_W@@SAIAAPA_W@Z 1005c8fc f i libucrtd:environment_initialization.obj
 0001:0005b921       ??$uninitialize@A6AXAAPAPAD@Z@?$dual_state_global@PAPAD@__crt_state_management@@QAEXA6AXAAPAPAD@Z@Z 1005c921 f i libucrtd:environment_initialization.obj
 0001:0005b954       ??$uninitialize@A6AXAAPAPA_W@Z@?$dual_state_global@PAPA_W@__crt_state_management@@QAEXA6AXAAPAPA_W@Z@Z 1005c954 f i libucrtd:environment_initialization.obj
 0001:0005b9c9       ??0?$__crt_unique_heap_ptr@_WU__crt_internal_free_policy@@@@QAE@QA_W@Z 1005c9c9 f i libucrtd:environment_initialization.obj
 0001:0005b9dd       ??1?$__crt_unique_heap_ptr@_WU__crt_internal_free_policy@@@@QAE@XZ 1005c9dd f i libucrtd:environment_initialization.obj
 0001:0005b9f7       ??B?$__crt_unique_heap_ptr@PADU__crt_internal_free_policy@@@@QBE_NXZ 1005c9f7 f i libucrtd:environment_initialization.obj
 0001:0005b9fe       ??B?$__crt_unique_heap_ptr@PA_WU__crt_internal_free_policy@@@@QBE_NXZ 1005c9fe f i libucrtd:environment_initialization.obj
 0001:0005ba05       ??B?$__crt_unique_heap_ptr@_WU__crt_internal_free_policy@@@@QBE_NXZ 1005ca05 f i libucrtd:environment_initialization.obj
 0001:0005ba0c       ?__crt_compute_required_transform_buffer_count@@YAIIQBD@Z 1005ca0c f i libucrtd:environment_initialization.obj
 0001:0005ba2f       ?__crt_compute_required_transform_buffer_count@@YAIIQB_W@Z 1005ca2f f i libucrtd:environment_initialization.obj
 0001:0005ba54       ?__crt_transform_string@@YAIIQBDQA_WI@Z 1005ca54 f i libucrtd:environment_initialization.obj
 0001:0005ba7a       ?__crt_transform_string@@YAIIQB_WQADI@Z 1005ca7a f i libucrtd:environment_initialization.obj
 0001:0005baa4       ?detach@?$__crt_unique_heap_ptr@DU__crt_internal_free_policy@@@@QAEPADXZ 1005caa4 f i libucrtd:environment_initialization.obj
 0001:0005baaa       ?detach@?$__crt_unique_heap_ptr@_WU__crt_internal_free_policy@@@@QAEPA_WXZ 1005caaa f i libucrtd:environment_initialization.obj
 0001:0005bab0       ?get@?$__crt_unique_heap_ptr@_WU__crt_internal_free_policy@@@@QBEPA_WXZ 1005cab0 f i libucrtd:environment_initialization.obj
 0001:0005bab3       ?get_current_state_index@__crt_state_management@@YAIXZ 1005cab3 f i libucrtd:environment_initialization.obj
 0001:0005bada       ?initialize@?$dual_state_global@PAPAD@__crt_state_management@@QAEXQAPAD@Z 1005cada f i libucrtd:environment_initialization.obj
 0001:0005bb09       ?initialize@?$dual_state_global@PAPA_W@__crt_state_management@@QAEXQAPA_W@Z 1005cb09 f i libucrtd:environment_initialization.obj
 0001:0005bb38       ?is_valid@?$__crt_unique_heap_ptr@PADU__crt_internal_free_policy@@@@QBE_NXZ 1005cb38 f i libucrtd:environment_initialization.obj
 0001:0005bb3f       ?is_valid@?$__crt_unique_heap_ptr@PA_WU__crt_internal_free_policy@@@@QBE_NXZ 1005cb3f f i libucrtd:environment_initialization.obj
 0001:0005bb46       ?is_valid@?$__crt_unique_heap_ptr@_WU__crt_internal_free_policy@@@@QBE_NXZ 1005cb46 f i libucrtd:environment_initialization.obj
 0001:0005bb55       ?release@?$__crt_unique_heap_ptr@_WU__crt_internal_free_policy@@@@QAEXXZ 1005cb55 f i libucrtd:environment_initialization.obj
 0001:0005bb6f       ?value@?$dual_state_global@PAPAD@__crt_state_management@@QAEAAPAPADXZ 1005cb6f f i libucrtd:environment_initialization.obj
 0001:0005bb72       ?value@?$dual_state_global@PAPA_W@__crt_state_management@@QAEAAPAPA_WXZ 1005cb72 f i libucrtd:environment_initialization.obj
 0001:0005bb75       ___dcrt_get_or_create_narrow_environment_nolock 1005cb75 f   libucrtd:environment_initialization.obj
 0001:0005bb7a       ___dcrt_get_or_create_wide_environment_nolock 1005cb7a f   libucrtd:environment_initialization.obj
 0001:0005bb7f       ___dcrt_uninitialize_environments_nolock 1005cb7f f   libucrtd:environment_initialization.obj
 0001:0005bbc3       ___p__environ              1005cbc3 f   libucrtd:environment_initialization.obj
 0001:0005bbc9       ___p__wenviron             1005cbc9 f   libucrtd:environment_initialization.obj
 0001:0005bbcf       __get_initial_narrow_environment 1005cbcf f   libucrtd:environment_initialization.obj
 0001:0005bbe8       __get_initial_wide_environment 1005cbe8 f   libucrtd:environment_initialization.obj
 0001:0005bc01       __initialize_narrow_environment 1005cc01 f   libucrtd:environment_initialization.obj
 0001:0005bc06       __initialize_wide_environment 1005cc06 f   libucrtd:environment_initialization.obj
 0001:0005bc10       ??$?BP6AXXZ@__crt_fast_encoded_nullptr_t@@QBEPAP6AXXZXZ 1005cc10 f i libucrtd:onexit.obj
 0001:0005bc30       ??$?RP6AXXZ@__crt_internal_free_policy@@QBEXQBQ6AXXZ@Z 1005cc30 f i libucrtd:onexit.obj
 0001:0005be40       ??$__crt_fast_encode_pointer@P6AHXZ@@YAP6AHXZQ6AHXZ@Z 1005ce40 f i libucrtd:onexit.obj
 0001:0005bf90       ??0?$__crt_unique_heap_ptr@P6AXXZU__crt_internal_free_policy@@@@QAE@QAP6AXXZ@Z 1005cf90 f i libucrtd:onexit.obj
 0001:0005bfb0       ??1?$__crt_unique_heap_ptr@P6AXXZU__crt_internal_free_policy@@@@QAE@XZ 1005cfb0 f i libucrtd:onexit.obj
 0001:0005bfd0       ??1scoped_global_state_reset@__crt_state_management@@QAE@XZ 1005cfd0 f i libucrtd:onexit.obj
 0001:0005c570       ?detach@?$__crt_unique_heap_ptr@P6AXXZU__crt_internal_free_policy@@@@QAEPAP6AXXZXZ 1005d570 f i libucrtd:onexit.obj
 0001:0005c5a0       ?release@?$__crt_unique_heap_ptr@P6AXXZU__crt_internal_free_policy@@@@QAEXXZ 1005d5a0 f i libucrtd:onexit.obj
 0001:0005c5d0       __crt_at_quick_exit        1005d5d0 f   libucrtd:onexit.obj
 0001:0005c5f0       __crt_atexit               1005d5f0 f   libucrtd:onexit.obj
 0001:0005c610       __execute_onexit_table     1005d610 f   libucrtd:onexit.obj
 0001:0005c640       __initialize_onexit_table  1005d640 f   libucrtd:onexit.obj
 0001:0005c6c0       __register_onexit_function 1005d6c0 f   libucrtd:onexit.obj
 0001:0005c9f0       ?initialize@?$dual_state_global@PAU__crt_locale_data@@@__crt_state_management@@QAEXQAU__crt_locale_data@@@Z 1005d9f0 f i libucrtd:initialization.obj
 0001:0005ca40       ___acrt_initialize         1005da40 f   libucrtd:initialization.obj
 0001:0005ca60       ___acrt_thread_attach      1005da60 f   libucrtd:initialization.obj
 0001:0005ca80       ___acrt_thread_detach      1005da80 f   libucrtd:initialization.obj
 0001:0005caa0       ___acrt_uninitialize       1005daa0 f   libucrtd:initialization.obj
 0001:0005cac0       ___acrt_uninitialize_critical 1005dac0 f   libucrtd:initialization.obj
 0001:0005cb20       __get_terminate            1005db20 f   libucrtd:terminate.obj
 0001:0005cb40       _set_terminate             1005db40 f   libucrtd:terminate.obj
 0001:0005cb80       _terminate                 1005db80 f   libucrtd:terminate.obj
 0001:0005d010       _strcpy_s                  1005e010 f   libucrtd:strcpy_s.obj
 0001:0005d550       _strcat_s                  1005e550 f   libucrtd:strcat_s.obj
 0001:0005d580       ??$?0ABV?$stream_output_adapter@D@__crt_stdio_output@@AB_KABQBDABQAU__crt_locale_pointers@@ABQAD@?$format_validation_base@DV?$stream_output_adapter@D@__crt_stdio_output@@@__crt_stdio_output@@IAE@ABV?$stream_output_adapter@D@1@AB_KABQBDABQAU__crt_locale_pointers@@ABQAD@Z 1005e580 f i libucrtd:output.obj
 0001:0005d5c0       ??$?0ABV?$stream_output_adapter@D@__crt_stdio_output@@AB_KABQBDABQAU__crt_locale_pointers@@ABQAD@?$positional_parameter_base@DV?$stream_output_adapter@D@__crt_stdio_output@@@__crt_stdio_output@@IAE@ABV?$stream_output_adapter@D@1@AB_KABQBDABQAU__crt_locale_pointers@@ABQAD@Z 1005e5c0 f i libucrtd:output.obj
 0001:0005d650       ??$?0ABV?$stream_output_adapter@D@__crt_stdio_output@@AB_KABQBDABQAU__crt_locale_pointers@@ABQAD@?$standard_base@DV?$stream_output_adapter@D@__crt_stdio_output@@@__crt_stdio_output@@IAE@ABV?$stream_output_adapter@D@1@AB_KABQBDABQAU__crt_locale_pointers@@ABQAD@Z 1005e650 f i libucrtd:output.obj
 0001:0005d6b0       ??$?0ABV?$stream_output_adapter@_W@__crt_stdio_output@@AB_KABQB_WABQAU__crt_locale_pointers@@ABQAD@?$format_validation_base@_WV?$stream_output_adapter@_W@__crt_stdio_output@@@__crt_stdio_output@@IAE@ABV?$stream_output_adapter@_W@1@AB_KABQB_WABQAU__crt_locale_pointers@@ABQAD@Z 1005e6b0 f i libucrtd:output.obj
 0001:0005d6f0       ??$?0ABV?$stream_output_adapter@_W@__crt_stdio_output@@AB_KABQB_WABQAU__crt_locale_pointers@@ABQAD@?$positional_parameter_base@_WV?$stream_output_adapter@_W@__crt_stdio_output@@@__crt_stdio_output@@IAE@ABV?$stream_output_adapter@_W@1@AB_KABQB_WABQAU__crt_locale_pointers@@ABQAD@Z 1005e6f0 f i libucrtd:output.obj
 0001:0005d780       ??$?0ABV?$stream_output_adapter@_W@__crt_stdio_output@@AB_KABQB_WABQAU__crt_locale_pointers@@ABQAD@?$standard_base@_WV?$stream_output_adapter@_W@__crt_stdio_output@@@__crt_stdio_output@@IAE@ABV?$stream_output_adapter@_W@1@AB_KABQB_WABQAU__crt_locale_pointers@@ABQAD@Z 1005e780 f i libucrtd:output.obj
 0001:0005d7e0       ??$?0ABV?$string_output_adapter@D@__crt_stdio_output@@AB_KABQBDABQAU__crt_locale_pointers@@ABQAD@?$format_validation_base@DV?$string_output_adapter@D@__crt_stdio_output@@@__crt_stdio_output@@IAE@ABV?$string_output_adapter@D@1@AB_KABQBDABQAU__crt_locale_pointers@@ABQAD@Z 1005e7e0 f i libucrtd:output.obj
 0001:0005d820       ??$?0ABV?$string_output_adapter@D@__crt_stdio_output@@AB_KABQBDABQAU__crt_locale_pointers@@ABQAD@?$positional_parameter_base@DV?$string_output_adapter@D@__crt_stdio_output@@@__crt_stdio_output@@IAE@ABV?$string_output_adapter@D@1@AB_KABQBDABQAU__crt_locale_pointers@@ABQAD@Z 1005e820 f i libucrtd:output.obj
 0001:0005d8b0       ??$?0ABV?$string_output_adapter@D@__crt_stdio_output@@AB_KABQBDABQAU__crt_locale_pointers@@ABQAD@?$standard_base@DV?$string_output_adapter@D@__crt_stdio_output@@@__crt_stdio_output@@IAE@ABV?$string_output_adapter@D@1@AB_KABQBDABQAU__crt_locale_pointers@@ABQAD@Z 1005e8b0 f i libucrtd:output.obj
 0001:0005d910       ??$?0ABV?$string_output_adapter@_W@__crt_stdio_output@@AB_KABQB_WABQAU__crt_locale_pointers@@ABQAD@?$format_validation_base@_WV?$string_output_adapter@_W@__crt_stdio_output@@@__crt_stdio_output@@IAE@ABV?$string_output_adapter@_W@1@AB_KABQB_WABQAU__crt_locale_pointers@@ABQAD@Z 1005e910 f i libucrtd:output.obj
 0001:0005d950       ??$?0ABV?$string_output_adapter@_W@__crt_stdio_output@@AB_KABQB_WABQAU__crt_locale_pointers@@ABQAD@?$positional_parameter_base@_WV?$string_output_adapter@_W@__crt_stdio_output@@@__crt_stdio_output@@IAE@ABV?$string_output_adapter@_W@1@AB_KABQB_WABQAU__crt_locale_pointers@@ABQAD@Z 1005e950 f i libucrtd:output.obj
 0001:0005d9e0       ??$?0ABV?$string_output_adapter@_W@__crt_stdio_output@@AB_KABQB_WABQAU__crt_locale_pointers@@ABQAD@?$standard_base@_WV?$string_output_adapter@_W@__crt_stdio_output@@@__crt_stdio_output@@IAE@ABV?$string_output_adapter@_W@1@AB_KABQB_WABQAU__crt_locale_pointers@@ABQAD@Z 1005e9e0 f i libucrtd:output.obj
 0001:00061860       ??$count@D@formatting_buffer@__crt_stdio_output@@QBEIXZ 10062860 f i libucrtd:output.obj
 0001:000618b0       ??$count@_W@formatting_buffer@__crt_stdio_output@@QBEIXZ 100628b0 f i libucrtd:output.obj
 0001:00061900       ??$data@D@formatting_buffer@__crt_stdio_output@@QAEPADXZ 10062900 f i libucrtd:output.obj
 0001:00061950       ??$data@_W@formatting_buffer@__crt_stdio_output@@QAEPA_WXZ 10062950 f i libucrtd:output.obj
 0001:000619a0       ??$ensure_buffer_is_big_enough@D@formatting_buffer@__crt_stdio_output@@QAE_NI@Z 100629a0 f i libucrtd:output.obj
 0001:00061ac0       ??$ensure_buffer_is_big_enough@_W@formatting_buffer@__crt_stdio_output@@QAE_NI@Z 10062ac0 f i libucrtd:output.obj
 0001:00061be0       ??$extract_argument_from_va_list@C_J@?$positional_parameter_base@DV?$stream_output_adapter@D@__crt_stdio_output@@@__crt_stdio_output@@IAE_NAA_J@Z 10062be0 f i libucrtd:output.obj
 0001:00061d60       ??$extract_argument_from_va_list@C_J@?$positional_parameter_base@DV?$string_output_adapter@D@__crt_stdio_output@@@__crt_stdio_output@@IAE_NAA_J@Z 10062d60 f i libucrtd:output.obj
 0001:00061ee0       ??$extract_argument_from_va_list@C_J@?$positional_parameter_base@_WV?$stream_output_adapter@_W@__crt_stdio_output@@@__crt_stdio_output@@IAE_NAA_J@Z 10062ee0 f i libucrtd:output.obj
 0001:00062060       ??$extract_argument_from_va_list@C_J@?$positional_parameter_base@_WV?$string_output_adapter@_W@__crt_stdio_output@@@__crt_stdio_output@@IAE_NAA_J@Z 10063060 f i libucrtd:output.obj
 0001:000621e0       ??$extract_argument_from_va_list@C_J@?$standard_base@DV?$stream_output_adapter@D@__crt_stdio_output@@@__crt_stdio_output@@IAE_NAA_J@Z 100631e0 f i libucrtd:output.obj
 0001:00062220       ??$extract_argument_from_va_list@C_J@?$standard_base@DV?$string_output_adapter@D@__crt_stdio_output@@@__crt_stdio_output@@IAE_NAA_J@Z 10063220 f i libucrtd:output.obj
 0001:00062260       ??$extract_argument_from_va_list@C_J@?$standard_base@_WV?$stream_output_adapter@_W@__crt_stdio_output@@@__crt_stdio_output@@IAE_NAA_J@Z 10063260 f i libucrtd:output.obj
 0001:000622a0       ??$extract_argument_from_va_list@C_J@?$standard_base@_WV?$string_output_adapter@_W@__crt_stdio_output@@@__crt_stdio_output@@IAE_NAA_J@Z 100632a0 f i libucrtd:output.obj
 0001:000622e0       ??$extract_argument_from_va_list@E_J@?$positional_parameter_base@DV?$stream_output_adapter@D@__crt_stdio_output@@@__crt_stdio_output@@IAE_NAA_J@Z 100632e0 f i libucrtd:output.obj
 0001:00062460       ??$extract_argument_from_va_list@E_J@?$positional_parameter_base@DV?$string_output_adapter@D@__crt_stdio_output@@@__crt_stdio_output@@IAE_NAA_J@Z 10063460 f i libucrtd:output.obj
 0001:000625e0       ??$extract_argument_from_va_list@E_J@?$positional_parameter_base@_WV?$stream_output_adapter@_W@__crt_stdio_output@@@__crt_stdio_output@@IAE_NAA_J@Z 100635e0 f i libucrtd:output.obj
 0001:00062760       ??$extract_argument_from_va_list@E_J@?$positional_parameter_base@_WV?$string_output_adapter@_W@__crt_stdio_output@@@__crt_stdio_output@@IAE_NAA_J@Z 10063760 f i libucrtd:output.obj
 0001:000628e0       ??$extract_argument_from_va_list@E_J@?$standard_base@DV?$stream_output_adapter@D@__crt_stdio_output@@@__crt_stdio_output@@IAE_NAA_J@Z 100638e0 f i libucrtd:output.obj
 0001:00062920       ??$extract_argument_from_va_list@E_J@?$standard_base@DV?$string_output_adapter@D@__crt_stdio_output@@@__crt_stdio_output@@IAE_NAA_J@Z 10063920 f i libucrtd:output.obj
 0001:00062960       ??$extract_argument_from_va_list@E_J@?$standard_base@_WV?$stream_output_adapter@_W@__crt_stdio_output@@@__crt_stdio_output@@IAE_NAA_J@Z 10063960 f i libucrtd:output.obj
 0001:000629a0       ??$extract_argument_from_va_list@E_J@?$standard_base@_WV?$string_output_adapter@_W@__crt_stdio_output@@@__crt_stdio_output@@IAE_NAA_J@Z 100639a0 f i libucrtd:output.obj
 0001:000629e0       ??$extract_argument_from_va_list@F_J@?$positional_parameter_base@DV?$stream_output_adapter@D@__crt_stdio_output@@@__crt_stdio_output@@IAE_NAA_J@Z 100639e0 f i libucrtd:output.obj
 0001:00062b60       ??$extract_argument_from_va_list@F_J@?$positional_parameter_base@DV?$string_output_adapter@D@__crt_stdio_output@@@__crt_stdio_output@@IAE_NAA_J@Z 10063b60 f i libucrtd:output.obj
 0001:00062ce0       ??$extract_argument_from_va_list@F_J@?$positional_parameter_base@_WV?$stream_output_adapter@_W@__crt_stdio_output@@@__crt_stdio_output@@IAE_NAA_J@Z 10063ce0 f i libucrtd:output.obj
 0001:00062e60       ??$extract_argument_from_va_list@F_J@?$positional_parameter_base@_WV?$string_output_adapter@_W@__crt_stdio_output@@@__crt_stdio_output@@IAE_NAA_J@Z 10063e60 f i libucrtd:output.obj
 0001:00062fe0       ??$extract_argument_from_va_list@F_J@?$standard_base@DV?$stream_output_adapter@D@__crt_stdio_output@@@__crt_stdio_output@@IAE_NAA_J@Z 10063fe0 f i libucrtd:output.obj
 0001:00063020       ??$extract_argument_from_va_list@F_J@?$standard_base@DV?$string_output_adapter@D@__crt_stdio_output@@@__crt_stdio_output@@IAE_NAA_J@Z 10064020 f i libucrtd:output.obj
 0001:00063060       ??$extract_argument_from_va_list@F_J@?$standard_base@_WV?$stream_output_adapter@_W@__crt_stdio_output@@@__crt_stdio_output@@IAE_NAA_J@Z 10064060 f i libucrtd:output.obj
 0001:000630a0       ??$extract_argument_from_va_list@F_J@?$standard_base@_WV?$string_output_adapter@_W@__crt_stdio_output@@@__crt_stdio_output@@IAE_NAA_J@Z 100640a0 f i libucrtd:output.obj
 0001:000630e0       ??$extract_argument_from_va_list@GD@?$positional_parameter_base@DV?$stream_output_adapter@D@__crt_stdio_output@@@__crt_stdio_output@@IAE_NAAD@Z 100640e0 f i libucrtd:output.obj
 0001:00063260       ??$extract_argument_from_va_list@GD@?$positional_parameter_base@DV?$string_output_adapter@D@__crt_stdio_output@@@__crt_stdio_output@@IAE_NAAD@Z 10064260 f i libucrtd:output.obj
 0001:000633e0       ??$extract_argument_from_va_list@GD@?$standard_base@DV?$stream_output_adapter@D@__crt_stdio_output@@@__crt_stdio_output@@IAE_NAAD@Z 100643e0 f i libucrtd:output.obj
 0001:00063410       ??$extract_argument_from_va_list@GD@?$standard_base@DV?$string_output_adapter@D@__crt_stdio_output@@@__crt_stdio_output@@IAE_NAAD@Z 10064410 f i libucrtd:output.obj
 0001:00063440       ??$extract_argument_from_va_list@G_J@?$positional_parameter_base@DV?$stream_output_adapter@D@__crt_stdio_output@@@__crt_stdio_output@@IAE_NAA_J@Z 10064440 f i libucrtd:output.obj
 0001:000635c0       ??$extract_argument_from_va_list@G_J@?$positional_parameter_base@DV?$string_output_adapter@D@__crt_stdio_output@@@__crt_stdio_output@@IAE_NAA_J@Z 100645c0 f i libucrtd:output.obj
 0001:00063740       ??$extract_argument_from_va_list@G_J@?$positional_parameter_base@_WV?$stream_output_adapter@_W@__crt_stdio_output@@@__crt_stdio_output@@IAE_NAA_J@Z 10064740 f i libucrtd:output.obj
 0001:000638c0       ??$extract_argument_from_va_list@G_J@?$positional_parameter_base@_WV?$string_output_adapter@_W@__crt_stdio_output@@@__crt_stdio_output@@IAE_NAA_J@Z 100648c0 f i libucrtd:output.obj
 0001:00063a40       ??$extract_argument_from_va_list@G_J@?$standard_base@DV?$stream_output_adapter@D@__crt_stdio_output@@@__crt_stdio_output@@IAE_NAA_J@Z 10064a40 f i libucrtd:output.obj
 0001:00063a80       ??$extract_argument_from_va_list@G_J@?$standard_base@DV?$string_output_adapter@D@__crt_stdio_output@@@__crt_stdio_output@@IAE_NAA_J@Z 10064a80 f i libucrtd:output.obj
 0001:00063ac0       ??$extract_argument_from_va_list@G_J@?$standard_base@_WV?$stream_output_adapter@_W@__crt_stdio_output@@@__crt_stdio_output@@IAE_NAA_J@Z 10064ac0 f i libucrtd:output.obj
 0001:00063b00       ??$extract_argument_from_va_list@G_J@?$standard_base@_WV?$string_output_adapter@_W@__crt_stdio_output@@@__crt_stdio_output@@IAE_NAA_J@Z 10064b00 f i libucrtd:output.obj
 0001:00063b40       ??$extract_argument_from_va_list@H_J@?$positional_parameter_base@DV?$stream_output_adapter@D@__crt_stdio_output@@@__crt_stdio_output@@IAE_NAA_J@Z 10064b40 f i libucrtd:output.obj
 0001:00063cc0       ??$extract_argument_from_va_list@H_J@?$positional_parameter_base@DV?$string_output_adapter@D@__crt_stdio_output@@@__crt_stdio_output@@IAE_NAA_J@Z 10064cc0 f i libucrtd:output.obj
 0001:00063e40       ??$extract_argument_from_va_list@H_J@?$positional_parameter_base@_WV?$stream_output_adapter@_W@__crt_stdio_output@@@__crt_stdio_output@@IAE_NAA_J@Z 10064e40 f i libucrtd:output.obj
 0001:00063fc0       ??$extract_argument_from_va_list@H_J@?$positional_parameter_base@_WV?$string_output_adapter@_W@__crt_stdio_output@@@__crt_stdio_output@@IAE_NAA_J@Z 10064fc0 f i libucrtd:output.obj
 0001:00064140       ??$extract_argument_from_va_list@H_J@?$standard_base@DV?$stream_output_adapter@D@__crt_stdio_output@@@__crt_stdio_output@@IAE_NAA_J@Z 10065140 f i libucrtd:output.obj
 0001:00064180       ??$extract_argument_from_va_list@H_J@?$standard_base@DV?$string_output_adapter@D@__crt_stdio_output@@@__crt_stdio_output@@IAE_NAA_J@Z 10065180 f i libucrtd:output.obj
 0001:000641c0       ??$extract_argument_from_va_list@H_J@?$standard_base@_WV?$stream_output_adapter@_W@__crt_stdio_output@@@__crt_stdio_output@@IAE_NAA_J@Z 100651c0 f i libucrtd:output.obj
 0001:00064200       ??$extract_argument_from_va_list@H_J@?$standard_base@_WV?$string_output_adapter@_W@__crt_stdio_output@@@__crt_stdio_output@@IAE_NAA_J@Z 10065200 f i libucrtd:output.obj
 0001:00064240       ??$extract_argument_from_va_list@I_J@?$positional_parameter_base@DV?$stream_output_adapter@D@__crt_stdio_output@@@__crt_stdio_output@@IAE_NAA_J@Z 10065240 f i libucrtd:output.obj
 0001:000643c0       ??$extract_argument_from_va_list@I_J@?$positional_parameter_base@DV?$string_output_adapter@D@__crt_stdio_output@@@__crt_stdio_output@@IAE_NAA_J@Z 100653c0 f i libucrtd:output.obj
 0001:00064540       ??$extract_argument_from_va_list@I_J@?$positional_parameter_base@_WV?$stream_output_adapter@_W@__crt_stdio_output@@@__crt_stdio_output@@IAE_NAA_J@Z 10065540 f i libucrtd:output.obj
 0001:000646c0       ??$extract_argument_from_va_list@I_J@?$positional_parameter_base@_WV?$string_output_adapter@_W@__crt_stdio_output@@@__crt_stdio_output@@IAE_NAA_J@Z 100656c0 f i libucrtd:output.obj
 0001:00064840       ??$extract_argument_from_va_list@I_J@?$standard_base@DV?$stream_output_adapter@D@__crt_stdio_output@@@__crt_stdio_output@@IAE_NAA_J@Z 10065840 f i libucrtd:output.obj
 0001:00064880       ??$extract_argument_from_va_list@I_J@?$standard_base@DV?$string_output_adapter@D@__crt_stdio_output@@@__crt_stdio_output@@IAE_NAA_J@Z 10065880 f i libucrtd:output.obj
 0001:000648c0       ??$extract_argument_from_va_list@I_J@?$standard_base@_WV?$stream_output_adapter@_W@__crt_stdio_output@@@__crt_stdio_output@@IAE_NAA_J@Z 100658c0 f i libucrtd:output.obj
 0001:00064900       ??$extract_argument_from_va_list@I_J@?$standard_base@_WV?$string_output_adapter@_W@__crt_stdio_output@@@__crt_stdio_output@@IAE_NAA_J@Z 10065900 f i libucrtd:output.obj
 0001:00064940       ??$extract_argument_from_va_list@PADPAD@?$positional_parameter_base@DV?$stream_output_adapter@D@__crt_stdio_output@@@__crt_stdio_output@@IAE_NAAPAD@Z 10065940 f i libucrtd:output.obj
 0001:00064ac0       ??$extract_argument_from_va_list@PADPAD@?$positional_parameter_base@DV?$string_output_adapter@D@__crt_stdio_output@@@__crt_stdio_output@@IAE_NAAPAD@Z 10065ac0 f i libucrtd:output.obj
 0001:00064c40       ??$extract_argument_from_va_list@PADPAD@?$positional_parameter_base@_WV?$stream_output_adapter@_W@__crt_stdio_output@@@__crt_stdio_output@@IAE_NAAPAD@Z 10065c40 f i libucrtd:output.obj
 0001:00064dc0       ??$extract_argument_from_va_list@PADPAD@?$positional_parameter_base@_WV?$string_output_adapter@_W@__crt_stdio_output@@@__crt_stdio_output@@IAE_NAAPAD@Z 10065dc0 f i libucrtd:output.obj
 0001:00064f40       ??$extract_argument_from_va_list@PADPAD@?$standard_base@DV?$stream_output_adapter@D@__crt_stdio_output@@@__crt_stdio_output@@IAE_NAAPAD@Z 10065f40 f i libucrtd:output.obj
 0001:00064f70       ??$extract_argument_from_va_list@PADPAD@?$standard_base@DV?$string_output_adapter@D@__crt_stdio_output@@@__crt_stdio_output@@IAE_NAAPAD@Z 10065f70 f i libucrtd:output.obj
 0001:00064fa0       ??$extract_argument_from_va_list@PADPAD@?$standard_base@_WV?$stream_output_adapter@_W@__crt_stdio_output@@@__crt_stdio_output@@IAE_NAAPAD@Z 10065fa0 f i libucrtd:output.obj
 0001:00064fd0       ??$extract_argument_from_va_list@PADPAD@?$standard_base@_WV?$string_output_adapter@_W@__crt_stdio_output@@@__crt_stdio_output@@IAE_NAAPAD@Z 10065fd0 f i libucrtd:output.obj
 0001:00065000       ??$extract_argument_from_va_list@PAUansi_string@?1??type_case_Z@?$output_processor@DV?$stream_output_adapter@D@__crt_stdio_output@@V?$format_validation_base@DV?$stream_output_adapter@D@__crt_stdio_output@@@2@@__crt_stdio_output@@AAE_NXZ@PAU1?1??234@AAE_NXZ@@?$standard_base@DV?$stream_output_adapter@D@__crt_stdio_output@@@__crt_stdio_output@@IAE_NAAPAUansi_string@?1??type_case_Z@?$output_processor@DV?$stream_output_adapter@D@__crt_stdio_output@@V?$format_validation_base@DV?$stream_output_adapter@D@__crt_stdio_output@@@2@@1@AAE_NXZ@@Z 10066000 f i libucrtd:output.obj
 0001:00065030       ??$extract_argument_from_va_list@PAUansi_string@?1??type_case_Z@?$output_processor@DV?$stream_output_adapter@D@__crt_stdio_output@@V?$positional_parameter_base@DV?$stream_output_adapter@D@__crt_stdio_output@@@2@@__crt_stdio_output@@AAE_NXZ@PAU1?1??234@AAE_NXZ@@?$positional_parameter_base@DV?$stream_output_adapter@D@__crt_stdio_output@@@__crt_stdio_output@@IAE_NAAPAUansi_string@?1??type_case_Z@?$output_processor@DV?$stream_output_adapter@D@__crt_stdio_output@@V?$positional_parameter_base@DV?$stream_output_adapter@D@__crt_stdio_output@@@2@@1@AAE_NXZ@@Z 10066030 f i libucrtd:output.obj
 0001:000651b0       ??$extract_argument_from_va_list@PAUansi_string@?1??type_case_Z@?$output_processor@DV?$stream_output_adapter@D@__crt_stdio_output@@V?$positional_parameter_base@DV?$stream_output_adapter@D@__crt_stdio_output@@@2@@__crt_stdio_output@@AAE_NXZ@PAU1?1??234@AAE_NXZ@@?$standard_base@DV?$stream_output_adapter@D@__crt_stdio_output@@@__crt_stdio_output@@IAE_NAAPAUansi_string@?1??type_case_Z@?$output_processor@DV?$stream_output_adapter@D@__crt_stdio_output@@V?$positional_parameter_base@DV?$stream_output_adapter@D@__crt_stdio_output@@@2@@1@AAE_NXZ@@Z 100661b0 f i libucrtd:output.obj
 0001:000651e0       ??$extract_argument_from_va_list@PAUansi_string@?1??type_case_Z@?$output_processor@DV?$stream_output_adapter@D@__crt_stdio_output@@V?$standard_base@DV?$stream_output_adapter@D@__crt_stdio_output@@@2@@__crt_stdio_output@@AAE_NXZ@PAU1?1??234@AAE_NXZ@@?$standard_base@DV?$stream_output_adapter@D@__crt_stdio_output@@@__crt_stdio_output@@IAE_NAAPAUansi_string@?1??type_case_Z@?$output_processor@DV?$stream_output_adapter@D@__crt_stdio_output@@V?$standard_base@DV?$stream_output_adapter@D@__crt_stdio_output@@@2@@1@AAE_NXZ@@Z 100661e0 f i libucrtd:output.obj
 0001:00065210       ??$extract_argument_from_va_list@PAUansi_string@?1??type_case_Z@?$output_processor@DV?$string_output_adapter@D@__crt_stdio_output@@V?$format_validation_base@DV?$string_output_adapter@D@__crt_stdio_output@@@2@@__crt_stdio_output@@AAE_NXZ@PAU1?1??234@AAE_NXZ@@?$standard_base@DV?$string_output_adapter@D@__crt_stdio_output@@@__crt_stdio_output@@IAE_NAAPAUansi_string@?1??type_case_Z@?$output_processor@DV?$string_output_adapter@D@__crt_stdio_output@@V?$format_validation_base@DV?$string_output_adapter@D@__crt_stdio_output@@@2@@1@AAE_NXZ@@Z 10066210 f i libucrtd:output.obj
 0001:00065240       ??$extract_argument_from_va_list@PAUansi_string@?1??type_case_Z@?$output_processor@DV?$string_output_adapter@D@__crt_stdio_output@@V?$positional_parameter_base@DV?$string_output_adapter@D@__crt_stdio_output@@@2@@__crt_stdio_output@@AAE_NXZ@PAU1?1??234@AAE_NXZ@@?$positional_parameter_base@DV?$string_output_adapter@D@__crt_stdio_output@@@__crt_stdio_output@@IAE_NAAPAUansi_string@?1??type_case_Z@?$output_processor@DV?$string_output_adapter@D@__crt_stdio_output@@V?$positional_parameter_base@DV?$string_output_adapter@D@__crt_stdio_output@@@2@@1@AAE_NXZ@@Z 10066240 f i libucrtd:output.obj
 0001:000653c0       ??$extract_argument_from_va_list@PAUansi_string@?1??type_case_Z@?$output_processor@DV?$string_output_adapter@D@__crt_stdio_output@@V?$positional_parameter_base@DV?$string_output_adapter@D@__crt_stdio_output@@@2@@__crt_stdio_output@@AAE_NXZ@PAU1?1??234@AAE_NXZ@@?$standard_base@DV?$string_output_adapter@D@__crt_stdio_output@@@__crt_stdio_output@@IAE_NAAPAUansi_string@?1??type_case_Z@?$output_processor@DV?$string_output_adapter@D@__crt_stdio_output@@V?$positional_parameter_base@DV?$string_output_adapter@D@__crt_stdio_output@@@2@@1@AAE_NXZ@@Z 100663c0 f i libucrtd:output.obj
 0001:000653f0       ??$extract_argument_from_va_list@PAUansi_string@?1??type_case_Z@?$output_processor@DV?$string_output_adapter@D@__crt_stdio_output@@V?$standard_base@DV?$string_output_adapter@D@__crt_stdio_output@@@2@@__crt_stdio_output@@AAE_NXZ@PAU1?1??234@AAE_NXZ@@?$standard_base@DV?$string_output_adapter@D@__crt_stdio_output@@@__crt_stdio_output@@IAE_NAAPAUansi_string@?1??type_case_Z@?$output_processor@DV?$string_output_adapter@D@__crt_stdio_output@@V?$standard_base@DV?$string_output_adapter@D@__crt_stdio_output@@@2@@1@AAE_NXZ@@Z 100663f0 f i libucrtd:output.obj
 0001:00065420       ??$extract_argument_from_va_list@PAUansi_string@?1??type_case_Z@?$output_processor@_WV?$stream_output_adapter@_W@__crt_stdio_output@@V?$format_validation_base@_WV?$stream_output_adapter@_W@__crt_stdio_output@@@2@@__crt_stdio_output@@AAE_NXZ@PAU1?1??234@AAE_NXZ@@?$standard_base@_WV?$stream_output_adapter@_W@__crt_stdio_output@@@__crt_stdio_output@@IAE_NAAPAUansi_string@?1??type_case_Z@?$output_processor@_WV?$stream_output_adapter@_W@__crt_stdio_output@@V?$format_validation_base@_WV?$stream_output_adapter@_W@__crt_stdio_output@@@2@@1@AAE_NXZ@@Z 10066420 f i libucrtd:output.obj
 0001:00065450       ??$extract_argument_from_va_list@PAUansi_string@?1??type_case_Z@?$output_processor@_WV?$stream_output_adapter@_W@__crt_stdio_output@@V?$positional_parameter_base@_WV?$stream_output_adapter@_W@__crt_stdio_output@@@2@@__crt_stdio_output@@AAE_NXZ@PAU1?1??234@AAE_NXZ@@?$positional_parameter_base@_WV?$stream_output_adapter@_W@__crt_stdio_output@@@__crt_stdio_output@@IAE_NAAPAUansi_string@?1??type_case_Z@?$output_processor@_WV?$stream_output_adapter@_W@__crt_stdio_output@@V?$positional_parameter_base@_WV?$stream_output_adapter@_W@__crt_stdio_output@@@2@@1@AAE_NXZ@@Z 10066450 f i libucrtd:output.obj
 0001:000655d0       ??$extract_argument_from_va_list@PAUansi_string@?1??type_case_Z@?$output_processor@_WV?$stream_output_adapter@_W@__crt_stdio_output@@V?$positional_parameter_base@_WV?$stream_output_adapter@_W@__crt_stdio_output@@@2@@__crt_stdio_output@@AAE_NXZ@PAU1?1??234@AAE_NXZ@@?$standard_base@_WV?$stream_output_adapter@_W@__crt_stdio_output@@@__crt_stdio_output@@IAE_NAAPAUansi_string@?1??type_case_Z@?$output_processor@_WV?$stream_output_adapter@_W@__crt_stdio_output@@V?$positional_parameter_base@_WV?$stream_output_adapter@_W@__crt_stdio_output@@@2@@1@AAE_NXZ@@Z 100665d0 f i libucrtd:output.obj
 0001:00065600       ??$extract_argument_from_va_list@PAUansi_string@?1??type_case_Z@?$output_processor@_WV?$stream_output_adapter@_W@__crt_stdio_output@@V?$standard_base@_WV?$stream_output_adapter@_W@__crt_stdio_output@@@2@@__crt_stdio_output@@AAE_NXZ@PAU1?1??234@AAE_NXZ@@?$standard_base@_WV?$stream_output_adapter@_W@__crt_stdio_output@@@__crt_stdio_output@@IAE_NAAPAUansi_string@?1??type_case_Z@?$output_processor@_WV?$stream_output_adapter@_W@__crt_stdio_output@@V?$standard_base@_WV?$stream_output_adapter@_W@__crt_stdio_output@@@2@@1@AAE_NXZ@@Z 10066600 f i libucrtd:output.obj
 0001:00065630       ??$extract_argument_from_va_list@PAUansi_string@?1??type_case_Z@?$output_processor@_WV?$string_output_adapter@_W@__crt_stdio_output@@V?$format_validation_base@_WV?$string_output_adapter@_W@__crt_stdio_output@@@2@@__crt_stdio_output@@AAE_NXZ@PAU1?1??234@AAE_NXZ@@?$standard_base@_WV?$string_output_adapter@_W@__crt_stdio_output@@@__crt_stdio_output@@IAE_NAAPAUansi_string@?1??type_case_Z@?$output_processor@_WV?$string_output_adapter@_W@__crt_stdio_output@@V?$format_validation_base@_WV?$string_output_adapter@_W@__crt_stdio_output@@@2@@1@AAE_NXZ@@Z 10066630 f i libucrtd:output.obj
 0001:00065660       ??$extract_argument_from_va_list@PAUansi_string@?1??type_case_Z@?$output_processor@_WV?$string_output_adapter@_W@__crt_stdio_output@@V?$positional_parameter_base@_WV?$string_output_adapter@_W@__crt_stdio_output@@@2@@__crt_stdio_output@@AAE_NXZ@PAU1?1??234@AAE_NXZ@@?$positional_parameter_base@_WV?$string_output_adapter@_W@__crt_stdio_output@@@__crt_stdio_output@@IAE_NAAPAUansi_string@?1??type_case_Z@?$output_processor@_WV?$string_output_adapter@_W@__crt_stdio_output@@V?$positional_parameter_base@_WV?$string_output_adapter@_W@__crt_stdio_output@@@2@@1@AAE_NXZ@@Z 10066660 f i libucrtd:output.obj
 0001:000657e0       ??$extract_argument_from_va_list@PAUansi_string@?1??type_case_Z@?$output_processor@_WV?$string_output_adapter@_W@__crt_stdio_output@@V?$positional_parameter_base@_WV?$string_output_adapter@_W@__crt_stdio_output@@@2@@__crt_stdio_output@@AAE_NXZ@PAU1?1??234@AAE_NXZ@@?$standard_base@_WV?$string_output_adapter@_W@__crt_stdio_output@@@__crt_stdio_output@@IAE_NAAPAUansi_string@?1??type_case_Z@?$output_processor@_WV?$string_output_adapter@_W@__crt_stdio_output@@V?$positional_parameter_base@_WV?$string_output_adapter@_W@__crt_stdio_output@@@2@@1@AAE_NXZ@@Z 100667e0 f i libucrtd:output.obj
 0001:00065810       ??$extract_argument_from_va_list@PAUansi_string@?1??type_case_Z@?$output_processor@_WV?$string_output_adapter@_W@__crt_stdio_output@@V?$standard_base@_WV?$string_output_adapter@_W@__crt_stdio_output@@@2@@__crt_stdio_output@@AAE_NXZ@PAU1?1??234@AAE_NXZ@@?$standard_base@_WV?$string_output_adapter@_W@__crt_stdio_output@@@__crt_stdio_output@@IAE_NAAPAUansi_string@?1??type_case_Z@?$output_processor@_WV?$string_output_adapter@_W@__crt_stdio_output@@V?$standard_base@_WV?$string_output_adapter@_W@__crt_stdio_output@@@2@@1@AAE_NXZ@@Z 10066810 f i libucrtd:output.obj
 0001:00065840       ??$extract_argument_from_va_list@PAXPAX@?$positional_parameter_base@DV?$stream_output_adapter@D@__crt_stdio_output@@@__crt_stdio_output@@IAE_NAAPAX@Z 10066840 f i libucrtd:output.obj
 0001:000659c0       ??$extract_argument_from_va_list@PAXPAX@?$positional_parameter_base@DV?$string_output_adapter@D@__crt_stdio_output@@@__crt_stdio_output@@IAE_NAAPAX@Z 100669c0 f i libucrtd:output.obj
 0001:00065b40       ??$extract_argument_from_va_list@PAXPAX@?$positional_parameter_base@_WV?$stream_output_adapter@_W@__crt_stdio_output@@@__crt_stdio_output@@IAE_NAAPAX@Z 10066b40 f i libucrtd:output.obj
 0001:00065cc0       ??$extract_argument_from_va_list@PAXPAX@?$positional_parameter_base@_WV?$string_output_adapter@_W@__crt_stdio_output@@@__crt_stdio_output@@IAE_NAAPAX@Z 10066cc0 f i libucrtd:output.obj
 0001:00065e40       ??$extract_argument_from_va_list@PAXPAX@?$standard_base@DV?$stream_output_adapter@D@__crt_stdio_output@@@__crt_stdio_output@@IAE_NAAPAX@Z 10066e40 f i libucrtd:output.obj
 0001:00065e70       ??$extract_argument_from_va_list@PAXPAX@?$standard_base@DV?$string_output_adapter@D@__crt_stdio_output@@@__crt_stdio_output@@IAE_NAAPAX@Z 10066e70 f i libucrtd:output.obj
 0001:00065ea0       ??$extract_argument_from_va_list@PAXPAX@?$standard_base@_WV?$stream_output_adapter@_W@__crt_stdio_output@@@__crt_stdio_output@@IAE_NAAPAX@Z 10066ea0 f i libucrtd:output.obj
 0001:00065ed0       ??$extract_argument_from_va_list@PAXPAX@?$standard_base@_WV?$string_output_adapter@_W@__crt_stdio_output@@@__crt_stdio_output@@IAE_NAAPAX@Z 10066ed0 f i libucrtd:output.obj
 0001:00065f00       ??$extract_argument_from_va_list@U_CRT_DOUBLE@@U1@@?$positional_parameter_base@DV?$stream_output_adapter@D@__crt_stdio_output@@@__crt_stdio_output@@IAE_NAAU_CRT_DOUBLE@@@Z 10066f00 f i libucrtd:output.obj
 0001:000660b0       ??$extract_argument_from_va_list@U_CRT_DOUBLE@@U1@@?$positional_parameter_base@DV?$string_output_adapter@D@__crt_stdio_output@@@__crt_stdio_output@@IAE_NAAU_CRT_DOUBLE@@@Z 100670b0 f i libucrtd:output.obj
 0001:00066260       ??$extract_argument_from_va_list@U_CRT_DOUBLE@@U1@@?$positional_parameter_base@_WV?$stream_output_adapter@_W@__crt_stdio_output@@@__crt_stdio_output@@IAE_NAAU_CRT_DOUBLE@@@Z 10067260 f i libucrtd:output.obj
 0001:00066410       ??$extract_argument_from_va_list@U_CRT_DOUBLE@@U1@@?$positional_parameter_base@_WV?$string_output_adapter@_W@__crt_stdio_output@@@__crt_stdio_output@@IAE_NAAU_CRT_DOUBLE@@@Z 10067410 f i libucrtd:output.obj
 0001:000665c0       ??$extract_argument_from_va_list@U_CRT_DOUBLE@@U1@@?$standard_base@DV?$stream_output_adapter@D@__crt_stdio_output@@@__crt_stdio_output@@IAE_NAAU_CRT_DOUBLE@@@Z 100675c0 f i libucrtd:output.obj
 0001:00066620       ??$extract_argument_from_va_list@U_CRT_DOUBLE@@U1@@?$standard_base@DV?$string_output_adapter@D@__crt_stdio_output@@@__crt_stdio_output@@IAE_NAAU_CRT_DOUBLE@@@Z 10067620 f i libucrtd:output.obj
 0001:00066680       ??$extract_argument_from_va_list@U_CRT_DOUBLE@@U1@@?$standard_base@_WV?$stream_output_adapter@_W@__crt_stdio_output@@@__crt_stdio_output@@IAE_NAAU_CRT_DOUBLE@@@Z 10067680 f i libucrtd:output.obj
 0001:000666e0       ??$extract_argument_from_va_list@U_CRT_DOUBLE@@U1@@?$standard_base@_WV?$string_output_adapter@_W@__crt_stdio_output@@@__crt_stdio_output@@IAE_NAAU_CRT_DOUBLE@@@Z 100676e0 f i libucrtd:output.obj
 0001:00066740       ??$extract_argument_from_va_list@_J_J@?$positional_parameter_base@DV?$stream_output_adapter@D@__crt_stdio_output@@@__crt_stdio_output@@IAE_NAA_J@Z 10067740 f i libucrtd:output.obj
 0001:000668c0       ??$extract_argument_from_va_list@_J_J@?$positional_parameter_base@DV?$string_output_adapter@D@__crt_stdio_output@@@__crt_stdio_output@@IAE_NAA_J@Z 100678c0 f i libucrtd:output.obj
 0001:00066a40       ??$extract_argument_from_va_list@_J_J@?$positional_parameter_base@_WV?$stream_output_adapter@_W@__crt_stdio_output@@@__crt_stdio_output@@IAE_NAA_J@Z 10067a40 f i libucrtd:output.obj
 0001:00066bc0       ??$extract_argument_from_va_list@_J_J@?$positional_parameter_base@_WV?$string_output_adapter@_W@__crt_stdio_output@@@__crt_stdio_output@@IAE_NAA_J@Z 10067bc0 f i libucrtd:output.obj
 0001:00066d40       ??$extract_argument_from_va_list@_J_J@?$standard_base@DV?$stream_output_adapter@D@__crt_stdio_output@@@__crt_stdio_output@@IAE_NAA_J@Z 10067d40 f i libucrtd:output.obj
 0001:00066d80       ??$extract_argument_from_va_list@_J_J@?$standard_base@DV?$string_output_adapter@D@__crt_stdio_output@@@__crt_stdio_output@@IAE_NAA_J@Z 10067d80 f i libucrtd:output.obj
 0001:00066dc0       ??$extract_argument_from_va_list@_J_J@?$standard_base@_WV?$stream_output_adapter@_W@__crt_stdio_output@@@__crt_stdio_output@@IAE_NAA_J@Z 10067dc0 f i libucrtd:output.obj
 0001:00066e00       ??$extract_argument_from_va_list@_J_J@?$standard_base@_WV?$string_output_adapter@_W@__crt_stdio_output@@@__crt_stdio_output@@IAE_NAA_J@Z 10067e00 f i libucrtd:output.obj
 0001:00066e40       ??$extract_argument_from_va_list@_K_J@?$positional_parameter_base@DV?$stream_output_adapter@D@__crt_stdio_output@@@__crt_stdio_output@@IAE_NAA_J@Z 10067e40 f i libucrtd:output.obj
 0001:00066fc0       ??$extract_argument_from_va_list@_K_J@?$positional_parameter_base@DV?$string_output_adapter@D@__crt_stdio_output@@@__crt_stdio_output@@IAE_NAA_J@Z 10067fc0 f i libucrtd:output.obj
 0001:00067140       ??$extract_argument_from_va_list@_K_J@?$positional_parameter_base@_WV?$stream_output_adapter@_W@__crt_stdio_output@@@__crt_stdio_output@@IAE_NAA_J@Z 10068140 f i libucrtd:output.obj
 0001:000672c0       ??$extract_argument_from_va_list@_K_J@?$positional_parameter_base@_WV?$string_output_adapter@_W@__crt_stdio_output@@@__crt_stdio_output@@IAE_NAA_J@Z 100682c0 f i libucrtd:output.obj
 0001:00067440       ??$extract_argument_from_va_list@_K_J@?$standard_base@DV?$stream_output_adapter@D@__crt_stdio_output@@@__crt_stdio_output@@IAE_NAA_J@Z 10068440 f i libucrtd:output.obj
 0001:00067480       ??$extract_argument_from_va_list@_K_J@?$standard_base@DV?$string_output_adapter@D@__crt_stdio_output@@@__crt_stdio_output@@IAE_NAA_J@Z 10068480 f i libucrtd:output.obj
 0001:000674c0       ??$extract_argument_from_va_list@_K_J@?$standard_base@_WV?$stream_output_adapter@_W@__crt_stdio_output@@@__crt_stdio_output@@IAE_NAA_J@Z 100684c0 f i libucrtd:output.obj
 0001:00067500       ??$extract_argument_from_va_list@_K_J@?$standard_base@_WV?$string_output_adapter@_W@__crt_stdio_output@@@__crt_stdio_output@@IAE_NAA_J@Z 10068500 f i libucrtd:output.obj
 0001:00067540       ??$extract_argument_from_va_list@_W_W@?$positional_parameter_base@DV?$stream_output_adapter@D@__crt_stdio_output@@@__crt_stdio_output@@IAE_NAA_W@Z 10068540 f i libucrtd:output.obj
 0001:000676c0       ??$extract_argument_from_va_list@_W_W@?$positional_parameter_base@DV?$string_output_adapter@D@__crt_stdio_output@@@__crt_stdio_output@@IAE_NAA_W@Z 100686c0 f i libucrtd:output.obj
 0001:00067840       ??$extract_argument_from_va_list@_W_W@?$positional_parameter_base@_WV?$stream_output_adapter@_W@__crt_stdio_output@@@__crt_stdio_output@@IAE_NAA_W@Z 10068840 f i libucrtd:output.obj
 0001:000679c0       ??$extract_argument_from_va_list@_W_W@?$positional_parameter_base@_WV?$string_output_adapter@_W@__crt_stdio_output@@@__crt_stdio_output@@IAE_NAA_W@Z 100689c0 f i libucrtd:output.obj
 0001:00067b40       ??$extract_argument_from_va_list@_W_W@?$standard_base@DV?$stream_output_adapter@D@__crt_stdio_output@@@__crt_stdio_output@@IAE_NAA_W@Z 10068b40 f i libucrtd:output.obj
 0001:00067b70       ??$extract_argument_from_va_list@_W_W@?$standard_base@DV?$string_output_adapter@D@__crt_stdio_output@@@__crt_stdio_output@@IAE_NAA_W@Z 10068b70 f i libucrtd:output.obj
 0001:00067ba0       ??$extract_argument_from_va_list@_W_W@?$standard_base@_WV?$stream_output_adapter@_W@__crt_stdio_output@@@__crt_stdio_output@@IAE_NAA_W@Z 10068ba0 f i libucrtd:output.obj
 0001:00067bd0       ??$extract_argument_from_va_list@_W_W@?$standard_base@_WV?$string_output_adapter@_W@__crt_stdio_output@@@__crt_stdio_output@@IAE_NAA_W@Z 10068bd0 f i libucrtd:output.obj
 0001:00067c00       ??$get_parameter_type@D@?$positional_parameter_base@DV?$stream_output_adapter@D@__crt_stdio_output@@@__crt_stdio_output@@CA?AW4parameter_type@01@PAD@Z 10068c00 f i libucrtd:output.obj
 0001:00067c10       ??$get_parameter_type@D@?$positional_parameter_base@DV?$string_output_adapter@D@__crt_stdio_output@@@__crt_stdio_output@@CA?AW4parameter_type@01@PAD@Z 10068c10 f i libucrtd:output.obj
 0001:00067c20       ??$get_parameter_type@D@?$positional_parameter_base@_WV?$stream_output_adapter@_W@__crt_stdio_output@@@__crt_stdio_output@@CA?AW4parameter_type@01@PAD@Z 10068c20 f i libucrtd:output.obj
 0001:00067c30       ??$get_parameter_type@D@?$positional_parameter_base@_WV?$string_output_adapter@_W@__crt_stdio_output@@@__crt_stdio_output@@CA?AW4parameter_type@01@PAD@Z 10068c30 f i libucrtd:output.obj
 0001:00067c40       ??$get_parameter_type@Uansi_string@?1??type_case_Z@?$output_processor@DV?$stream_output_adapter@D@__crt_stdio_output@@V?$positional_parameter_base@DV?$stream_output_adapter@D@__crt_stdio_output@@@2@@__crt_stdio_output@@AAE_NXZ@@?$positional_parameter_base@DV?$stream_output_adapter@D@__crt_stdio_output@@@__crt_stdio_output@@CA?AW4parameter_type@01@PAUansi_string@?1??type_case_Z@?$output_processor@DV?$stream_output_adapter@D@__crt_stdio_output@@V?$positional_parameter_base@DV?$stream_output_adapter@D@__crt_stdio_output@@@2@@1@AAE_NXZ@@Z 10068c40 f i libucrtd:output.obj
 0001:00067c50       ??$get_parameter_type@Uansi_string@?1??type_case_Z@?$output_processor@DV?$string_output_adapter@D@__crt_stdio_output@@V?$positional_parameter_base@DV?$string_output_adapter@D@__crt_stdio_output@@@2@@__crt_stdio_output@@AAE_NXZ@@?$positional_parameter_base@DV?$string_output_adapter@D@__crt_stdio_output@@@__crt_stdio_output@@CA?AW4parameter_type@01@PAUansi_string@?1??type_case_Z@?$output_processor@DV?$string_output_adapter@D@__crt_stdio_output@@V?$positional_parameter_base@DV?$string_output_adapter@D@__crt_stdio_output@@@2@@1@AAE_NXZ@@Z 10068c50 f i libucrtd:output.obj
 0001:00067c60       ??$get_parameter_type@Uansi_string@?1??type_case_Z@?$output_processor@_WV?$stream_output_adapter@_W@__crt_stdio_output@@V?$positional_parameter_base@_WV?$stream_output_adapter@_W@__crt_stdio_output@@@2@@__crt_stdio_output@@AAE_NXZ@@?$positional_parameter_base@_WV?$stream_output_adapter@_W@__crt_stdio_output@@@__crt_stdio_output@@CA?AW4parameter_type@01@PAUansi_string@?1??type_case_Z@?$output_processor@_WV?$stream_output_adapter@_W@__crt_stdio_output@@V?$positional_parameter_base@_WV?$stream_output_adapter@_W@__crt_stdio_output@@@2@@1@AAE_NXZ@@Z 10068c60 f i libucrtd:output.obj
 0001:00067c70       ??$get_parameter_type@Uansi_string@?1??type_case_Z@?$output_processor@_WV?$string_output_adapter@_W@__crt_stdio_output@@V?$positional_parameter_base@_WV?$string_output_adapter@_W@__crt_stdio_output@@@2@@__crt_stdio_output@@AAE_NXZ@@?$positional_parameter_base@_WV?$string_output_adapter@_W@__crt_stdio_output@@@__crt_stdio_output@@CA?AW4parameter_type@01@PAUansi_string@?1??type_case_Z@?$output_processor@_WV?$string_output_adapter@_W@__crt_stdio_output@@V?$positional_parameter_base@_WV?$string_output_adapter@_W@__crt_stdio_output@@@2@@1@AAE_NXZ@@Z 10068c70 f i libucrtd:output.obj
 0001:00067c80       ??$get_parameter_type@X@?$positional_parameter_base@DV?$stream_output_adapter@D@__crt_stdio_output@@@__crt_stdio_output@@CA?AW4parameter_type@01@PAX@Z 10068c80 f i libucrtd:output.obj
 0001:00067c90       ??$get_parameter_type@X@?$positional_parameter_base@DV?$string_output_adapter@D@__crt_stdio_output@@@__crt_stdio_output@@CA?AW4parameter_type@01@PAX@Z 10068c90 f i libucrtd:output.obj
 0001:00067ca0       ??$get_parameter_type@X@?$positional_parameter_base@_WV?$stream_output_adapter@_W@__crt_stdio_output@@@__crt_stdio_output@@CA?AW4parameter_type@01@PAX@Z 10068ca0 f i libucrtd:output.obj
 0001:00067cb0       ??$get_parameter_type@X@?$positional_parameter_base@_WV?$string_output_adapter@_W@__crt_stdio_output@@@__crt_stdio_output@@CA?AW4parameter_type@01@PAX@Z 10068cb0 f i libucrtd:output.obj
 0001:00067cc0       ??$is_character_specifier@D@?$positional_parameter_base@DV?$stream_output_adapter@D@__crt_stdio_output@@@__crt_stdio_output@@CA_ND@Z 10068cc0 f i libucrtd:output.obj
 0001:00067d00       ??$is_character_specifier@D@?$positional_parameter_base@DV?$string_output_adapter@D@__crt_stdio_output@@@__crt_stdio_output@@CA_ND@Z 10068d00 f i libucrtd:output.obj
 0001:00067d40       ??$is_character_specifier@_W@?$positional_parameter_base@_WV?$stream_output_adapter@_W@__crt_stdio_output@@@__crt_stdio_output@@CA_N_W@Z 10068d40 f i libucrtd:output.obj
 0001:00067d80       ??$is_character_specifier@_W@?$positional_parameter_base@_WV?$string_output_adapter@_W@__crt_stdio_output@@@__crt_stdio_output@@CA_N_W@Z 10068d80 f i libucrtd:output.obj
 0001:00067dc0       ??$is_integral_specifier@D@?$positional_parameter_base@DV?$stream_output_adapter@D@__crt_stdio_output@@@__crt_stdio_output@@CA_ND@Z 10068dc0 f i libucrtd:output.obj
 0001:00067e40       ??$is_integral_specifier@D@?$positional_parameter_base@DV?$string_output_adapter@D@__crt_stdio_output@@@__crt_stdio_output@@CA_ND@Z 10068e40 f i libucrtd:output.obj
 0001:00067ec0       ??$is_integral_specifier@_W@?$positional_parameter_base@_WV?$stream_output_adapter@_W@__crt_stdio_output@@@__crt_stdio_output@@CA_N_W@Z 10068ec0 f i libucrtd:output.obj
 0001:00067f40       ??$is_integral_specifier@_W@?$positional_parameter_base@_WV?$string_output_adapter@_W@__crt_stdio_output@@@__crt_stdio_output@@CA_N_W@Z 10068f40 f i libucrtd:output.obj
 0001:00067fc0       ??$is_pointer_specifier@D@?$positional_parameter_base@DV?$stream_output_adapter@D@__crt_stdio_output@@@__crt_stdio_output@@CA_ND@Z 10068fc0 f i libucrtd:output.obj
 0001:00067ff0       ??$is_pointer_specifier@D@?$positional_parameter_base@DV?$string_output_adapter@D@__crt_stdio_output@@@__crt_stdio_output@@CA_ND@Z 10068ff0 f i libucrtd:output.obj
 0001:00068020       ??$is_pointer_specifier@_W@?$positional_parameter_base@_WV?$stream_output_adapter@_W@__crt_stdio_output@@@__crt_stdio_output@@CA_N_W@Z 10069020 f i libucrtd:output.obj
 0001:00068050       ??$is_pointer_specifier@_W@?$positional_parameter_base@_WV?$string_output_adapter@_W@__crt_stdio_output@@@__crt_stdio_output@@CA_N_W@Z 10069050 f i libucrtd:output.obj
 0001:00068080       ??$is_string_specifier@D@?$positional_parameter_base@DV?$stream_output_adapter@D@__crt_stdio_output@@@__crt_stdio_output@@CA_ND@Z 10069080 f i libucrtd:output.obj
 0001:000680c0       ??$is_string_specifier@D@?$positional_parameter_base@DV?$string_output_adapter@D@__crt_stdio_output@@@__crt_stdio_output@@CA_ND@Z 100690c0 f i libucrtd:output.obj
 0001:00068100       ??$is_string_specifier@_W@?$positional_parameter_base@_WV?$stream_output_adapter@_W@__crt_stdio_output@@@__crt_stdio_output@@CA_N_W@Z 10069100 f i libucrtd:output.obj
 0001:00068140       ??$is_string_specifier@_W@?$positional_parameter_base@_WV?$string_output_adapter@_W@__crt_stdio_output@@@__crt_stdio_output@@CA_N_W@Z 10069140 f i libucrtd:output.obj
 0001:00068180       ??$is_wide_character_specifier@D@__crt_stdio_output@@YA_N_KDW4length_modifier@0@@Z 10069180 f i libucrtd:output.obj
 0001:00068220       ??$is_wide_character_specifier@_W@__crt_stdio_output@@YA_N_K_WW4length_modifier@0@@Z 10069220 f i libucrtd:output.obj
 0001:00068310       ??$peek_va_arg@C@__crt_stdio_output@@YACPAD@Z 10069310 f i libucrtd:output.obj
 0001:00068330       ??$peek_va_arg@E@__crt_stdio_output@@YAEPAD@Z 10069330 f i libucrtd:output.obj
 0001:00068350       ??$peek_va_arg@F@__crt_stdio_output@@YAFPAD@Z 10069350 f i libucrtd:output.obj
 0001:00068370       ??$peek_va_arg@G@__crt_stdio_output@@YAGPAD@Z 10069370 f i libucrtd:output.obj
 0001:00068390       ??$peek_va_arg@H@__crt_stdio_output@@YAHPAD@Z 10069390 f i libucrtd:output.obj
 0001:000683b0       ??$peek_va_arg@I@__crt_stdio_output@@YAIPAD@Z 100693b0 f i libucrtd:output.obj
 0001:000683d0       ??$peek_va_arg@PAD@__crt_stdio_output@@YAPADPAD@Z 100693d0 f i libucrtd:output.obj
 0001:000683f0       ??$peek_va_arg@PAUansi_string@?1??type_case_Z@?$output_processor@DV?$stream_output_adapter@D@__crt_stdio_output@@V?$positional_parameter_base@DV?$stream_output_adapter@D@__crt_stdio_output@@@2@@__crt_stdio_output@@AAE_NXZ@@__crt_stdio_output@@YAPAUansi_string@?1??type_case_Z@?$output_processor@DV?$stream_output_adapter@D@__crt_stdio_output@@V?$positional_parameter_base@DV?$stream_output_adapter@D@__crt_stdio_output@@@2@@0@AAE_NXZ@PAD@Z 100693f0 f i libucrtd:output.obj
 0001:00068410       ??$peek_va_arg@PAUansi_string@?1??type_case_Z@?$output_processor@DV?$string_output_adapter@D@__crt_stdio_output@@V?$positional_parameter_base@DV?$string_output_adapter@D@__crt_stdio_output@@@2@@__crt_stdio_output@@AAE_NXZ@@__crt_stdio_output@@YAPAUansi_string@?1??type_case_Z@?$output_processor@DV?$string_output_adapter@D@__crt_stdio_output@@V?$positional_parameter_base@DV?$string_output_adapter@D@__crt_stdio_output@@@2@@0@AAE_NXZ@PAD@Z 10069410 f i libucrtd:output.obj
 0001:00068430       ??$peek_va_arg@PAUansi_string@?1??type_case_Z@?$output_processor@_WV?$stream_output_adapter@_W@__crt_stdio_output@@V?$positional_parameter_base@_WV?$stream_output_adapter@_W@__crt_stdio_output@@@2@@__crt_stdio_output@@AAE_NXZ@@__crt_stdio_output@@YAPAUansi_string@?1??type_case_Z@?$output_processor@_WV?$stream_output_adapter@_W@__crt_stdio_output@@V?$positional_parameter_base@_WV?$stream_output_adapter@_W@__crt_stdio_output@@@2@@0@AAE_NXZ@PAD@Z 10069430 f i libucrtd:output.obj
 0001:00068450       ??$peek_va_arg@PAUansi_string@?1??type_case_Z@?$output_processor@_WV?$string_output_adapter@_W@__crt_stdio_output@@V?$positional_parameter_base@_WV?$string_output_adapter@_W@__crt_stdio_output@@@2@@__crt_stdio_output@@AAE_NXZ@@__crt_stdio_output@@YAPAUansi_string@?1??type_case_Z@?$output_processor@_WV?$string_output_adapter@_W@__crt_stdio_output@@V?$positional_parameter_base@_WV?$string_output_adapter@_W@__crt_stdio_output@@@2@@0@AAE_NXZ@PAD@Z 10069450 f i libucrtd:output.obj
 0001:00068470       ??$peek_va_arg@PAX@__crt_stdio_output@@YAPAXPAD@Z 10069470 f i libucrtd:output.obj
 0001:00068490       ??$peek_va_arg@U_CRT_DOUBLE@@@__crt_stdio_output@@YA?AU_CRT_DOUBLE@@PAD@Z 10069490 f i libucrtd:output.obj
 0001:000684b0       ??$peek_va_arg@_J@__crt_stdio_output@@YA_JPAD@Z 100694b0 f i libucrtd:output.obj
 0001:000684d0       ??$peek_va_arg@_K@__crt_stdio_output@@YA_KPAD@Z 100694d0 f i libucrtd:output.obj
 0001:000684f0       ??$peek_va_arg@_W@__crt_stdio_output@@YA_WPAD@Z 100694f0 f i libucrtd:output.obj
 0001:00068510       ??$puttc_nolock@ABDPAU_iobuf@@@?$__crt_char_traits@D@@SAHABD$$QAPAU_iobuf@@@Z 10069510 f i libucrtd:output.obj
 0001:00068540       ??$puttc_nolock@AB_WPAU_iobuf@@@?$__crt_char_traits@_W@@SAGAB_W$$QAPAU_iobuf@@@Z 10069540 f i libucrtd:output.obj
 0001:00068570       ??$read_va_arg@C@__crt_stdio_output@@YACAAPAD@Z 10069570 f i libucrtd:output.obj
 0001:000685a0       ??$read_va_arg@E@__crt_stdio_output@@YAEAAPAD@Z 100695a0 f i libucrtd:output.obj
 0001:000685d0       ??$read_va_arg@F@__crt_stdio_output@@YAFAAPAD@Z 100695d0 f i libucrtd:output.obj
 0001:00068600       ??$read_va_arg@G@__crt_stdio_output@@YAGAAPAD@Z 10069600 f i libucrtd:output.obj
 0001:00068630       ??$read_va_arg@H@__crt_stdio_output@@YAHAAPAD@Z 10069630 f i libucrtd:output.obj
 0001:00068660       ??$read_va_arg@I@__crt_stdio_output@@YAIAAPAD@Z 10069660 f i libucrtd:output.obj
 0001:00068690       ??$read_va_arg@PAD@__crt_stdio_output@@YAPADAAPAD@Z 10069690 f i libucrtd:output.obj
 0001:000686c0       ??$read_va_arg@PAUansi_string@?1??type_case_Z@?$output_processor@DV?$stream_output_adapter@D@__crt_stdio_output@@V?$format_validation_base@DV?$stream_output_adapter@D@__crt_stdio_output@@@2@@__crt_stdio_output@@AAE_NXZ@@__crt_stdio_output@@YAPAUansi_string@?1??type_case_Z@?$output_processor@DV?$stream_output_adapter@D@__crt_stdio_output@@V?$format_validation_base@DV?$stream_output_adapter@D@__crt_stdio_output@@@2@@0@AAE_NXZ@AAPAD@Z 100696c0 f i libucrtd:output.obj
 0001:000686f0       ??$read_va_arg@PAUansi_string@?1??type_case_Z@?$output_processor@DV?$stream_output_adapter@D@__crt_stdio_output@@V?$positional_parameter_base@DV?$stream_output_adapter@D@__crt_stdio_output@@@2@@__crt_stdio_output@@AAE_NXZ@@__crt_stdio_output@@YAPAUansi_string@?1??type_case_Z@?$output_processor@DV?$stream_output_adapter@D@__crt_stdio_output@@V?$positional_parameter_base@DV?$stream_output_adapter@D@__crt_stdio_output@@@2@@0@AAE_NXZ@AAPAD@Z 100696f0 f i libucrtd:output.obj
 0001:00068720       ??$read_va_arg@PAUansi_string@?1??type_case_Z@?$output_processor@DV?$stream_output_adapter@D@__crt_stdio_output@@V?$standard_base@DV?$stream_output_adapter@D@__crt_stdio_output@@@2@@__crt_stdio_output@@AAE_NXZ@@__crt_stdio_output@@YAPAUansi_string@?1??type_case_Z@?$output_processor@DV?$stream_output_adapter@D@__crt_stdio_output@@V?$standard_base@DV?$stream_output_adapter@D@__crt_stdio_output@@@2@@0@AAE_NXZ@AAPAD@Z 10069720 f i libucrtd:output.obj
 0001:00068750       ??$read_va_arg@PAUansi_string@?1??type_case_Z@?$output_processor@DV?$string_output_adapter@D@__crt_stdio_output@@V?$format_validation_base@DV?$string_output_adapter@D@__crt_stdio_output@@@2@@__crt_stdio_output@@AAE_NXZ@@__crt_stdio_output@@YAPAUansi_string@?1??type_case_Z@?$output_processor@DV?$string_output_adapter@D@__crt_stdio_output@@V?$format_validation_base@DV?$string_output_adapter@D@__crt_stdio_output@@@2@@0@AAE_NXZ@AAPAD@Z 10069750 f i libucrtd:output.obj
 0001:00068780       ??$read_va_arg@PAUansi_string@?1??type_case_Z@?$output_processor@DV?$string_output_adapter@D@__crt_stdio_output@@V?$positional_parameter_base@DV?$string_output_adapter@D@__crt_stdio_output@@@2@@__crt_stdio_output@@AAE_NXZ@@__crt_stdio_output@@YAPAUansi_string@?1??type_case_Z@?$output_processor@DV?$string_output_adapter@D@__crt_stdio_output@@V?$positional_parameter_base@DV?$string_output_adapter@D@__crt_stdio_output@@@2@@0@AAE_NXZ@AAPAD@Z 10069780 f i libucrtd:output.obj
 0001:000687b0       ??$read_va_arg@PAUansi_string@?1??type_case_Z@?$output_processor@DV?$string_output_adapter@D@__crt_stdio_output@@V?$standard_base@DV?$string_output_adapter@D@__crt_stdio_output@@@2@@__crt_stdio_output@@AAE_NXZ@@__crt_stdio_output@@YAPAUansi_string@?1??type_case_Z@?$output_processor@DV?$string_output_adapter@D@__crt_stdio_output@@V?$standard_base@DV?$string_output_adapter@D@__crt_stdio_output@@@2@@0@AAE_NXZ@AAPAD@Z 100697b0 f i libucrtd:output.obj
 0001:000687e0       ??$read_va_arg@PAUansi_string@?1??type_case_Z@?$output_processor@_WV?$stream_output_adapter@_W@__crt_stdio_output@@V?$format_validation_base@_WV?$stream_output_adapter@_W@__crt_stdio_output@@@2@@__crt_stdio_output@@AAE_NXZ@@__crt_stdio_output@@YAPAUansi_string@?1??type_case_Z@?$output_processor@_WV?$stream_output_adapter@_W@__crt_stdio_output@@V?$format_validation_base@_WV?$stream_output_adapter@_W@__crt_stdio_output@@@2@@0@AAE_NXZ@AAPAD@Z 100697e0 f i libucrtd:output.obj
 0001:00068810       ??$read_va_arg@PAUansi_string@?1??type_case_Z@?$output_processor@_WV?$stream_output_adapter@_W@__crt_stdio_output@@V?$positional_parameter_base@_WV?$stream_output_adapter@_W@__crt_stdio_output@@@2@@__crt_stdio_output@@AAE_NXZ@@__crt_stdio_output@@YAPAUansi_string@?1??type_case_Z@?$output_processor@_WV?$stream_output_adapter@_W@__crt_stdio_output@@V?$positional_parameter_base@_WV?$stream_output_adapter@_W@__crt_stdio_output@@@2@@0@AAE_NXZ@AAPAD@Z 10069810 f i libucrtd:output.obj
 0001:00068840       ??$read_va_arg@PAUansi_string@?1??type_case_Z@?$output_processor@_WV?$stream_output_adapter@_W@__crt_stdio_output@@V?$standard_base@_WV?$stream_output_adapter@_W@__crt_stdio_output@@@2@@__crt_stdio_output@@AAE_NXZ@@__crt_stdio_output@@YAPAUansi_string@?1??type_case_Z@?$output_processor@_WV?$stream_output_adapter@_W@__crt_stdio_output@@V?$standard_base@_WV?$stream_output_adapter@_W@__crt_stdio_output@@@2@@0@AAE_NXZ@AAPAD@Z 10069840 f i libucrtd:output.obj
 0001:00068870       ??$read_va_arg@PAUansi_string@?1??type_case_Z@?$output_processor@_WV?$string_output_adapter@_W@__crt_stdio_output@@V?$format_validation_base@_WV?$string_output_adapter@_W@__crt_stdio_output@@@2@@__crt_stdio_output@@AAE_NXZ@@__crt_stdio_output@@YAPAUansi_string@?1??type_case_Z@?$output_processor@_WV?$string_output_adapter@_W@__crt_stdio_output@@V?$format_validation_base@_WV?$string_output_adapter@_W@__crt_stdio_output@@@2@@0@AAE_NXZ@AAPAD@Z 10069870 f i libucrtd:output.obj
 0001:000688a0       ??$read_va_arg@PAUansi_string@?1??type_case_Z@?$output_processor@_WV?$string_output_adapter@_W@__crt_stdio_output@@V?$positional_parameter_base@_WV?$string_output_adapter@_W@__crt_stdio_output@@@2@@__crt_stdio_output@@AAE_NXZ@@__crt_stdio_output@@YAPAUansi_string@?1??type_case_Z@?$output_processor@_WV?$string_output_adapter@_W@__crt_stdio_output@@V?$positional_parameter_base@_WV?$string_output_adapter@_W@__crt_stdio_output@@@2@@0@AAE_NXZ@AAPAD@Z 100698a0 f i libucrtd:output.obj
 0001:000688d0       ??$read_va_arg@PAUansi_string@?1??type_case_Z@?$output_processor@_WV?$string_output_adapter@_W@__crt_stdio_output@@V?$standard_base@_WV?$string_output_adapter@_W@__crt_stdio_output@@@2@@__crt_stdio_output@@AAE_NXZ@@__crt_stdio_output@@YAPAUansi_string@?1??type_case_Z@?$output_processor@_WV?$string_output_adapter@_W@__crt_stdio_output@@V?$standard_base@_WV?$string_output_adapter@_W@__crt_stdio_output@@@2@@0@AAE_NXZ@AAPAD@Z 100698d0 f i libucrtd:output.obj
 0001:00068900       ??$read_va_arg@PAX@__crt_stdio_output@@YAPAXAAPAD@Z 10069900 f i libucrtd:output.obj
 0001:00068930       ??$read_va_arg@U_CRT_DOUBLE@@@__crt_stdio_output@@YA?AU_CRT_DOUBLE@@AAPAD@Z 10069930 f i libucrtd:output.obj
 0001:00068960       ??$read_va_arg@_J@__crt_stdio_output@@YA_JAAPAD@Z 10069960 f i libucrtd:output.obj
 0001:00068990       ??$read_va_arg@_K@__crt_stdio_output@@YA_KAAPAD@Z 10069990 f i libucrtd:output.obj
 0001:000689c0       ??$read_va_arg@_W@__crt_stdio_output@@YA_WAAPAD@Z 100699c0 f i libucrtd:output.obj
 0001:000689f0       ??$scratch_count@D@formatting_buffer@__crt_stdio_output@@QBEIXZ 100699f0 f i libucrtd:output.obj
 0001:00068a10       ??$scratch_data@D@formatting_buffer@__crt_stdio_output@@QAEPADXZ 10069a10 f i libucrtd:output.obj
 0001:00068a70       ??$tcstol@AAPBDPAPADH@?$__crt_char_traits@D@@SAJAAPBD$$QAPAPAD$$QAH@Z 10069a70 f i libucrtd:output.obj
 0001:00068aa0       ??$tcstol@AAPB_WPAPA_WH@?$__crt_char_traits@_W@@SAJAAPB_W$$QAPAPA_W$$QAH@Z 10069aa0 f i libucrtd:output.obj
 0001:00068ad0       ??$tcstol@PBDPAPADH@?$__crt_char_traits@D@@SAJ$$QAPBD$$QAPAPAD$$QAH@Z 10069ad0 f i libucrtd:output.obj
 0001:00068b00       ??$tcstol@PB_WPAPA_WH@?$__crt_char_traits@_W@@SAJ$$QAPB_W$$QAPAPA_W$$QAH@Z 10069b00 f i libucrtd:output.obj
 0001:00068b30       ??$type_case_integer_parse_into_buffer@I@?$output_processor@DV?$stream_output_adapter@D@__crt_stdio_output@@V?$format_validation_base@DV?$stream_output_adapter@D@__crt_stdio_output@@@2@@__crt_stdio_output@@AAEXII_N@Z 10069b30 f i libucrtd:output.obj
 0001:00068c40       ??$type_case_integer_parse_into_buffer@I@?$output_processor@DV?$stream_output_adapter@D@__crt_stdio_output@@V?$positional_parameter_base@DV?$stream_output_adapter@D@__crt_stdio_output@@@2@@__crt_stdio_output@@AAEXII_N@Z 10069c40 f i libucrtd:output.obj
 0001:00068d50       ??$type_case_integer_parse_into_buffer@I@?$output_processor@DV?$stream_output_adapter@D@__crt_stdio_output@@V?$standard_base@DV?$stream_output_adapter@D@__crt_stdio_output@@@2@@__crt_stdio_output@@AAEXII_N@Z 10069d50 f i libucrtd:output.obj
 0001:00068e60       ??$type_case_integer_parse_into_buffer@I@?$output_processor@DV?$string_output_adapter@D@__crt_stdio_output@@V?$format_validation_base@DV?$string_output_adapter@D@__crt_stdio_output@@@2@@__crt_stdio_output@@AAEXII_N@Z 10069e60 f i libucrtd:output.obj
 0001:00068f70       ??$type_case_integer_parse_into_buffer@I@?$output_processor@DV?$string_output_adapter@D@__crt_stdio_output@@V?$positional_parameter_base@DV?$string_output_adapter@D@__crt_stdio_output@@@2@@__crt_stdio_output@@AAEXII_N@Z 10069f70 f i libucrtd:output.obj
 0001:00069080       ??$type_case_integer_parse_into_buffer@I@?$output_processor@DV?$string_output_adapter@D@__crt_stdio_output@@V?$standard_base@DV?$string_output_adapter@D@__crt_stdio_output@@@2@@__crt_stdio_output@@AAEXII_N@Z 1006a080 f i libucrtd:output.obj
 0001:00069190       ??$type_case_integer_parse_into_buffer@I@?$output_processor@_WV?$stream_output_adapter@_W@__crt_stdio_output@@V?$format_validation_base@_WV?$stream_output_adapter@_W@__crt_stdio_output@@@2@@__crt_stdio_output@@AAEXII_N@Z 1006a190 f i libucrtd:output.obj
 0001:000692a0       ??$type_case_integer_parse_into_buffer@I@?$output_processor@_WV?$stream_output_adapter@_W@__crt_stdio_output@@V?$positional_parameter_base@_WV?$stream_output_adapter@_W@__crt_stdio_output@@@2@@__crt_stdio_output@@AAEXII_N@Z 1006a2a0 f i libucrtd:output.obj
 0001:000693b0       ??$type_case_integer_parse_into_buffer@I@?$output_processor@_WV?$stream_output_adapter@_W@__crt_stdio_output@@V?$standard_base@_WV?$stream_output_adapter@_W@__crt_stdio_output@@@2@@__crt_stdio_output@@AAEXII_N@Z 1006a3b0 f i libucrtd:output.obj
 0001:000694c0       ??$type_case_integer_parse_into_buffer@I@?$output_processor@_WV?$string_output_adapter@_W@__crt_stdio_output@@V?$format_validation_base@_WV?$string_output_adapter@_W@__crt_stdio_output@@@2@@__crt_stdio_output@@AAEXII_N@Z 1006a4c0 f i libucrtd:output.obj
 0001:000695d0       ??$type_case_integer_parse_into_buffer@I@?$output_processor@_WV?$string_output_adapter@_W@__crt_stdio_output@@V?$positional_parameter_base@_WV?$string_output_adapter@_W@__crt_stdio_output@@@2@@__crt_stdio_output@@AAEXII_N@Z 1006a5d0 f i libucrtd:output.obj
 0001:000696e0       ??$type_case_integer_parse_into_buffer@I@?$output_processor@_WV?$string_output_adapter@_W@__crt_stdio_output@@V?$standard_base@_WV?$string_output_adapter@_W@__crt_stdio_output@@@2@@__crt_stdio_output@@AAEXII_N@Z 1006a6e0 f i libucrtd:output.obj
 0001:000697f0       ??$type_case_integer_parse_into_buffer@_K@?$output_processor@DV?$stream_output_adapter@D@__crt_stdio_output@@V?$format_validation_base@DV?$stream_output_adapter@D@__crt_stdio_output@@@2@@__crt_stdio_output@@AAEX_KI_N@Z 1006a7f0 f i libucrtd:output.obj
 0001:00069920       ??$type_case_integer_parse_into_buffer@_K@?$output_processor@DV?$stream_output_adapter@D@__crt_stdio_output@@V?$positional_parameter_base@DV?$stream_output_adapter@D@__crt_stdio_output@@@2@@__crt_stdio_output@@AAEX_KI_N@Z 1006a920 f i libucrtd:output.obj
 0001:00069a50       ??$type_case_integer_parse_into_buffer@_K@?$output_processor@DV?$stream_output_adapter@D@__crt_stdio_output@@V?$standard_base@DV?$stream_output_adapter@D@__crt_stdio_output@@@2@@__crt_stdio_output@@AAEX_KI_N@Z 1006aa50 f i libucrtd:output.obj
 0001:00069b80       ??$type_case_integer_parse_into_buffer@_K@?$output_processor@DV?$string_output_adapter@D@__crt_stdio_output@@V?$format_validation_base@DV?$string_output_adapter@D@__crt_stdio_output@@@2@@__crt_stdio_output@@AAEX_KI_N@Z 1006ab80 f i libucrtd:output.obj
 0001:00069cb0       ??$type_case_integer_parse_into_buffer@_K@?$output_processor@DV?$string_output_adapter@D@__crt_stdio_output@@V?$positional_parameter_base@DV?$string_output_adapter@D@__crt_stdio_output@@@2@@__crt_stdio_output@@AAEX_KI_N@Z 1006acb0 f i libucrtd:output.obj
 0001:00069de0       ??$type_case_integer_parse_into_buffer@_K@?$output_processor@DV?$string_output_adapter@D@__crt_stdio_output@@V?$standard_base@DV?$string_output_adapter@D@__crt_stdio_output@@@2@@__crt_stdio_output@@AAEX_KI_N@Z 1006ade0 f i libucrtd:output.obj
 0001:00069f10       ??$type_case_integer_parse_into_buffer@_K@?$output_processor@_WV?$stream_output_adapter@_W@__crt_stdio_output@@V?$format_validation_base@_WV?$stream_output_adapter@_W@__crt_stdio_output@@@2@@__crt_stdio_output@@AAEX_KI_N@Z 1006af10 f i libucrtd:output.obj
 0001:0006a050       ??$type_case_integer_parse_into_buffer@_K@?$output_processor@_WV?$stream_output_adapter@_W@__crt_stdio_output@@V?$positional_parameter_base@_WV?$stream_output_adapter@_W@__crt_stdio_output@@@2@@__crt_stdio_output@@AAEX_KI_N@Z 1006b050 f i libucrtd:output.obj
 0001:0006a190       ??$type_case_integer_parse_into_buffer@_K@?$output_processor@_WV?$stream_output_adapter@_W@__crt_stdio_output@@V?$standard_base@_WV?$stream_output_adapter@_W@__crt_stdio_output@@@2@@__crt_stdio_output@@AAEX_KI_N@Z 1006b190 f i libucrtd:output.obj
 0001:0006a2d0       ??$type_case_integer_parse_into_buffer@_K@?$output_processor@_WV?$string_output_adapter@_W@__crt_stdio_output@@V?$format_validation_base@_WV?$string_output_adapter@_W@__crt_stdio_output@@@2@@__crt_stdio_output@@AAEX_KI_N@Z 1006b2d0 f i libucrtd:output.obj
 0001:0006a410       ??$type_case_integer_parse_into_buffer@_K@?$output_processor@_WV?$string_output_adapter@_W@__crt_stdio_output@@V?$positional_parameter_base@_WV?$string_output_adapter@_W@__crt_stdio_output@@@2@@__crt_stdio_output@@AAEX_KI_N@Z 1006b410 f i libucrtd:output.obj
 0001:0006a550       ??$type_case_integer_parse_into_buffer@_K@?$output_processor@_WV?$string_output_adapter@_W@__crt_stdio_output@@V?$standard_base@_WV?$string_output_adapter@_W@__crt_stdio_output@@@2@@__crt_stdio_output@@AAEX_KI_N@Z 1006b550 f i libucrtd:output.obj
 0001:0006a690       ??$write_multiple_characters@V?$stream_output_adapter@D@__crt_stdio_output@@D@__crt_stdio_output@@YAXABV?$stream_output_adapter@D@0@DHQAH@Z 1006b690 f i libucrtd:output.obj
 0001:0006a6f0       ??$write_multiple_characters@V?$stream_output_adapter@_W@__crt_stdio_output@@D@__crt_stdio_output@@YAXABV?$stream_output_adapter@_W@0@DHQAH@Z 1006b6f0 f i libucrtd:output.obj
 0001:0006a750       ??$write_multiple_characters@V?$string_output_adapter@D@__crt_stdio_output@@D@__crt_stdio_output@@YAXABV?$string_output_adapter@D@0@DHQAH@Z 1006b750 f i libucrtd:output.obj
 0001:0006a7b0       ??$write_multiple_characters@V?$string_output_adapter@_W@__crt_stdio_output@@D@__crt_stdio_output@@YAXABV?$string_output_adapter@_W@0@DHQAH@Z 1006b7b0 f i libucrtd:output.obj
 0001:0006ac30       ??0?$common_data@D@__crt_stdio_output@@IAE@XZ 1006bc30 f i libucrtd:output.obj
 0001:0006ad00       ??0?$common_data@_W@__crt_stdio_output@@IAE@XZ 1006bd00 f i libucrtd:output.obj
 0001:0006add0       ??0?$output_adapter_data@DV?$stream_output_adapter@D@__crt_stdio_output@@@__crt_stdio_output@@IAE@ABV?$stream_output_adapter@D@1@_KQBDQAU__crt_locale_pointers@@QAD@Z 1006bdd0 f i libucrtd:output.obj
 0001:0006ae40       ??0?$output_adapter_data@DV?$string_output_adapter@D@__crt_stdio_output@@@__crt_stdio_output@@IAE@ABV?$string_output_adapter@D@1@_KQBDQAU__crt_locale_pointers@@QAD@Z 1006be40 f i libucrtd:output.obj
 0001:0006aeb0       ??0?$output_adapter_data@_WV?$stream_output_adapter@_W@__crt_stdio_output@@@__crt_stdio_output@@IAE@ABV?$stream_output_adapter@_W@1@_KQB_WQAU__crt_locale_pointers@@QAD@Z 1006beb0 f i libucrtd:output.obj
 0001:0006af20       ??0?$output_adapter_data@_WV?$string_output_adapter@_W@__crt_stdio_output@@@__crt_stdio_output@@IAE@ABV?$string_output_adapter@_W@1@_KQB_WQAU__crt_locale_pointers@@QAD@Z 1006bf20 f i libucrtd:output.obj
 0001:0006af90       ??0?$output_processor@DV?$stream_output_adapter@D@__crt_stdio_output@@V?$format_validation_base@DV?$stream_output_adapter@D@__crt_stdio_output@@@2@@__crt_stdio_output@@QAE@ABV?$stream_output_adapter@D@1@_KQBDQAU__crt_locale_pointers@@QAD@Z 1006bf90 f i libucrtd:output.obj
 0001:0006afd0       ??0?$output_processor@DV?$stream_output_adapter@D@__crt_stdio_output@@V?$positional_parameter_base@DV?$stream_output_adapter@D@__crt_stdio_output@@@2@@__crt_stdio_output@@QAE@ABV?$stream_output_adapter@D@1@_KQBDQAU__crt_locale_pointers@@QAD@Z 1006bfd0 f i libucrtd:output.obj
 0001:0006b010       ??0?$output_processor@DV?$stream_output_adapter@D@__crt_stdio_output@@V?$standard_base@DV?$stream_output_adapter@D@__crt_stdio_output@@@2@@__crt_stdio_output@@QAE@ABV?$stream_output_adapter@D@1@_KQBDQAU__crt_locale_pointers@@QAD@Z 1006c010 f i libucrtd:output.obj
 0001:0006b050       ??0?$output_processor@DV?$string_output_adapter@D@__crt_stdio_output@@V?$format_validation_base@DV?$string_output_adapter@D@__crt_stdio_output@@@2@@__crt_stdio_output@@QAE@ABV?$string_output_adapter@D@1@_KQBDQAU__crt_locale_pointers@@QAD@Z 1006c050 f i libucrtd:output.obj
 0001:0006b090       ??0?$output_processor@DV?$string_output_adapter@D@__crt_stdio_output@@V?$positional_parameter_base@DV?$string_output_adapter@D@__crt_stdio_output@@@2@@__crt_stdio_output@@QAE@ABV?$string_output_adapter@D@1@_KQBDQAU__crt_locale_pointers@@QAD@Z 1006c090 f i libucrtd:output.obj
 0001:0006b0d0       ??0?$output_processor@DV?$string_output_adapter@D@__crt_stdio_output@@V?$standard_base@DV?$string_output_adapter@D@__crt_stdio_output@@@2@@__crt_stdio_output@@QAE@ABV?$string_output_adapter@D@1@_KQBDQAU__crt_locale_pointers@@QAD@Z 1006c0d0 f i libucrtd:output.obj
 0001:0006b110       ??0?$output_processor@_WV?$stream_output_adapter@_W@__crt_stdio_output@@V?$format_validation_base@_WV?$stream_output_adapter@_W@__crt_stdio_output@@@2@@__crt_stdio_output@@QAE@ABV?$stream_output_adapter@_W@1@_KQB_WQAU__crt_locale_pointers@@QAD@Z 1006c110 f i libucrtd:output.obj
 0001:0006b150       ??0?$output_processor@_WV?$stream_output_adapter@_W@__crt_stdio_output@@V?$positional_parameter_base@_WV?$stream_output_adapter@_W@__crt_stdio_output@@@2@@__crt_stdio_output@@QAE@ABV?$stream_output_adapter@_W@1@_KQB_WQAU__crt_locale_pointers@@QAD@Z 1006c150 f i libucrtd:output.obj
 0001:0006b190       ??0?$output_processor@_WV?$stream_output_adapter@_W@__crt_stdio_output@@V?$standard_base@_WV?$stream_output_adapter@_W@__crt_stdio_output@@@2@@__crt_stdio_output@@QAE@ABV?$stream_output_adapter@_W@1@_KQB_WQAU__crt_locale_pointers@@QAD@Z 1006c190 f i libucrtd:output.obj
 0001:0006b1d0       ??0?$output_processor@_WV?$string_output_adapter@_W@__crt_stdio_output@@V?$format_validation_base@_WV?$string_output_adapter@_W@__crt_stdio_output@@@2@@__crt_stdio_output@@QAE@ABV?$string_output_adapter@_W@1@_KQB_WQAU__crt_locale_pointers@@QAD@Z 1006c1d0 f i libucrtd:output.obj
 0001:0006b210       ??0?$output_processor@_WV?$string_output_adapter@_W@__crt_stdio_output@@V?$positional_parameter_base@_WV?$string_output_adapter@_W@__crt_stdio_output@@@2@@__crt_stdio_output@@QAE@ABV?$string_output_adapter@_W@1@_KQB_WQAU__crt_locale_pointers@@QAD@Z 1006c210 f i libucrtd:output.obj
 0001:0006b250       ??0?$output_processor@_WV?$string_output_adapter@_W@__crt_stdio_output@@V?$standard_base@_WV?$string_output_adapter@_W@__crt_stdio_output@@@2@@__crt_stdio_output@@QAE@ABV?$string_output_adapter@_W@1@_KQB_WQAU__crt_locale_pointers@@QAD@Z 1006c250 f i libucrtd:output.obj
 0001:0006b290       ??0?$stream_output_adapter@D@__crt_stdio_output@@QAE@QAU_iobuf@@@Z 1006c290 f i libucrtd:output.obj
 0001:0006b2c0       ??0?$stream_output_adapter@_W@__crt_stdio_output@@QAE@QAU_iobuf@@@Z 1006c2c0 f i libucrtd:output.obj
 0001:0006b2f0       ??0?$string_output_adapter@D@__crt_stdio_output@@QAE@QAU?$string_output_adapter_context@D@1@@Z 1006c2f0 f i libucrtd:output.obj
 0001:0006b310       ??0?$string_output_adapter@_W@__crt_stdio_output@@QAE@QAU?$string_output_adapter_context@_W@1@@Z 1006c310 f i libucrtd:output.obj
 0001:0006b330       ??0__acrt_stdio_temporary_buffering_guard@@QAE@QAU_iobuf@@@Z 1006c330 f i libucrtd:output.obj
 0001:0006b370       ??0__crt_deferred_errno_cache@@QAE@XZ 1006c370 f i libucrtd:output.obj
 0001:0006b390       ??0__crt_errno_guard@@QAE@QAH@Z 1006c390 f i libucrtd:output.obj
 0001:0006b3d0       ??0__crt_stdio_stream@@QAE@QAU_iobuf@@@Z 1006c3d0 f i libucrtd:output.obj
 0001:0006b3f0       ??0formatting_buffer@__crt_stdio_output@@QAE@XZ 1006c3f0 f i libucrtd:output.obj
 0001:0006b430       ??1?$common_data@D@__crt_stdio_output@@QAE@XZ 1006c430 f i libucrtd:output.obj
 0001:0006b450       ??1?$common_data@_W@__crt_stdio_output@@QAE@XZ 1006c450 f i libucrtd:output.obj
 0001:0006b470       ??1?$format_validation_base@DV?$stream_output_adapter@D@__crt_stdio_output@@@__crt_stdio_output@@QAE@XZ 1006c470 f i libucrtd:output.obj
 0001:0006b490       ??1?$format_validation_base@DV?$string_output_adapter@D@__crt_stdio_output@@@__crt_stdio_output@@QAE@XZ 1006c490 f i libucrtd:output.obj
 0001:0006b4b0       ??1?$format_validation_base@_WV?$stream_output_adapter@_W@__crt_stdio_output@@@__crt_stdio_output@@QAE@XZ 1006c4b0 f i libucrtd:output.obj
 0001:0006b4d0       ??1?$format_validation_base@_WV?$string_output_adapter@_W@__crt_stdio_output@@@__crt_stdio_output@@QAE@XZ 1006c4d0 f i libucrtd:output.obj
 0001:0006b4f0       ??1?$output_adapter_data@DV?$stream_output_adapter@D@__crt_stdio_output@@@__crt_stdio_output@@QAE@XZ 1006c4f0 f i libucrtd:output.obj
 0001:0006b510       ??1?$output_adapter_data@DV?$string_output_adapter@D@__crt_stdio_output@@@__crt_stdio_output@@QAE@XZ 1006c510 f i libucrtd:output.obj
 0001:0006b530       ??1?$output_adapter_data@_WV?$stream_output_adapter@_W@__crt_stdio_output@@@__crt_stdio_output@@QAE@XZ 1006c530 f i libucrtd:output.obj
 0001:0006b550       ??1?$output_adapter_data@_WV?$string_output_adapter@_W@__crt_stdio_output@@@__crt_stdio_output@@QAE@XZ 1006c550 f i libucrtd:output.obj
 0001:0006b570       ??1?$output_processor@DV?$stream_output_adapter@D@__crt_stdio_output@@V?$format_validation_base@DV?$stream_output_adapter@D@__crt_stdio_output@@@2@@__crt_stdio_output@@QAE@XZ 1006c570 f i libucrtd:output.obj
 0001:0006b590       ??1?$output_processor@DV?$stream_output_adapter@D@__crt_stdio_output@@V?$positional_parameter_base@DV?$stream_output_adapter@D@__crt_stdio_output@@@2@@__crt_stdio_output@@QAE@XZ 1006c590 f i libucrtd:output.obj
 0001:0006b5b0       ??1?$output_processor@DV?$stream_output_adapter@D@__crt_stdio_output@@V?$standard_base@DV?$stream_output_adapter@D@__crt_stdio_output@@@2@@__crt_stdio_output@@QAE@XZ 1006c5b0 f i libucrtd:output.obj
 0001:0006b5d0       ??1?$output_processor@DV?$string_output_adapter@D@__crt_stdio_output@@V?$format_validation_base@DV?$string_output_adapter@D@__crt_stdio_output@@@2@@__crt_stdio_output@@QAE@XZ 1006c5d0 f i libucrtd:output.obj
 0001:0006b5f0       ??1?$output_processor@DV?$string_output_adapter@D@__crt_stdio_output@@V?$positional_parameter_base@DV?$string_output_adapter@D@__crt_stdio_output@@@2@@__crt_stdio_output@@QAE@XZ 1006c5f0 f i libucrtd:output.obj
 0001:0006b610       ??1?$output_processor@DV?$string_output_adapter@D@__crt_stdio_output@@V?$standard_base@DV?$string_output_adapter@D@__crt_stdio_output@@@2@@__crt_stdio_output@@QAE@XZ 1006c610 f i libucrtd:output.obj
 0001:0006b630       ??1?$output_processor@_WV?$stream_output_adapter@_W@__crt_stdio_output@@V?$format_validation_base@_WV?$stream_output_adapter@_W@__crt_stdio_output@@@2@@__crt_stdio_output@@QAE@XZ 1006c630 f i libucrtd:output.obj
 0001:0006b650       ??1?$output_processor@_WV?$stream_output_adapter@_W@__crt_stdio_output@@V?$positional_parameter_base@_WV?$stream_output_adapter@_W@__crt_stdio_output@@@2@@__crt_stdio_output@@QAE@XZ 1006c650 f i libucrtd:output.obj
 0001:0006b670       ??1?$output_processor@_WV?$stream_output_adapter@_W@__crt_stdio_output@@V?$standard_base@_WV?$stream_output_adapter@_W@__crt_stdio_output@@@2@@__crt_stdio_output@@QAE@XZ 1006c670 f i libucrtd:output.obj
 0001:0006b690       ??1?$output_processor@_WV?$string_output_adapter@_W@__crt_stdio_output@@V?$format_validation_base@_WV?$string_output_adapter@_W@__crt_stdio_output@@@2@@__crt_stdio_output@@QAE@XZ 1006c690 f i libucrtd:output.obj
 0001:0006b6b0       ??1?$output_processor@_WV?$string_output_adapter@_W@__crt_stdio_output@@V?$positional_parameter_base@_WV?$string_output_adapter@_W@__crt_stdio_output@@@2@@__crt_stdio_output@@QAE@XZ 1006c6b0 f i libucrtd:output.obj
 0001:0006b6d0       ??1?$output_processor@_WV?$string_output_adapter@_W@__crt_stdio_output@@V?$standard_base@_WV?$string_output_adapter@_W@__crt_stdio_output@@@2@@__crt_stdio_output@@QAE@XZ 1006c6d0 f i libucrtd:output.obj
 0001:0006b6f0       ??1?$positional_parameter_base@DV?$stream_output_adapter@D@__crt_stdio_output@@@__crt_stdio_output@@QAE@XZ 1006c6f0 f i libucrtd:output.obj
 0001:0006b710       ??1?$positional_parameter_base@DV?$string_output_adapter@D@__crt_stdio_output@@@__crt_stdio_output@@QAE@XZ 1006c710 f i libucrtd:output.obj
 0001:0006b730       ??1?$positional_parameter_base@_WV?$stream_output_adapter@_W@__crt_stdio_output@@@__crt_stdio_output@@QAE@XZ 1006c730 f i libucrtd:output.obj
 0001:0006b750       ??1?$positional_parameter_base@_WV?$string_output_adapter@_W@__crt_stdio_output@@@__crt_stdio_output@@QAE@XZ 1006c750 f i libucrtd:output.obj
 0001:0006b770       ??1?$standard_base@DV?$stream_output_adapter@D@__crt_stdio_output@@@__crt_stdio_output@@QAE@XZ 1006c770 f i libucrtd:output.obj
 0001:0006b790       ??1?$standard_base@DV?$string_output_adapter@D@__crt_stdio_output@@@__crt_stdio_output@@QAE@XZ 1006c790 f i libucrtd:output.obj
 0001:0006b7b0       ??1?$standard_base@_WV?$stream_output_adapter@_W@__crt_stdio_output@@@__crt_stdio_output@@QAE@XZ 1006c7b0 f i libucrtd:output.obj
 0001:0006b7d0       ??1?$standard_base@_WV?$string_output_adapter@_W@__crt_stdio_output@@@__crt_stdio_output@@QAE@XZ 1006c7d0 f i libucrtd:output.obj
 0001:0006b7f0       ??1__acrt_stdio_temporary_buffering_guard@@QAE@XZ 1006c7f0 f i libucrtd:output.obj
 0001:0006b820       ??1__crt_errno_guard@@QAE@XZ 1006c820 f i libucrtd:output.obj
 0001:0006b860       ??1formatting_buffer@__crt_stdio_output@@QAE@XZ 1006c860 f i libucrtd:output.obj
 0001:0006b890       ??4?$__crt_unique_heap_ptr@DU__crt_internal_free_policy@@@@QAEAAV0@$$QAV0@@Z 1006c890 f i libucrtd:output.obj
 0001:0006b8d0       ??A?$spectre_mitigated_lookup_table@Ustate_transition_pair@__crt_stdio_output@@$0IA@@__crt_stdio_output@@QBEABUstate_transition_pair@1@I@Z 1006c8d0 f i libucrtd:output.obj
 0001:0006b900       ??C__crt_stdio_stream@@QBEPAU__crt_stdio_stream_data@@XZ 1006c900 f i libucrtd:output.obj
 0001:0006c220       ?adjust_hexit@?$output_processor@DV?$stream_output_adapter@D@__crt_stdio_output@@V?$format_validation_base@DV?$stream_output_adapter@D@__crt_stdio_output@@@2@@__crt_stdio_output@@CADH_N@Z 1006d220 f i libucrtd:output.obj
 0001:0006c270       ?adjust_hexit@?$output_processor@DV?$stream_output_adapter@D@__crt_stdio_output@@V?$positional_parameter_base@DV?$stream_output_adapter@D@__crt_stdio_output@@@2@@__crt_stdio_output@@CADH_N@Z 1006d270 f i libucrtd:output.obj
 0001:0006c2c0       ?adjust_hexit@?$output_processor@DV?$stream_output_adapter@D@__crt_stdio_output@@V?$standard_base@DV?$stream_output_adapter@D@__crt_stdio_output@@@2@@__crt_stdio_output@@CADH_N@Z 1006d2c0 f i libucrtd:output.obj
 0001:0006c310       ?adjust_hexit@?$output_processor@DV?$string_output_adapter@D@__crt_stdio_output@@V?$format_validation_base@DV?$string_output_adapter@D@__crt_stdio_output@@@2@@__crt_stdio_output@@CADH_N@Z 1006d310 f i libucrtd:output.obj
 0001:0006c360       ?adjust_hexit@?$output_processor@DV?$string_output_adapter@D@__crt_stdio_output@@V?$positional_parameter_base@DV?$string_output_adapter@D@__crt_stdio_output@@@2@@__crt_stdio_output@@CADH_N@Z 1006d360 f i libucrtd:output.obj
 0001:0006c3b0       ?adjust_hexit@?$output_processor@DV?$string_output_adapter@D@__crt_stdio_output@@V?$standard_base@DV?$string_output_adapter@D@__crt_stdio_output@@@2@@__crt_stdio_output@@CADH_N@Z 1006d3b0 f i libucrtd:output.obj
 0001:0006c400       ?adjust_hexit@?$output_processor@_WV?$stream_output_adapter@_W@__crt_stdio_output@@V?$format_validation_base@_WV?$stream_output_adapter@_W@__crt_stdio_output@@@2@@__crt_stdio_output@@CADH_N@Z 1006d400 f i libucrtd:output.obj
 0001:0006c450       ?adjust_hexit@?$output_processor@_WV?$stream_output_adapter@_W@__crt_stdio_output@@V?$positional_parameter_base@_WV?$stream_output_adapter@_W@__crt_stdio_output@@@2@@__crt_stdio_output@@CADH_N@Z 1006d450 f i libucrtd:output.obj
 0001:0006c4a0       ?adjust_hexit@?$output_processor@_WV?$stream_output_adapter@_W@__crt_stdio_output@@V?$standard_base@_WV?$stream_output_adapter@_W@__crt_stdio_output@@@2@@__crt_stdio_output@@CADH_N@Z 1006d4a0 f i libucrtd:output.obj
 0001:0006c4f0       ?adjust_hexit@?$output_processor@_WV?$string_output_adapter@_W@__crt_stdio_output@@V?$format_validation_base@_WV?$string_output_adapter@_W@__crt_stdio_output@@@2@@__crt_stdio_output@@CADH_N@Z 1006d4f0 f i libucrtd:output.obj
 0001:0006c540       ?adjust_hexit@?$output_processor@_WV?$string_output_adapter@_W@__crt_stdio_output@@V?$positional_parameter_base@_WV?$string_output_adapter@_W@__crt_stdio_output@@@2@@__crt_stdio_output@@CADH_N@Z 1006d540 f i libucrtd:output.obj
 0001:0006c590       ?adjust_hexit@?$output_processor@_WV?$string_output_adapter@_W@__crt_stdio_output@@V?$standard_base@_WV?$string_output_adapter@_W@__crt_stdio_output@@@2@@__crt_stdio_output@@CADH_N@Z 1006d590 f i libucrtd:output.obj
 0001:0006c5e0       ?advance_to_next_pass@?$positional_parameter_base@DV?$stream_output_adapter@D@__crt_stdio_output@@@__crt_stdio_output@@IAE_NXZ 1006d5e0 f i libucrtd:output.obj
 0001:0006c6a0       ?advance_to_next_pass@?$positional_parameter_base@DV?$string_output_adapter@D@__crt_stdio_output@@@__crt_stdio_output@@IAE_NXZ 1006d6a0 f i libucrtd:output.obj
 0001:0006c760       ?advance_to_next_pass@?$positional_parameter_base@_WV?$stream_output_adapter@_W@__crt_stdio_output@@@__crt_stdio_output@@IAE_NXZ 1006d760 f i libucrtd:output.obj
 0001:0006c820       ?advance_to_next_pass@?$positional_parameter_base@_WV?$string_output_adapter@_W@__crt_stdio_output@@@__crt_stdio_output@@IAE_NXZ 1006d820 f i libucrtd:output.obj
 0001:0006c8e0       ?advance_to_next_pass@?$standard_base@DV?$stream_output_adapter@D@__crt_stdio_output@@@__crt_stdio_output@@IAE_NXZ 1006d8e0 f i libucrtd:output.obj
 0001:0006c940       ?advance_to_next_pass@?$standard_base@DV?$string_output_adapter@D@__crt_stdio_output@@@__crt_stdio_output@@IAE_NXZ 1006d940 f i libucrtd:output.obj
 0001:0006c9a0       ?advance_to_next_pass@?$standard_base@_WV?$stream_output_adapter@_W@__crt_stdio_output@@@__crt_stdio_output@@IAE_NXZ 1006d9a0 f i libucrtd:output.obj
 0001:0006ca00       ?advance_to_next_pass@?$standard_base@_WV?$string_output_adapter@_W@__crt_stdio_output@@@__crt_stdio_output@@IAE_NXZ 1006da00 f i libucrtd:output.obj
 0001:0006ca60       ?crop_zeroes@__crt_stdio_output@@YAXPADQAU__crt_locale_pointers@@@Z 1006da60 f i libucrtd:output.obj
 0001:0006cb90       ?find_next_state@?$output_processor@DV?$stream_output_adapter@D@__crt_stdio_output@@V?$format_validation_base@DV?$stream_output_adapter@D@__crt_stdio_output@@@2@@__crt_stdio_output@@ABE?AW4state@2@DW432@@Z 1006db90 f i libucrtd:output.obj
 0001:0006cc20       ?find_next_state@?$output_processor@DV?$stream_output_adapter@D@__crt_stdio_output@@V?$positional_parameter_base@DV?$stream_output_adapter@D@__crt_stdio_output@@@2@@__crt_stdio_output@@ABE?AW4state@2@DW432@@Z 1006dc20 f i libucrtd:output.obj
 0001:0006ccb0       ?find_next_state@?$output_processor@DV?$stream_output_adapter@D@__crt_stdio_output@@V?$standard_base@DV?$stream_output_adapter@D@__crt_stdio_output@@@2@@__crt_stdio_output@@ABE?AW4state@2@DW432@@Z 1006dcb0 f i libucrtd:output.obj
 0001:0006cd40       ?find_next_state@?$output_processor@DV?$string_output_adapter@D@__crt_stdio_output@@V?$format_validation_base@DV?$string_output_adapter@D@__crt_stdio_output@@@2@@__crt_stdio_output@@ABE?AW4state@2@DW432@@Z 1006dd40 f i libucrtd:output.obj
 0001:0006cdd0       ?find_next_state@?$output_processor@DV?$string_output_adapter@D@__crt_stdio_output@@V?$positional_parameter_base@DV?$string_output_adapter@D@__crt_stdio_output@@@2@@__crt_stdio_output@@ABE?AW4state@2@DW432@@Z 1006ddd0 f i libucrtd:output.obj
 0001:0006ce60       ?find_next_state@?$output_processor@DV?$string_output_adapter@D@__crt_stdio_output@@V?$standard_base@DV?$string_output_adapter@D@__crt_stdio_output@@@2@@__crt_stdio_output@@ABE?AW4state@2@DW432@@Z 1006de60 f i libucrtd:output.obj
 0001:0006cef0       ?find_next_state@?$output_processor@_WV?$stream_output_adapter@_W@__crt_stdio_output@@V?$format_validation_base@_WV?$stream_output_adapter@_W@__crt_stdio_output@@@2@@__crt_stdio_output@@ABE?AW4state@2@_WW432@@Z 1006def0 f i libucrtd:output.obj
 0001:0006cf80       ?find_next_state@?$output_processor@_WV?$stream_output_adapter@_W@__crt_stdio_output@@V?$positional_parameter_base@_WV?$stream_output_adapter@_W@__crt_stdio_output@@@2@@__crt_stdio_output@@ABE?AW4state@2@_WW432@@Z 1006df80 f i libucrtd:output.obj
 0001:0006d010       ?find_next_state@?$output_processor@_WV?$stream_output_adapter@_W@__crt_stdio_output@@V?$standard_base@_WV?$stream_output_adapter@_W@__crt_stdio_output@@@2@@__crt_stdio_output@@ABE?AW4state@2@_WW432@@Z 1006e010 f i libucrtd:output.obj
 0001:0006d0a0       ?find_next_state@?$output_processor@_WV?$string_output_adapter@_W@__crt_stdio_output@@V?$format_validation_base@_WV?$string_output_adapter@_W@__crt_stdio_output@@@2@@__crt_stdio_output@@ABE?AW4state@2@_WW432@@Z 1006e0a0 f i libucrtd:output.obj
 0001:0006d130       ?find_next_state@?$output_processor@_WV?$string_output_adapter@_W@__crt_stdio_output@@V?$positional_parameter_base@_WV?$string_output_adapter@_W@__crt_stdio_output@@@2@@__crt_stdio_output@@ABE?AW4state@2@_WW432@@Z 1006e130 f i libucrtd:output.obj
 0001:0006d1c0       ?find_next_state@?$output_processor@_WV?$string_output_adapter@_W@__crt_stdio_output@@V?$standard_base@_WV?$string_output_adapter@_W@__crt_stdio_output@@@2@@__crt_stdio_output@@ABE?AW4state@2@_WW432@@Z 1006e1c0 f i libucrtd:output.obj
 0001:0006d250       ?force_decimal_point@__crt_stdio_output@@YAXPADQAU__crt_locale_pointers@@@Z 1006e250 f i libucrtd:output.obj
 0001:0006d350       ?get@__crt_deferred_errno_cache@@QAEAAHXZ 1006e350 f i libucrtd:output.obj
 0001:0006d380       ?get_flags@__crt_stdio_stream@@QBEJXZ 1006e380 f i libucrtd:output.obj
 0001:0006d3b0       ?get_parameter_type@?$positional_parameter_base@DV?$stream_output_adapter@D@__crt_stdio_output@@@__crt_stdio_output@@CA?AW4parameter_type@12@F@Z 1006e3b0 f i libucrtd:output.obj
 0001:0006d3c0       ?get_parameter_type@?$positional_parameter_base@DV?$stream_output_adapter@D@__crt_stdio_output@@@__crt_stdio_output@@CA?AW4parameter_type@12@G@Z 1006e3c0 f i libucrtd:output.obj
 0001:0006d3d0       ?get_parameter_type@?$positional_parameter_base@DV?$stream_output_adapter@D@__crt_stdio_output@@@__crt_stdio_output@@CA?AW4parameter_type@12@H@Z 1006e3d0 f i libucrtd:output.obj
 0001:0006d3e0       ?get_parameter_type@?$positional_parameter_base@DV?$stream_output_adapter@D@__crt_stdio_output@@@__crt_stdio_output@@CA?AW4parameter_type@12@I@Z 1006e3e0 f i libucrtd:output.obj
 0001:0006d3f0       ?get_parameter_type@?$positional_parameter_base@DV?$stream_output_adapter@D@__crt_stdio_output@@@__crt_stdio_output@@CA?AW4parameter_type@12@U_CRT_DOUBLE@@@Z 1006e3f0 f i libucrtd:output.obj
 0001:0006d400       ?get_parameter_type@?$positional_parameter_base@DV?$stream_output_adapter@D@__crt_stdio_output@@@__crt_stdio_output@@CA?AW4parameter_type@12@_J@Z 1006e400 f i libucrtd:output.obj
 0001:0006d410       ?get_parameter_type@?$positional_parameter_base@DV?$stream_output_adapter@D@__crt_stdio_output@@@__crt_stdio_output@@CA?AW4parameter_type@12@_K@Z 1006e410 f i libucrtd:output.obj
 0001:0006d420       ?get_parameter_type@?$positional_parameter_base@DV?$stream_output_adapter@D@__crt_stdio_output@@@__crt_stdio_output@@CA?AW4parameter_type@12@_W@Z 1006e420 f i libucrtd:output.obj
 0001:0006d430       ?get_parameter_type@?$positional_parameter_base@DV?$string_output_adapter@D@__crt_stdio_output@@@__crt_stdio_output@@CA?AW4parameter_type@12@F@Z 1006e430 f i libucrtd:output.obj
 0001:0006d440       ?get_parameter_type@?$positional_parameter_base@DV?$string_output_adapter@D@__crt_stdio_output@@@__crt_stdio_output@@CA?AW4parameter_type@12@G@Z 1006e440 f i libucrtd:output.obj
 0001:0006d450       ?get_parameter_type@?$positional_parameter_base@DV?$string_output_adapter@D@__crt_stdio_output@@@__crt_stdio_output@@CA?AW4parameter_type@12@H@Z 1006e450 f i libucrtd:output.obj
 0001:0006d460       ?get_parameter_type@?$positional_parameter_base@DV?$string_output_adapter@D@__crt_stdio_output@@@__crt_stdio_output@@CA?AW4parameter_type@12@I@Z 1006e460 f i libucrtd:output.obj
 0001:0006d470       ?get_parameter_type@?$positional_parameter_base@DV?$string_output_adapter@D@__crt_stdio_output@@@__crt_stdio_output@@CA?AW4parameter_type@12@U_CRT_DOUBLE@@@Z 1006e470 f i libucrtd:output.obj
 0001:0006d480       ?get_parameter_type@?$positional_parameter_base@DV?$string_output_adapter@D@__crt_stdio_output@@@__crt_stdio_output@@CA?AW4parameter_type@12@_J@Z 1006e480 f i libucrtd:output.obj
 0001:0006d490       ?get_parameter_type@?$positional_parameter_base@DV?$string_output_adapter@D@__crt_stdio_output@@@__crt_stdio_output@@CA?AW4parameter_type@12@_K@Z 1006e490 f i libucrtd:output.obj
 0001:0006d4a0       ?get_parameter_type@?$positional_parameter_base@DV?$string_output_adapter@D@__crt_stdio_output@@@__crt_stdio_output@@CA?AW4parameter_type@12@_W@Z 1006e4a0 f i libucrtd:output.obj
 0001:0006d4b0       ?get_parameter_type@?$positional_parameter_base@_WV?$stream_output_adapter@_W@__crt_stdio_output@@@__crt_stdio_output@@CA?AW4parameter_type@12@F@Z 1006e4b0 f i libucrtd:output.obj
 0001:0006d4c0       ?get_parameter_type@?$positional_parameter_base@_WV?$stream_output_adapter@_W@__crt_stdio_output@@@__crt_stdio_output@@CA?AW4parameter_type@12@G@Z 1006e4c0 f i libucrtd:output.obj
 0001:0006d4d0       ?get_parameter_type@?$positional_parameter_base@_WV?$stream_output_adapter@_W@__crt_stdio_output@@@__crt_stdio_output@@CA?AW4parameter_type@12@H@Z 1006e4d0 f i libucrtd:output.obj
 0001:0006d4e0       ?get_parameter_type@?$positional_parameter_base@_WV?$stream_output_adapter@_W@__crt_stdio_output@@@__crt_stdio_output@@CA?AW4parameter_type@12@I@Z 1006e4e0 f i libucrtd:output.obj
 0001:0006d4f0       ?get_parameter_type@?$positional_parameter_base@_WV?$stream_output_adapter@_W@__crt_stdio_output@@@__crt_stdio_output@@CA?AW4parameter_type@12@U_CRT_DOUBLE@@@Z 1006e4f0 f i libucrtd:output.obj
 0001:0006d500       ?get_parameter_type@?$positional_parameter_base@_WV?$stream_output_adapter@_W@__crt_stdio_output@@@__crt_stdio_output@@CA?AW4parameter_type@12@_J@Z 1006e500 f i libucrtd:output.obj
 0001:0006d510       ?get_parameter_type@?$positional_parameter_base@_WV?$stream_output_adapter@_W@__crt_stdio_output@@@__crt_stdio_output@@CA?AW4parameter_type@12@_K@Z 1006e510 f i libucrtd:output.obj
 0001:0006d520       ?get_parameter_type@?$positional_parameter_base@_WV?$stream_output_adapter@_W@__crt_stdio_output@@@__crt_stdio_output@@CA?AW4parameter_type@12@_W@Z 1006e520 f i libucrtd:output.obj
 0001:0006d530       ?get_parameter_type@?$positional_parameter_base@_WV?$string_output_adapter@_W@__crt_stdio_output@@@__crt_stdio_output@@CA?AW4parameter_type@12@F@Z 1006e530 f i libucrtd:output.obj
 0001:0006d540       ?get_parameter_type@?$positional_parameter_base@_WV?$string_output_adapter@_W@__crt_stdio_output@@@__crt_stdio_output@@CA?AW4parameter_type@12@G@Z 1006e540 f i libucrtd:output.obj
 0001:0006d550       ?get_parameter_type@?$positional_parameter_base@_WV?$string_output_adapter@_W@__crt_stdio_output@@@__crt_stdio_output@@CA?AW4parameter_type@12@H@Z 1006e550 f i libucrtd:output.obj
 0001:0006d560       ?get_parameter_type@?$positional_parameter_base@_WV?$string_output_adapter@_W@__crt_stdio_output@@@__crt_stdio_output@@CA?AW4parameter_type@12@I@Z 1006e560 f i libucrtd:output.obj
 0001:0006d570       ?get_parameter_type@?$positional_parameter_base@_WV?$string_output_adapter@_W@__crt_stdio_output@@@__crt_stdio_output@@CA?AW4parameter_type@12@U_CRT_DOUBLE@@@Z 1006e570 f i libucrtd:output.obj
 0001:0006d580       ?get_parameter_type@?$positional_parameter_base@_WV?$string_output_adapter@_W@__crt_stdio_output@@@__crt_stdio_output@@CA?AW4parameter_type@12@_J@Z 1006e580 f i libucrtd:output.obj
 0001:0006d590       ?get_parameter_type@?$positional_parameter_base@_WV?$string_output_adapter@_W@__crt_stdio_output@@@__crt_stdio_output@@CA?AW4parameter_type@12@_K@Z 1006e590 f i libucrtd:output.obj
 0001:0006d5a0       ?get_parameter_type@?$positional_parameter_base@_WV?$string_output_adapter@_W@__crt_stdio_output@@@__crt_stdio_output@@CA?AW4parameter_type@12@_W@Z 1006e5a0 f i libucrtd:output.obj
 0001:0006d5b0       ?has_flag@?$output_processor@DV?$stream_output_adapter@D@__crt_stdio_output@@V?$format_validation_base@DV?$stream_output_adapter@D@__crt_stdio_output@@@2@@__crt_stdio_output@@ABE_NI@Z 1006e5b0 f i libucrtd:output.obj
 0001:0006d5f0       ?has_flag@?$output_processor@DV?$stream_output_adapter@D@__crt_stdio_output@@V?$positional_parameter_base@DV?$stream_output_adapter@D@__crt_stdio_output@@@2@@__crt_stdio_output@@ABE_NI@Z 1006e5f0 f i libucrtd:output.obj
 0001:0006d630       ?has_flag@?$output_processor@DV?$stream_output_adapter@D@__crt_stdio_output@@V?$standard_base@DV?$stream_output_adapter@D@__crt_stdio_output@@@2@@__crt_stdio_output@@ABE_NI@Z 1006e630 f i libucrtd:output.obj
 0001:0006d670       ?has_flag@?$output_processor@DV?$string_output_adapter@D@__crt_stdio_output@@V?$format_validation_base@DV?$string_output_adapter@D@__crt_stdio_output@@@2@@__crt_stdio_output@@ABE_NI@Z 1006e670 f i libucrtd:output.obj
 0001:0006d6b0       ?has_flag@?$output_processor@DV?$string_output_adapter@D@__crt_stdio_output@@V?$positional_parameter_base@DV?$string_output_adapter@D@__crt_stdio_output@@@2@@__crt_stdio_output@@ABE_NI@Z 1006e6b0 f i libucrtd:output.obj
 0001:0006d6f0       ?has_flag@?$output_processor@DV?$string_output_adapter@D@__crt_stdio_output@@V?$standard_base@DV?$string_output_adapter@D@__crt_stdio_output@@@2@@__crt_stdio_output@@ABE_NI@Z 1006e6f0 f i libucrtd:output.obj
 0001:0006d730       ?has_flag@?$output_processor@_WV?$stream_output_adapter@_W@__crt_stdio_output@@V?$format_validation_base@_WV?$stream_output_adapter@_W@__crt_stdio_output@@@2@@__crt_stdio_output@@ABE_NI@Z 1006e730 f i libucrtd:output.obj
 0001:0006d770       ?has_flag@?$output_processor@_WV?$stream_output_adapter@_W@__crt_stdio_output@@V?$positional_parameter_base@_WV?$stream_output_adapter@_W@__crt_stdio_output@@@2@@__crt_stdio_output@@ABE_NI@Z 1006e770 f i libucrtd:output.obj
 0001:0006d7b0       ?has_flag@?$output_processor@_WV?$stream_output_adapter@_W@__crt_stdio_output@@V?$standard_base@_WV?$stream_output_adapter@_W@__crt_stdio_output@@@2@@__crt_stdio_output@@ABE_NI@Z 1006e7b0 f i libucrtd:output.obj
 0001:0006d7f0       ?has_flag@?$output_processor@_WV?$string_output_adapter@_W@__crt_stdio_output@@V?$format_validation_base@_WV?$string_output_adapter@_W@__crt_stdio_output@@@2@@__crt_stdio_output@@ABE_NI@Z 1006e7f0 f i libucrtd:output.obj
 0001:0006d830       ?has_flag@?$output_processor@_WV?$string_output_adapter@_W@__crt_stdio_output@@V?$positional_parameter_base@_WV?$string_output_adapter@_W@__crt_stdio_output@@@2@@__crt_stdio_output@@ABE_NI@Z 1006e830 f i libucrtd:output.obj
 0001:0006d870       ?has_flag@?$output_processor@_WV?$string_output_adapter@_W@__crt_stdio_output@@V?$standard_base@_WV?$string_output_adapter@_W@__crt_stdio_output@@@2@@__crt_stdio_output@@ABE_NI@Z 1006e870 f i libucrtd:output.obj
 0001:0006d8b0       ?is_positional_parameter_reappearance_consistent@?$positional_parameter_base@DV?$stream_output_adapter@D@__crt_stdio_output@@@__crt_stdio_output@@AAE_NABUparameter_data@12@W4parameter_type@12@DW4length_modifier@2@@Z 1006e8b0 f i libucrtd:output.obj
 0001:0006db60       ?is_positional_parameter_reappearance_consistent@?$positional_parameter_base@DV?$string_output_adapter@D@__crt_stdio_output@@@__crt_stdio_output@@AAE_NABUparameter_data@12@W4parameter_type@12@DW4length_modifier@2@@Z 1006eb60 f i libucrtd:output.obj
 0001:0006de10       ?is_positional_parameter_reappearance_consistent@?$positional_parameter_base@_WV?$stream_output_adapter@_W@__crt_stdio_output@@@__crt_stdio_output@@AAE_NABUparameter_data@12@W4parameter_type@12@_WW4length_modifier@2@@Z 1006ee10 f i libucrtd:output.obj
 0001:0006e0c0       ?is_positional_parameter_reappearance_consistent@?$positional_parameter_base@_WV?$string_output_adapter@_W@__crt_stdio_output@@@__crt_stdio_output@@AAE_NABUparameter_data@12@W4parameter_type@12@_WW4length_modifier@2@@Z 1006f0c0 f i libucrtd:output.obj
 0001:0006e370       ?is_string_backed@__crt_stdio_stream@@QBE_NXZ 1006f370 f i libucrtd:output.obj
 0001:0006e3b0       ?narrow_null_string@?$output_processor@DV?$stream_output_adapter@D@__crt_stdio_output@@V?$format_validation_base@DV?$stream_output_adapter@D@__crt_stdio_output@@@2@@__crt_stdio_output@@CAPADXZ 1006f3b0 f i libucrtd:output.obj
 0001:0006e3c0       ?narrow_null_string@?$output_processor@DV?$stream_output_adapter@D@__crt_stdio_output@@V?$positional_parameter_base@DV?$stream_output_adapter@D@__crt_stdio_output@@@2@@__crt_stdio_output@@CAPADXZ 1006f3c0 f i libucrtd:output.obj
 0001:0006e3d0       ?narrow_null_string@?$output_processor@DV?$stream_output_adapter@D@__crt_stdio_output@@V?$standard_base@DV?$stream_output_adapter@D@__crt_stdio_output@@@2@@__crt_stdio_output@@CAPADXZ 1006f3d0 f i libucrtd:output.obj
 0001:0006e3e0       ?narrow_null_string@?$output_processor@DV?$string_output_adapter@D@__crt_stdio_output@@V?$format_validation_base@DV?$string_output_adapter@D@__crt_stdio_output@@@2@@__crt_stdio_output@@CAPADXZ 1006f3e0 f i libucrtd:output.obj
 0001:0006e3f0       ?narrow_null_string@?$output_processor@DV?$string_output_adapter@D@__crt_stdio_output@@V?$positional_parameter_base@DV?$string_output_adapter@D@__crt_stdio_output@@@2@@__crt_stdio_output@@CAPADXZ 1006f3f0 f i libucrtd:output.obj
 0001:0006e400       ?narrow_null_string@?$output_processor@DV?$string_output_adapter@D@__crt_stdio_output@@V?$standard_base@DV?$string_output_adapter@D@__crt_stdio_output@@@2@@__crt_stdio_output@@CAPADXZ 1006f400 f i libucrtd:output.obj
 0001:0006e410       ?narrow_null_string@?$output_processor@_WV?$stream_output_adapter@_W@__crt_stdio_output@@V?$format_validation_base@_WV?$stream_output_adapter@_W@__crt_stdio_output@@@2@@__crt_stdio_output@@CAPADXZ 1006f410 f i libucrtd:output.obj
 0001:0006e420       ?narrow_null_string@?$output_processor@_WV?$stream_output_adapter@_W@__crt_stdio_output@@V?$positional_parameter_base@_WV?$stream_output_adapter@_W@__crt_stdio_output@@@2@@__crt_stdio_output@@CAPADXZ 1006f420 f i libucrtd:output.obj
 0001:0006e430       ?narrow_null_string@?$output_processor@_WV?$stream_output_adapter@_W@__crt_stdio_output@@V?$standard_base@_WV?$stream_output_adapter@_W@__crt_stdio_output@@@2@@__crt_stdio_output@@CAPADXZ 1006f430 f i libucrtd:output.obj
 0001:0006e440       ?narrow_null_string@?$output_processor@_WV?$string_output_adapter@_W@__crt_stdio_output@@V?$format_validation_base@_WV?$string_output_adapter@_W@__crt_stdio_output@@@2@@__crt_stdio_output@@CAPADXZ 1006f440 f i libucrtd:output.obj
 0001:0006e450       ?narrow_null_string@?$output_processor@_WV?$string_output_adapter@_W@__crt_stdio_output@@V?$positional_parameter_base@_WV?$string_output_adapter@_W@__crt_stdio_output@@@2@@__crt_stdio_output@@CAPADXZ 1006f450 f i libucrtd:output.obj
 0001:0006e460       ?narrow_null_string@?$output_processor@_WV?$string_output_adapter@_W@__crt_stdio_output@@V?$standard_base@_WV?$string_output_adapter@_W@__crt_stdio_output@@@2@@__crt_stdio_output@@CAPADXZ 1006f460 f i libucrtd:output.obj
 0001:0006e470       ?parse_int_from_format_string@?$output_processor@DV?$stream_output_adapter@D@__crt_stdio_output@@V?$format_validation_base@DV?$stream_output_adapter@D@__crt_stdio_output@@@2@@__crt_stdio_output@@AAE_NQAH@Z 1006f470 f i libucrtd:output.obj
 0001:0006e550       ?parse_int_from_format_string@?$output_processor@DV?$stream_output_adapter@D@__crt_stdio_output@@V?$positional_parameter_base@DV?$stream_output_adapter@D@__crt_stdio_output@@@2@@__crt_stdio_output@@AAE_NQAH@Z 1006f550 f i libucrtd:output.obj
 0001:0006e630       ?parse_int_from_format_string@?$output_processor@DV?$stream_output_adapter@D@__crt_stdio_output@@V?$standard_base@DV?$stream_output_adapter@D@__crt_stdio_output@@@2@@__crt_stdio_output@@AAE_NQAH@Z 1006f630 f i libucrtd:output.obj
 0001:0006e710       ?parse_int_from_format_string@?$output_processor@DV?$string_output_adapter@D@__crt_stdio_output@@V?$format_validation_base@DV?$string_output_adapter@D@__crt_stdio_output@@@2@@__crt_stdio_output@@AAE_NQAH@Z 1006f710 f i libucrtd:output.obj
 0001:0006e7f0       ?parse_int_from_format_string@?$output_processor@DV?$string_output_adapter@D@__crt_stdio_output@@V?$positional_parameter_base@DV?$string_output_adapter@D@__crt_stdio_output@@@2@@__crt_stdio_output@@AAE_NQAH@Z 1006f7f0 f i libucrtd:output.obj
 0001:0006e8d0       ?parse_int_from_format_string@?$output_processor@DV?$string_output_adapter@D@__crt_stdio_output@@V?$standard_base@DV?$string_output_adapter@D@__crt_stdio_output@@@2@@__crt_stdio_output@@AAE_NQAH@Z 1006f8d0 f i libucrtd:output.obj
 0001:0006e9b0       ?parse_int_from_format_string@?$output_processor@_WV?$stream_output_adapter@_W@__crt_stdio_output@@V?$format_validation_base@_WV?$stream_output_adapter@_W@__crt_stdio_output@@@2@@__crt_stdio_output@@AAE_NQAH@Z 1006f9b0 f i libucrtd:output.obj
 0001:0006ea90       ?parse_int_from_format_string@?$output_processor@_WV?$stream_output_adapter@_W@__crt_stdio_output@@V?$positional_parameter_base@_WV?$stream_output_adapter@_W@__crt_stdio_output@@@2@@__crt_stdio_output@@AAE_NQAH@Z 1006fa90 f i libucrtd:output.obj
 0001:0006eb70       ?parse_int_from_format_string@?$output_processor@_WV?$stream_output_adapter@_W@__crt_stdio_output@@V?$standard_base@_WV?$stream_output_adapter@_W@__crt_stdio_output@@@2@@__crt_stdio_output@@AAE_NQAH@Z 1006fb70 f i libucrtd:output.obj
 0001:0006ec50       ?parse_int_from_format_string@?$output_processor@_WV?$string_output_adapter@_W@__crt_stdio_output@@V?$format_validation_base@_WV?$string_output_adapter@_W@__crt_stdio_output@@@2@@__crt_stdio_output@@AAE_NQAH@Z 1006fc50 f i libucrtd:output.obj
 0001:0006ed30       ?parse_int_from_format_string@?$output_processor@_WV?$string_output_adapter@_W@__crt_stdio_output@@V?$positional_parameter_base@_WV?$string_output_adapter@_W@__crt_stdio_output@@@2@@__crt_stdio_output@@AAE_NQAH@Z 1006fd30 f i libucrtd:output.obj
 0001:0006ee10       ?parse_int_from_format_string@?$output_processor@_WV?$string_output_adapter@_W@__crt_stdio_output@@V?$standard_base@_WV?$string_output_adapter@_W@__crt_stdio_output@@@2@@__crt_stdio_output@@AAE_NQAH@Z 1006fe10 f i libucrtd:output.obj
 0001:0006eef0       ?process@?$output_processor@DV?$stream_output_adapter@D@__crt_stdio_output@@V?$format_validation_base@DV?$stream_output_adapter@D@__crt_stdio_output@@@2@@__crt_stdio_output@@QAEHXZ 1006fef0 f i libucrtd:output.obj
 0001:0006f240       ?process@?$output_processor@DV?$stream_output_adapter@D@__crt_stdio_output@@V?$positional_parameter_base@DV?$stream_output_adapter@D@__crt_stdio_output@@@2@@__crt_stdio_output@@QAEHXZ 10070240 f i libucrtd:output.obj
 0001:0006f590       ?process@?$output_processor@DV?$stream_output_adapter@D@__crt_stdio_output@@V?$standard_base@DV?$stream_output_adapter@D@__crt_stdio_output@@@2@@__crt_stdio_output@@QAEHXZ 10070590 f i libucrtd:output.obj
 0001:0006f8e0       ?process@?$output_processor@DV?$string_output_adapter@D@__crt_stdio_output@@V?$format_validation_base@DV?$string_output_adapter@D@__crt_stdio_output@@@2@@__crt_stdio_output@@QAEHXZ 100708e0 f i libucrtd:output.obj
 0001:0006fc30       ?process@?$output_processor@DV?$string_output_adapter@D@__crt_stdio_output@@V?$positional_parameter_base@DV?$string_output_adapter@D@__crt_stdio_output@@@2@@__crt_stdio_output@@QAEHXZ 10070c30 f i libucrtd:output.obj
 0001:0006ff80       ?process@?$output_processor@DV?$string_output_adapter@D@__crt_stdio_output@@V?$standard_base@DV?$string_output_adapter@D@__crt_stdio_output@@@2@@__crt_stdio_output@@QAEHXZ 10070f80 f i libucrtd:output.obj
 0001:000702d0       ?process@?$output_processor@_WV?$stream_output_adapter@_W@__crt_stdio_output@@V?$format_validation_base@_WV?$stream_output_adapter@_W@__crt_stdio_output@@@2@@__crt_stdio_output@@QAEHXZ 100712d0 f i libucrtd:output.obj
 0001:00070620       ?process@?$output_processor@_WV?$stream_output_adapter@_W@__crt_stdio_output@@V?$positional_parameter_base@_WV?$stream_output_adapter@_W@__crt_stdio_output@@@2@@__crt_stdio_output@@QAEHXZ 10071620 f i libucrtd:output.obj
 0001:00070970       ?process@?$output_processor@_WV?$stream_output_adapter@_W@__crt_stdio_output@@V?$standard_base@_WV?$stream_output_adapter@_W@__crt_stdio_output@@@2@@__crt_stdio_output@@QAEHXZ 10071970 f i libucrtd:output.obj
 0001:00070cc0       ?process@?$output_processor@_WV?$string_output_adapter@_W@__crt_stdio_output@@V?$format_validation_base@_WV?$string_output_adapter@_W@__crt_stdio_output@@@2@@__crt_stdio_output@@QAEHXZ 10071cc0 f i libucrtd:output.obj
 0001:00071010       ?process@?$output_processor@_WV?$string_output_adapter@_W@__crt_stdio_output@@V?$positional_parameter_base@_WV?$string_output_adapter@_W@__crt_stdio_output@@@2@@__crt_stdio_output@@QAEHXZ 10072010 f i libucrtd:output.obj
 0001:00071360       ?process@?$output_processor@_WV?$string_output_adapter@_W@__crt_stdio_output@@V?$standard_base@_WV?$string_output_adapter@_W@__crt_stdio_output@@@2@@__crt_stdio_output@@QAEHXZ 10072360 f i libucrtd:output.obj
 0001:000716b0       ?public_stream@__crt_stdio_stream@@QBEPAU_iobuf@@XZ 100726b0 f i libucrtd:output.obj
 0001:000716d0       ?set_flag@?$output_processor@DV?$stream_output_adapter@D@__crt_stdio_output@@V?$format_validation_base@DV?$stream_output_adapter@D@__crt_stdio_output@@@2@@__crt_stdio_output@@AAEXI@Z 100726d0 f i libucrtd:output.obj
 0001:00071700       ?set_flag@?$output_processor@DV?$stream_output_adapter@D@__crt_stdio_output@@V?$positional_parameter_base@DV?$stream_output_adapter@D@__crt_stdio_output@@@2@@__crt_stdio_output@@AAEXI@Z 10072700 f i libucrtd:output.obj
 0001:00071730       ?set_flag@?$output_processor@DV?$stream_output_adapter@D@__crt_stdio_output@@V?$standard_base@DV?$stream_output_adapter@D@__crt_stdio_output@@@2@@__crt_stdio_output@@AAEXI@Z 10072730 f i libucrtd:output.obj
 0001:00071760       ?set_flag@?$output_processor@DV?$string_output_adapter@D@__crt_stdio_output@@V?$format_validation_base@DV?$string_output_adapter@D@__crt_stdio_output@@@2@@__crt_stdio_output@@AAEXI@Z 10072760 f i libucrtd:output.obj
 0001:00071790       ?set_flag@?$output_processor@DV?$string_output_adapter@D@__crt_stdio_output@@V?$positional_parameter_base@DV?$string_output_adapter@D@__crt_stdio_output@@@2@@__crt_stdio_output@@AAEXI@Z 10072790 f i libucrtd:output.obj
 0001:000717c0       ?set_flag@?$output_processor@DV?$string_output_adapter@D@__crt_stdio_output@@V?$standard_base@DV?$string_output_adapter@D@__crt_stdio_output@@@2@@__crt_stdio_output@@AAEXI@Z 100727c0 f i libucrtd:output.obj
 0001:000717f0       ?set_flag@?$output_processor@_WV?$stream_output_adapter@_W@__crt_stdio_output@@V?$format_validation_base@_WV?$stream_output_adapter@_W@__crt_stdio_output@@@2@@__crt_stdio_output@@AAEXI@Z 100727f0 f i libucrtd:output.obj
 0001:00071820       ?set_flag@?$output_processor@_WV?$stream_output_adapter@_W@__crt_stdio_output@@V?$positional_parameter_base@_WV?$stream_output_adapter@_W@__crt_stdio_output@@@2@@__crt_stdio_output@@AAEXI@Z 10072820 f i libucrtd:output.obj
 0001:00071850       ?set_flag@?$output_processor@_WV?$stream_output_adapter@_W@__crt_stdio_output@@V?$standard_base@_WV?$stream_output_adapter@_W@__crt_stdio_output@@@2@@__crt_stdio_output@@AAEXI@Z 10072850 f i libucrtd:output.obj
 0001:00071880       ?set_flag@?$output_processor@_WV?$string_output_adapter@_W@__crt_stdio_output@@V?$format_validation_base@_WV?$string_output_adapter@_W@__crt_stdio_output@@@2@@__crt_stdio_output@@AAEXI@Z 10072880 f i libucrtd:output.obj
 0001:000718b0       ?set_flag@?$output_processor@_WV?$string_output_adapter@_W@__crt_stdio_output@@V?$positional_parameter_base@_WV?$string_output_adapter@_W@__crt_stdio_output@@@2@@__crt_stdio_output@@AAEXI@Z 100728b0 f i libucrtd:output.obj
 0001:000718e0       ?set_flag@?$output_processor@_WV?$string_output_adapter@_W@__crt_stdio_output@@V?$standard_base@_WV?$string_output_adapter@_W@__crt_stdio_output@@@2@@__crt_stdio_output@@AAEXI@Z 100728e0 f i libucrtd:output.obj
 0001:00071910       ?should_format@?$positional_parameter_base@DV?$stream_output_adapter@D@__crt_stdio_output@@@__crt_stdio_output@@IAE_NXZ 10072910 f i libucrtd:output.obj
 0001:00071960       ?should_format@?$positional_parameter_base@DV?$string_output_adapter@D@__crt_stdio_output@@@__crt_stdio_output@@IAE_NXZ 10072960 f i libucrtd:output.obj
 0001:000719b0       ?should_format@?$positional_parameter_base@_WV?$stream_output_adapter@_W@__crt_stdio_output@@@__crt_stdio_output@@IAE_NXZ 100729b0 f i libucrtd:output.obj
 0001:00071a00       ?should_format@?$positional_parameter_base@_WV?$string_output_adapter@_W@__crt_stdio_output@@@__crt_stdio_output@@IAE_NXZ 10072a00 f i libucrtd:output.obj
 0001:00071a50       ?should_format@?$standard_base@DV?$stream_output_adapter@D@__crt_stdio_output@@@__crt_stdio_output@@IAE_NXZ 10072a50 f i libucrtd:output.obj
 0001:00071a70       ?should_format@?$standard_base@DV?$string_output_adapter@D@__crt_stdio_output@@@__crt_stdio_output@@IAE_NXZ 10072a70 f i libucrtd:output.obj
 0001:00071a90       ?should_format@?$standard_base@_WV?$stream_output_adapter@_W@__crt_stdio_output@@@__crt_stdio_output@@IAE_NXZ 10072a90 f i libucrtd:output.obj
 0001:00071ab0       ?should_format@?$standard_base@_WV?$string_output_adapter@_W@__crt_stdio_output@@@__crt_stdio_output@@IAE_NXZ 10072ab0 f i libucrtd:output.obj
 0001:00071ad0       ?should_skip_normal_state_processing@?$positional_parameter_base@DV?$stream_output_adapter@D@__crt_stdio_output@@@__crt_stdio_output@@IAE_NXZ 10072ad0 f i libucrtd:output.obj
 0001:00071b30       ?should_skip_normal_state_processing@?$positional_parameter_base@DV?$string_output_adapter@D@__crt_stdio_output@@@__crt_stdio_output@@IAE_NXZ 10072b30 f i libucrtd:output.obj
 0001:00071b90       ?should_skip_normal_state_processing@?$positional_parameter_base@_WV?$stream_output_adapter@_W@__crt_stdio_output@@@__crt_stdio_output@@IAE_NXZ 10072b90 f i libucrtd:output.obj
 0001:00071bf0       ?should_skip_normal_state_processing@?$positional_parameter_base@_WV?$string_output_adapter@_W@__crt_stdio_output@@@__crt_stdio_output@@IAE_NXZ 10072bf0 f i libucrtd:output.obj
 0001:00071c50       ?should_skip_normal_state_processing@?$standard_base@DV?$stream_output_adapter@D@__crt_stdio_output@@@__crt_stdio_output@@IAE_NXZ 10072c50 f i libucrtd:output.obj
 0001:00071c70       ?should_skip_normal_state_processing@?$standard_base@DV?$string_output_adapter@D@__crt_stdio_output@@@__crt_stdio_output@@IAE_NXZ 10072c70 f i libucrtd:output.obj
 0001:00071c90       ?should_skip_normal_state_processing@?$standard_base@_WV?$stream_output_adapter@_W@__crt_stdio_output@@@__crt_stdio_output@@IAE_NXZ 10072c90 f i libucrtd:output.obj
 0001:00071cb0       ?should_skip_normal_state_processing@?$standard_base@_WV?$string_output_adapter@_W@__crt_stdio_output@@@__crt_stdio_output@@IAE_NXZ 10072cb0 f i libucrtd:output.obj
 0001:00071cd0       ?should_skip_type_state_output@?$positional_parameter_base@DV?$stream_output_adapter@D@__crt_stdio_output@@@__crt_stdio_output@@IBE_NXZ 10072cd0 f i libucrtd:output.obj
 0001:00071d20       ?should_skip_type_state_output@?$positional_parameter_base@DV?$string_output_adapter@D@__crt_stdio_output@@@__crt_stdio_output@@IBE_NXZ 10072d20 f i libucrtd:output.obj
 0001:00071d70       ?should_skip_type_state_output@?$positional_parameter_base@_WV?$stream_output_adapter@_W@__crt_stdio_output@@@__crt_stdio_output@@IBE_NXZ 10072d70 f i libucrtd:output.obj
 0001:00071dc0       ?should_skip_type_state_output@?$positional_parameter_base@_WV?$string_output_adapter@_W@__crt_stdio_output@@@__crt_stdio_output@@IBE_NXZ 10072dc0 f i libucrtd:output.obj
 0001:00071e10       ?should_skip_type_state_output@?$standard_base@DV?$stream_output_adapter@D@__crt_stdio_output@@@__crt_stdio_output@@IBE_NXZ 10072e10 f i libucrtd:output.obj
 0001:00071e30       ?should_skip_type_state_output@?$standard_base@DV?$string_output_adapter@D@__crt_stdio_output@@@__crt_stdio_output@@IBE_NXZ 10072e30 f i libucrtd:output.obj
 0001:00071e50       ?should_skip_type_state_output@?$standard_base@_WV?$stream_output_adapter@_W@__crt_stdio_output@@@__crt_stdio_output@@IBE_NXZ 10072e50 f i libucrtd:output.obj
 0001:00071e70       ?should_skip_type_state_output@?$standard_base@_WV?$string_output_adapter@_W@__crt_stdio_output@@@__crt_stdio_output@@IBE_NXZ 10072e70 f i libucrtd:output.obj
 0001:00071e90       ?state_case_dot@?$output_processor@DV?$stream_output_adapter@D@__crt_stdio_output@@V?$format_validation_base@DV?$stream_output_adapter@D@__crt_stdio_output@@@2@@__crt_stdio_output@@AAE_NXZ 10072e90 f i libucrtd:output.obj
 0001:00071eb0       ?state_case_dot@?$output_processor@DV?$stream_output_adapter@D@__crt_stdio_output@@V?$positional_parameter_base@DV?$stream_output_adapter@D@__crt_stdio_output@@@2@@__crt_stdio_output@@AAE_NXZ 10072eb0 f i libucrtd:output.obj
 0001:00071ed0       ?state_case_dot@?$output_processor@DV?$stream_output_adapter@D@__crt_stdio_output@@V?$standard_base@DV?$stream_output_adapter@D@__crt_stdio_output@@@2@@__crt_stdio_output@@AAE_NXZ 10072ed0 f i libucrtd:output.obj
 0001:00071ef0       ?state_case_dot@?$output_processor@DV?$string_output_adapter@D@__crt_stdio_output@@V?$format_validation_base@DV?$string_output_adapter@D@__crt_stdio_output@@@2@@__crt_stdio_output@@AAE_NXZ 10072ef0 f i libucrtd:output.obj
 0001:00071f10       ?state_case_dot@?$output_processor@DV?$string_output_adapter@D@__crt_stdio_output@@V?$positional_parameter_base@DV?$string_output_adapter@D@__crt_stdio_output@@@2@@__crt_stdio_output@@AAE_NXZ 10072f10 f i libucrtd:output.obj
 0001:00071f30       ?state_case_dot@?$output_processor@DV?$string_output_adapter@D@__crt_stdio_output@@V?$standard_base@DV?$string_output_adapter@D@__crt_stdio_output@@@2@@__crt_stdio_output@@AAE_NXZ 10072f30 f i libucrtd:output.obj
 0001:00071f50       ?state_case_dot@?$output_processor@_WV?$stream_output_adapter@_W@__crt_stdio_output@@V?$format_validation_base@_WV?$stream_output_adapter@_W@__crt_stdio_output@@@2@@__crt_stdio_output@@AAE_NXZ 10072f50 f i libucrtd:output.obj
 0001:00071f70       ?state_case_dot@?$output_processor@_WV?$stream_output_adapter@_W@__crt_stdio_output@@V?$positional_parameter_base@_WV?$stream_output_adapter@_W@__crt_stdio_output@@@2@@__crt_stdio_output@@AAE_NXZ 10072f70 f i libucrtd:output.obj
 0001:00071f90       ?state_case_dot@?$output_processor@_WV?$stream_output_adapter@_W@__crt_stdio_output@@V?$standard_base@_WV?$stream_output_adapter@_W@__crt_stdio_output@@@2@@__crt_stdio_output@@AAE_NXZ 10072f90 f i libucrtd:output.obj
 0001:00071fb0       ?state_case_dot@?$output_processor@_WV?$string_output_adapter@_W@__crt_stdio_output@@V?$format_validation_base@_WV?$string_output_adapter@_W@__crt_stdio_output@@@2@@__crt_stdio_output@@AAE_NXZ 10072fb0 f i libucrtd:output.obj
 0001:00071fd0       ?state_case_dot@?$output_processor@_WV?$string_output_adapter@_W@__crt_stdio_output@@V?$positional_parameter_base@_WV?$string_output_adapter@_W@__crt_stdio_output@@@2@@__crt_stdio_output@@AAE_NXZ 10072fd0 f i libucrtd:output.obj
 0001:00071ff0       ?state_case_dot@?$output_processor@_WV?$string_output_adapter@_W@__crt_stdio_output@@V?$standard_base@_WV?$string_output_adapter@_W@__crt_stdio_output@@@2@@__crt_stdio_output@@AAE_NXZ 10072ff0 f i libucrtd:output.obj
 0001:00072010       ?state_case_flag@?$output_processor@DV?$stream_output_adapter@D@__crt_stdio_output@@V?$format_validation_base@DV?$stream_output_adapter@D@__crt_stdio_output@@@2@@__crt_stdio_output@@AAE_NXZ 10073010 f i libucrtd:output.obj
 0001:000720e0       ?state_case_flag@?$output_processor@DV?$stream_output_adapter@D@__crt_stdio_output@@V?$positional_parameter_base@DV?$stream_output_adapter@D@__crt_stdio_output@@@2@@__crt_stdio_output@@AAE_NXZ 100730e0 f i libucrtd:output.obj
 0001:000721b0       ?state_case_flag@?$output_processor@DV?$stream_output_adapter@D@__crt_stdio_output@@V?$standard_base@DV?$stream_output_adapter@D@__crt_stdio_output@@@2@@__crt_stdio_output@@AAE_NXZ 100731b0 f i libucrtd:output.obj
 0001:00072280       ?state_case_flag@?$output_processor@DV?$string_output_adapter@D@__crt_stdio_output@@V?$format_validation_base@DV?$string_output_adapter@D@__crt_stdio_output@@@2@@__crt_stdio_output@@AAE_NXZ 10073280 f i libucrtd:output.obj
 0001:00072350       ?state_case_flag@?$output_processor@DV?$string_output_adapter@D@__crt_stdio_output@@V?$positional_parameter_base@DV?$string_output_adapter@D@__crt_stdio_output@@@2@@__crt_stdio_output@@AAE_NXZ 10073350 f i libucrtd:output.obj
 0001:00072420       ?state_case_flag@?$output_processor@DV?$string_output_adapter@D@__crt_stdio_output@@V?$standard_base@DV?$string_output_adapter@D@__crt_stdio_output@@@2@@__crt_stdio_output@@AAE_NXZ 10073420 f i libucrtd:output.obj
 0001:000724f0       ?state_case_flag@?$output_processor@_WV?$stream_output_adapter@_W@__crt_stdio_output@@V?$format_validation_base@_WV?$stream_output_adapter@_W@__crt_stdio_output@@@2@@__crt_stdio_output@@AAE_NXZ 100734f0 f i libucrtd:output.obj
 0001:000725c0       ?state_case_flag@?$output_processor@_WV?$stream_output_adapter@_W@__crt_stdio_output@@V?$positional_parameter_base@_WV?$stream_output_adapter@_W@__crt_stdio_output@@@2@@__crt_stdio_output@@AAE_NXZ 100735c0 f i libucrtd:output.obj
 0001:00072690       ?state_case_flag@?$output_processor@_WV?$stream_output_adapter@_W@__crt_stdio_output@@V?$standard_base@_WV?$stream_output_adapter@_W@__crt_stdio_output@@@2@@__crt_stdio_output@@AAE_NXZ 10073690 f i libucrtd:output.obj
 0001:00072760       ?state_case_flag@?$output_processor@_WV?$string_output_adapter@_W@__crt_stdio_output@@V?$format_validation_base@_WV?$string_output_adapter@_W@__crt_stdio_output@@@2@@__crt_stdio_output@@AAE_NXZ 10073760 f i libucrtd:output.obj
 0001:00072830       ?state_case_flag@?$output_processor@_WV?$string_output_adapter@_W@__crt_stdio_output@@V?$positional_parameter_base@_WV?$string_output_adapter@_W@__crt_stdio_output@@@2@@__crt_stdio_output@@AAE_NXZ 10073830 f i libucrtd:output.obj
 0001:00072900       ?state_case_flag@?$output_processor@_WV?$string_output_adapter@_W@__crt_stdio_output@@V?$standard_base@_WV?$string_output_adapter@_W@__crt_stdio_output@@@2@@__crt_stdio_output@@AAE_NXZ 10073900 f i libucrtd:output.obj
 0001:000729d0       ?state_case_normal@?$output_processor@DV?$stream_output_adapter@D@__crt_stdio_output@@V?$format_validation_base@DV?$stream_output_adapter@D@__crt_stdio_output@@@2@@__crt_stdio_output@@AAE_NXZ 100739d0 f i libucrtd:output.obj
 0001:00072ab0       ?state_case_normal@?$output_processor@DV?$stream_output_adapter@D@__crt_stdio_output@@V?$positional_parameter_base@DV?$stream_output_adapter@D@__crt_stdio_output@@@2@@__crt_stdio_output@@AAE_NXZ 10073ab0 f i libucrtd:output.obj
 0001:00072b90       ?state_case_normal@?$output_processor@DV?$stream_output_adapter@D@__crt_stdio_output@@V?$standard_base@DV?$stream_output_adapter@D@__crt_stdio_output@@@2@@__crt_stdio_output@@AAE_NXZ 10073b90 f i libucrtd:output.obj
 0001:00072c70       ?state_case_normal@?$output_processor@DV?$string_output_adapter@D@__crt_stdio_output@@V?$format_validation_base@DV?$string_output_adapter@D@__crt_stdio_output@@@2@@__crt_stdio_output@@AAE_NXZ 10073c70 f i libucrtd:output.obj
 0001:00072d50       ?state_case_normal@?$output_processor@DV?$string_output_adapter@D@__crt_stdio_output@@V?$positional_parameter_base@DV?$string_output_adapter@D@__crt_stdio_output@@@2@@__crt_stdio_output@@AAE_NXZ 10073d50 f i libucrtd:output.obj
 0001:00072e30       ?state_case_normal@?$output_processor@DV?$string_output_adapter@D@__crt_stdio_output@@V?$standard_base@DV?$string_output_adapter@D@__crt_stdio_output@@@2@@__crt_stdio_output@@AAE_NXZ 10073e30 f i libucrtd:output.obj
 0001:00072f10       ?state_case_normal@?$output_processor@_WV?$stream_output_adapter@_W@__crt_stdio_output@@V?$format_validation_base@_WV?$stream_output_adapter@_W@__crt_stdio_output@@@2@@__crt_stdio_output@@AAE_NXZ 10073f10 f i libucrtd:output.obj
 0001:00072ff0       ?state_case_normal@?$output_processor@_WV?$stream_output_adapter@_W@__crt_stdio_output@@V?$positional_parameter_base@_WV?$stream_output_adapter@_W@__crt_stdio_output@@@2@@__crt_stdio_output@@AAE_NXZ 10073ff0 f i libucrtd:output.obj
 0001:000730d0       ?state_case_normal@?$output_processor@_WV?$stream_output_adapter@_W@__crt_stdio_output@@V?$standard_base@_WV?$stream_output_adapter@_W@__crt_stdio_output@@@2@@__crt_stdio_output@@AAE_NXZ 100740d0 f i libucrtd:output.obj
 0001:000731b0       ?state_case_normal@?$output_processor@_WV?$string_output_adapter@_W@__crt_stdio_output@@V?$format_validation_base@_WV?$string_output_adapter@_W@__crt_stdio_output@@@2@@__crt_stdio_output@@AAE_NXZ 100741b0 f i libucrtd:output.obj
 0001:00073290       ?state_case_normal@?$output_processor@_WV?$string_output_adapter@_W@__crt_stdio_output@@V?$positional_parameter_base@_WV?$string_output_adapter@_W@__crt_stdio_output@@@2@@__crt_stdio_output@@AAE_NXZ 10074290 f i libucrtd:output.obj
 0001:00073370       ?state_case_normal@?$output_processor@_WV?$string_output_adapter@_W@__crt_stdio_output@@V?$standard_base@_WV?$string_output_adapter@_W@__crt_stdio_output@@@2@@__crt_stdio_output@@AAE_NXZ 10074370 f i libucrtd:output.obj
 0001:00073450       ?state_case_normal_common@?$output_processor@DV?$stream_output_adapter@D@__crt_stdio_output@@V?$format_validation_base@DV?$stream_output_adapter@D@__crt_stdio_output@@@2@@__crt_stdio_output@@AAE_NXZ 10074450 f i libucrtd:output.obj
 0001:000734b0       ?state_case_normal_common@?$output_processor@DV?$stream_output_adapter@D@__crt_stdio_output@@V?$positional_parameter_base@DV?$stream_output_adapter@D@__crt_stdio_output@@@2@@__crt_stdio_output@@AAE_NXZ 100744b0 f i libucrtd:output.obj
 0001:00073510       ?state_case_normal_common@?$output_processor@DV?$stream_output_adapter@D@__crt_stdio_output@@V?$standard_base@DV?$stream_output_adapter@D@__crt_stdio_output@@@2@@__crt_stdio_output@@AAE_NXZ 10074510 f i libucrtd:output.obj
 0001:00073570       ?state_case_normal_common@?$output_processor@DV?$string_output_adapter@D@__crt_stdio_output@@V?$format_validation_base@DV?$string_output_adapter@D@__crt_stdio_output@@@2@@__crt_stdio_output@@AAE_NXZ 10074570 f i libucrtd:output.obj
 0001:000735d0       ?state_case_normal_common@?$output_processor@DV?$string_output_adapter@D@__crt_stdio_output@@V?$positional_parameter_base@DV?$string_output_adapter@D@__crt_stdio_output@@@2@@__crt_stdio_output@@AAE_NXZ 100745d0 f i libucrtd:output.obj
 0001:00073630       ?state_case_normal_common@?$output_processor@DV?$string_output_adapter@D@__crt_stdio_output@@V?$standard_base@DV?$string_output_adapter@D@__crt_stdio_output@@@2@@__crt_stdio_output@@AAE_NXZ 10074630 f i libucrtd:output.obj
 0001:00073690       ?state_case_normal_common@?$output_processor@_WV?$stream_output_adapter@_W@__crt_stdio_output@@V?$format_validation_base@_WV?$stream_output_adapter@_W@__crt_stdio_output@@@2@@__crt_stdio_output@@AAE_NXZ 10074690 f i libucrtd:output.obj
 0001:000736f0       ?state_case_normal_common@?$output_processor@_WV?$stream_output_adapter@_W@__crt_stdio_output@@V?$positional_parameter_base@_WV?$stream_output_adapter@_W@__crt_stdio_output@@@2@@__crt_stdio_output@@AAE_NXZ 100746f0 f i libucrtd:output.obj
 0001:00073750       ?state_case_normal_common@?$output_processor@_WV?$stream_output_adapter@_W@__crt_stdio_output@@V?$standard_base@_WV?$stream_output_adapter@_W@__crt_stdio_output@@@2@@__crt_stdio_output@@AAE_NXZ 10074750 f i libucrtd:output.obj
 0001:000737b0       ?state_case_normal_common@?$output_processor@_WV?$string_output_adapter@_W@__crt_stdio_output@@V?$format_validation_base@_WV?$string_output_adapter@_W@__crt_stdio_output@@@2@@__crt_stdio_output@@AAE_NXZ 100747b0 f i libucrtd:output.obj
 0001:00073810       ?state_case_normal_common@?$output_processor@_WV?$string_output_adapter@_W@__crt_stdio_output@@V?$positional_parameter_base@_WV?$string_output_adapter@_W@__crt_stdio_output@@@2@@__crt_stdio_output@@AAE_NXZ 10074810 f i libucrtd:output.obj
 0001:00073870       ?state_case_normal_common@?$output_processor@_WV?$string_output_adapter@_W@__crt_stdio_output@@V?$standard_base@_WV?$string_output_adapter@_W@__crt_stdio_output@@@2@@__crt_stdio_output@@AAE_NXZ 10074870 f i libucrtd:output.obj
 0001:000738d0       ?state_case_normal_tchar@?$output_processor@DV?$stream_output_adapter@D@__crt_stdio_output@@V?$format_validation_base@DV?$stream_output_adapter@D@__crt_stdio_output@@@2@@__crt_stdio_output@@AAE_ND@Z 100748d0 f i libucrtd:output.obj
 0001:00073a00       ?state_case_normal_tchar@?$output_processor@DV?$stream_output_adapter@D@__crt_stdio_output@@V?$positional_parameter_base@DV?$stream_output_adapter@D@__crt_stdio_output@@@2@@__crt_stdio_output@@AAE_ND@Z 10074a00 f i libucrtd:output.obj
 0001:00073b30       ?state_case_normal_tchar@?$output_processor@DV?$stream_output_adapter@D@__crt_stdio_output@@V?$standard_base@DV?$stream_output_adapter@D@__crt_stdio_output@@@2@@__crt_stdio_output@@AAE_ND@Z 10074b30 f i libucrtd:output.obj
 0001:00073c60       ?state_case_normal_tchar@?$output_processor@DV?$string_output_adapter@D@__crt_stdio_output@@V?$format_validation_base@DV?$string_output_adapter@D@__crt_stdio_output@@@2@@__crt_stdio_output@@AAE_ND@Z 10074c60 f i libucrtd:output.obj
 0001:00073d90       ?state_case_normal_tchar@?$output_processor@DV?$string_output_adapter@D@__crt_stdio_output@@V?$positional_parameter_base@DV?$string_output_adapter@D@__crt_stdio_output@@@2@@__crt_stdio_output@@AAE_ND@Z 10074d90 f i libucrtd:output.obj
 0001:00073ec0       ?state_case_normal_tchar@?$output_processor@DV?$string_output_adapter@D@__crt_stdio_output@@V?$standard_base@DV?$string_output_adapter@D@__crt_stdio_output@@@2@@__crt_stdio_output@@AAE_ND@Z 10074ec0 f i libucrtd:output.obj
 0001:00073ff0       ?state_case_normal_tchar@?$output_processor@_WV?$stream_output_adapter@_W@__crt_stdio_output@@V?$format_validation_base@_WV?$stream_output_adapter@_W@__crt_stdio_output@@@2@@__crt_stdio_output@@AAE_N_W@Z 10074ff0 f i libucrtd:output.obj
 0001:00074010       ?state_case_normal_tchar@?$output_processor@_WV?$stream_output_adapter@_W@__crt_stdio_output@@V?$positional_parameter_base@_WV?$stream_output_adapter@_W@__crt_stdio_output@@@2@@__crt_stdio_output@@AAE_N_W@Z 10075010 f i libucrtd:output.obj
 0001:00074030       ?state_case_normal_tchar@?$output_processor@_WV?$stream_output_adapter@_W@__crt_stdio_output@@V?$standard_base@_WV?$stream_output_adapter@_W@__crt_stdio_output@@@2@@__crt_stdio_output@@AAE_N_W@Z 10075030 f i libucrtd:output.obj
 0001:00074050       ?state_case_normal_tchar@?$output_processor@_WV?$string_output_adapter@_W@__crt_stdio_output@@V?$format_validation_base@_WV?$string_output_adapter@_W@__crt_stdio_output@@@2@@__crt_stdio_output@@AAE_N_W@Z 10075050 f i libucrtd:output.obj
 0001:00074070       ?state_case_normal_tchar@?$output_processor@_WV?$string_output_adapter@_W@__crt_stdio_output@@V?$positional_parameter_base@_WV?$string_output_adapter@_W@__crt_stdio_output@@@2@@__crt_stdio_output@@AAE_N_W@Z 10075070 f i libucrtd:output.obj
 0001:00074090       ?state_case_normal_tchar@?$output_processor@_WV?$string_output_adapter@_W@__crt_stdio_output@@V?$standard_base@_WV?$string_output_adapter@_W@__crt_stdio_output@@@2@@__crt_stdio_output@@AAE_N_W@Z 10075090 f i libucrtd:output.obj
 0001:000740b0       ?state_case_percent@?$output_processor@DV?$stream_output_adapter@D@__crt_stdio_output@@V?$format_validation_base@DV?$stream_output_adapter@D@__crt_stdio_output@@@2@@__crt_stdio_output@@AAE_NXZ 100750b0 f i libucrtd:output.obj
 0001:00074110       ?state_case_percent@?$output_processor@DV?$stream_output_adapter@D@__crt_stdio_output@@V?$positional_parameter_base@DV?$stream_output_adapter@D@__crt_stdio_output@@@2@@__crt_stdio_output@@AAE_NXZ 10075110 f i libucrtd:output.obj
 0001:00074170       ?state_case_percent@?$output_processor@DV?$stream_output_adapter@D@__crt_stdio_output@@V?$standard_base@DV?$stream_output_adapter@D@__crt_stdio_output@@@2@@__crt_stdio_output@@AAE_NXZ 10075170 f i libucrtd:output.obj
 0001:000741d0       ?state_case_percent@?$output_processor@DV?$string_output_adapter@D@__crt_stdio_output@@V?$format_validation_base@DV?$string_output_adapter@D@__crt_stdio_output@@@2@@__crt_stdio_output@@AAE_NXZ 100751d0 f i libucrtd:output.obj
 0001:00074230       ?state_case_percent@?$output_processor@DV?$string_output_adapter@D@__crt_stdio_output@@V?$positional_parameter_base@DV?$string_output_adapter@D@__crt_stdio_output@@@2@@__crt_stdio_output@@AAE_NXZ 10075230 f i libucrtd:output.obj
 0001:00074290       ?state_case_percent@?$output_processor@DV?$string_output_adapter@D@__crt_stdio_output@@V?$standard_base@DV?$string_output_adapter@D@__crt_stdio_output@@@2@@__crt_stdio_output@@AAE_NXZ 10075290 f i libucrtd:output.obj
 0001:000742f0       ?state_case_percent@?$output_processor@_WV?$stream_output_adapter@_W@__crt_stdio_output@@V?$format_validation_base@_WV?$stream_output_adapter@_W@__crt_stdio_output@@@2@@__crt_stdio_output@@AAE_NXZ 100752f0 f i libucrtd:output.obj
 0001:00074350       ?state_case_percent@?$output_processor@_WV?$stream_output_adapter@_W@__crt_stdio_output@@V?$positional_parameter_base@_WV?$stream_output_adapter@_W@__crt_stdio_output@@@2@@__crt_stdio_output@@AAE_NXZ 10075350 f i libucrtd:output.obj
 0001:000743b0       ?state_case_percent@?$output_processor@_WV?$stream_output_adapter@_W@__crt_stdio_output@@V?$standard_base@_WV?$stream_output_adapter@_W@__crt_stdio_output@@@2@@__crt_stdio_output@@AAE_NXZ 100753b0 f i libucrtd:output.obj
 0001:00074410       ?state_case_percent@?$output_processor@_WV?$string_output_adapter@_W@__crt_stdio_output@@V?$format_validation_base@_WV?$string_output_adapter@_W@__crt_stdio_output@@@2@@__crt_stdio_output@@AAE_NXZ 10075410 f i libucrtd:output.obj
 0001:00074470       ?state_case_percent@?$output_processor@_WV?$string_output_adapter@_W@__crt_stdio_output@@V?$positional_parameter_base@_WV?$string_output_adapter@_W@__crt_stdio_output@@@2@@__crt_stdio_output@@AAE_NXZ 10075470 f i libucrtd:output.obj
 0001:000744d0       ?state_case_percent@?$output_processor@_WV?$string_output_adapter@_W@__crt_stdio_output@@V?$standard_base@_WV?$string_output_adapter@_W@__crt_stdio_output@@@2@@__crt_stdio_output@@AAE_NXZ 100754d0 f i libucrtd:output.obj
 0001:00074530       ?state_case_precision@?$output_processor@DV?$stream_output_adapter@D@__crt_stdio_output@@V?$format_validation_base@DV?$stream_output_adapter@D@__crt_stdio_output@@@2@@__crt_stdio_output@@AAE_NXZ 10075530 f i libucrtd:output.obj
 0001:000745b0       ?state_case_precision@?$output_processor@DV?$stream_output_adapter@D@__crt_stdio_output@@V?$positional_parameter_base@DV?$stream_output_adapter@D@__crt_stdio_output@@@2@@__crt_stdio_output@@AAE_NXZ 100755b0 f i libucrtd:output.obj
 0001:00074630       ?state_case_precision@?$output_processor@DV?$stream_output_adapter@D@__crt_stdio_output@@V?$standard_base@DV?$stream_output_adapter@D@__crt_stdio_output@@@2@@__crt_stdio_output@@AAE_NXZ 10075630 f i libucrtd:output.obj
 0001:000746b0       ?state_case_precision@?$output_processor@DV?$string_output_adapter@D@__crt_stdio_output@@V?$format_validation_base@DV?$string_output_adapter@D@__crt_stdio_output@@@2@@__crt_stdio_output@@AAE_NXZ 100756b0 f i libucrtd:output.obj
 0001:00074730       ?state_case_precision@?$output_processor@DV?$string_output_adapter@D@__crt_stdio_output@@V?$positional_parameter_base@DV?$string_output_adapter@D@__crt_stdio_output@@@2@@__crt_stdio_output@@AAE_NXZ 10075730 f i libucrtd:output.obj
 0001:000747b0       ?state_case_precision@?$output_processor@DV?$string_output_adapter@D@__crt_stdio_output@@V?$standard_base@DV?$string_output_adapter@D@__crt_stdio_output@@@2@@__crt_stdio_output@@AAE_NXZ 100757b0 f i libucrtd:output.obj
 0001:00074830       ?state_case_precision@?$output_processor@_WV?$stream_output_adapter@_W@__crt_stdio_output@@V?$format_validation_base@_WV?$stream_output_adapter@_W@__crt_stdio_output@@@2@@__crt_stdio_output@@AAE_NXZ 10075830 f i libucrtd:output.obj
 0001:000748b0       ?state_case_precision@?$output_processor@_WV?$stream_output_adapter@_W@__crt_stdio_output@@V?$positional_parameter_base@_WV?$stream_output_adapter@_W@__crt_stdio_output@@@2@@__crt_stdio_output@@AAE_NXZ 100758b0 f i libucrtd:output.obj
 0001:00074930       ?state_case_precision@?$output_processor@_WV?$stream_output_adapter@_W@__crt_stdio_output@@V?$standard_base@_WV?$stream_output_adapter@_W@__crt_stdio_output@@@2@@__crt_stdio_output@@AAE_NXZ 10075930 f i libucrtd:output.obj
 0001:000749b0       ?state_case_precision@?$output_processor@_WV?$string_output_adapter@_W@__crt_stdio_output@@V?$format_validation_base@_WV?$string_output_adapter@_W@__crt_stdio_output@@@2@@__crt_stdio_output@@AAE_NXZ 100759b0 f i libucrtd:output.obj
 0001:00074a30       ?state_case_precision@?$output_processor@_WV?$string_output_adapter@_W@__crt_stdio_output@@V?$positional_parameter_base@_WV?$string_output_adapter@_W@__crt_stdio_output@@@2@@__crt_stdio_output@@AAE_NXZ 10075a30 f i libucrtd:output.obj
 0001:00074ab0       ?state_case_precision@?$output_processor@_WV?$string_output_adapter@_W@__crt_stdio_output@@V?$standard_base@_WV?$string_output_adapter@_W@__crt_stdio_output@@@2@@__crt_stdio_output@@AAE_NXZ 10075ab0 f i libucrtd:output.obj
 0001:00074b30       ?state_case_size@?$output_processor@DV?$stream_output_adapter@D@__crt_stdio_output@@V?$format_validation_base@DV?$stream_output_adapter@D@__crt_stdio_output@@@2@@__crt_stdio_output@@AAE_NXZ 10075b30 f i libucrtd:output.obj
 0001:00074ff0       ?state_case_size@?$output_processor@DV?$stream_output_adapter@D@__crt_stdio_output@@V?$positional_parameter_base@DV?$stream_output_adapter@D@__crt_stdio_output@@@2@@__crt_stdio_output@@AAE_NXZ 10075ff0 f i libucrtd:output.obj
 0001:000754b0       ?state_case_size@?$output_processor@DV?$stream_output_adapter@D@__crt_stdio_output@@V?$standard_base@DV?$stream_output_adapter@D@__crt_stdio_output@@@2@@__crt_stdio_output@@AAE_NXZ 100764b0 f i libucrtd:output.obj
 0001:00075970       ?state_case_size@?$output_processor@DV?$string_output_adapter@D@__crt_stdio_output@@V?$format_validation_base@DV?$string_output_adapter@D@__crt_stdio_output@@@2@@__crt_stdio_output@@AAE_NXZ 10076970 f i libucrtd:output.obj
 0001:00075e30       ?state_case_size@?$output_processor@DV?$string_output_adapter@D@__crt_stdio_output@@V?$positional_parameter_base@DV?$string_output_adapter@D@__crt_stdio_output@@@2@@__crt_stdio_output@@AAE_NXZ 10076e30 f i libucrtd:output.obj
 0001:000762f0       ?state_case_size@?$output_processor@DV?$string_output_adapter@D@__crt_stdio_output@@V?$standard_base@DV?$string_output_adapter@D@__crt_stdio_output@@@2@@__crt_stdio_output@@AAE_NXZ 100772f0 f i libucrtd:output.obj
 0001:000767b0       ?state_case_size@?$output_processor@_WV?$stream_output_adapter@_W@__crt_stdio_output@@V?$format_validation_base@_WV?$stream_output_adapter@_W@__crt_stdio_output@@@2@@__crt_stdio_output@@AAE_NXZ 100777b0 f i libucrtd:output.obj
 0001:00076c70       ?state_case_size@?$output_processor@_WV?$stream_output_adapter@_W@__crt_stdio_output@@V?$positional_parameter_base@_WV?$stream_output_adapter@_W@__crt_stdio_output@@@2@@__crt_stdio_output@@AAE_NXZ 10077c70 f i libucrtd:output.obj
 0001:00077130       ?state_case_size@?$output_processor@_WV?$stream_output_adapter@_W@__crt_stdio_output@@V?$standard_base@_WV?$stream_output_adapter@_W@__crt_stdio_output@@@2@@__crt_stdio_output@@AAE_NXZ 10078130 f i libucrtd:output.obj
 0001:000775f0       ?state_case_size@?$output_processor@_WV?$string_output_adapter@_W@__crt_stdio_output@@V?$format_validation_base@_WV?$string_output_adapter@_W@__crt_stdio_output@@@2@@__crt_stdio_output@@AAE_NXZ 100785f0 f i libucrtd:output.obj
 0001:00077ab0       ?state_case_size@?$output_processor@_WV?$string_output_adapter@_W@__crt_stdio_output@@V?$positional_parameter_base@_WV?$string_output_adapter@_W@__crt_stdio_output@@@2@@__crt_stdio_output@@AAE_NXZ 10078ab0 f i libucrtd:output.obj
 0001:00077f70       ?state_case_size@?$output_processor@_WV?$string_output_adapter@_W@__crt_stdio_output@@V?$standard_base@_WV?$string_output_adapter@_W@__crt_stdio_output@@@2@@__crt_stdio_output@@AAE_NXZ 10078f70 f i libucrtd:output.obj
 0001:00078430       ?state_case_type@?$output_processor@DV?$stream_output_adapter@D@__crt_stdio_output@@V?$format_validation_base@DV?$stream_output_adapter@D@__crt_stdio_output@@@2@@__crt_stdio_output@@AAE_NXZ 10079430 f i libucrtd:output.obj
 0001:000788d0       ?state_case_type@?$output_processor@DV?$stream_output_adapter@D@__crt_stdio_output@@V?$positional_parameter_base@DV?$stream_output_adapter@D@__crt_stdio_output@@@2@@__crt_stdio_output@@AAE_NXZ 100798d0 f i libucrtd:output.obj
 0001:00078d70       ?state_case_type@?$output_processor@DV?$stream_output_adapter@D@__crt_stdio_output@@V?$standard_base@DV?$stream_output_adapter@D@__crt_stdio_output@@@2@@__crt_stdio_output@@AAE_NXZ 10079d70 f i libucrtd:output.obj
 0001:00079210       ?state_case_type@?$output_processor@DV?$string_output_adapter@D@__crt_stdio_output@@V?$format_validation_base@DV?$string_output_adapter@D@__crt_stdio_output@@@2@@__crt_stdio_output@@AAE_NXZ 1007a210 f i libucrtd:output.obj
 0001:000796b0       ?state_case_type@?$output_processor@DV?$string_output_adapter@D@__crt_stdio_output@@V?$positional_parameter_base@DV?$string_output_adapter@D@__crt_stdio_output@@@2@@__crt_stdio_output@@AAE_NXZ 1007a6b0 f i libucrtd:output.obj
 0001:00079b50       ?state_case_type@?$output_processor@DV?$string_output_adapter@D@__crt_stdio_output@@V?$standard_base@DV?$string_output_adapter@D@__crt_stdio_output@@@2@@__crt_stdio_output@@AAE_NXZ 1007ab50 f i libucrtd:output.obj
 0001:00079ff0       ?state_case_type@?$output_processor@_WV?$stream_output_adapter@_W@__crt_stdio_output@@V?$format_validation_base@_WV?$stream_output_adapter@_W@__crt_stdio_output@@@2@@__crt_stdio_output@@AAE_NXZ 1007aff0 f i libucrtd:output.obj
 0001:0007a4c0       ?state_case_type@?$output_processor@_WV?$stream_output_adapter@_W@__crt_stdio_output@@V?$positional_parameter_base@_WV?$stream_output_adapter@_W@__crt_stdio_output@@@2@@__crt_stdio_output@@AAE_NXZ 1007b4c0 f i libucrtd:output.obj
 0001:0007a990       ?state_case_type@?$output_processor@_WV?$stream_output_adapter@_W@__crt_stdio_output@@V?$standard_base@_WV?$stream_output_adapter@_W@__crt_stdio_output@@@2@@__crt_stdio_output@@AAE_NXZ 1007b990 f i libucrtd:output.obj
 0001:0007ae60       ?state_case_type@?$output_processor@_WV?$string_output_adapter@_W@__crt_stdio_output@@V?$format_validation_base@_WV?$string_output_adapter@_W@__crt_stdio_output@@@2@@__crt_stdio_output@@AAE_NXZ 1007be60 f i libucrtd:output.obj
 0001:0007b330       ?state_case_type@?$output_processor@_WV?$string_output_adapter@_W@__crt_stdio_output@@V?$positional_parameter_base@_WV?$string_output_adapter@_W@__crt_stdio_output@@@2@@__crt_stdio_output@@AAE_NXZ 1007c330 f i libucrtd:output.obj
 0001:0007b800       ?state_case_type@?$output_processor@_WV?$string_output_adapter@_W@__crt_stdio_output@@V?$standard_base@_WV?$string_output_adapter@_W@__crt_stdio_output@@@2@@__crt_stdio_output@@AAE_NXZ 1007c800 f i libucrtd:output.obj
 0001:0007bcd0       ?state_case_width@?$output_processor@DV?$stream_output_adapter@D@__crt_stdio_output@@V?$format_validation_base@DV?$stream_output_adapter@D@__crt_stdio_output@@@2@@__crt_stdio_output@@AAE_NXZ 1007ccd0 f i libucrtd:output.obj
 0001:0007bd60       ?state_case_width@?$output_processor@DV?$stream_output_adapter@D@__crt_stdio_output@@V?$positional_parameter_base@DV?$stream_output_adapter@D@__crt_stdio_output@@@2@@__crt_stdio_output@@AAE_NXZ 1007cd60 f i libucrtd:output.obj
 0001:0007bdf0       ?state_case_width@?$output_processor@DV?$stream_output_adapter@D@__crt_stdio_output@@V?$standard_base@DV?$stream_output_adapter@D@__crt_stdio_output@@@2@@__crt_stdio_output@@AAE_NXZ 1007cdf0 f i libucrtd:output.obj
 0001:0007be80       ?state_case_width@?$output_processor@DV?$string_output_adapter@D@__crt_stdio_output@@V?$format_validation_base@DV?$string_output_adapter@D@__crt_stdio_output@@@2@@__crt_stdio_output@@AAE_NXZ 1007ce80 f i libucrtd:output.obj
 0001:0007bf10       ?state_case_width@?$output_processor@DV?$string_output_adapter@D@__crt_stdio_output@@V?$positional_parameter_base@DV?$string_output_adapter@D@__crt_stdio_output@@@2@@__crt_stdio_output@@AAE_NXZ 1007cf10 f i libucrtd:output.obj
 0001:0007bfa0       ?state_case_width@?$output_processor@DV?$string_output_adapter@D@__crt_stdio_output@@V?$standard_base@DV?$string_output_adapter@D@__crt_stdio_output@@@2@@__crt_stdio_output@@AAE_NXZ 1007cfa0 f i libucrtd:output.obj
 0001:0007c030       ?state_case_width@?$output_processor@_WV?$stream_output_adapter@_W@__crt_stdio_output@@V?$format_validation_base@_WV?$stream_output_adapter@_W@__crt_stdio_output@@@2@@__crt_stdio_output@@AAE_NXZ 1007d030 f i libucrtd:output.obj
 0001:0007c0c0       ?state_case_width@?$output_processor@_WV?$stream_output_adapter@_W@__crt_stdio_output@@V?$positional_parameter_base@_WV?$stream_output_adapter@_W@__crt_stdio_output@@@2@@__crt_stdio_output@@AAE_NXZ 1007d0c0 f i libucrtd:output.obj
 0001:0007c150       ?state_case_width@?$output_processor@_WV?$stream_output_adapter@_W@__crt_stdio_output@@V?$standard_base@_WV?$stream_output_adapter@_W@__crt_stdio_output@@@2@@__crt_stdio_output@@AAE_NXZ 1007d150 f i libucrtd:output.obj
 0001:0007c1e0       ?state_case_width@?$output_processor@_WV?$string_output_adapter@_W@__crt_stdio_output@@V?$format_validation_base@_WV?$string_output_adapter@_W@__crt_stdio_output@@@2@@__crt_stdio_output@@AAE_NXZ 1007d1e0 f i libucrtd:output.obj
 0001:0007c270       ?state_case_width@?$output_processor@_WV?$string_output_adapter@_W@__crt_stdio_output@@V?$positional_parameter_base@_WV?$string_output_adapter@_W@__crt_stdio_output@@@2@@__crt_stdio_output@@AAE_NXZ 1007d270 f i libucrtd:output.obj
 0001:0007c300       ?state_case_width@?$output_processor@_WV?$string_output_adapter@_W@__crt_stdio_output@@V?$standard_base@_WV?$string_output_adapter@_W@__crt_stdio_output@@@2@@__crt_stdio_output@@AAE_NXZ 1007d300 f i libucrtd:output.obj
 0001:0007c390       ?state_count@?$format_validation_base@DV?$stream_output_adapter@D@__crt_stdio_output@@@__crt_stdio_output@@KAIXZ 1007d390 f i libucrtd:output.obj
 0001:0007c3a0       ?state_count@?$format_validation_base@DV?$string_output_adapter@D@__crt_stdio_output@@@__crt_stdio_output@@KAIXZ 1007d3a0 f i libucrtd:output.obj
 0001:0007c3b0       ?state_count@?$format_validation_base@_WV?$stream_output_adapter@_W@__crt_stdio_output@@@__crt_stdio_output@@KAIXZ 1007d3b0 f i libucrtd:output.obj
 0001:0007c3c0       ?state_count@?$format_validation_base@_WV?$string_output_adapter@_W@__crt_stdio_output@@@__crt_stdio_output@@KAIXZ 1007d3c0 f i libucrtd:output.obj
 0001:0007c3d0       ?state_count@?$standard_base@DV?$stream_output_adapter@D@__crt_stdio_output@@@__crt_stdio_output@@KAIXZ 1007d3d0 f i libucrtd:output.obj
 0001:0007c3e0       ?state_count@?$standard_base@DV?$string_output_adapter@D@__crt_stdio_output@@@__crt_stdio_output@@KAIXZ 1007d3e0 f i libucrtd:output.obj
 0001:0007c3f0       ?state_count@?$standard_base@_WV?$stream_output_adapter@_W@__crt_stdio_output@@@__crt_stdio_output@@KAIXZ 1007d3f0 f i libucrtd:output.obj
 0001:0007c400       ?state_count@?$standard_base@_WV?$string_output_adapter@_W@__crt_stdio_output@@@__crt_stdio_output@@KAIXZ 1007d400 f i libucrtd:output.obj
 0001:0007c410       ?state_transition_table@?$format_validation_base@DV?$stream_output_adapter@D@__crt_stdio_output@@@__crt_stdio_output@@KAABV?$spectre_mitigated_lookup_table@Ustate_transition_pair@__crt_stdio_output@@$0IA@@2@XZ 1007d410 f i libucrtd:output.obj
 0001:0007c420       ?state_transition_table@?$format_validation_base@DV?$string_output_adapter@D@__crt_stdio_output@@@__crt_stdio_output@@KAABV?$spectre_mitigated_lookup_table@Ustate_transition_pair@__crt_stdio_output@@$0IA@@2@XZ 1007d420 f i libucrtd:output.obj
 0001:0007c430       ?state_transition_table@?$format_validation_base@_WV?$stream_output_adapter@_W@__crt_stdio_output@@@__crt_stdio_output@@KAABV?$spectre_mitigated_lookup_table@Ustate_transition_pair@__crt_stdio_output@@$0IA@@2@XZ 1007d430 f i libucrtd:output.obj
 0001:0007c440       ?state_transition_table@?$format_validation_base@_WV?$string_output_adapter@_W@__crt_stdio_output@@@__crt_stdio_output@@KAABV?$spectre_mitigated_lookup_table@Ustate_transition_pair@__crt_stdio_output@@$0IA@@2@XZ 1007d440 f i libucrtd:output.obj
 0001:0007c450       ?state_transition_table@?$standard_base@DV?$stream_output_adapter@D@__crt_stdio_output@@@__crt_stdio_output@@KAABV?$spectre_mitigated_lookup_table@Ustate_transition_pair@__crt_stdio_output@@$0IA@@2@XZ 1007d450 f i libucrtd:output.obj
 0001:0007c460       ?state_transition_table@?$standard_base@DV?$string_output_adapter@D@__crt_stdio_output@@@__crt_stdio_output@@KAABV?$spectre_mitigated_lookup_table@Ustate_transition_pair@__crt_stdio_output@@$0IA@@2@XZ 1007d460 f i libucrtd:output.obj
 0001:0007c470       ?state_transition_table@?$standard_base@_WV?$stream_output_adapter@_W@__crt_stdio_output@@@__crt_stdio_output@@KAABV?$spectre_mitigated_lookup_table@Ustate_transition_pair@__crt_stdio_output@@$0IA@@2@XZ 1007d470 f i libucrtd:output.obj
 0001:0007c480       ?state_transition_table@?$standard_base@_WV?$string_output_adapter@_W@__crt_stdio_output@@@__crt_stdio_output@@KAABV?$spectre_mitigated_lookup_table@Ustate_transition_pair@__crt_stdio_output@@$0IA@@2@XZ 1007d480 f i libucrtd:output.obj
 0001:0007c490       ?tchar_string@?$common_data@D@__crt_stdio_output@@IAEAAPADD@Z 1007d490 f i libucrtd:output.obj
 0001:0007c4b0       ?tchar_string@?$common_data@D@__crt_stdio_output@@IAEAAPADXZ 1007d4b0 f i libucrtd:output.obj
 0001:0007c4d0       ?tchar_string@?$common_data@_W@__crt_stdio_output@@IAEAAPA_WXZ 1007d4d0 f i libucrtd:output.obj
 0001:0007c4f0       ?tchar_string@?$common_data@_W@__crt_stdio_output@@IAEAAPA_W_W@Z 1007d4f0 f i libucrtd:output.obj
 0001:0007c510       ?to_integer_size@__crt_stdio_output@@YAIW4length_modifier@1@@Z 1007d510 f i libucrtd:output.obj
 0001:0007c5e0       ?type_case_X@?$output_processor@DV?$stream_output_adapter@D@__crt_stdio_output@@V?$format_validation_base@DV?$stream_output_adapter@D@__crt_stdio_output@@@2@@__crt_stdio_output@@AAE_NXZ 1007d5e0 f i libucrtd:output.obj
 0001:0007c600       ?type_case_X@?$output_processor@DV?$stream_output_adapter@D@__crt_stdio_output@@V?$positional_parameter_base@DV?$stream_output_adapter@D@__crt_stdio_output@@@2@@__crt_stdio_output@@AAE_NXZ 1007d600 f i libucrtd:output.obj
 0001:0007c620       ?type_case_X@?$output_processor@DV?$stream_output_adapter@D@__crt_stdio_output@@V?$standard_base@DV?$stream_output_adapter@D@__crt_stdio_output@@@2@@__crt_stdio_output@@AAE_NXZ 1007d620 f i libucrtd:output.obj
 0001:0007c640       ?type_case_X@?$output_processor@DV?$string_output_adapter@D@__crt_stdio_output@@V?$format_validation_base@DV?$string_output_adapter@D@__crt_stdio_output@@@2@@__crt_stdio_output@@AAE_NXZ 1007d640 f i libucrtd:output.obj
 0001:0007c660       ?type_case_X@?$output_processor@DV?$string_output_adapter@D@__crt_stdio_output@@V?$positional_parameter_base@DV?$string_output_adapter@D@__crt_stdio_output@@@2@@__crt_stdio_output@@AAE_NXZ 1007d660 f i libucrtd:output.obj
 0001:0007c680       ?type_case_X@?$output_processor@DV?$string_output_adapter@D@__crt_stdio_output@@V?$standard_base@DV?$string_output_adapter@D@__crt_stdio_output@@@2@@__crt_stdio_output@@AAE_NXZ 1007d680 f i libucrtd:output.obj
 0001:0007c6a0       ?type_case_X@?$output_processor@_WV?$stream_output_adapter@_W@__crt_stdio_output@@V?$format_validation_base@_WV?$stream_output_adapter@_W@__crt_stdio_output@@@2@@__crt_stdio_output@@AAE_NXZ 1007d6a0 f i libucrtd:output.obj
 0001:0007c6c0       ?type_case_X@?$output_processor@_WV?$stream_output_adapter@_W@__crt_stdio_output@@V?$positional_parameter_base@_WV?$stream_output_adapter@_W@__crt_stdio_output@@@2@@__crt_stdio_output@@AAE_NXZ 1007d6c0 f i libucrtd:output.obj
 0001:0007c6e0       ?type_case_X@?$output_processor@_WV?$stream_output_adapter@_W@__crt_stdio_output@@V?$standard_base@_WV?$stream_output_adapter@_W@__crt_stdio_output@@@2@@__crt_stdio_output@@AAE_NXZ 1007d6e0 f i libucrtd:output.obj
 0001:0007c700       ?type_case_X@?$output_processor@_WV?$string_output_adapter@_W@__crt_stdio_output@@V?$format_validation_base@_WV?$string_output_adapter@_W@__crt_stdio_output@@@2@@__crt_stdio_output@@AAE_NXZ 1007d700 f i libucrtd:output.obj
 0001:0007c720       ?type_case_X@?$output_processor@_WV?$string_output_adapter@_W@__crt_stdio_output@@V?$positional_parameter_base@_WV?$string_output_adapter@_W@__crt_stdio_output@@@2@@__crt_stdio_output@@AAE_NXZ 1007d720 f i libucrtd:output.obj
 0001:0007c740       ?type_case_X@?$output_processor@_WV?$string_output_adapter@_W@__crt_stdio_output@@V?$standard_base@_WV?$string_output_adapter@_W@__crt_stdio_output@@@2@@__crt_stdio_output@@AAE_NXZ 1007d740 f i libucrtd:output.obj
 0001:0007c760       ?type_case_Z@?$output_processor@DV?$stream_output_adapter@D@__crt_stdio_output@@V?$format_validation_base@DV?$stream_output_adapter@D@__crt_stdio_output@@@2@@__crt_stdio_output@@AAE_NXZ 1007d760 f i libucrtd:output.obj
 0001:0007c890       ?type_case_Z@?$output_processor@DV?$stream_output_adapter@D@__crt_stdio_output@@V?$positional_parameter_base@DV?$stream_output_adapter@D@__crt_stdio_output@@@2@@__crt_stdio_output@@AAE_NXZ 1007d890 f i libucrtd:output.obj
 0001:0007c9c0       ?type_case_Z@?$output_processor@DV?$stream_output_adapter@D@__crt_stdio_output@@V?$standard_base@DV?$stream_output_adapter@D@__crt_stdio_output@@@2@@__crt_stdio_output@@AAE_NXZ 1007d9c0 f i libucrtd:output.obj
 0001:0007caf0       ?type_case_Z@?$output_processor@DV?$string_output_adapter@D@__crt_stdio_output@@V?$format_validation_base@DV?$string_output_adapter@D@__crt_stdio_output@@@2@@__crt_stdio_output@@AAE_NXZ 1007daf0 f i libucrtd:output.obj
 0001:0007cc20       ?type_case_Z@?$output_processor@DV?$string_output_adapter@D@__crt_stdio_output@@V?$positional_parameter_base@DV?$string_output_adapter@D@__crt_stdio_output@@@2@@__crt_stdio_output@@AAE_NXZ 1007dc20 f i libucrtd:output.obj
 0001:0007cd50       ?type_case_Z@?$output_processor@DV?$string_output_adapter@D@__crt_stdio_output@@V?$standard_base@DV?$string_output_adapter@D@__crt_stdio_output@@@2@@__crt_stdio_output@@AAE_NXZ 1007dd50 f i libucrtd:output.obj
 0001:0007ce80       ?type_case_Z@?$output_processor@_WV?$stream_output_adapter@_W@__crt_stdio_output@@V?$format_validation_base@_WV?$stream_output_adapter@_W@__crt_stdio_output@@@2@@__crt_stdio_output@@AAE_NXZ 1007de80 f i libucrtd:output.obj
 0001:0007cfb0       ?type_case_Z@?$output_processor@_WV?$stream_output_adapter@_W@__crt_stdio_output@@V?$positional_parameter_base@_WV?$stream_output_adapter@_W@__crt_stdio_output@@@2@@__crt_stdio_output@@AAE_NXZ 1007dfb0 f i libucrtd:output.obj
 0001:0007d0e0       ?type_case_Z@?$output_processor@_WV?$stream_output_adapter@_W@__crt_stdio_output@@V?$standard_base@_WV?$stream_output_adapter@_W@__crt_stdio_output@@@2@@__crt_stdio_output@@AAE_NXZ 1007e0e0 f i libucrtd:output.obj
 0001:0007d210       ?type_case_Z@?$output_processor@_WV?$string_output_adapter@_W@__crt_stdio_output@@V?$format_validation_base@_WV?$string_output_adapter@_W@__crt_stdio_output@@@2@@__crt_stdio_output@@AAE_NXZ 1007e210 f i libucrtd:output.obj
 0001:0007d340       ?type_case_Z@?$output_processor@_WV?$string_output_adapter@_W@__crt_stdio_output@@V?$positional_parameter_base@_WV?$string_output_adapter@_W@__crt_stdio_output@@@2@@__crt_stdio_output@@AAE_NXZ 1007e340 f i libucrtd:output.obj
 0001:0007d470       ?type_case_Z@?$output_processor@_WV?$string_output_adapter@_W@__crt_stdio_output@@V?$standard_base@_WV?$string_output_adapter@_W@__crt_stdio_output@@@2@@__crt_stdio_output@@AAE_NXZ 1007e470 f i libucrtd:output.obj
 0001:0007d5a0       ?type_case_a@?$output_processor@DV?$stream_output_adapter@D@__crt_stdio_output@@V?$format_validation_base@DV?$stream_output_adapter@D@__crt_stdio_output@@@2@@__crt_stdio_output@@AAE_NXZ 1007e5a0 f i libucrtd:output.obj
 0001:0007d8a0       ?type_case_a@?$output_processor@DV?$stream_output_adapter@D@__crt_stdio_output@@V?$positional_parameter_base@DV?$stream_output_adapter@D@__crt_stdio_output@@@2@@__crt_stdio_output@@AAE_NXZ 1007e8a0 f i libucrtd:output.obj
 0001:0007dba0       ?type_case_a@?$output_processor@DV?$stream_output_adapter@D@__crt_stdio_output@@V?$standard_base@DV?$stream_output_adapter@D@__crt_stdio_output@@@2@@__crt_stdio_output@@AAE_NXZ 1007eba0 f i libucrtd:output.obj
 0001:0007dea0       ?type_case_a@?$output_processor@DV?$string_output_adapter@D@__crt_stdio_output@@V?$format_validation_base@DV?$string_output_adapter@D@__crt_stdio_output@@@2@@__crt_stdio_output@@AAE_NXZ 1007eea0 f i libucrtd:output.obj
 0001:0007e1a0       ?type_case_a@?$output_processor@DV?$string_output_adapter@D@__crt_stdio_output@@V?$positional_parameter_base@DV?$string_output_adapter@D@__crt_stdio_output@@@2@@__crt_stdio_output@@AAE_NXZ 1007f1a0 f i libucrtd:output.obj
 0001:0007e4a0       ?type_case_a@?$output_processor@DV?$string_output_adapter@D@__crt_stdio_output@@V?$standard_base@DV?$string_output_adapter@D@__crt_stdio_output@@@2@@__crt_stdio_output@@AAE_NXZ 1007f4a0 f i libucrtd:output.obj
 0001:0007e7a0       ?type_case_a@?$output_processor@_WV?$stream_output_adapter@_W@__crt_stdio_output@@V?$format_validation_base@_WV?$stream_output_adapter@_W@__crt_stdio_output@@@2@@__crt_stdio_output@@AAE_NXZ 1007f7a0 f i libucrtd:output.obj
 0001:0007eab0       ?type_case_a@?$output_processor@_WV?$stream_output_adapter@_W@__crt_stdio_output@@V?$positional_parameter_base@_WV?$stream_output_adapter@_W@__crt_stdio_output@@@2@@__crt_stdio_output@@AAE_NXZ 1007fab0 f i libucrtd:output.obj
 0001:0007edc0       ?type_case_a@?$output_processor@_WV?$stream_output_adapter@_W@__crt_stdio_output@@V?$standard_base@_WV?$stream_output_adapter@_W@__crt_stdio_output@@@2@@__crt_stdio_output@@AAE_NXZ 1007fdc0 f i libucrtd:output.obj
 0001:0007f0d0       ?type_case_a@?$output_processor@_WV?$string_output_adapter@_W@__crt_stdio_output@@V?$format_validation_base@_WV?$string_output_adapter@_W@__crt_stdio_output@@@2@@__crt_stdio_output@@AAE_NXZ 100800d0 f i libucrtd:output.obj
 0001:0007f3e0       ?type_case_a@?$output_processor@_WV?$string_output_adapter@_W@__crt_stdio_output@@V?$positional_parameter_base@_WV?$string_output_adapter@_W@__crt_stdio_output@@@2@@__crt_stdio_output@@AAE_NXZ 100803e0 f i libucrtd:output.obj
 0001:0007f6f0       ?type_case_a@?$output_processor@_WV?$string_output_adapter@_W@__crt_stdio_output@@V?$standard_base@_WV?$string_output_adapter@_W@__crt_stdio_output@@@2@@__crt_stdio_output@@AAE_NXZ 100806f0 f i libucrtd:output.obj
 0001:0007fa00       ?type_case_c@?$output_processor@DV?$stream_output_adapter@D@__crt_stdio_output@@V?$format_validation_base@DV?$stream_output_adapter@D@__crt_stdio_output@@@2@@__crt_stdio_output@@AAE_NXZ 10080a00 f i libucrtd:output.obj
 0001:0007fa20       ?type_case_c@?$output_processor@DV?$stream_output_adapter@D@__crt_stdio_output@@V?$positional_parameter_base@DV?$stream_output_adapter@D@__crt_stdio_output@@@2@@__crt_stdio_output@@AAE_NXZ 10080a20 f i libucrtd:output.obj
 0001:0007fa40       ?type_case_c@?$output_processor@DV?$stream_output_adapter@D@__crt_stdio_output@@V?$standard_base@DV?$stream_output_adapter@D@__crt_stdio_output@@@2@@__crt_stdio_output@@AAE_NXZ 10080a40 f i libucrtd:output.obj
 0001:0007fa60       ?type_case_c@?$output_processor@DV?$string_output_adapter@D@__crt_stdio_output@@V?$format_validation_base@DV?$string_output_adapter@D@__crt_stdio_output@@@2@@__crt_stdio_output@@AAE_NXZ 10080a60 f i libucrtd:output.obj
 0001:0007fa80       ?type_case_c@?$output_processor@DV?$string_output_adapter@D@__crt_stdio_output@@V?$positional_parameter_base@DV?$string_output_adapter@D@__crt_stdio_output@@@2@@__crt_stdio_output@@AAE_NXZ 10080a80 f i libucrtd:output.obj
 0001:0007faa0       ?type_case_c@?$output_processor@DV?$string_output_adapter@D@__crt_stdio_output@@V?$standard_base@DV?$string_output_adapter@D@__crt_stdio_output@@@2@@__crt_stdio_output@@AAE_NXZ 10080aa0 f i libucrtd:output.obj
 0001:0007fac0       ?type_case_c@?$output_processor@_WV?$stream_output_adapter@_W@__crt_stdio_output@@V?$format_validation_base@_WV?$stream_output_adapter@_W@__crt_stdio_output@@@2@@__crt_stdio_output@@AAE_NXZ 10080ac0 f i libucrtd:output.obj
 0001:0007fae0       ?type_case_c@?$output_processor@_WV?$stream_output_adapter@_W@__crt_stdio_output@@V?$positional_parameter_base@_WV?$stream_output_adapter@_W@__crt_stdio_output@@@2@@__crt_stdio_output@@AAE_NXZ 10080ae0 f i libucrtd:output.obj
 0001:0007fb00       ?type_case_c@?$output_processor@_WV?$stream_output_adapter@_W@__crt_stdio_output@@V?$standard_base@_WV?$stream_output_adapter@_W@__crt_stdio_output@@@2@@__crt_stdio_output@@AAE_NXZ 10080b00 f i libucrtd:output.obj
 0001:0007fb20       ?type_case_c@?$output_processor@_WV?$string_output_adapter@_W@__crt_stdio_output@@V?$format_validation_base@_WV?$string_output_adapter@_W@__crt_stdio_output@@@2@@__crt_stdio_output@@AAE_NXZ 10080b20 f i libucrtd:output.obj
 0001:0007fb40       ?type_case_c@?$output_processor@_WV?$string_output_adapter@_W@__crt_stdio_output@@V?$positional_parameter_base@_WV?$string_output_adapter@_W@__crt_stdio_output@@@2@@__crt_stdio_output@@AAE_NXZ 10080b40 f i libucrtd:output.obj
 0001:0007fb60       ?type_case_c@?$output_processor@_WV?$string_output_adapter@_W@__crt_stdio_output@@V?$standard_base@_WV?$string_output_adapter@_W@__crt_stdio_output@@@2@@__crt_stdio_output@@AAE_NXZ 10080b60 f i libucrtd:output.obj
 0001:0007fb80       ?type_case_c_tchar@?$output_processor@DV?$stream_output_adapter@D@__crt_stdio_output@@V?$format_validation_base@DV?$stream_output_adapter@D@__crt_stdio_output@@@2@@__crt_stdio_output@@AAE_ND@Z 10080b80 f i libucrtd:output.obj
 0001:0007fcd0       ?type_case_c_tchar@?$output_processor@DV?$stream_output_adapter@D@__crt_stdio_output@@V?$positional_parameter_base@DV?$stream_output_adapter@D@__crt_stdio_output@@@2@@__crt_stdio_output@@AAE_ND@Z 10080cd0 f i libucrtd:output.obj
 0001:0007fe20       ?type_case_c_tchar@?$output_processor@DV?$stream_output_adapter@D@__crt_stdio_output@@V?$standard_base@DV?$stream_output_adapter@D@__crt_stdio_output@@@2@@__crt_stdio_output@@AAE_ND@Z 10080e20 f i libucrtd:output.obj
 0001:0007ff70       ?type_case_c_tchar@?$output_processor@DV?$string_output_adapter@D@__crt_stdio_output@@V?$format_validation_base@DV?$string_output_adapter@D@__crt_stdio_output@@@2@@__crt_stdio_output@@AAE_ND@Z 10080f70 f i libucrtd:output.obj
 0001:000800c0       ?type_case_c_tchar@?$output_processor@DV?$string_output_adapter@D@__crt_stdio_output@@V?$positional_parameter_base@DV?$string_output_adapter@D@__crt_stdio_output@@@2@@__crt_stdio_output@@AAE_ND@Z 100810c0 f i libucrtd:output.obj
 0001:00080210       ?type_case_c_tchar@?$output_processor@DV?$string_output_adapter@D@__crt_stdio_output@@V?$standard_base@DV?$string_output_adapter@D@__crt_stdio_output@@@2@@__crt_stdio_output@@AAE_ND@Z 10081210 f i libucrtd:output.obj
 0001:00080360       ?type_case_c_tchar@?$output_processor@_WV?$stream_output_adapter@_W@__crt_stdio_output@@V?$format_validation_base@_WV?$stream_output_adapter@_W@__crt_stdio_output@@@2@@__crt_stdio_output@@AAE_N_W@Z 10081360 f i libucrtd:output.obj
 0001:000804a0       ?type_case_c_tchar@?$output_processor@_WV?$stream_output_adapter@_W@__crt_stdio_output@@V?$positional_parameter_base@_WV?$stream_output_adapter@_W@__crt_stdio_output@@@2@@__crt_stdio_output@@AAE_N_W@Z 100814a0 f i libucrtd:output.obj
 0001:000805e0       ?type_case_c_tchar@?$output_processor@_WV?$stream_output_adapter@_W@__crt_stdio_output@@V?$standard_base@_WV?$stream_output_adapter@_W@__crt_stdio_output@@@2@@__crt_stdio_output@@AAE_N_W@Z 100815e0 f i libucrtd:output.obj
 0001:00080720       ?type_case_c_tchar@?$output_processor@_WV?$string_output_adapter@_W@__crt_stdio_output@@V?$format_validation_base@_WV?$string_output_adapter@_W@__crt_stdio_output@@@2@@__crt_stdio_output@@AAE_N_W@Z 10081720 f i libucrtd:output.obj
 0001:00080860       ?type_case_c_tchar@?$output_processor@_WV?$string_output_adapter@_W@__crt_stdio_output@@V?$positional_parameter_base@_WV?$string_output_adapter@_W@__crt_stdio_output@@@2@@__crt_stdio_output@@AAE_N_W@Z 10081860 f i libucrtd:output.obj
 0001:000809a0       ?type_case_c_tchar@?$output_processor@_WV?$string_output_adapter@_W@__crt_stdio_output@@V?$standard_base@_WV?$string_output_adapter@_W@__crt_stdio_output@@@2@@__crt_stdio_output@@AAE_N_W@Z 100819a0 f i libucrtd:output.obj
 0001:00080ae0       ?type_case_d@?$output_processor@DV?$stream_output_adapter@D@__crt_stdio_output@@V?$format_validation_base@DV?$stream_output_adapter@D@__crt_stdio_output@@@2@@__crt_stdio_output@@AAE_NXZ 10081ae0 f i libucrtd:output.obj
 0001:00080b10       ?type_case_d@?$output_processor@DV?$stream_output_adapter@D@__crt_stdio_output@@V?$positional_parameter_base@DV?$stream_output_adapter@D@__crt_stdio_output@@@2@@__crt_stdio_output@@AAE_NXZ 10081b10 f i libucrtd:output.obj
 0001:00080b40       ?type_case_d@?$output_processor@DV?$stream_output_adapter@D@__crt_stdio_output@@V?$standard_base@DV?$stream_output_adapter@D@__crt_stdio_output@@@2@@__crt_stdio_output@@AAE_NXZ 10081b40 f i libucrtd:output.obj
 0001:00080b70       ?type_case_d@?$output_processor@DV?$string_output_adapter@D@__crt_stdio_output@@V?$format_validation_base@DV?$string_output_adapter@D@__crt_stdio_output@@@2@@__crt_stdio_output@@AAE_NXZ 10081b70 f i libucrtd:output.obj
 0001:00080ba0       ?type_case_d@?$output_processor@DV?$string_output_adapter@D@__crt_stdio_output@@V?$positional_parameter_base@DV?$string_output_adapter@D@__crt_stdio_output@@@2@@__crt_stdio_output@@AAE_NXZ 10081ba0 f i libucrtd:output.obj
 0001:00080bd0       ?type_case_d@?$output_processor@DV?$string_output_adapter@D@__crt_stdio_output@@V?$standard_base@DV?$string_output_adapter@D@__crt_stdio_output@@@2@@__crt_stdio_output@@AAE_NXZ 10081bd0 f i libucrtd:output.obj
 0001:00080c00       ?type_case_d@?$output_processor@_WV?$stream_output_adapter@_W@__crt_stdio_output@@V?$format_validation_base@_WV?$stream_output_adapter@_W@__crt_stdio_output@@@2@@__crt_stdio_output@@AAE_NXZ 10081c00 f i libucrtd:output.obj
 0001:00080c30       ?type_case_d@?$output_processor@_WV?$stream_output_adapter@_W@__crt_stdio_output@@V?$positional_parameter_base@_WV?$stream_output_adapter@_W@__crt_stdio_output@@@2@@__crt_stdio_output@@AAE_NXZ 10081c30 f i libucrtd:output.obj
 0001:00080c60       ?type_case_d@?$output_processor@_WV?$stream_output_adapter@_W@__crt_stdio_output@@V?$standard_base@_WV?$stream_output_adapter@_W@__crt_stdio_output@@@2@@__crt_stdio_output@@AAE_NXZ 10081c60 f i libucrtd:output.obj
 0001:00080c90       ?type_case_d@?$output_processor@_WV?$string_output_adapter@_W@__crt_stdio_output@@V?$format_validation_base@_WV?$string_output_adapter@_W@__crt_stdio_output@@@2@@__crt_stdio_output@@AAE_NXZ 10081c90 f i libucrtd:output.obj
 0001:00080cc0       ?type_case_d@?$output_processor@_WV?$string_output_adapter@_W@__crt_stdio_output@@V?$positional_parameter_base@_WV?$string_output_adapter@_W@__crt_stdio_output@@@2@@__crt_stdio_output@@AAE_NXZ 10081cc0 f i libucrtd:output.obj
 0001:00080cf0       ?type_case_d@?$output_processor@_WV?$string_output_adapter@_W@__crt_stdio_output@@V?$standard_base@_WV?$string_output_adapter@_W@__crt_stdio_output@@@2@@__crt_stdio_output@@AAE_NXZ 10081cf0 f i libucrtd:output.obj
 0001:00080d20       ?type_case_integer@?$output_processor@DV?$stream_output_adapter@D@__crt_stdio_output@@V?$format_validation_base@DV?$stream_output_adapter@D@__crt_stdio_output@@@2@@__crt_stdio_output@@AAE_NI_N@Z 10081d20 f i libucrtd:output.obj
 0001:00081140       ?type_case_integer@?$output_processor@DV?$stream_output_adapter@D@__crt_stdio_output@@V?$positional_parameter_base@DV?$stream_output_adapter@D@__crt_stdio_output@@@2@@__crt_stdio_output@@AAE_NI_N@Z 10082140 f i libucrtd:output.obj
 0001:00081560       ?type_case_integer@?$output_processor@DV?$stream_output_adapter@D@__crt_stdio_output@@V?$standard_base@DV?$stream_output_adapter@D@__crt_stdio_output@@@2@@__crt_stdio_output@@AAE_NI_N@Z 10082560 f i libucrtd:output.obj
 0001:00081980       ?type_case_integer@?$output_processor@DV?$string_output_adapter@D@__crt_stdio_output@@V?$format_validation_base@DV?$string_output_adapter@D@__crt_stdio_output@@@2@@__crt_stdio_output@@AAE_NI_N@Z 10082980 f i libucrtd:output.obj
 0001:00081da0       ?type_case_integer@?$output_processor@DV?$string_output_adapter@D@__crt_stdio_output@@V?$positional_parameter_base@DV?$string_output_adapter@D@__crt_stdio_output@@@2@@__crt_stdio_output@@AAE_NI_N@Z 10082da0 f i libucrtd:output.obj
 0001:000821c0       ?type_case_integer@?$output_processor@DV?$string_output_adapter@D@__crt_stdio_output@@V?$standard_base@DV?$string_output_adapter@D@__crt_stdio_output@@@2@@__crt_stdio_output@@AAE_NI_N@Z 100831c0 f i libucrtd:output.obj
 0001:000825e0       ?type_case_integer@?$output_processor@_WV?$stream_output_adapter@_W@__crt_stdio_output@@V?$format_validation_base@_WV?$stream_output_adapter@_W@__crt_stdio_output@@@2@@__crt_stdio_output@@AAE_NI_N@Z 100835e0 f i libucrtd:output.obj
 0001:00082a00       ?type_case_integer@?$output_processor@_WV?$stream_output_adapter@_W@__crt_stdio_output@@V?$positional_parameter_base@_WV?$stream_output_adapter@_W@__crt_stdio_output@@@2@@__crt_stdio_output@@AAE_NI_N@Z 10083a00 f i libucrtd:output.obj
 0001:00082e20       ?type_case_integer@?$output_processor@_WV?$stream_output_adapter@_W@__crt_stdio_output@@V?$standard_base@_WV?$stream_output_adapter@_W@__crt_stdio_output@@@2@@__crt_stdio_output@@AAE_NI_N@Z 10083e20 f i libucrtd:output.obj
 0001:00083240       ?type_case_integer@?$output_processor@_WV?$string_output_adapter@_W@__crt_stdio_output@@V?$format_validation_base@_WV?$string_output_adapter@_W@__crt_stdio_output@@@2@@__crt_stdio_output@@AAE_NI_N@Z 10084240 f i libucrtd:output.obj
 0001:00083660       ?type_case_integer@?$output_processor@_WV?$string_output_adapter@_W@__crt_stdio_output@@V?$positional_parameter_base@_WV?$string_output_adapter@_W@__crt_stdio_output@@@2@@__crt_stdio_output@@AAE_NI_N@Z 10084660 f i libucrtd:output.obj
 0001:00083a80       ?type_case_integer@?$output_processor@_WV?$string_output_adapter@_W@__crt_stdio_output@@V?$standard_base@_WV?$string_output_adapter@_W@__crt_stdio_output@@@2@@__crt_stdio_output@@AAE_NI_N@Z 10084a80 f i libucrtd:output.obj
 0001:00083ea0       ?type_case_n@?$output_processor@DV?$stream_output_adapter@D@__crt_stdio_output@@V?$format_validation_base@DV?$stream_output_adapter@D@__crt_stdio_output@@@2@@__crt_stdio_output@@AAE_NXZ 10084ea0 f i libucrtd:output.obj
 0001:00084110       ?type_case_n@?$output_processor@DV?$stream_output_adapter@D@__crt_stdio_output@@V?$positional_parameter_base@DV?$stream_output_adapter@D@__crt_stdio_output@@@2@@__crt_stdio_output@@AAE_NXZ 10085110 f i libucrtd:output.obj
 0001:00084380       ?type_case_n@?$output_processor@DV?$stream_output_adapter@D@__crt_stdio_output@@V?$standard_base@DV?$stream_output_adapter@D@__crt_stdio_output@@@2@@__crt_stdio_output@@AAE_NXZ 10085380 f i libucrtd:output.obj
 0001:000845f0       ?type_case_n@?$output_processor@DV?$string_output_adapter@D@__crt_stdio_output@@V?$format_validation_base@DV?$string_output_adapter@D@__crt_stdio_output@@@2@@__crt_stdio_output@@AAE_NXZ 100855f0 f i libucrtd:output.obj
 0001:00084860       ?type_case_n@?$output_processor@DV?$string_output_adapter@D@__crt_stdio_output@@V?$positional_parameter_base@DV?$string_output_adapter@D@__crt_stdio_output@@@2@@__crt_stdio_output@@AAE_NXZ 10085860 f i libucrtd:output.obj
 0001:00084ad0       ?type_case_n@?$output_processor@DV?$string_output_adapter@D@__crt_stdio_output@@V?$standard_base@DV?$string_output_adapter@D@__crt_stdio_output@@@2@@__crt_stdio_output@@AAE_NXZ 10085ad0 f i libucrtd:output.obj
 0001:00084d40       ?type_case_n@?$output_processor@_WV?$stream_output_adapter@_W@__crt_stdio_output@@V?$format_validation_base@_WV?$stream_output_adapter@_W@__crt_stdio_output@@@2@@__crt_stdio_output@@AAE_NXZ 10085d40 f i libucrtd:output.obj
 0001:00084fb0       ?type_case_n@?$output_processor@_WV?$stream_output_adapter@_W@__crt_stdio_output@@V?$positional_parameter_base@_WV?$stream_output_adapter@_W@__crt_stdio_output@@@2@@__crt_stdio_output@@AAE_NXZ 10085fb0 f i libucrtd:output.obj
 0001:00085220       ?type_case_n@?$output_processor@_WV?$stream_output_adapter@_W@__crt_stdio_output@@V?$standard_base@_WV?$stream_output_adapter@_W@__crt_stdio_output@@@2@@__crt_stdio_output@@AAE_NXZ 10086220 f i libucrtd:output.obj
 0001:00085490       ?type_case_n@?$output_processor@_WV?$string_output_adapter@_W@__crt_stdio_output@@V?$format_validation_base@_WV?$string_output_adapter@_W@__crt_stdio_output@@@2@@__crt_stdio_output@@AAE_NXZ 10086490 f i libucrtd:output.obj
 0001:00085700       ?type_case_n@?$output_processor@_WV?$string_output_adapter@_W@__crt_stdio_output@@V?$positional_parameter_base@_WV?$string_output_adapter@_W@__crt_stdio_output@@@2@@__crt_stdio_output@@AAE_NXZ 10086700 f i libucrtd:output.obj
 0001:00085970       ?type_case_n@?$output_processor@_WV?$string_output_adapter@_W@__crt_stdio_output@@V?$standard_base@_WV?$string_output_adapter@_W@__crt_stdio_output@@@2@@__crt_stdio_output@@AAE_NXZ 10086970 f i libucrtd:output.obj
 0001:00085be0       ?type_case_o@?$output_processor@DV?$stream_output_adapter@D@__crt_stdio_output@@V?$format_validation_base@DV?$stream_output_adapter@D@__crt_stdio_output@@@2@@__crt_stdio_output@@AAE_NXZ 10086be0 f i libucrtd:output.obj
 0001:00085c30       ?type_case_o@?$output_processor@DV?$stream_output_adapter@D@__crt_stdio_output@@V?$positional_parameter_base@DV?$stream_output_adapter@D@__crt_stdio_output@@@2@@__crt_stdio_output@@AAE_NXZ 10086c30 f i libucrtd:output.obj
 0001:00085c80       ?type_case_o@?$output_processor@DV?$stream_output_adapter@D@__crt_stdio_output@@V?$standard_base@DV?$stream_output_adapter@D@__crt_stdio_output@@@2@@__crt_stdio_output@@AAE_NXZ 10086c80 f i libucrtd:output.obj
 0001:00085cd0       ?type_case_o@?$output_processor@DV?$string_output_adapter@D@__crt_stdio_output@@V?$format_validation_base@DV?$string_output_adapter@D@__crt_stdio_output@@@2@@__crt_stdio_output@@AAE_NXZ 10086cd0 f i libucrtd:output.obj
 0001:00085d20       ?type_case_o@?$output_processor@DV?$string_output_adapter@D@__crt_stdio_output@@V?$positional_parameter_base@DV?$string_output_adapter@D@__crt_stdio_output@@@2@@__crt_stdio_output@@AAE_NXZ 10086d20 f i libucrtd:output.obj
 0001:00085d70       ?type_case_o@?$output_processor@DV?$string_output_adapter@D@__crt_stdio_output@@V?$standard_base@DV?$string_output_adapter@D@__crt_stdio_output@@@2@@__crt_stdio_output@@AAE_NXZ 10086d70 f i libucrtd:output.obj
 0001:00085dc0       ?type_case_o@?$output_processor@_WV?$stream_output_adapter@_W@__crt_stdio_output@@V?$format_validation_base@_WV?$stream_output_adapter@_W@__crt_stdio_output@@@2@@__crt_stdio_output@@AAE_NXZ 10086dc0 f i libucrtd:output.obj
 0001:00085e10       ?type_case_o@?$output_processor@_WV?$stream_output_adapter@_W@__crt_stdio_output@@V?$positional_parameter_base@_WV?$stream_output_adapter@_W@__crt_stdio_output@@@2@@__crt_stdio_output@@AAE_NXZ 10086e10 f i libucrtd:output.obj
 0001:00085e60       ?type_case_o@?$output_processor@_WV?$stream_output_adapter@_W@__crt_stdio_output@@V?$standard_base@_WV?$stream_output_adapter@_W@__crt_stdio_output@@@2@@__crt_stdio_output@@AAE_NXZ 10086e60 f i libucrtd:output.obj
 0001:00085eb0       ?type_case_o@?$output_processor@_WV?$string_output_adapter@_W@__crt_stdio_output@@V?$format_validation_base@_WV?$string_output_adapter@_W@__crt_stdio_output@@@2@@__crt_stdio_output@@AAE_NXZ 10086eb0 f i libucrtd:output.obj
 0001:00085f00       ?type_case_o@?$output_processor@_WV?$string_output_adapter@_W@__crt_stdio_output@@V?$positional_parameter_base@_WV?$string_output_adapter@_W@__crt_stdio_output@@@2@@__crt_stdio_output@@AAE_NXZ 10086f00 f i libucrtd:output.obj
 0001:00085f50       ?type_case_o@?$output_processor@_WV?$string_output_adapter@_W@__crt_stdio_output@@V?$standard_base@_WV?$string_output_adapter@_W@__crt_stdio_output@@@2@@__crt_stdio_output@@AAE_NXZ 10086f50 f i libucrtd:output.obj
 0001:00085fa0       ?type_case_p@?$output_processor@DV?$stream_output_adapter@D@__crt_stdio_output@@V?$format_validation_base@DV?$stream_output_adapter@D@__crt_stdio_output@@@2@@__crt_stdio_output@@AAE_NXZ 10086fa0 f i libucrtd:output.obj
 0001:00085fe0       ?type_case_p@?$output_processor@DV?$stream_output_adapter@D@__crt_stdio_output@@V?$positional_parameter_base@DV?$stream_output_adapter@D@__crt_stdio_output@@@2@@__crt_stdio_output@@AAE_NXZ 10086fe0 f i libucrtd:output.obj
 0001:00086020       ?type_case_p@?$output_processor@DV?$stream_output_adapter@D@__crt_stdio_output@@V?$standard_base@DV?$stream_output_adapter@D@__crt_stdio_output@@@2@@__crt_stdio_output@@AAE_NXZ 10087020 f i libucrtd:output.obj
 0001:00086060       ?type_case_p@?$output_processor@DV?$string_output_adapter@D@__crt_stdio_output@@V?$format_validation_base@DV?$string_output_adapter@D@__crt_stdio_output@@@2@@__crt_stdio_output@@AAE_NXZ 10087060 f i libucrtd:output.obj
 0001:000860a0       ?type_case_p@?$output_processor@DV?$string_output_adapter@D@__crt_stdio_output@@V?$positional_parameter_base@DV?$string_output_adapter@D@__crt_stdio_output@@@2@@__crt_stdio_output@@AAE_NXZ 100870a0 f i libucrtd:output.obj
 0001:000860e0       ?type_case_p@?$output_processor@DV?$string_output_adapter@D@__crt_stdio_output@@V?$standard_base@DV?$string_output_adapter@D@__crt_stdio_output@@@2@@__crt_stdio_output@@AAE_NXZ 100870e0 f i libucrtd:output.obj
 0001:00086120       ?type_case_p@?$output_processor@_WV?$stream_output_adapter@_W@__crt_stdio_output@@V?$format_validation_base@_WV?$stream_output_adapter@_W@__crt_stdio_output@@@2@@__crt_stdio_output@@AAE_NXZ 10087120 f i libucrtd:output.obj
 0001:00086160       ?type_case_p@?$output_processor@_WV?$stream_output_adapter@_W@__crt_stdio_output@@V?$positional_parameter_base@_WV?$stream_output_adapter@_W@__crt_stdio_output@@@2@@__crt_stdio_output@@AAE_NXZ 10087160 f i libucrtd:output.obj
 0001:000861a0       ?type_case_p@?$output_processor@_WV?$stream_output_adapter@_W@__crt_stdio_output@@V?$standard_base@_WV?$stream_output_adapter@_W@__crt_stdio_output@@@2@@__crt_stdio_output@@AAE_NXZ 100871a0 f i libucrtd:output.obj
 0001:000861e0       ?type_case_p@?$output_processor@_WV?$string_output_adapter@_W@__crt_stdio_output@@V?$format_validation_base@_WV?$string_output_adapter@_W@__crt_stdio_output@@@2@@__crt_stdio_output@@AAE_NXZ 100871e0 f i libucrtd:output.obj
 0001:00086220       ?type_case_p@?$output_processor@_WV?$string_output_adapter@_W@__crt_stdio_output@@V?$positional_parameter_base@_WV?$string_output_adapter@_W@__crt_stdio_output@@@2@@__crt_stdio_output@@AAE_NXZ 10087220 f i libucrtd:output.obj
 0001:00086260       ?type_case_p@?$output_processor@_WV?$string_output_adapter@_W@__crt_stdio_output@@V?$standard_base@_WV?$string_output_adapter@_W@__crt_stdio_output@@@2@@__crt_stdio_output@@AAE_NXZ 10087260 f i libucrtd:output.obj
 0001:000862a0       ?type_case_s@?$output_processor@DV?$stream_output_adapter@D@__crt_stdio_output@@V?$format_validation_base@DV?$stream_output_adapter@D@__crt_stdio_output@@@2@@__crt_stdio_output@@AAE_NXZ 100872a0 f i libucrtd:output.obj
 0001:000863d0       ?type_case_s@?$output_processor@DV?$stream_output_adapter@D@__crt_stdio_output@@V?$positional_parameter_base@DV?$stream_output_adapter@D@__crt_stdio_output@@@2@@__crt_stdio_output@@AAE_NXZ 100873d0 f i libucrtd:output.obj
 0001:00086500       ?type_case_s@?$output_processor@DV?$stream_output_adapter@D@__crt_stdio_output@@V?$standard_base@DV?$stream_output_adapter@D@__crt_stdio_output@@@2@@__crt_stdio_output@@AAE_NXZ 10087500 f i libucrtd:output.obj
 0001:00086630       ?type_case_s@?$output_processor@DV?$string_output_adapter@D@__crt_stdio_output@@V?$format_validation_base@DV?$string_output_adapter@D@__crt_stdio_output@@@2@@__crt_stdio_output@@AAE_NXZ 10087630 f i libucrtd:output.obj
 0001:00086760       ?type_case_s@?$output_processor@DV?$string_output_adapter@D@__crt_stdio_output@@V?$positional_parameter_base@DV?$string_output_adapter@D@__crt_stdio_output@@@2@@__crt_stdio_output@@AAE_NXZ 10087760 f i libucrtd:output.obj
 0001:00086890       ?type_case_s@?$output_processor@DV?$string_output_adapter@D@__crt_stdio_output@@V?$standard_base@DV?$string_output_adapter@D@__crt_stdio_output@@@2@@__crt_stdio_output@@AAE_NXZ 10087890 f i libucrtd:output.obj
 0001:000869c0       ?type_case_s@?$output_processor@_WV?$stream_output_adapter@_W@__crt_stdio_output@@V?$format_validation_base@_WV?$stream_output_adapter@_W@__crt_stdio_output@@@2@@__crt_stdio_output@@AAE_NXZ 100879c0 f i libucrtd:output.obj
 0001:00086af0       ?type_case_s@?$output_processor@_WV?$stream_output_adapter@_W@__crt_stdio_output@@V?$positional_parameter_base@_WV?$stream_output_adapter@_W@__crt_stdio_output@@@2@@__crt_stdio_output@@AAE_NXZ 10087af0 f i libucrtd:output.obj
 0001:00086c20       ?type_case_s@?$output_processor@_WV?$stream_output_adapter@_W@__crt_stdio_output@@V?$standard_base@_WV?$stream_output_adapter@_W@__crt_stdio_output@@@2@@__crt_stdio_output@@AAE_NXZ 10087c20 f i libucrtd:output.obj
 0001:00086d50       ?type_case_s@?$output_processor@_WV?$string_output_adapter@_W@__crt_stdio_output@@V?$format_validation_base@_WV?$string_output_adapter@_W@__crt_stdio_output@@@2@@__crt_stdio_output@@AAE_NXZ 10087d50 f i libucrtd:output.obj
 0001:00086e80       ?type_case_s@?$output_processor@_WV?$string_output_adapter@_W@__crt_stdio_output@@V?$positional_parameter_base@_WV?$string_output_adapter@_W@__crt_stdio_output@@@2@@__crt_stdio_output@@AAE_NXZ 10087e80 f i libucrtd:output.obj
 0001:00086fb0       ?type_case_s@?$output_processor@_WV?$string_output_adapter@_W@__crt_stdio_output@@V?$standard_base@_WV?$string_output_adapter@_W@__crt_stdio_output@@@2@@__crt_stdio_output@@AAE_NXZ 10087fb0 f i libucrtd:output.obj
 0001:000870e0       ?type_case_s_compute_narrow_string_length@?$output_processor@DV?$stream_output_adapter@D@__crt_stdio_output@@V?$format_validation_base@DV?$stream_output_adapter@D@__crt_stdio_output@@@2@@__crt_stdio_output@@ABEHHD@Z 100880e0 f i libucrtd:output.obj
 0001:00087110       ?type_case_s_compute_narrow_string_length@?$output_processor@DV?$stream_output_adapter@D@__crt_stdio_output@@V?$positional_parameter_base@DV?$stream_output_adapter@D@__crt_stdio_output@@@2@@__crt_stdio_output@@ABEHHD@Z 10088110 f i libucrtd:output.obj
 0001:00087140       ?type_case_s_compute_narrow_string_length@?$output_processor@DV?$stream_output_adapter@D@__crt_stdio_output@@V?$standard_base@DV?$stream_output_adapter@D@__crt_stdio_output@@@2@@__crt_stdio_output@@ABEHHD@Z 10088140 f i libucrtd:output.obj
 0001:00087170       ?type_case_s_compute_narrow_string_length@?$output_processor@DV?$string_output_adapter@D@__crt_stdio_output@@V?$format_validation_base@DV?$string_output_adapter@D@__crt_stdio_output@@@2@@__crt_stdio_output@@ABEHHD@Z 10088170 f i libucrtd:output.obj
 0001:000871a0       ?type_case_s_compute_narrow_string_length@?$output_processor@DV?$string_output_adapter@D@__crt_stdio_output@@V?$positional_parameter_base@DV?$string_output_adapter@D@__crt_stdio_output@@@2@@__crt_stdio_output@@ABEHHD@Z 100881a0 f i libucrtd:output.obj
 0001:000871d0       ?type_case_s_compute_narrow_string_length@?$output_processor@DV?$string_output_adapter@D@__crt_stdio_output@@V?$standard_base@DV?$string_output_adapter@D@__crt_stdio_output@@@2@@__crt_stdio_output@@ABEHHD@Z 100881d0 f i libucrtd:output.obj
 0001:00087200       ?type_case_s_compute_narrow_string_length@?$output_processor@_WV?$stream_output_adapter@_W@__crt_stdio_output@@V?$format_validation_base@_WV?$stream_output_adapter@_W@__crt_stdio_output@@@2@@__crt_stdio_output@@ABEHH_W@Z 10088200 f i libucrtd:output.obj
 0001:00087290       ?type_case_s_compute_narrow_string_length@?$output_processor@_WV?$stream_output_adapter@_W@__crt_stdio_output@@V?$positional_parameter_base@_WV?$stream_output_adapter@_W@__crt_stdio_output@@@2@@__crt_stdio_output@@ABEHH_W@Z 10088290 f i libucrtd:output.obj
 0001:00087320       ?type_case_s_compute_narrow_string_length@?$output_processor@_WV?$stream_output_adapter@_W@__crt_stdio_output@@V?$standard_base@_WV?$stream_output_adapter@_W@__crt_stdio_output@@@2@@__crt_stdio_output@@ABEHH_W@Z 10088320 f i libucrtd:output.obj
 0001:000873b0       ?type_case_s_compute_narrow_string_length@?$output_processor@_WV?$string_output_adapter@_W@__crt_stdio_output@@V?$format_validation_base@_WV?$string_output_adapter@_W@__crt_stdio_output@@@2@@__crt_stdio_output@@ABEHH_W@Z 100883b0 f i libucrtd:output.obj
 0001:00087440       ?type_case_s_compute_narrow_string_length@?$output_processor@_WV?$string_output_adapter@_W@__crt_stdio_output@@V?$positional_parameter_base@_WV?$string_output_adapter@_W@__crt_stdio_output@@@2@@__crt_stdio_output@@ABEHH_W@Z 10088440 f i libucrtd:output.obj
 0001:000874d0       ?type_case_s_compute_narrow_string_length@?$output_processor@_WV?$string_output_adapter@_W@__crt_stdio_output@@V?$standard_base@_WV?$string_output_adapter@_W@__crt_stdio_output@@@2@@__crt_stdio_output@@ABEHH_W@Z 100884d0 f i libucrtd:output.obj
 0001:00087560       ?type_case_u@?$output_processor@DV?$stream_output_adapter@D@__crt_stdio_output@@V?$format_validation_base@DV?$stream_output_adapter@D@__crt_stdio_output@@@2@@__crt_stdio_output@@AAE_NXZ 10088560 f i libucrtd:output.obj
 0001:00087580       ?type_case_u@?$output_processor@DV?$stream_output_adapter@D@__crt_stdio_output@@V?$positional_parameter_base@DV?$stream_output_adapter@D@__crt_stdio_output@@@2@@__crt_stdio_output@@AAE_NXZ 10088580 f i libucrtd:output.obj
 0001:000875a0       ?type_case_u@?$output_processor@DV?$stream_output_adapter@D@__crt_stdio_output@@V?$standard_base@DV?$stream_output_adapter@D@__crt_stdio_output@@@2@@__crt_stdio_output@@AAE_NXZ 100885a0 f i libucrtd:output.obj
 0001:000875c0       ?type_case_u@?$output_processor@DV?$string_output_adapter@D@__crt_stdio_output@@V?$format_validation_base@DV?$string_output_adapter@D@__crt_stdio_output@@@2@@__crt_stdio_output@@AAE_NXZ 100885c0 f i libucrtd:output.obj
 0001:000875e0       ?type_case_u@?$output_processor@DV?$string_output_adapter@D@__crt_stdio_output@@V?$positional_parameter_base@DV?$string_output_adapter@D@__crt_stdio_output@@@2@@__crt_stdio_output@@AAE_NXZ 100885e0 f i libucrtd:output.obj
 0001:00087600       ?type_case_u@?$output_processor@DV?$string_output_adapter@D@__crt_stdio_output@@V?$standard_base@DV?$string_output_adapter@D@__crt_stdio_output@@@2@@__crt_stdio_output@@AAE_NXZ 10088600 f i libucrtd:output.obj
 0001:00087620       ?type_case_u@?$output_processor@_WV?$stream_output_adapter@_W@__crt_stdio_output@@V?$format_validation_base@_WV?$stream_output_adapter@_W@__crt_stdio_output@@@2@@__crt_stdio_output@@AAE_NXZ 10088620 f i libucrtd:output.obj
 0001:00087640       ?type_case_u@?$output_processor@_WV?$stream_output_adapter@_W@__crt_stdio_output@@V?$positional_parameter_base@_WV?$stream_output_adapter@_W@__crt_stdio_output@@@2@@__crt_stdio_output@@AAE_NXZ 10088640 f i libucrtd:output.obj
 0001:00087660       ?type_case_u@?$output_processor@_WV?$stream_output_adapter@_W@__crt_stdio_output@@V?$standard_base@_WV?$stream_output_adapter@_W@__crt_stdio_output@@@2@@__crt_stdio_output@@AAE_NXZ 10088660 f i libucrtd:output.obj
 0001:00087680       ?type_case_u@?$output_processor@_WV?$string_output_adapter@_W@__crt_stdio_output@@V?$format_validation_base@_WV?$string_output_adapter@_W@__crt_stdio_output@@@2@@__crt_stdio_output@@AAE_NXZ 10088680 f i libucrtd:output.obj
 0001:000876a0       ?type_case_u@?$output_processor@_WV?$string_output_adapter@_W@__crt_stdio_output@@V?$positional_parameter_base@_WV?$string_output_adapter@_W@__crt_stdio_output@@@2@@__crt_stdio_output@@AAE_NXZ 100886a0 f i libucrtd:output.obj
 0001:000876c0       ?type_case_u@?$output_processor@_WV?$string_output_adapter@_W@__crt_stdio_output@@V?$standard_base@_WV?$string_output_adapter@_W@__crt_stdio_output@@@2@@__crt_stdio_output@@AAE_NXZ 100886c0 f i libucrtd:output.obj
 0001:000876e0       ?type_case_x@?$output_processor@DV?$stream_output_adapter@D@__crt_stdio_output@@V?$format_validation_base@DV?$stream_output_adapter@D@__crt_stdio_output@@@2@@__crt_stdio_output@@AAE_NXZ 100886e0 f i libucrtd:output.obj
 0001:00087700       ?type_case_x@?$output_processor@DV?$stream_output_adapter@D@__crt_stdio_output@@V?$positional_parameter_base@DV?$stream_output_adapter@D@__crt_stdio_output@@@2@@__crt_stdio_output@@AAE_NXZ 10088700 f i libucrtd:output.obj
 0001:00087720       ?type_case_x@?$output_processor@DV?$stream_output_adapter@D@__crt_stdio_output@@V?$standard_base@DV?$stream_output_adapter@D@__crt_stdio_output@@@2@@__crt_stdio_output@@AAE_NXZ 10088720 f i libucrtd:output.obj
 0001:00087740       ?type_case_x@?$output_processor@DV?$string_output_adapter@D@__crt_stdio_output@@V?$format_validation_base@DV?$string_output_adapter@D@__crt_stdio_output@@@2@@__crt_stdio_output@@AAE_NXZ 10088740 f i libucrtd:output.obj
 0001:00087760       ?type_case_x@?$output_processor@DV?$string_output_adapter@D@__crt_stdio_output@@V?$positional_parameter_base@DV?$string_output_adapter@D@__crt_stdio_output@@@2@@__crt_stdio_output@@AAE_NXZ 10088760 f i libucrtd:output.obj
 0001:00087780       ?type_case_x@?$output_processor@DV?$string_output_adapter@D@__crt_stdio_output@@V?$standard_base@DV?$string_output_adapter@D@__crt_stdio_output@@@2@@__crt_stdio_output@@AAE_NXZ 10088780 f i libucrtd:output.obj
 0001:000877a0       ?type_case_x@?$output_processor@_WV?$stream_output_adapter@_W@__crt_stdio_output@@V?$format_validation_base@_WV?$stream_output_adapter@_W@__crt_stdio_output@@@2@@__crt_stdio_output@@AAE_NXZ 100887a0 f i libucrtd:output.obj
 0001:000877c0       ?type_case_x@?$output_processor@_WV?$stream_output_adapter@_W@__crt_stdio_output@@V?$positional_parameter_base@_WV?$stream_output_adapter@_W@__crt_stdio_output@@@2@@__crt_stdio_output@@AAE_NXZ 100887c0 f i libucrtd:output.obj
 0001:000877e0       ?type_case_x@?$output_processor@_WV?$stream_output_adapter@_W@__crt_stdio_output@@V?$standard_base@_WV?$stream_output_adapter@_W@__crt_stdio_output@@@2@@__crt_stdio_output@@AAE_NXZ 100887e0 f i libucrtd:output.obj
 0001:00087800       ?type_case_x@?$output_processor@_WV?$string_output_adapter@_W@__crt_stdio_output@@V?$format_validation_base@_WV?$string_output_adapter@_W@__crt_stdio_output@@@2@@__crt_stdio_output@@AAE_NXZ 10088800 f i libucrtd:output.obj
 0001:00087820       ?type_case_x@?$output_processor@_WV?$string_output_adapter@_W@__crt_stdio_output@@V?$positional_parameter_base@_WV?$string_output_adapter@_W@__crt_stdio_output@@@2@@__crt_stdio_output@@AAE_NXZ 10088820 f i libucrtd:output.obj
 0001:00087840       ?type_case_x@?$output_processor@_WV?$string_output_adapter@_W@__crt_stdio_output@@V?$standard_base@_WV?$string_output_adapter@_W@__crt_stdio_output@@@2@@__crt_stdio_output@@AAE_NXZ 10088840 f i libucrtd:output.obj
 0001:00087860       ?unset_flag@?$output_processor@DV?$stream_output_adapter@D@__crt_stdio_output@@V?$format_validation_base@DV?$stream_output_adapter@D@__crt_stdio_output@@@2@@__crt_stdio_output@@AAEXI@Z 10088860 f i libucrtd:output.obj
 0001:00087890       ?unset_flag@?$output_processor@DV?$stream_output_adapter@D@__crt_stdio_output@@V?$positional_parameter_base@DV?$stream_output_adapter@D@__crt_stdio_output@@@2@@__crt_stdio_output@@AAEXI@Z 10088890 f i libucrtd:output.obj
 0001:000878c0       ?unset_flag@?$output_processor@DV?$stream_output_adapter@D@__crt_stdio_output@@V?$standard_base@DV?$stream_output_adapter@D@__crt_stdio_output@@@2@@__crt_stdio_output@@AAEXI@Z 100888c0 f i libucrtd:output.obj
 0001:000878f0       ?unset_flag@?$output_processor@DV?$string_output_adapter@D@__crt_stdio_output@@V?$format_validation_base@DV?$string_output_adapter@D@__crt_stdio_output@@@2@@__crt_stdio_output@@AAEXI@Z 100888f0 f i libucrtd:output.obj
 0001:00087920       ?unset_flag@?$output_processor@DV?$string_output_adapter@D@__crt_stdio_output@@V?$positional_parameter_base@DV?$string_output_adapter@D@__crt_stdio_output@@@2@@__crt_stdio_output@@AAEXI@Z 10088920 f i libucrtd:output.obj
 0001:00087950       ?unset_flag@?$output_processor@DV?$string_output_adapter@D@__crt_stdio_output@@V?$standard_base@DV?$string_output_adapter@D@__crt_stdio_output@@@2@@__crt_stdio_output@@AAEXI@Z 10088950 f i libucrtd:output.obj
 0001:00087980       ?unset_flag@?$output_processor@_WV?$stream_output_adapter@_W@__crt_stdio_output@@V?$format_validation_base@_WV?$stream_output_adapter@_W@__crt_stdio_output@@@2@@__crt_stdio_output@@AAEXI@Z 10088980 f i libucrtd:output.obj
 0001:000879b0       ?unset_flag@?$output_processor@_WV?$stream_output_adapter@_W@__crt_stdio_output@@V?$positional_parameter_base@_WV?$stream_output_adapter@_W@__crt_stdio_output@@@2@@__crt_stdio_output@@AAEXI@Z 100889b0 f i libucrtd:output.obj
 0001:000879e0       ?unset_flag@?$output_processor@_WV?$stream_output_adapter@_W@__crt_stdio_output@@V?$standard_base@_WV?$stream_output_adapter@_W@__crt_stdio_output@@@2@@__crt_stdio_output@@AAEXI@Z 100889e0 f i libucrtd:output.obj
 0001:00087a10       ?unset_flag@?$output_processor@_WV?$string_output_adapter@_W@__crt_stdio_output@@V?$format_validation_base@_WV?$string_output_adapter@_W@__crt_stdio_output@@@2@@__crt_stdio_output@@AAEXI@Z 10088a10 f i libucrtd:output.obj
 0001:00087a40       ?unset_flag@?$output_processor@_WV?$string_output_adapter@_W@__crt_stdio_output@@V?$positional_parameter_base@_WV?$string_output_adapter@_W@__crt_stdio_output@@@2@@__crt_stdio_output@@AAEXI@Z 10088a40 f i libucrtd:output.obj
 0001:00087a70       ?unset_flag@?$output_processor@_WV?$string_output_adapter@_W@__crt_stdio_output@@V?$standard_base@_WV?$string_output_adapter@_W@__crt_stdio_output@@@2@@__crt_stdio_output@@AAEXI@Z 10088a70 f i libucrtd:output.obj
 0001:00087aa0       ?update_field_width@?$positional_parameter_base@DV?$stream_output_adapter@D@__crt_stdio_output@@@__crt_stdio_output@@IAE_NXZ 10088aa0 f i libucrtd:output.obj
 0001:00087c80       ?update_field_width@?$positional_parameter_base@DV?$string_output_adapter@D@__crt_stdio_output@@@__crt_stdio_output@@IAE_NXZ 10088c80 f i libucrtd:output.obj
 0001:00087e60       ?update_field_width@?$positional_parameter_base@_WV?$stream_output_adapter@_W@__crt_stdio_output@@@__crt_stdio_output@@IAE_NXZ 10088e60 f i libucrtd:output.obj
 0001:00088040       ?update_field_width@?$positional_parameter_base@_WV?$string_output_adapter@_W@__crt_stdio_output@@@__crt_stdio_output@@IAE_NXZ 10089040 f i libucrtd:output.obj
 0001:00088220       ?update_field_width@?$standard_base@DV?$stream_output_adapter@D@__crt_stdio_output@@@__crt_stdio_output@@IAE_NXZ 10089220 f i libucrtd:output.obj
 0001:00088250       ?update_field_width@?$standard_base@DV?$string_output_adapter@D@__crt_stdio_output@@@__crt_stdio_output@@IAE_NXZ 10089250 f i libucrtd:output.obj
 0001:00088280       ?update_field_width@?$standard_base@_WV?$stream_output_adapter@_W@__crt_stdio_output@@@__crt_stdio_output@@IAE_NXZ 10089280 f i libucrtd:output.obj
 0001:000882b0       ?update_field_width@?$standard_base@_WV?$string_output_adapter@_W@__crt_stdio_output@@@__crt_stdio_output@@IAE_NXZ 100892b0 f i libucrtd:output.obj
 0001:000882e0       ?update_precision@?$positional_parameter_base@DV?$stream_output_adapter@D@__crt_stdio_output@@@__crt_stdio_output@@IAE_NXZ 100892e0 f i libucrtd:output.obj
 0001:000884c0       ?update_precision@?$positional_parameter_base@DV?$string_output_adapter@D@__crt_stdio_output@@@__crt_stdio_output@@IAE_NXZ 100894c0 f i libucrtd:output.obj
 0001:000886a0       ?update_precision@?$positional_parameter_base@_WV?$stream_output_adapter@_W@__crt_stdio_output@@@__crt_stdio_output@@IAE_NXZ 100896a0 f i libucrtd:output.obj
 0001:00088880       ?update_precision@?$positional_parameter_base@_WV?$string_output_adapter@_W@__crt_stdio_output@@@__crt_stdio_output@@IAE_NXZ 10089880 f i libucrtd:output.obj
 0001:00088a60       ?update_precision@?$standard_base@DV?$stream_output_adapter@D@__crt_stdio_output@@@__crt_stdio_output@@IAE_NXZ 10089a60 f i libucrtd:output.obj
 0001:00088a90       ?update_precision@?$standard_base@DV?$string_output_adapter@D@__crt_stdio_output@@@__crt_stdio_output@@IAE_NXZ 10089a90 f i libucrtd:output.obj
 0001:00088ac0       ?update_precision@?$standard_base@_WV?$stream_output_adapter@_W@__crt_stdio_output@@@__crt_stdio_output@@IAE_NXZ 10089ac0 f i libucrtd:output.obj
 0001:00088af0       ?update_precision@?$standard_base@_WV?$string_output_adapter@_W@__crt_stdio_output@@@__crt_stdio_output@@IAE_NXZ 10089af0 f i libucrtd:output.obj
 0001:00088b20       ?valid@__crt_stdio_stream@@QBE_NXZ 10089b20 f i libucrtd:output.obj
 0001:00088b60       ?validate@?$stream_output_adapter@D@__crt_stdio_output@@QBE_NXZ 10089b60 f i libucrtd:output.obj
 0001:00088c30       ?validate@?$stream_output_adapter@_W@__crt_stdio_output@@QBE_NXZ 10089c30 f i libucrtd:output.obj
 0001:00088d00       ?validate@?$string_output_adapter@D@__crt_stdio_output@@QBE_NXZ 10089d00 f i libucrtd:output.obj
 0001:00088dc0       ?validate@?$string_output_adapter@_W@__crt_stdio_output@@QBE_NXZ 10089dc0 f i libucrtd:output.obj
 0001:00088e80       ?validate_and_store_parameter_data@?$positional_parameter_base@DV?$stream_output_adapter@D@__crt_stdio_output@@@__crt_stdio_output@@AAE_NAAUparameter_data@12@W4parameter_type@12@DW4length_modifier@2@@Z 10089e80 f i libucrtd:output.obj
 0001:00088f90       ?validate_and_store_parameter_data@?$positional_parameter_base@DV?$string_output_adapter@D@__crt_stdio_output@@@__crt_stdio_output@@AAE_NAAUparameter_data@12@W4parameter_type@12@DW4length_modifier@2@@Z 10089f90 f i libucrtd:output.obj
 0001:000890a0       ?validate_and_store_parameter_data@?$positional_parameter_base@_WV?$stream_output_adapter@_W@__crt_stdio_output@@@__crt_stdio_output@@AAE_NAAUparameter_data@12@W4parameter_type@12@_WW4length_modifier@2@@Z 1008a0a0 f i libucrtd:output.obj
 0001:000891b0       ?validate_and_store_parameter_data@?$positional_parameter_base@_WV?$string_output_adapter@_W@__crt_stdio_output@@@__crt_stdio_output@@AAE_NAAUparameter_data@12@W4parameter_type@12@_WW4length_modifier@2@@Z 1008a1b0 f i libucrtd:output.obj
 0001:000892c0       ?validate_and_update_state_at_beginning_of_format_character@?$positional_parameter_base@DV?$stream_output_adapter@D@__crt_stdio_output@@@__crt_stdio_output@@IAE_NXZ 1008a2c0 f i libucrtd:output.obj
 0001:00089570       ?validate_and_update_state_at_beginning_of_format_character@?$positional_parameter_base@DV?$string_output_adapter@D@__crt_stdio_output@@@__crt_stdio_output@@IAE_NXZ 1008a570 f i libucrtd:output.obj
 0001:00089820       ?validate_and_update_state_at_beginning_of_format_character@?$positional_parameter_base@_WV?$stream_output_adapter@_W@__crt_stdio_output@@@__crt_stdio_output@@IAE_NXZ 1008a820 f i libucrtd:output.obj
 0001:00089ad0       ?validate_and_update_state_at_beginning_of_format_character@?$positional_parameter_base@_WV?$string_output_adapter@_W@__crt_stdio_output@@@__crt_stdio_output@@IAE_NXZ 1008aad0 f i libucrtd:output.obj
 0001:00089d80       ?validate_and_update_state_at_beginning_of_format_character@?$standard_base@DV?$stream_output_adapter@D@__crt_stdio_output@@@__crt_stdio_output@@IAE_NXZ 1008ad80 f i libucrtd:output.obj
 0001:00089da0       ?validate_and_update_state_at_beginning_of_format_character@?$standard_base@DV?$string_output_adapter@D@__crt_stdio_output@@@__crt_stdio_output@@IAE_NXZ 1008ada0 f i libucrtd:output.obj
 0001:00089dc0       ?validate_and_update_state_at_beginning_of_format_character@?$standard_base@_WV?$stream_output_adapter@_W@__crt_stdio_output@@@__crt_stdio_output@@IAE_NXZ 1008adc0 f i libucrtd:output.obj
 0001:00089de0       ?validate_and_update_state_at_beginning_of_format_character@?$standard_base@_WV?$string_output_adapter@_W@__crt_stdio_output@@@__crt_stdio_output@@IAE_NXZ 1008ade0 f i libucrtd:output.obj
 0001:00089e00       ?validate_and_update_state_at_end_of_format_string@?$format_validation_base@DV?$stream_output_adapter@D@__crt_stdio_output@@@__crt_stdio_output@@IBE_NXZ 1008ae00 f i libucrtd:output.obj
 0001:00089ec0       ?validate_and_update_state_at_end_of_format_string@?$format_validation_base@DV?$string_output_adapter@D@__crt_stdio_output@@@__crt_stdio_output@@IBE_NXZ 1008aec0 f i libucrtd:output.obj
 0001:00089f80       ?validate_and_update_state_at_end_of_format_string@?$format_validation_base@_WV?$stream_output_adapter@_W@__crt_stdio_output@@@__crt_stdio_output@@IBE_NXZ 1008af80 f i libucrtd:output.obj
 0001:0008a040       ?validate_and_update_state_at_end_of_format_string@?$format_validation_base@_WV?$string_output_adapter@_W@__crt_stdio_output@@@__crt_stdio_output@@IBE_NXZ 1008b040 f i libucrtd:output.obj
 0001:0008a100       ?validate_and_update_state_at_end_of_format_string@?$positional_parameter_base@DV?$stream_output_adapter@D@__crt_stdio_output@@@__crt_stdio_output@@IAE_NXZ 1008b100 f i libucrtd:output.obj
 0001:0008a300       ?validate_and_update_state_at_end_of_format_string@?$positional_parameter_base@DV?$string_output_adapter@D@__crt_stdio_output@@@__crt_stdio_output@@IAE_NXZ 1008b300 f i libucrtd:output.obj
 0001:0008a500       ?validate_and_update_state_at_end_of_format_string@?$positional_parameter_base@_WV?$stream_output_adapter@_W@__crt_stdio_output@@@__crt_stdio_output@@IAE_NXZ 1008b500 f i libucrtd:output.obj
 0001:0008a700       ?validate_and_update_state_at_end_of_format_string@?$positional_parameter_base@_WV?$string_output_adapter@_W@__crt_stdio_output@@@__crt_stdio_output@@IAE_NXZ 1008b700 f i libucrtd:output.obj
 0001:0008a900       ?validate_and_update_state_at_end_of_format_string@?$standard_base@DV?$stream_output_adapter@D@__crt_stdio_output@@@__crt_stdio_output@@IBE_NXZ 1008b900 f i libucrtd:output.obj
 0001:0008a920       ?validate_and_update_state_at_end_of_format_string@?$standard_base@DV?$string_output_adapter@D@__crt_stdio_output@@@__crt_stdio_output@@IBE_NXZ 1008b920 f i libucrtd:output.obj
 0001:0008a940       ?validate_and_update_state_at_end_of_format_string@?$standard_base@_WV?$stream_output_adapter@_W@__crt_stdio_output@@@__crt_stdio_output@@IBE_NXZ 1008b940 f i libucrtd:output.obj
 0001:0008a960       ?validate_and_update_state_at_end_of_format_string@?$standard_base@_WV?$string_output_adapter@_W@__crt_stdio_output@@@__crt_stdio_output@@IBE_NXZ 1008b960 f i libucrtd:output.obj
 0001:0008a980       ?validate_state_for_type_case_a@?$positional_parameter_base@DV?$stream_output_adapter@D@__crt_stdio_output@@@__crt_stdio_output@@IAE_NXZ 1008b980 f i libucrtd:output.obj
 0001:0008aab0       ?validate_state_for_type_case_a@?$positional_parameter_base@DV?$string_output_adapter@D@__crt_stdio_output@@@__crt_stdio_output@@IAE_NXZ 1008bab0 f i libucrtd:output.obj
 0001:0008abe0       ?validate_state_for_type_case_a@?$positional_parameter_base@_WV?$stream_output_adapter@_W@__crt_stdio_output@@@__crt_stdio_output@@IAE_NXZ 1008bbe0 f i libucrtd:output.obj
 0001:0008ad10       ?validate_state_for_type_case_a@?$positional_parameter_base@_WV?$string_output_adapter@_W@__crt_stdio_output@@@__crt_stdio_output@@IAE_NXZ 1008bd10 f i libucrtd:output.obj
 0001:0008ae40       ?validate_state_for_type_case_a@?$standard_base@DV?$stream_output_adapter@D@__crt_stdio_output@@@__crt_stdio_output@@IBE_NXZ 1008be40 f i libucrtd:output.obj
 0001:0008ae60       ?validate_state_for_type_case_a@?$standard_base@DV?$string_output_adapter@D@__crt_stdio_output@@@__crt_stdio_output@@IBE_NXZ 1008be60 f i libucrtd:output.obj
 0001:0008ae80       ?validate_state_for_type_case_a@?$standard_base@_WV?$stream_output_adapter@_W@__crt_stdio_output@@@__crt_stdio_output@@IBE_NXZ 1008be80 f i libucrtd:output.obj
 0001:0008aea0       ?validate_state_for_type_case_a@?$standard_base@_WV?$string_output_adapter@_W@__crt_stdio_output@@@__crt_stdio_output@@IBE_NXZ 1008bea0 f i libucrtd:output.obj
 0001:0008aec0       ?validate_stream_is_ansi_if_required@?$__acrt_stdio_char_traits@D@@SA_NQAU_iobuf@@@Z 1008bec0 f i libucrtd:output.obj
 0001:0008b040       ?validate_stream_is_ansi_if_required@?$__acrt_stdio_char_traits@_W@@SA_NQAU_iobuf@@@Z 1008c040 f i libucrtd:output.obj
 0001:0008b050       ?wide_null_string@?$output_processor@DV?$stream_output_adapter@D@__crt_stdio_output@@V?$format_validation_base@DV?$stream_output_adapter@D@__crt_stdio_output@@@2@@__crt_stdio_output@@CAPA_WXZ 1008c050 f i libucrtd:output.obj
 0001:0008b060       ?wide_null_string@?$output_processor@DV?$stream_output_adapter@D@__crt_stdio_output@@V?$positional_parameter_base@DV?$stream_output_adapter@D@__crt_stdio_output@@@2@@__crt_stdio_output@@CAPA_WXZ 1008c060 f i libucrtd:output.obj
 0001:0008b070       ?wide_null_string@?$output_processor@DV?$stream_output_adapter@D@__crt_stdio_output@@V?$standard_base@DV?$stream_output_adapter@D@__crt_stdio_output@@@2@@__crt_stdio_output@@CAPA_WXZ 1008c070 f i libucrtd:output.obj
 0001:0008b080       ?wide_null_string@?$output_processor@DV?$string_output_adapter@D@__crt_stdio_output@@V?$format_validation_base@DV?$string_output_adapter@D@__crt_stdio_output@@@2@@__crt_stdio_output@@CAPA_WXZ 1008c080 f i libucrtd:output.obj
 0001:0008b090       ?wide_null_string@?$output_processor@DV?$string_output_adapter@D@__crt_stdio_output@@V?$positional_parameter_base@DV?$string_output_adapter@D@__crt_stdio_output@@@2@@__crt_stdio_output@@CAPA_WXZ 1008c090 f i libucrtd:output.obj
 0001:0008b0a0       ?wide_null_string@?$output_processor@DV?$string_output_adapter@D@__crt_stdio_output@@V?$standard_base@DV?$string_output_adapter@D@__crt_stdio_output@@@2@@__crt_stdio_output@@CAPA_WXZ 1008c0a0 f i libucrtd:output.obj
 0001:0008b0b0       ?wide_null_string@?$output_processor@_WV?$stream_output_adapter@_W@__crt_stdio_output@@V?$format_validation_base@_WV?$stream_output_adapter@_W@__crt_stdio_output@@@2@@__crt_stdio_output@@CAPA_WXZ 1008c0b0 f i libucrtd:output.obj
 0001:0008b0c0       ?wide_null_string@?$output_processor@_WV?$stream_output_adapter@_W@__crt_stdio_output@@V?$positional_parameter_base@_WV?$stream_output_adapter@_W@__crt_stdio_output@@@2@@__crt_stdio_output@@CAPA_WXZ 1008c0c0 f i libucrtd:output.obj
 0001:0008b0d0       ?wide_null_string@?$output_processor@_WV?$stream_output_adapter@_W@__crt_stdio_output@@V?$standard_base@_WV?$stream_output_adapter@_W@__crt_stdio_output@@@2@@__crt_stdio_output@@CAPA_WXZ 1008c0d0 f i libucrtd:output.obj
 0001:0008b0e0       ?wide_null_string@?$output_processor@_WV?$string_output_adapter@_W@__crt_stdio_output@@V?$format_validation_base@_WV?$string_output_adapter@_W@__crt_stdio_output@@@2@@__crt_stdio_output@@CAPA_WXZ 1008c0e0 f i libucrtd:output.obj
 0001:0008b0f0       ?wide_null_string@?$output_processor@_WV?$string_output_adapter@_W@__crt_stdio_output@@V?$positional_parameter_base@_WV?$string_output_adapter@_W@__crt_stdio_output@@@2@@__crt_stdio_output@@CAPA_WXZ 1008c0f0 f i libucrtd:output.obj
 0001:0008b100       ?wide_null_string@?$output_processor@_WV?$string_output_adapter@_W@__crt_stdio_output@@V?$standard_base@_WV?$string_output_adapter@_W@__crt_stdio_output@@@2@@__crt_stdio_output@@CAPA_WXZ 1008c100 f i libucrtd:output.obj
 0001:0008b110       ?write_character@?$output_adapter_common@DV?$stream_output_adapter@D@__crt_stdio_output@@@__crt_stdio_output@@QBEXDQAH@Z 1008c110 f i libucrtd:output.obj
 0001:0008b160       ?write_character@?$output_adapter_common@_WV?$stream_output_adapter@_W@__crt_stdio_output@@@__crt_stdio_output@@QBEX_WQAH@Z 1008c160 f i libucrtd:output.obj
 0001:0008b1b0       ?write_character@?$string_output_adapter@D@__crt_stdio_output@@QBE_NDQAH@Z 1008c1b0 f i libucrtd:output.obj
 0001:0008b270       ?write_character@?$string_output_adapter@_W@__crt_stdio_output@@QBE_N_WQAH@Z 1008c270 f i libucrtd:output.obj
 0001:0008b330       ?write_character_without_count_update@?$stream_output_adapter@D@__crt_stdio_output@@QBE_ND@Z 1008c330 f i libucrtd:output.obj
 0001:0008b3b0       ?write_character_without_count_update@?$stream_output_adapter@_W@__crt_stdio_output@@QBE_N_W@Z 1008c3b0 f i libucrtd:output.obj
 0001:0008b440       ?write_stored_string_tchar@?$output_processor@DV?$stream_output_adapter@D@__crt_stdio_output@@V?$format_validation_base@DV?$stream_output_adapter@D@__crt_stdio_output@@@2@@__crt_stdio_output@@AAE_ND@Z 1008c440 f i libucrtd:output.obj
 0001:0008b5a0       ?write_stored_string_tchar@?$output_processor@DV?$stream_output_adapter@D@__crt_stdio_output@@V?$positional_parameter_base@DV?$stream_output_adapter@D@__crt_stdio_output@@@2@@__crt_stdio_output@@AAE_ND@Z 1008c5a0 f i libucrtd:output.obj
 0001:0008b700       ?write_stored_string_tchar@?$output_processor@DV?$stream_output_adapter@D@__crt_stdio_output@@V?$standard_base@DV?$stream_output_adapter@D@__crt_stdio_output@@@2@@__crt_stdio_output@@AAE_ND@Z 1008c700 f i libucrtd:output.obj
 0001:0008b860       ?write_stored_string_tchar@?$output_processor@DV?$string_output_adapter@D@__crt_stdio_output@@V?$format_validation_base@DV?$string_output_adapter@D@__crt_stdio_output@@@2@@__crt_stdio_output@@AAE_ND@Z 1008c860 f i libucrtd:output.obj
 0001:0008b9c0       ?write_stored_string_tchar@?$output_processor@DV?$string_output_adapter@D@__crt_stdio_output@@V?$positional_parameter_base@DV?$string_output_adapter@D@__crt_stdio_output@@@2@@__crt_stdio_output@@AAE_ND@Z 1008c9c0 f i libucrtd:output.obj
 0001:0008bb20       ?write_stored_string_tchar@?$output_processor@DV?$string_output_adapter@D@__crt_stdio_output@@V?$standard_base@DV?$string_output_adapter@D@__crt_stdio_output@@@2@@__crt_stdio_output@@AAE_ND@Z 1008cb20 f i libucrtd:output.obj
 0001:0008bc80       ?write_stored_string_tchar@?$output_processor@_WV?$stream_output_adapter@_W@__crt_stdio_output@@V?$format_validation_base@_WV?$stream_output_adapter@_W@__crt_stdio_output@@@2@@__crt_stdio_output@@AAE_N_W@Z 1008cc80 f i libucrtd:output.obj
 0001:0008bda0       ?write_stored_string_tchar@?$output_processor@_WV?$stream_output_adapter@_W@__crt_stdio_output@@V?$positional_parameter_base@_WV?$stream_output_adapter@_W@__crt_stdio_output@@@2@@__crt_stdio_output@@AAE_N_W@Z 1008cda0 f i libucrtd:output.obj
 0001:0008bec0       ?write_stored_string_tchar@?$output_processor@_WV?$stream_output_adapter@_W@__crt_stdio_output@@V?$standard_base@_WV?$stream_output_adapter@_W@__crt_stdio_output@@@2@@__crt_stdio_output@@AAE_N_W@Z 1008cec0 f i libucrtd:output.obj
 0001:0008bfe0       ?write_stored_string_tchar@?$output_processor@_WV?$string_output_adapter@_W@__crt_stdio_output@@V?$format_validation_base@_WV?$string_output_adapter@_W@__crt_stdio_output@@@2@@__crt_stdio_output@@AAE_N_W@Z 1008cfe0 f i libucrtd:output.obj
 0001:0008c100       ?write_stored_string_tchar@?$output_processor@_WV?$string_output_adapter@_W@__crt_stdio_output@@V?$positional_parameter_base@_WV?$string_output_adapter@_W@__crt_stdio_output@@@2@@__crt_stdio_output@@AAE_N_W@Z 1008d100 f i libucrtd:output.obj
 0001:0008c220       ?write_stored_string_tchar@?$output_processor@_WV?$string_output_adapter@_W@__crt_stdio_output@@V?$standard_base@_WV?$string_output_adapter@_W@__crt_stdio_output@@@2@@__crt_stdio_output@@AAE_N_W@Z 1008d220 f i libucrtd:output.obj
 0001:0008c340       ?write_string@?$stream_output_adapter@D@__crt_stdio_output@@QBEXQBDHQAHAAV__crt_deferred_errno_cache@@@Z 1008d340 f i libucrtd:output.obj
 0001:0008c3b0       ?write_string@?$stream_output_adapter@_W@__crt_stdio_output@@QBEXQB_WHQAHAAV__crt_deferred_errno_cache@@@Z 1008d3b0 f i libucrtd:output.obj
 0001:0008c420       ?write_string@?$string_output_adapter@D@__crt_stdio_output@@QBEXQBDHQAHAAV__crt_deferred_errno_cache@@@Z 1008d420 f i libucrtd:output.obj
 0001:0008c560       ?write_string@?$string_output_adapter@_W@__crt_stdio_output@@QBEXQB_WHQAHAAV__crt_deferred_errno_cache@@@Z 1008d560 f i libucrtd:output.obj
 0001:0008c6b0       ?write_string_impl@?$output_adapter_common@DV?$stream_output_adapter@D@__crt_stdio_output@@@__crt_stdio_output@@IBEXQBDHQAHAAV__crt_deferred_errno_cache@@@Z 1008d6b0 f i libucrtd:output.obj
 0001:0008c770       ?write_string_impl@?$output_adapter_common@_WV?$stream_output_adapter@_W@__crt_stdio_output@@@__crt_stdio_output@@IBEXQB_WHQAHAAV__crt_deferred_errno_cache@@@Z 1008d770 f i libucrtd:output.obj
 0001:0008c840       ___acrt_isleadbyte_l_noupdate 1008d840 f i libucrtd:output.obj
 0001:0008c870       ___acrt_locale_get_ctype_array_value 1008d870 f i libucrtd:output.obj
 0001:0008c8a0       ___stdio_common_vfprintf   1008d8a0 f   libucrtd:output.obj
 0001:0008c8d0       ___stdio_common_vfprintf_p 1008d8d0 f   libucrtd:output.obj
 0001:0008c900       ___stdio_common_vfprintf_s 1008d900 f   libucrtd:output.obj
 0001:0008c930       ___stdio_common_vfwprintf  1008d930 f   libucrtd:output.obj
 0001:0008c960       ___stdio_common_vfwprintf_p 1008d960 f   libucrtd:output.obj
 0001:0008c990       ___stdio_common_vfwprintf_s 1008d990 f   libucrtd:output.obj
 0001:0008c9c0       ___stdio_common_vsnprintf_s 1008d9c0 f   libucrtd:output.obj
 0001:0008ca00       ___stdio_common_vsnwprintf_s 1008da00 f   libucrtd:output.obj
 0001:0008ca40       ___stdio_common_vsprintf   1008da40 f   libucrtd:output.obj
 0001:0008ca80       ___stdio_common_vsprintf_p 1008da80 f   libucrtd:output.obj
 0001:0008cac0       ___stdio_common_vsprintf_s 1008dac0 f   libucrtd:output.obj
 0001:0008cb00       ___stdio_common_vswprintf  1008db00 f   libucrtd:output.obj
 0001:0008cb40       ___stdio_common_vswprintf_p 1008db40 f   libucrtd:output.obj
 0001:0008cb80       ___stdio_common_vswprintf_s 1008db80 f   libucrtd:output.obj
 0001:0008cbc0       __ctype_fast_check_internal 1008dbc0 f i libucrtd:output.obj
 0001:0008cbe0       __isdigit_fast_internal    1008dbe0 f i libucrtd:output.obj
 0001:0008cc00       __tolower_fast_internal    1008dc00 f i libucrtd:output.obj
 0001:0008d7a0       __makepath                 1008e7a0 f   libucrtd:makepath.obj
 0001:0008d7d0       __makepath_s               1008e7d0 f   libucrtd:makepath.obj
 0001:0008d800       __wmakepath                1008e800 f   libucrtd:makepath.obj
 0001:0008d830       __wmakepath_s              1008e830 f   libucrtd:makepath.obj
 0001:0008f7e0       ??$tcsncpy_s@AAPADIAAPBDABI@?$__crt_char_traits@D@@SAHAAPAD$$QAIAAPBDABI@Z 100907e0 f i libucrtd:splitpath.obj
 0001:0008f810       ??$tcsncpy_s@AAPADIAAPBDH@?$__crt_char_traits@D@@SAHAAPAD$$QAIAAPBD$$QAH@Z 10090810 f i libucrtd:splitpath.obj
 0001:0008f840       ??$tcsncpy_s@AAPA_WIAAPB_WABI@?$__crt_char_traits@_W@@SAHAAPA_W$$QAIAAPB_WABI@Z 10090840 f i libucrtd:splitpath.obj
 0001:0008f870       ??$tcsncpy_s@AAPA_WIAAPB_WH@?$__crt_char_traits@_W@@SAHAAPA_W$$QAIAAPB_W$$QAH@Z 10090870 f i libucrtd:splitpath.obj
 0001:0008fb10       __splitpath                10090b10 f   libucrtd:splitpath.obj
 0001:0008fb40       __splitpath_s              10090b40 f   libucrtd:splitpath.obj
 0001:0008fba0       __wsplitpath               10090ba0 f   libucrtd:splitpath.obj
 0001:0008fbd0       __wsplitpath_s             10090bd0 f   libucrtd:splitpath.obj
 0001:00090010       _wcscpy_s                  10091010 f   libucrtd:wcscpy_s.obj
 0001:00090040       __set_abort_behavior       10091040 f   libucrtd:abort.obj
 0001:00090080       _abort                     10091080 f   libucrtd:abort.obj
 0001:00090110       _strcmp                    10091110 f   libucrtd:strcmp.obj
 0001:000901c0       _strlen                    100911c0 f   libucrtd:strlen.obj
 0001:00090270       ??$is_overflow_condition@K@__crt_strtox@@YA_NIK@Z 10091270 f i libucrtd:atox.obj
 0001:000902e0       ??$is_overflow_condition@_K@__crt_strtox@@YA_NI_K@Z 100912e0 f i libucrtd:atox.obj
 0001:00090390       ??$make_c_string_character_source@D$$T@__crt_strtox@@YA?AV?$c_string_character_source@D@0@QBD$$T@Z 10091390 f i libucrtd:atox.obj
 0001:000903b0       ??$make_c_string_character_source@_W$$T@__crt_strtox@@YA?AV?$c_string_character_source@_W@0@QB_W$$T@Z 100913b0 f i libucrtd:atox.obj
 0001:000903d0       ??$parse_integer@KV?$c_string_character_source@D@__crt_strtox@@@__crt_strtox@@YAKQAU__crt_locale_pointers@@V?$c_string_character_source@D@0@H_N@Z 100913d0 f i libucrtd:atox.obj
 0001:00090820       ??$parse_integer@KV?$c_string_character_source@_W@__crt_strtox@@@__crt_strtox@@YAKQAU__crt_locale_pointers@@V?$c_string_character_source@_W@0@H_N@Z 10091820 f i libucrtd:atox.obj
 0001:00090c70       ??$parse_integer@_KV?$c_string_character_source@D@__crt_strtox@@@__crt_strtox@@YA_KQAU__crt_locale_pointers@@V?$c_string_character_source@D@0@H_N@Z 10091c70 f i libucrtd:atox.obj
 0001:00091190       ??$parse_integer@_KV?$c_string_character_source@_W@__crt_strtox@@@__crt_strtox@@YA_KQAU__crt_locale_pointers@@V?$c_string_character_source@_W@0@H_N@Z 10092190 f i libucrtd:atox.obj
 0001:000916d0       ??$parse_integer_from_string@JD$$T@__crt_strtox@@YAJQBD$$THQAU__crt_locale_pointers@@@Z 100926d0 f i libucrtd:atox.obj
 0001:00091720       ??$parse_integer_from_string@J_W$$T@__crt_strtox@@YAJQB_W$$THQAU__crt_locale_pointers@@@Z 10092720 f i libucrtd:atox.obj
 0001:00091770       ??$parse_integer_from_string@_JD$$T@__crt_strtox@@YA_JQBD$$THQAU__crt_locale_pointers@@@Z 10092770 f i libucrtd:atox.obj
 0001:000917c0       ??$parse_integer_from_string@_J_W$$T@__crt_strtox@@YA_JQB_W$$THQAU__crt_locale_pointers@@@Z 100927c0 f i libucrtd:atox.obj
 0001:00091810       ??0?$c_string_character_source@D@__crt_strtox@@QAE@QBDQAPBD@Z 10092810 f i libucrtd:atox.obj
 0001:00091850       ??0?$c_string_character_source@_W@__crt_strtox@@QAE@QB_WQAPB_W@Z 10092850 f i libucrtd:atox.obj
 0001:00091890       ??1?$c_string_character_source@D@__crt_strtox@@QAE@XZ 10092890 f i libucrtd:atox.obj
 0001:000918c0       ??1?$c_string_character_source@_W@__crt_strtox@@QAE@XZ 100928c0 f i libucrtd:atox.obj
 0001:000918f0       ?get@?$c_string_character_source@D@__crt_strtox@@QAEDXZ 100928f0 f i libucrtd:atox.obj
 0001:00091930       ?get@?$c_string_character_source@_W@__crt_strtox@@QAE_WXZ 10092930 f i libucrtd:atox.obj
 0001:00091970       ?is_space@__crt_strtox@@YA_NDQAU__crt_locale_pointers@@@Z 10092970 f i libucrtd:atox.obj
 0001:000919c0       ?is_space@__crt_strtox@@YA_N_WPAU__crt_locale_pointers@@@Z 100929c0 f i libucrtd:atox.obj
 0001:00091a00       ?maximum_signed_value@__crt_strtox@@YAJK@Z 10092a00 f i libucrtd:atox.obj
 0001:00091a10       ?maximum_signed_value@__crt_strtox@@YA_J_K@Z 10092a10 f i libucrtd:atox.obj
 0001:00091a30       ?minimum_signed_value@__crt_strtox@@YAJK@Z 10092a30 f i libucrtd:atox.obj
 0001:00091a40       ?minimum_signed_value@__crt_strtox@@YA_J_K@Z 10092a40 f i libucrtd:atox.obj
 0001:00091a60       ?parse_digit@__crt_strtox@@YAID@Z 10092a60 f i libucrtd:atox.obj
 0001:00091ae0       ?parse_digit@__crt_strtox@@YAI_W@Z 10092ae0 f i libucrtd:atox.obj
 0001:00091b40       ?restore_state@?$c_string_character_source@D@__crt_strtox@@QAE_NQBD@Z 10092b40 f i libucrtd:atox.obj
 0001:00091b60       ?restore_state@?$c_string_character_source@_W@__crt_strtox@@QAE_NQB_W@Z 10092b60 f i libucrtd:atox.obj
 0001:00091b80       ?save_state@?$c_string_character_source@D@__crt_strtox@@QBEPBDXZ 10092b80 f i libucrtd:atox.obj
 0001:00091ba0       ?save_state@?$c_string_character_source@_W@__crt_strtox@@QBEPB_WXZ 10092ba0 f i libucrtd:atox.obj
 0001:00091bc0       ?unget@?$c_string_character_source@D@__crt_strtox@@QAEXD@Z 10092bc0 f i libucrtd:atox.obj
 0001:00091c90       ?unget@?$c_string_character_source@_W@__crt_strtox@@QAEX_W@Z 10092c90 f i libucrtd:atox.obj
 0001:00091d60       ?validate@?$c_string_character_source@D@__crt_strtox@@QBE_NXZ 10092d60 f i libucrtd:atox.obj
 0001:00091e20       ?validate@?$c_string_character_source@_W@__crt_strtox@@QBE_NXZ 10092e20 f i libucrtd:atox.obj
 0001:00091ee0       ?wide_character_to_digit@__crt_strtox@@YAH_W@Z 10092ee0 f i libucrtd:atox.obj
 0001:000922d0       ___ascii_iswalpha          100932d0 f i libucrtd:atox.obj
 0001:00092320       ___ascii_toupper           10093320 f i libucrtd:atox.obj
 0001:00092350       ___ascii_towupper          10093350 f i libucrtd:atox.obj
 0001:00092370       __atoi64                   10093370 f   libucrtd:atox.obj
 0001:00092390       __atoi64_l                 10093390 f   libucrtd:atox.obj
 0001:000923c0       __atoi_l                   100933c0 f   libucrtd:atox.obj
 0001:000923f0       __atol_l                   100933f0 f   libucrtd:atox.obj
 0001:00092420       __atoll_l                  10093420 f   libucrtd:atox.obj
 0001:00092450       __wtoi                     10093450 f   libucrtd:atox.obj
 0001:00092470       __wtoi64                   10093470 f   libucrtd:atox.obj
 0001:00092490       __wtoi64_l                 10093490 f   libucrtd:atox.obj
 0001:000924c0       __wtoi_l                   100934c0 f   libucrtd:atox.obj
 0001:000924f0       __wtol                     100934f0 f   libucrtd:atox.obj
 0001:00092510       __wtol_l                   10093510 f   libucrtd:atox.obj
 0001:00092540       __wtoll                    10093540 f   libucrtd:atox.obj
 0001:00092560       __wtoll_l                  10093560 f   libucrtd:atox.obj
 0001:00092590       _atoi                      10093590 f   libucrtd:atox.obj
 0001:000925b0       _atol                      100935b0 f   libucrtd:atox.obj
 0001:000925d0       _atoll                     100935d0 f   libucrtd:atox.obj
 0001:000925f0       _strncmp                   100935f0 f   libucrtd:strncmp.obj
 0001:00092690       _wcsncmp                   10093690 f   libucrtd:wcsncmp.obj
 0001:00092700       _free                      10093700 f   libucrtd:free.obj
 0001:00092730       _malloc                    10093730 f   libucrtd:malloc.obj
 0001:00092750       __twoToTOS                 10093750 f   libucrtd:common.obj
 0001:00092765       __load_CW                  10093765 f   libucrtd:common.obj
 0001:0009277c       __convertTOStoQNaN         1009377c f   libucrtd:common.obj
 0001:00092795       __fload_withFB             10093795 f   libucrtd:common.obj
 0001:000927d8       __checkTOS_withFB          100937d8 f   libucrtd:common.obj
 0001:000927ee       __fast_exit                100937ee f   libucrtd:common.obj
 0001:000927fb       __math_exit                100937fb f   libucrtd:common.obj
 0001:00092825       __check_overflow_exit      10093825 f   libucrtd:common.obj
 0001:00092839       __check_range_exit         10093839 f   libucrtd:common.obj
 0001:00092940       __CIsqrt                   10093940 f   libucrtd:sqrt_impl.obj
 0001:00092954       __sqrt_common              10093954     libucrtd:sqrt_impl.obj
 0001:00092a20       __add_exp                  10093a20 f   libucrtd:util.obj
 0001:00092a60       __decomp                   10093a60 f   libucrtd:util.obj
 0001:00092bd0       __get_exp                  10093bd0 f   libucrtd:util.obj
 0001:00092c10       __set_bexp                 10093c10 f   libucrtd:util.obj
 0001:00092c50       __set_exp                  10093c50 f   libucrtd:util.obj
 0001:00092ca0       __sptype                   10093ca0 f   libucrtd:util.obj
 0001:00092d40       ___clrfp_sse2              10093d40 f   libucrtd:fpctrl.obj
 0001:00092d90       ___ctrlfp_sse2             10093d90 f   libucrtd:fpctrl.obj
 0001:00092e00       ___fclrf_sse2              10093e00 f   libucrtd:fpctrl.obj
 0001:00092e30       ___get_fpsr_sse2           10093e30 f   libucrtd:fpctrl.obj
 0001:00092e60       ___set_fpsr_sse2           10093e60 f   libucrtd:fpctrl.obj
 0001:00092f70       ___set_statfp_sse2         10093f70 f   libucrtd:fpctrl.obj
 0001:00092fb0       ___statfp_sse2             10093fb0 f   libucrtd:fpctrl.obj
 0001:00092ff0       __clrfp                    10093ff0 f   libucrtd:fpctrl.obj
 0001:00093010       __ctrlfp                   10094010 f   libucrtd:fpctrl.obj
 0001:00093050       __set_statfp               10094050 f   libucrtd:fpctrl.obj
 0001:000930d0       __statfp                   100940d0 f   libucrtd:fpctrl.obj
 0001:000930f0       _ldexp                     100940f0 f   libucrtd:ldexp.obj
 0001:000934a0       _nextafter                 100944a0 f   libucrtd:nextafter.obj
 0001:000934d0       ??$__crt_fast_decode_pointer@P6AXPB_W00II@Z@@YAP6AXPB_W00II@ZQ6AX000II@Z@Z 100944d0 f i libucrtd:invalid_parameter.obj
 0001:00093510       ??$__crt_fast_encode_pointer@P6AXPB_W00II@Z@@YAP6AXPB_W00II@ZQ6AX000II@Z@Z 10094510 f i libucrtd:invalid_parameter.obj
 0001:00093550       ??$initialize_from_array@$$BY00Q6AXPB_W00II@Z@?$dual_state_global@P6AXPB_W00II@Z@__crt_state_management@@QAAXAAY00Q6AXPB_W00II@Z@Z 10094550 f i libucrtd:invalid_parameter.obj
 0001:000935b0       ?dangerous_get_state_array@?$dual_state_global@P6AXPB_W00II@Z@__crt_state_management@@QAEPAP6AXPB_W00II@ZXZ 100945b0 f i libucrtd:invalid_parameter.obj
 0001:000935d0       ?value@?$dual_state_global@P6AXPB_W00II@Z@__crt_state_management@@QAEAAP6AXPB_W00II@ZXZ 100945d0 f i libucrtd:invalid_parameter.obj
 0001:000935f0       ___acrt_call_reportfault   100945f0 f   libucrtd:invalid_parameter.obj
 0001:000937a0       ___acrt_initialize_invalid_parameter_handler 100947a0 f   libucrtd:invalid_parameter.obj
 0001:000937d0       __get_invalid_parameter_handler 100947d0 f   libucrtd:invalid_parameter.obj
 0001:00093800       __get_thread_local_invalid_parameter_handler 10094800 f   libucrtd:invalid_parameter.obj
 0001:00093830       __invalid_parameter        10094830 f   libucrtd:invalid_parameter.obj
 0001:00093920       __invalid_parameter_noinfo 10094920 f   libucrtd:invalid_parameter.obj
 0001:00093940       __invalid_parameter_noinfo_noreturn 10094940 f   libucrtd:invalid_parameter.obj
 0001:00093980       __invoke_watson            10094980 f   libucrtd:invalid_parameter.obj
 0001:000939d0       __set_invalid_parameter_handler 100949d0 f   libucrtd:invalid_parameter.obj
 0001:00093a30       __set_thread_local_invalid_parameter_handler 10094a30 f   libucrtd:invalid_parameter.obj
 0001:00093a70       __CrtGetReportHook         10094a70 f   libucrtd:dbgrptt.obj
 0001:00093a80       __CrtSetReportFile         10094a80 f   libucrtd:dbgrptt.obj
 0001:00093bb0       __CrtSetReportHook         10094bb0 f   libucrtd:dbgrptt.obj
 0001:00093be0       __CrtSetReportMode         10094be0 f   libucrtd:dbgrptt.obj
 0001:00093d70       __VCrtDbgReportA           10094d70 f   libucrtd:dbgrptt.obj
 0001:00094810       __VCrtDbgReportW           10095810 f   libucrtd:dbgrptt.obj
 0001:00095430       __snprintf_s               10096430 f i libucrtd:dbgrptt.obj
 0001:00095480       __vsnprintf_s              10096480 f i libucrtd:dbgrptt.obj
 0001:000954b0       __vsnprintf_s_l            100964b0 f i libucrtd:dbgrptt.obj
 0001:00095520       ___acrt_errno_from_os_error 10096520 f   libucrtd:errno.obj
 0001:000955c0       ___acrt_errno_map_os_error 100965c0 f   libucrtd:errno.obj
 0001:00095600       ___doserrno                10096600 f   libucrtd:errno.obj
 0001:00095630       __errno                    10096630 f   libucrtd:errno.obj
 0001:00095660       __get_doserrno             10096660 f   libucrtd:errno.obj
 0001:00095710       __get_errno                10096710 f   libucrtd:errno.obj
 0001:000957c0       __set_doserrno             100967c0 f   libucrtd:errno.obj
 0001:00095800       __set_errno                10096800 f   libucrtd:errno.obj
 0001:00096880       ??1?$__crt_simd_cleanup_guard@$00@@QAE@XZ 10097880 f i libucrtd:strnlen.obj
 0001:000968a0       ??1?$__crt_simd_cleanup_guard@$0A@@@QAE@XZ 100978a0 f i libucrtd:strnlen.obj
 0001:000968b0       ?compare_equals@?$__crt_simd_traits@$00E@@SA?AT__m256i@@T2@0@Z 100978b0 f i libucrtd:strnlen.obj
 0001:00096900       ?compare_equals@?$__crt_simd_traits@$00G@@SA?AT__m256i@@T2@0@Z 10097900 f i libucrtd:strnlen.obj
 0001:00096950       ?compare_equals@?$__crt_simd_traits@$0A@E@@SA?AT__m128i@@T2@0@Z 10097950 f i libucrtd:strnlen.obj
 0001:000969a0       ?compare_equals@?$__crt_simd_traits@$0A@G@@SA?AT__m128i@@T2@0@Z 100979a0 f i libucrtd:strnlen.obj
 0001:000969f0       ?compute_byte_mask@?$__crt_simd_pack_traits@$00@@SAHT__m256i@@@Z 100979f0 f i libucrtd:strnlen.obj
 0001:00096a30       ?compute_byte_mask@?$__crt_simd_pack_traits@$0A@@@SAHT__m128i@@@Z 10097a30 f i libucrtd:strnlen.obj
 0001:00096a70       ?get_zero_pack@?$__crt_simd_pack_traits@$00@@SA?AT__m256i@@XZ 10097a70 f i libucrtd:strnlen.obj
 0001:00096ab0       ?get_zero_pack@?$__crt_simd_pack_traits@$0A@@@SA?AT__m128i@@XZ 10097ab0 f i libucrtd:strnlen.obj
 0001:00096af0       _strnlen                   10097af0 f   libucrtd:strnlen.obj
 0001:00096b10       _wcslen                    10097b10 f   libucrtd:strnlen.obj
 0001:00096b30       _wcsnlen                   10097b30 f   libucrtd:strnlen.obj
 0001:00096cd0       ??$__acrt_wcs_to_mbs_cp@U__crt_win32_buffer_no_resizing@@@@YAHQB_WAAV?$__crt_win32_buffer@DU__crt_win32_buffer_no_resizing@@@@I@Z 10097cd0 f i libucrtd:getmodulefilenamea.obj
 0001:00096d00       ??0?$__crt_win32_buffer@DU__crt_win32_buffer_no_resizing@@@@QAE@QADI@Z 10097d00 f i libucrtd:getmodulefilenamea.obj
 0001:00096d60       ??1?$__crt_win32_buffer@DU__crt_win32_buffer_no_resizing@@@@QAE@XZ 10097d60 f i libucrtd:getmodulefilenamea.obj
 0001:00096df0       ?__acrt_get_utf8_acp_compatibility_codepage@@YAIXZ 10097df0 f i libucrtd:getmodulefilenamea.obj
 0001:00096ea0       ?_deallocate@?$__crt_win32_buffer@DU__crt_win32_buffer_no_resizing@@@@AAEXXZ 10097ea0 f i libucrtd:getmodulefilenamea.obj
 0001:00096ef0       ?allocate@?$__crt_win32_buffer@DU__crt_win32_buffer_no_resizing@@@@QAEHI@Z 10097ef0 f i libucrtd:getmodulefilenamea.obj
 0001:00096f70       ?allocate@__crt_win32_buffer_no_resizing@@SAHQAPAXIABV__crt_win32_buffer_empty_debug_info@@@Z 10097f70 f i libucrtd:getmodulefilenamea.obj
 0001:00096f90       ?capacity@?$__crt_win32_buffer@DU__crt_win32_buffer_no_resizing@@@@QBEIXZ 10097f90 f i libucrtd:getmodulefilenamea.obj
 0001:00096fb0       ?data@?$__crt_win32_buffer@DU__crt_win32_buffer_no_resizing@@@@QAEPADXZ 10097fb0 f i libucrtd:getmodulefilenamea.obj
 0001:00096fd0       ?deallocate@__crt_win32_buffer_no_resizing@@SAXQAXABV__crt_win32_buffer_empty_debug_info@@@Z 10097fd0 f i libucrtd:getmodulefilenamea.obj
 0001:00096fe0       ?debug_info@?$__crt_win32_buffer@DU__crt_win32_buffer_no_resizing@@@@QBEABV__crt_win32_buffer_empty_debug_info@@XZ 10097fe0 f i libucrtd:getmodulefilenamea.obj
 0001:00097000       ?set_to_nullptr@?$__crt_win32_buffer@DU__crt_win32_buffer_no_resizing@@@@QAEXXZ 10098000 f i libucrtd:getmodulefilenamea.obj
 0001:00097040       ?size@?$__crt_win32_buffer@DU__crt_win32_buffer_no_resizing@@@@QAEXI@Z 10098040 f i libucrtd:getmodulefilenamea.obj
 0001:00097060       ?size@?$__crt_win32_buffer@DU__crt_win32_buffer_no_resizing@@@@QBEIXZ 10098060 f i libucrtd:getmodulefilenamea.obj
 0001:00097080       ___acrt_GetModuleFileNameA 10098080 f   libucrtd:getmodulefilenamea.obj
 0001:00097430       ??$message_box@$$TABQBDABQBDK@?$__crt_char_traits@D@@SAH$$QA$$TABQBD1$$QAK@Z 10098430 f i libucrtd:crtmbox.obj
 0001:00097460       ??$message_box@$$TABQB_WABQB_WK@?$__crt_char_traits@_W@@SAH$$QA$$TABQB_W1$$QAK@Z 10098460 f i libucrtd:crtmbox.obj
 0001:00097490       ??$message_box@PAUHWND__@@ABQBDABQBDABI@?$__crt_char_traits@D@@SAH$$QAPAUHWND__@@ABQBD1ABI@Z 10098490 f i libucrtd:crtmbox.obj
 0001:000974c0       ??$message_box@PAUHWND__@@ABQB_WABQB_WABI@?$__crt_char_traits@_W@@SAH$$QAPAUHWND__@@ABQB_W1ABI@Z 100984c0 f i libucrtd:crtmbox.obj
 0001:000974f0       ??$output_debug_string@ABQBD@?$__crt_char_traits@D@@SAXABQBD@Z 100984f0 f i libucrtd:crtmbox.obj
 0001:00097510       ??$output_debug_string@ABQB_W@?$__crt_char_traits@_W@@SAXABQB_W@Z 10098510 f i libucrtd:crtmbox.obj
 0001:00097530       ___acrt_show_narrow_message_box 10098530 f   libucrtd:crtmbox.obj
 0001:00097560       ___acrt_show_wide_message_box 10098560 f   libucrtd:crtmbox.obj
 0001:00097590       ___acrt_initialize_locks   10098590 f   libucrtd:locks.obj
 0001:00097610       ___acrt_lock               10098610 f   libucrtd:locks.obj
 0001:00097630       ___acrt_uninitialize_locks 10098630 f   libucrtd:locks.obj
 0001:00097690       ___acrt_unlock             10098690 f   libucrtd:locks.obj
 0001:000976b0       __lock_locales             100986b0 f   libucrtd:locks.obj
 0001:000976d0       __unlock_locales           100986d0 f   libucrtd:locks.obj
 0001:000976f0       ??$?B$$A6AXH@Z@__crt_fast_encoded_nullptr_t@@QBEP6AXH@ZXZ 100986f0 f i libucrtd:signal.obj
 0001:00097800       ??$__crt_fast_decode_pointer@P6AXH@Z@@YAP6AXH@ZQ6AXH@Z@Z 10098800 f i libucrtd:signal.obj
 0001:00097840       ??$__crt_fast_encode_pointer@P6AXH@Z@@YAP6AXH@ZQ6AXH@Z@Z 10098840 f i libucrtd:signal.obj
 0001:00097bb0       ?initialize@?$dual_state_global@P6AXH@Z@__crt_state_management@@QAEXQ6AXH@Z@Z 10098bb0 f i libucrtd:signal.obj
 0001:00097d50       ?value@?$dual_state_global@P6AXH@Z@__crt_state_management@@QAEAAP6AXH@ZXZ 10098d50 f i libucrtd:signal.obj
 0001:00097d70       ___acrt_get_sigabrt_handler 10098d70 f   libucrtd:signal.obj
 0001:00097da0       ___acrt_initialize_signal_handlers 10098da0 f   libucrtd:signal.obj
 0001:00097df0       ___fpecode                 10098df0 f   libucrtd:signal.obj
 0001:00097e10       ___pxcptinfoptrs           10098e10 f   libucrtd:signal.obj
 0001:00097e30       _raise                     10098e30 f   libucrtd:signal.obj
 0001:000982f0       _signal                    100992f0 f   libucrtd:signal.obj
 0001:00098610       ??$__crt_fast_decode_pointer@P6AHPAU_exception@@@Z@@YAP6AHPAU_exception@@@ZQ6AH0@Z@Z 10099610 f i libucrtd:matherr.obj
 0001:00098650       ??$__crt_fast_encode_pointer@P6AHPAU_exception@@@Z@@YAP6AHPAU_exception@@@ZQ6AH0@Z@Z 10099650 f i libucrtd:matherr.obj
 0001:00098690       ?initialize@?$dual_state_global@P6AHPAU_exception@@@Z@__crt_state_management@@QAEXQ6AHPAU_exception@@@Z@Z 10099690 f i libucrtd:matherr.obj
 0001:000986e0       ?value@?$dual_state_global@P6AHPAU_exception@@@Z@__crt_state_management@@QAEAAP6AHPAU_exception@@@ZXZ 100996e0 f i libucrtd:matherr.obj
 0001:00098700       ___acrt_has_user_matherr   10099700 f   libucrtd:matherr.obj
 0001:00098750       ___acrt_initialize_user_matherr 10099750 f   libucrtd:matherr.obj
 0001:00098770       ___acrt_invoke_user_matherr 10099770 f   libucrtd:matherr.obj
 0001:000987d0       ___setusermatherr          100997d0 f   libucrtd:matherr.obj
 0001:00098800       __chvalidator              10099800 f   libucrtd:isctype.obj
 0001:00098860       __chvalidator_l            10099860 f   libucrtd:isctype.obj
 0001:00098900       __isctype                  10099900 f   libucrtd:isctype.obj
 0001:00098950       __isctype_l                10099950 f   libucrtd:isctype.obj
 0001:00098b30       __isleadbyte_fast_internal 10099b30 f i libucrtd:isctype.obj
 0001:00098b60       ??$?B$$A6AHI@Z@__crt_fast_encoded_nullptr_t@@QBEP6AHI@ZXZ 10099b60 f i libucrtd:new_handler.obj
 0001:00098b80       ??$__crt_fast_decode_pointer@P6AHI@Z@@YAP6AHI@ZQ6AHI@Z@Z 10099b80 f i libucrtd:new_handler.obj
 0001:00098bc0       ??$__crt_fast_encode_pointer@P6AHI@Z@@YAP6AHI@ZQ6AHI@Z@Z 10099bc0 f i libucrtd:new_handler.obj
 0001:00098c00       ?_set_new_handler@@YAP6AHI@ZH@Z 10099c00 f   libucrtd:new_handler.obj
 0001:00098c70       ?initialize@?$dual_state_global@P6AHI@Z@__crt_state_management@@QAEXQ6AHI@Z@Z 10099c70 f i libucrtd:new_handler.obj
 0001:00098cc0       ?value@?$dual_state_global@P6AHI@Z@__crt_state_management@@QAEAAP6AHI@ZXZ 10099cc0 f i libucrtd:new_handler.obj
 0001:00098ce0       ___acrt_initialize_new_handler 10099ce0 f   libucrtd:new_handler.obj
 0001:00098d00       __callnewh                 10099d00 f   libucrtd:new_handler.obj
 0001:00098d50       __query_new_handler        10099d50 f   libucrtd:new_handler.obj
 0001:00098e10       __set_new_handler          10099e10 f   libucrtd:new_handler.obj
 0001:00098f00       __free_base                10099f00 f   libucrtd:free_base.obj
 0001:00098f60       __realloc_base             10099f60 f   libucrtd:realloc_base.obj
 0001:00099020       ??$?RU__acrt_ptd@@@__crt_internal_free_policy@@QBEXQBU__acrt_ptd@@@Z 1009a020 f i libucrtd:per_thread_data.obj
 0001:000995e0       ??0?$__crt_unique_heap_ptr@U__acrt_ptd@@U__crt_internal_free_policy@@@@QAE@QAU__acrt_ptd@@@Z 1009a5e0 f i libucrtd:per_thread_data.obj
 0001:00099600       ??0__crt_scoped_get_last_error_reset@@QAE@XZ 1009a600 f i libucrtd:per_thread_data.obj
 0001:00099630       ??1?$__crt_unique_heap_ptr@U__acrt_ptd@@U__crt_internal_free_policy@@@@QAE@XZ 1009a630 f i libucrtd:per_thread_data.obj
 0001:00099650       ??1__crt_scoped_get_last_error_reset@@QAE@XZ 1009a650 f i libucrtd:per_thread_data.obj
 0001:00099670       ??B?$__crt_unique_heap_ptr@U__acrt_ptd@@U__crt_internal_free_policy@@@@QBE_NXZ 1009a670 f i libucrtd:per_thread_data.obj
 0001:00099a30       ?dangerous_get_state_array@?$dual_state_global@PAU__crt_locale_data@@@__crt_state_management@@QAEPAPAU__crt_locale_data@@XZ 1009aa30 f i libucrtd:per_thread_data.obj
 0001:00099c10       ?detach@?$__crt_unique_heap_ptr@U__acrt_ptd@@U__crt_internal_free_policy@@@@QAEPAU__acrt_ptd@@XZ 1009ac10 f i libucrtd:per_thread_data.obj
 0001:00099c40       ?get@?$__crt_unique_heap_ptr@U__acrt_ptd@@U__crt_internal_free_policy@@@@QBEPAU__acrt_ptd@@XZ 1009ac40 f i libucrtd:per_thread_data.obj
 0001:00099c60       ?get_current_state_index@__crt_state_management@@YAIABV__crt_scoped_get_last_error_reset@@@Z 1009ac60 f i libucrtd:per_thread_data.obj
 0001:00099e20       ?is_valid@?$__crt_unique_heap_ptr@U__acrt_ptd@@U__crt_internal_free_policy@@@@QBE_NXZ 1009ae20 f i libucrtd:per_thread_data.obj
 0001:00099e60       ?release@?$__crt_unique_heap_ptr@U__acrt_ptd@@U__crt_internal_free_policy@@@@QAEXXZ 1009ae60 f i libucrtd:per_thread_data.obj
 0001:00099f70       ?value@?$dual_state_global@PAU__crt_locale_data@@@__crt_state_management@@QAEAAPAU__crt_locale_data@@XZ 1009af70 f i libucrtd:per_thread_data.obj
 0001:00099f90       ___acrt_freeptd            1009af90 f   libucrtd:per_thread_data.obj
 0001:00099fd0       ___acrt_getptd             1009afd0 f   libucrtd:per_thread_data.obj
 0001:0009a000       ___acrt_getptd_head        1009b000 f   libucrtd:per_thread_data.obj
 0001:0009a030       ___acrt_getptd_noexit      1009b030 f   libucrtd:per_thread_data.obj
 0001:0009a040       ___acrt_initialize_ptd     1009b040 f   libucrtd:per_thread_data.obj
 0001:0009a090       ___acrt_uninitialize_ptd   1009b090 f   libucrtd:per_thread_data.obj
 0001:0009a0c0       ___threadhandle            1009b0c0 f   libucrtd:per_thread_data.obj
 0001:0009a0d0       ___threadid                1009b0d0 f   libucrtd:per_thread_data.obj
 0001:0009a150       __expand                   1009b150 f   libucrtd:expand.obj
 0001:0009a180       __expand_base              1009b180 f   libucrtd:expand.obj
 0001:0009a300       ?value@?$dual_state_global@PAU__crt_multibyte_data@@@__crt_state_management@@QAEAAPAU__crt_multibyte_data@@XZ 1009b300 f i libucrtd:locale_update.obj
 0001:0009a320       ___acrt_should_sync_with_global_locale 1009b320 f i libucrtd:locale_update.obj
 0001:0009a360       ___acrt_update_locale_info 1009b360 f   libucrtd:locale_update.obj
 0001:0009a3b0       ___acrt_update_multibyte_info 1009b3b0 f   libucrtd:locale_update.obj
 0001:0009a400       ?value@?$dual_state_global@J@__crt_state_management@@QAEAAJXZ 1009b400 f i libucrtd:new_mode.obj
 0001:0009a420       __query_new_mode           1009b420 f   libucrtd:new_mode.obj
 0001:0009a440       __set_new_mode             1009b440 f   libucrtd:new_mode.obj
 0001:0009a510       __CrtDefaultAllocHook      1009b510 f   libucrtd:debug_heap_hook.obj
 0001:0009a530       ??$?RU__crt_locale_data@@@__crt_internal_free_policy@@QBEXQBU__crt_locale_data@@@Z 1009b530 f i libucrtd:wsetlocale.obj
 0001:0009a560       ??$?RU__crt_locale_pointers@@@__crt_internal_free_policy@@QBEXQBU__crt_locale_pointers@@@Z 1009b560 f i libucrtd:wsetlocale.obj
 0001:0009a590       ??$?RU__crt_multibyte_data@@@__crt_internal_free_policy@@QBEXQBU__crt_multibyte_data@@@Z 1009b590 f i libucrtd:wsetlocale.obj
 0001:0009ace0       ??0?$__crt_unique_heap_ptr@U__crt_locale_data@@U__crt_internal_free_policy@@@@QAE@QAU__crt_locale_data@@@Z 1009bce0 f i libucrtd:wsetlocale.obj
 0001:0009ad00       ??0?$__crt_unique_heap_ptr@U__crt_locale_pointers@@U__crt_internal_free_policy@@@@QAE@QAU__crt_locale_pointers@@@Z 1009bd00 f i libucrtd:wsetlocale.obj
 0001:0009ad20       ??0?$__crt_unique_heap_ptr@U__crt_multibyte_data@@U__crt_internal_free_policy@@@@QAE@QAU__crt_multibyte_data@@@Z 1009bd20 f i libucrtd:wsetlocale.obj
 0001:0009ad40       ??0_expandlocale_locale_name_cache@@QAE@QA_WIQAU__crt_qualified_locale_data@@@Z 1009bd40 f i libucrtd:wsetlocale.obj
 0001:0009add0       ??1?$__crt_unique_heap_ptr@U__crt_locale_data@@U__crt_internal_free_policy@@@@QAE@XZ 1009bdd0 f i libucrtd:wsetlocale.obj
 0001:0009adf0       ??1?$__crt_unique_heap_ptr@U__crt_locale_pointers@@U__crt_internal_free_policy@@@@QAE@XZ 1009bdf0 f i libucrtd:wsetlocale.obj
 0001:0009ae10       ??1?$__crt_unique_heap_ptr@U__crt_multibyte_data@@U__crt_internal_free_policy@@@@QAE@XZ 1009be10 f i libucrtd:wsetlocale.obj
 0001:0009ae30       ??1_expandlocale_locale_name_cache@@QAE@XZ 1009be30 f i libucrtd:wsetlocale.obj
 0001:0009aeb0       ??B?$__crt_unique_heap_ptr@U__crt_locale_data@@U__crt_internal_free_policy@@@@QBE_NXZ 1009beb0 f i libucrtd:wsetlocale.obj
 0001:0009aed0       ??B?$__crt_unique_heap_ptr@U__crt_locale_pointers@@U__crt_internal_free_policy@@@@QBE_NXZ 1009bed0 f i libucrtd:wsetlocale.obj
 0001:0009aef0       ??B?$__crt_unique_heap_ptr@U__crt_multibyte_data@@U__crt_internal_free_policy@@@@QBE_NXZ 1009bef0 f i libucrtd:wsetlocale.obj
 0001:0009b3f0       ?commit_locale_name@_expandlocale_locale_name_cache@@QAEXQB_WI@Z 1009c3f0 f i libucrtd:wsetlocale.obj
 0001:0009b470       ?commit_locale_name_cache_already_updated@_expandlocale_locale_name_cache@@QAEXQB_WI@Z 1009c470 f i libucrtd:wsetlocale.obj
 0001:0009b4e0       ?detach@?$__crt_unique_heap_ptr@U__crt_locale_data@@U__crt_internal_free_policy@@@@QAEPAU__crt_locale_data@@XZ 1009c4e0 f i libucrtd:wsetlocale.obj
 0001:0009b510       ?detach@?$__crt_unique_heap_ptr@U__crt_locale_pointers@@U__crt_internal_free_policy@@@@QAEPAU__crt_locale_pointers@@XZ 1009c510 f i libucrtd:wsetlocale.obj
 0001:0009b540       ?detach@?$__crt_unique_heap_ptr@U__crt_multibyte_data@@U__crt_internal_free_policy@@@@QAEPAU__crt_multibyte_data@@XZ 1009c540 f i libucrtd:wsetlocale.obj
 0001:0009b570       ?get@?$__crt_unique_heap_ptr@U__crt_locale_data@@U__crt_internal_free_policy@@@@QBEPAU__crt_locale_data@@XZ 1009c570 f i libucrtd:wsetlocale.obj
 0001:0009b590       ?get@?$__crt_unique_heap_ptr@U__crt_locale_pointers@@U__crt_internal_free_policy@@@@QBEPAU__crt_locale_pointers@@XZ 1009c590 f i libucrtd:wsetlocale.obj
 0001:0009b5b0       ?get@?$__crt_unique_heap_ptr@U__crt_multibyte_data@@U__crt_internal_free_policy@@@@QBEPAU__crt_multibyte_data@@XZ 1009c5b0 f i libucrtd:wsetlocale.obj
 0001:0009b5d0       ?is_valid@?$__crt_unique_heap_ptr@U__crt_locale_data@@U__crt_internal_free_policy@@@@QBE_NXZ 1009c5d0 f i libucrtd:wsetlocale.obj
 0001:0009b610       ?is_valid@?$__crt_unique_heap_ptr@U__crt_locale_pointers@@U__crt_internal_free_policy@@@@QBE_NXZ 1009c610 f i libucrtd:wsetlocale.obj
 0001:0009b650       ?is_valid@?$__crt_unique_heap_ptr@U__crt_multibyte_data@@U__crt_internal_free_policy@@@@QBE_NXZ 1009c650 f i libucrtd:wsetlocale.obj
 0001:0009b690       ?release@?$__crt_unique_heap_ptr@U__crt_locale_data@@U__crt_internal_free_policy@@@@QAEXXZ 1009c690 f i libucrtd:wsetlocale.obj
 0001:0009b6c0       ?release@?$__crt_unique_heap_ptr@U__crt_locale_pointers@@U__crt_internal_free_policy@@@@QAEXXZ 1009c6c0 f i libucrtd:wsetlocale.obj
 0001:0009b6f0       ?release@?$__crt_unique_heap_ptr@U__crt_multibyte_data@@U__crt_internal_free_policy@@@@QAEXXZ 1009c6f0 f i libucrtd:wsetlocale.obj
 0001:0009b720       ___acrt_copy_locale_name   1009c720 f   libucrtd:wsetlocale.obj
 0001:0009b7f0       ___acrt_set_locale_changed 1009c7f0 f   libucrtd:wsetlocale.obj
 0001:0009b810       ___acrt_uninitialize_locale 1009c810 f   libucrtd:wsetlocale.obj
 0001:0009b840       ___ascii_tolower           1009c840 f i libucrtd:wsetlocale.obj
 0001:0009b870       ___ascii_towlower          1009c870 f i libucrtd:wsetlocale.obj
 0001:0009b890       ___lc_lctowcs              1009c890 f   libucrtd:wsetlocale.obj
 0001:0009b970       ___lc_wcstolc              1009c970 f   libucrtd:wsetlocale.obj
 0001:0009bc30       __configthreadlocale       1009cc30 f   libucrtd:wsetlocale.obj
 0001:0009be00       __create_locale            1009ce00 f   libucrtd:wsetlocale.obj
 0001:0009c5c0       __free_locale              1009d5c0 f   libucrtd:wsetlocale.obj
 0001:0009c740       __get_current_locale       1009d740 f   libucrtd:wsetlocale.obj
 0001:0009c840       __wcreate_locale           1009d840 f   libucrtd:wsetlocale.obj
 0001:0009cb00       __wcscats                  1009db00 f   libucrtd:wsetlocale.obj
 0001:0009cba0       __wsetlocale               1009dba0 f   libucrtd:wsetlocale.obj
 0001:0009e830       ___p___mb_cur_max          1009f830 f   libucrtd:nlsdata.obj
 0001:0009e870       ___acrt_getheap            1009f870 f   libucrtd:heap_handle.obj
 0001:0009e8c0       ___acrt_initialize_heap    1009f8c0 f   libucrtd:heap_handle.obj
 0001:0009e8f0       ___acrt_uninitialize_heap  1009f8f0 f   libucrtd:heap_handle.obj
 0001:0009e910       __get_heap_handle          1009f910 f   libucrtd:heap_handle.obj
 0001:0009ed70       ___acrt_get_begin_thread_init_policy 1009fd70 f   libucrtd:win_policies.obj
 0001:0009ed90       ___acrt_get_developer_information_policy 1009fd90 f   libucrtd:win_policies.obj
 0001:0009edb0       ___acrt_get_process_end_policy 1009fdb0 f   libucrtd:win_policies.obj
 0001:0009edd0       ___acrt_get_windowing_model_policy 1009fdd0 f   libucrtd:win_policies.obj
 0001:0009f130       ??$__acrt_mbs_to_wcs_cp@U__crt_win32_buffer_internal_dynamic_resizing@@@@YAHQBDAAV?$__crt_win32_buffer@_WU__crt_win32_buffer_internal_dynamic_resizing@@@@I@Z 100a0130 f i libucrtd:argv_wildcards.obj
 0001:0009f160       ??$__acrt_wcs_to_mbs_cp@U__crt_win32_buffer_internal_dynamic_resizing@@@@YAHQB_WAAV?$__crt_win32_buffer@DU__crt_win32_buffer_internal_dynamic_resizing@@@@I@Z 100a0160 f i libucrtd:argv_wildcards.obj
 0001:000a0470       ??$tcsncpy_s@AAPADIAAPADABI@?$__crt_char_traits@D@@SAHAAPAD$$QAI0ABI@Z 100a1470 f i libucrtd:argv_wildcards.obj
 0001:000a04a0       ??$tcsncpy_s@AAPA_WIAAPA_WABI@?$__crt_char_traits@_W@@SAHAAPA_W$$QAI0ABI@Z 100a14a0 f i libucrtd:argv_wildcards.obj
 0001:000a04d0       ??$tcsncpy_s@PADABIABQBDABI@?$__crt_char_traits@D@@SAH$$QAPADABIABQBD1@Z 100a14d0 f i libucrtd:argv_wildcards.obj
 0001:000a0500       ??$tcsncpy_s@PADIABQBDABI@?$__crt_char_traits@D@@SAH$$QAPAD$$QAIABQBDABI@Z 100a1500 f i libucrtd:argv_wildcards.obj
 0001:000a0530       ??$tcsncpy_s@PA_WABIABQB_WABI@?$__crt_char_traits@_W@@SAH$$QAPA_WABIABQB_W1@Z 100a1530 f i libucrtd:argv_wildcards.obj
 0001:000a0560       ??$tcsncpy_s@PA_WIABQB_WABI@?$__crt_char_traits@_W@@SAH$$QAPA_W$$QAIABQB_WABI@Z 100a1560 f i libucrtd:argv_wildcards.obj
 0001:000a0590       ??$tcspbrk@AAPADAAY02$$CBD@?$__crt_char_traits@D@@SAPADAAPADAAY02$$CBD@Z 100a1590 f i libucrtd:argv_wildcards.obj
 0001:000a05b0       ??$tcspbrk@AAPA_WAAY02$$CB_W@?$__crt_char_traits@_W@@SAPA_WAAPA_WAAY02$$CB_W@Z 100a15b0 f i libucrtd:argv_wildcards.obj
 0001:000a05d0       ??0?$__crt_unique_handle_t@U__crt_findfile_traits@@@@QAE@QAX@Z 100a15d0 f i libucrtd:argv_wildcards.obj
 0001:000a05f0       ??0?$__crt_win32_buffer@DU__crt_win32_buffer_internal_dynamic_resizing@@@@QAE@XZ 100a15f0 f i libucrtd:argv_wildcards.obj
 0001:000a0650       ??0?$__crt_win32_buffer@_WU__crt_win32_buffer_internal_dynamic_resizing@@@@QAE@XZ 100a1650 f i libucrtd:argv_wildcards.obj
 0001:000a0730       ??1?$__crt_unique_handle_t@U__crt_findfile_traits@@@@QAE@XZ 100a1730 f i libucrtd:argv_wildcards.obj
 0001:000a0750       ??1?$__crt_win32_buffer@DU__crt_win32_buffer_internal_dynamic_resizing@@@@QAE@XZ 100a1750 f i libucrtd:argv_wildcards.obj
 0001:000a07a0       ??1?$__crt_win32_buffer@_WU__crt_win32_buffer_internal_dynamic_resizing@@@@QAE@XZ 100a17a0 f i libucrtd:argv_wildcards.obj
 0001:000a0ab0       ?_deallocate@?$__crt_win32_buffer@DU__crt_win32_buffer_internal_dynamic_resizing@@@@AAEXXZ 100a1ab0 f i libucrtd:argv_wildcards.obj
 0001:000a0b00       ?_deallocate@?$__crt_win32_buffer@_WU__crt_win32_buffer_internal_dynamic_resizing@@@@AAEXXZ 100a1b00 f i libucrtd:argv_wildcards.obj
 0001:000a0b50       ?allocate@?$__crt_win32_buffer@DU__crt_win32_buffer_internal_dynamic_resizing@@@@QAEHI@Z 100a1b50 f i libucrtd:argv_wildcards.obj
 0001:000a0bd0       ?allocate@?$__crt_win32_buffer@_WU__crt_win32_buffer_internal_dynamic_resizing@@@@QAEHI@Z 100a1bd0 f i libucrtd:argv_wildcards.obj
 0001:000a0c60       ?allocate@__crt_win32_buffer_internal_dynamic_resizing@@SAHQAPAXIABV__crt_win32_buffer_empty_debug_info@@@Z 100a1c60 f i libucrtd:argv_wildcards.obj
 0001:000a0dd0       ?capacity@?$__crt_win32_buffer@DU__crt_win32_buffer_internal_dynamic_resizing@@@@QBEIXZ 100a1dd0 f i libucrtd:argv_wildcards.obj
 0001:000a0df0       ?capacity@?$__crt_win32_buffer@_WU__crt_win32_buffer_internal_dynamic_resizing@@@@QBEIXZ 100a1df0 f i libucrtd:argv_wildcards.obj
 0001:000a0e10       ?close@?$__crt_unique_handle_t@U__crt_findfile_traits@@@@QAEXXZ 100a1e10 f i libucrtd:argv_wildcards.obj
 0001:000a0e50       ?close@__crt_findfile_traits@@SA_NPAX@Z 100a1e50 f i libucrtd:argv_wildcards.obj
 0001:000a0e90       ?data@?$__crt_win32_buffer@DU__crt_win32_buffer_internal_dynamic_resizing@@@@QAEPADXZ 100a1e90 f i libucrtd:argv_wildcards.obj
 0001:000a0eb0       ?data@?$__crt_win32_buffer@_WU__crt_win32_buffer_internal_dynamic_resizing@@@@QAEPA_WXZ 100a1eb0 f i libucrtd:argv_wildcards.obj
 0001:000a0ed0       ?deallocate@__crt_win32_buffer_internal_dynamic_resizing@@SAXQAXABV__crt_win32_buffer_empty_debug_info@@@Z 100a1ed0 f i libucrtd:argv_wildcards.obj
 0001:000a0ef0       ?debug_info@?$__crt_win32_buffer@DU__crt_win32_buffer_internal_dynamic_resizing@@@@QBEABV__crt_win32_buffer_empty_debug_info@@XZ 100a1ef0 f i libucrtd:argv_wildcards.obj
 0001:000a0f10       ?debug_info@?$__crt_win32_buffer@_WU__crt_win32_buffer_internal_dynamic_resizing@@@@QBEABV__crt_win32_buffer_empty_debug_info@@XZ 100a1f10 f i libucrtd:argv_wildcards.obj
 0001:000a12d0       ?get@?$__crt_unique_handle_t@U__crt_findfile_traits@@@@QBEPAXXZ 100a22d0 f i libucrtd:argv_wildcards.obj
 0001:000a1350       ?get_invalid_value@__crt_findfile_traits@@SAPAXXZ 100a2350 f i libucrtd:argv_wildcards.obj
 0001:000a13f0       ?set_to_nullptr@?$__crt_win32_buffer@DU__crt_win32_buffer_internal_dynamic_resizing@@@@QAEXXZ 100a23f0 f i libucrtd:argv_wildcards.obj
 0001:000a1430       ?set_to_nullptr@?$__crt_win32_buffer@_WU__crt_win32_buffer_internal_dynamic_resizing@@@@QAEXXZ 100a2430 f i libucrtd:argv_wildcards.obj
 0001:000a1470       ?size@?$__crt_win32_buffer@DU__crt_win32_buffer_internal_dynamic_resizing@@@@QAEXI@Z 100a2470 f i libucrtd:argv_wildcards.obj
 0001:000a1490       ?size@?$__crt_win32_buffer@_WU__crt_win32_buffer_internal_dynamic_resizing@@@@QAEXI@Z 100a2490 f i libucrtd:argv_wildcards.obj
 0001:000a1510       ?strpbrk@@YAPADQADQBD@Z    100a2510 f i libucrtd:argv_wildcards.obj
 0001:000a1530       ?wcspbrk@@YAPA_WPA_WPB_W@Z 100a2530 f i libucrtd:argv_wildcards.obj
 0001:000a1550       ___acrt_expand_narrow_argv_wildcards 100a2550 f   libucrtd:argv_wildcards.obj
 0001:000a1570       ___acrt_expand_wide_argv_wildcards 100a2570 f   libucrtd:argv_wildcards.obj
 0001:000a1670       ??$initialize_from_array@$$BY10BAA@E@?$dual_state_global@PAE@__crt_state_management@@QAAXAAY10BAA@E@Z 100a2670 f i libucrtd:mbctype.obj
 0001:000a16d0       ??$initialize_from_array@$$BY10BAB@E@?$dual_state_global@PAE@__crt_state_management@@QAAXAAY10BAB@E@Z 100a26d0 f i libucrtd:mbctype.obj
 0001:000a19f0       ?dangerous_get_state_array@?$dual_state_global@PAE@__crt_state_management@@QAEPAPAEXZ 100a29f0 f i libucrtd:mbctype.obj
 0001:000a1a10       ?dangerous_get_state_array@?$dual_state_global@PAU__crt_multibyte_data@@@__crt_state_management@@QAEPAPAU__crt_multibyte_data@@XZ 100a2a10 f i libucrtd:mbctype.obj
 0001:000a1b20       ?initialize@?$dual_state_global@PAU__crt_multibyte_data@@@__crt_state_management@@QAEXQAU__crt_multibyte_data@@@Z 100a2b20 f i libucrtd:mbctype.obj
 0001:000a2440       ?value@?$dual_state_global@PAE@__crt_state_management@@QAEAAPAEXZ 100a3440 f i libucrtd:mbctype.obj
 0001:000a2460       ___acrt_initialize_multibyte 100a3460 f   libucrtd:mbctype.obj
 0001:000a2530       ___acrt_update_thread_multibyte_data 100a3530 f   libucrtd:mbctype.obj
 0001:000a2560       ___p__mbcasemap            100a3560 f   libucrtd:mbctype.obj
 0001:000a2580       ___p__mbctype              100a3580 f   libucrtd:mbctype.obj
 0001:000a25a0       __getmbcp                  100a35a0 f   libucrtd:mbctype.obj
 0001:000a2630       __setmbcp                  100a3630 f   libucrtd:mbctype.obj
 0001:000a2660       __setmbcp_nolock           100a3660 f   libucrtd:mbctype.obj
 0001:000a2d28       __ismbbalnum               100a3d28 f   libucrtd:ismbbyte.obj
 0001:000a2d49       __ismbbalnum_l             100a3d49 f   libucrtd:ismbbyte.obj
 0001:000a2d6c       __ismbbalpha               100a3d6c f   libucrtd:ismbbyte.obj
 0001:000a2d8d       __ismbbalpha_l             100a3d8d f   libucrtd:ismbbyte.obj
 0001:000a2db0       __ismbbblank               100a3db0 f   libucrtd:ismbbyte.obj
 0001:000a2ddb       __ismbbblank_l             100a3ddb f   libucrtd:ismbbyte.obj
 0001:000a2e08       __ismbbgraph               100a3e08 f   libucrtd:ismbbyte.obj
 0001:000a2e29       __ismbbgraph_l             100a3e29 f   libucrtd:ismbbyte.obj
 0001:000a2e4c       __ismbbkalnum              100a3e4c f   libucrtd:ismbbyte.obj
 0001:000a2e6a       __ismbbkalnum_l            100a3e6a f   libucrtd:ismbbyte.obj
 0001:000a2e89       __ismbbkana                100a3e89 f   libucrtd:ismbbyte.obj
 0001:000a2ea0       __ismbbkana_l              100a3ea0 f   libucrtd:ismbbyte.obj
 0001:000a2f02       __ismbbkprint              100a3f02 f   libucrtd:ismbbyte.obj
 0001:000a2f20       __ismbbkprint_l            100a3f20 f   libucrtd:ismbbyte.obj
 0001:000a2f3f       __ismbbkpunct              100a3f3f f   libucrtd:ismbbyte.obj
 0001:000a2f5d       __ismbbkpunct_l            100a3f5d f   libucrtd:ismbbyte.obj
 0001:000a2f7c       __ismbblead                100a3f7c f   libucrtd:ismbbyte.obj
 0001:000a2f9a       __ismbblead_l              100a3f9a f   libucrtd:ismbbyte.obj
 0001:000a2fb9       __ismbbprint               100a3fb9 f   libucrtd:ismbbyte.obj
 0001:000a2fda       __ismbbprint_l             100a3fda f   libucrtd:ismbbyte.obj
 0001:000a2ffd       __ismbbpunct               100a3ffd f   libucrtd:ismbbyte.obj
 0001:000a301b       __ismbbpunct_l             100a401b f   libucrtd:ismbbyte.obj
 0001:000a303a       __ismbbtrail               100a403a f   libucrtd:ismbbyte.obj
 0001:000a3058       __ismbbtrail_l             100a4058 f   libucrtd:ismbbyte.obj
 0001:000a3080       ___acrt_initialize_command_line 100a4080 f   libucrtd:argv_data.obj
 0001:000a30b0       ___acrt_uninitialize_command_line 100a40b0 f   libucrtd:argv_data.obj
 0001:000a30c0       ___p___argc                100a40c0 f   libucrtd:argv_data.obj
 0001:000a30d0       ___p___argv                100a40d0 f   libucrtd:argv_data.obj
 0001:000a30e0       ___p___wargv               100a40e0 f   libucrtd:argv_data.obj
 0001:000a30f0       ___p__acmdln               100a40f0 f   libucrtd:argv_data.obj
 0001:000a3100       ___p__pgmptr               100a4100 f   libucrtd:argv_data.obj
 0001:000a3110       ___p__wcmdln               100a4110 f   libucrtd:argv_data.obj
 0001:000a3120       ___p__wpgmptr              100a4120 f   libucrtd:argv_data.obj
 0001:000a3130       __get_pgmptr               100a4130 f   libucrtd:argv_data.obj
 0001:000a3290       __get_wpgmptr              100a4290 f   libucrtd:argv_data.obj
 0001:000a34c0       ___acrt_MultiByteToWideChar 100a44c0 f   libucrtd:multibytetowidechar.obj
 0001:000a35f0       ___acrt_WideCharToMultiByte 100a45f0 f   libucrtd:widechartomultibyte.obj
 0001:000a3797       ___dcrt_get_narrow_environment_from_os 100a4797 f   libucrtd:get_environment_from_os.obj
 0001:000a384d       ___dcrt_get_wide_environment_from_os 100a484d f   libucrtd:get_environment_from_os.obj
 0001:000a4444       ??$get_or_create_environment_nolock@$$V@?$__crt_char_traits@D@@SAPAPADXZ 100a5444 f i libucrtd:setenv.obj
 0001:000a4449       ??$get_or_create_environment_nolock@$$V@?$__crt_char_traits@_W@@SAPAPA_WXZ 100a5449 f i libucrtd:setenv.obj
 0001:000a444e       ??$set_environment_variable@ABQADQAD@?$__crt_char_traits@D@@SAHABQAD$$QBQAD@Z 100a544e f i libucrtd:setenv.obj
 0001:000a446c       ??$set_environment_variable@ABQA_WQA_W@?$__crt_char_traits@_W@@SAHABQA_W$$QBQA_W@Z 100a546c f i libucrtd:setenv.obj
 0001:000a4488       ??$tcschr@ABQADD@?$__crt_char_traits@D@@SAPADABQAD$$QAD@Z 100a5488 f i libucrtd:setenv.obj
 0001:000a44a8       ??$tcschr@ABQA_WD@?$__crt_char_traits@_W@@SAPA_WABQA_W$$QAD@Z 100a54a8 f i libucrtd:setenv.obj
 0001:000a44cd       ??$tcscpy_s@AAPADABIAAPAD@?$__crt_char_traits@D@@SAHAAPADABI0@Z 100a54cd f i libucrtd:setenv.obj
 0001:000a44f2       ??$tcscpy_s@AAPA_WABIAAPA_W@?$__crt_char_traits@_W@@SAHAAPA_WABI0@Z 100a54f2 f i libucrtd:setenv.obj
 0001:000a4517       ??$tcscpy_s@ABQADABIABQAD@?$__crt_char_traits@D@@SAHABQADABI0@Z 100a5517 f i libucrtd:setenv.obj
 0001:000a453c       ??$tcscpy_s@ABQA_WABIABQA_W@?$__crt_char_traits@_W@@SAHABQA_WABI0@Z 100a553c f i libucrtd:setenv.obj
 0001:000a4561       ??$tcslen@ABQAD@?$__crt_char_traits@D@@SAIABQAD@Z 100a5561 f i libucrtd:setenv.obj
 0001:000a457f       ??$tcslen@ABQA_W@?$__crt_char_traits@_W@@SAIABQA_W@Z 100a557f f i libucrtd:setenv.obj
 0001:000a45a4       ??$tcsnicoll@ABQBDAAPADABI@?$__crt_char_traits@D@@SAHABQBDAAPADABI@Z 100a55a4 f i libucrtd:setenv.obj
 0001:000a45c9       ??$tcsnicoll@ABQB_WAAPA_WABI@?$__crt_char_traits@_W@@SAHABQB_WAAPA_WABI@Z 100a55c9 f i libucrtd:setenv.obj
 0001:000a45ee       ??$tcsnlen@PADH@?$__crt_char_traits@D@@SAI$$QAPAD$$QAH@Z 100a55ee f i libucrtd:setenv.obj
 0001:000a460c       ??$tcsnlen@PA_WH@?$__crt_char_traits@_W@@SAI$$QAPA_W$$QAH@Z 100a560c f i libucrtd:setenv.obj
 0001:000a464e       ?strchr@@YAPADQADH@Z       100a564e f i libucrtd:setenv.obj
 0001:000a465b       ?wcschr@@YAPA_WPA_W_W@Z    100a565b f i libucrtd:setenv.obj
 0001:000a4668       ___dcrt_set_variable_in_narrow_environment_nolock 100a5668 f   libucrtd:setenv.obj
 0001:000a4675       ___dcrt_set_variable_in_wide_environment_nolock 100a5675 f   libucrtd:setenv.obj
 0001:000a46b0       ??$?B$$A6GHPA_WKJ@Z@__crt_fast_encoded_nullptr_t@@QBEP6GHPA_WKJ@ZXZ 100a56b0 f i libucrtd:winapi_thunks.obj
 0001:000a47c0       ??$__crt_fast_decode_pointer@P6GHPA_WKJ@Z@@YAP6GHPA_WKJ@ZQ6GH0KJ@Z@Z 100a57c0 f i libucrtd:winapi_thunks.obj
 0001:000a4800       ??$__crt_fast_encode_pointer@P6GHPA_WKJ@Z@@YAP6GHPA_WKJ@ZQ6GH0KJ@Z@Z 100a5800 f i libucrtd:winapi_thunks.obj
 0001:000a54c0       _GetCurrentThreadEffectiveToken 100a64c0 f i libucrtd:winapi_thunks.obj
 0001:000a54d0       ___acrt_AppPolicyGetProcessTerminationMethodInternal@4 100a64d0 f   libucrtd:winapi_thunks.obj
 0001:000a5520       ___acrt_AppPolicyGetShowDeveloperDiagnosticInternal@4 100a6520 f   libucrtd:winapi_thunks.obj
 0001:000a5570       ___acrt_AppPolicyGetThreadInitializationTypeInternal@4 100a6570 f   libucrtd:winapi_thunks.obj
 0001:000a55c0       ___acrt_AppPolicyGetWindowingModelInternal@4 100a65c0 f   libucrtd:winapi_thunks.obj
 0001:000a5610       ___acrt_AreFileApisANSI@0  100a6610 f   libucrtd:winapi_thunks.obj
 0001:000a5650       ___acrt_CompareStringEx@36 100a6650 f   libucrtd:winapi_thunks.obj
 0001:000a56f0       ___acrt_EnumSystemLocalesEx@16 100a66f0 f   libucrtd:winapi_thunks.obj
 0001:000a5760       ___acrt_FlsAlloc@4         100a6760 f   libucrtd:winapi_thunks.obj
 0001:000a57b0       ___acrt_FlsFree@4          100a67b0 f   libucrtd:winapi_thunks.obj
 0001:000a5800       ___acrt_FlsGetValue@4      100a6800 f   libucrtd:winapi_thunks.obj
 0001:000a5850       ___acrt_FlsSetValue@8      100a6850 f   libucrtd:winapi_thunks.obj
 0001:000a58b0       ___acrt_GetDateFormatEx@28 100a68b0 f   libucrtd:winapi_thunks.obj
 0001:000a5940       ___acrt_GetEnabledXStateFeatures@0 100a6940 f   libucrtd:winapi_thunks.obj
 0001:000a5980       ___acrt_GetLocaleInfoEx@16 100a6980 f   libucrtd:winapi_thunks.obj
 0001:000a5a00       ___acrt_GetSystemTimePreciseAsFileTime@4 100a6a00 f   libucrtd:winapi_thunks.obj
 0001:000a5a50       ___acrt_GetTimeFormatEx@24 100a6a50 f   libucrtd:winapi_thunks.obj
 0001:000a5ae0       ___acrt_GetUserDefaultLocaleName@8 100a6ae0 f   libucrtd:winapi_thunks.obj
 0001:000a5b50       ___acrt_GetXStateFeaturesMask@8 100a6b50 f   libucrtd:winapi_thunks.obj
 0001:000a5ba0       ___acrt_InitializeCriticalSectionEx@12 100a6ba0 f   libucrtd:winapi_thunks.obj
 0001:000a5c00       ___acrt_IsValidLocaleName@4 100a6c00 f   libucrtd:winapi_thunks.obj
 0001:000a5c60       ___acrt_LCIDToLocaleName@16 100a6c60 f   libucrtd:winapi_thunks.obj
 0001:000a5cd0       ___acrt_LCMapStringEx@36   100a6cd0 f   libucrtd:winapi_thunks.obj
 0001:000a5d70       ___acrt_LocaleNameToLCID@8 100a6d70 f   libucrtd:winapi_thunks.obj
 0001:000a5dd0       ___acrt_LocateXStateFeature@12 100a6dd0 f   libucrtd:winapi_thunks.obj
 0001:000a5e30       ___acrt_MessageBoxA@16     100a6e30 f   libucrtd:winapi_thunks.obj
 0001:000a5e90       ___acrt_MessageBoxW@16     100a6e90 f   libucrtd:winapi_thunks.obj
 0001:000a5ef0       ___acrt_RoInitialize@4     100a6ef0 f   libucrtd:winapi_thunks.obj
 0001:000a5f40       ___acrt_RoUninitialize@0   100a6f40 f   libucrtd:winapi_thunks.obj
 0001:000a5f80       ___acrt_RtlGenRandom@8     100a6f80 f   libucrtd:winapi_thunks.obj
 0001:000a5fd0       ___acrt_SetThreadStackGuarantee@4 100a6fd0 f   libucrtd:winapi_thunks.obj
 0001:000a6020       ___acrt_can_show_message_box 100a7020 f   libucrtd:winapi_thunks.obj
 0001:000a6060       ___acrt_can_use_vista_locale_apis 100a7060 f   libucrtd:winapi_thunks.obj
 0001:000a6090       ___acrt_can_use_xstate_apis 100a7090 f   libucrtd:winapi_thunks.obj
 0001:000a60c0       ___acrt_eagerly_load_locale_apis 100a70c0 f   libucrtd:winapi_thunks.obj
 0001:000a6110       ___acrt_get_parent_window  100a7110 f   libucrtd:winapi_thunks.obj
 0001:000a6190       ___acrt_initialize_winapi_thunks 100a7190 f   libucrtd:winapi_thunks.obj
 0001:000a6210       ___acrt_is_interactive     100a7210 f   libucrtd:winapi_thunks.obj
 0001:000a62e0       ___acrt_uninitialize_winapi_thunks 100a72e0 f   libucrtd:winapi_thunks.obj
 0001:000a66e0       ___acrt_initialize_lowio   100a76e0 f   libucrtd:ioinit.obj
 0001:000a67a0       ___acrt_uninitialize_lowio 100a77a0 f   libucrtd:ioinit.obj
 0001:000a6810       ___acrt_execute_initializers 100a7810 f   libucrtd:shared_initialization.obj
 0001:000a68f0       ___acrt_execute_uninitializers 100a78f0 f   libucrtd:shared_initialization.obj
 0001:000a6960       ?has_any_buffer@__crt_stdio_stream@@QBE_NXZ 100a7960 f i libucrtd:_sftbuf.obj
 0001:000a6980       ?has_any_of@__crt_stdio_stream@@QBE_NJ@Z 100a7980 f i libucrtd:_sftbuf.obj
 0001:000a69c0       ?has_temporary_buffer@__crt_stdio_stream@@QBE_NXZ 100a79c0 f i libucrtd:_sftbuf.obj
 0001:000a69e0       ?set_flags@__crt_stdio_stream@@QBE_NJ@Z 100a79e0 f i libucrtd:_sftbuf.obj
 0001:000a6a40       ?unset_flags@__crt_stdio_stream@@QBE_NJ@Z 100a7a40 f i libucrtd:_sftbuf.obj
 0001:000a6aa0       ___acrt_should_use_temporary_buffer 100a7aa0 f   libucrtd:_sftbuf.obj
 0001:000a6b00       ___acrt_stdio_begin_temporary_buffering_nolock 100a7b00 f   libucrtd:_sftbuf.obj
 0001:000a6d20       ___acrt_stdio_end_temporary_buffering_nolock 100a7d20 f   libucrtd:_sftbuf.obj
 0001:000a6dc0       __CrtGetDebugFillThreshold 100a7dc0 f   libucrtd:debug_fill_threshold.obj
 0001:000a6dd0       __CrtSetDebugFillThreshold 100a7dd0 f   libucrtd:debug_fill_threshold.obj
 0001:000a6e00       ??$make_c_string_character_source@DPAPAD@__crt_strtox@@YA?AV?$c_string_character_source@D@0@QBDQAPAD@Z 100a7e00 f i libucrtd:strtox.obj
 0001:000a6e20       ??$make_c_string_character_source@_WPAPA_W@__crt_strtox@@YA?AV?$c_string_character_source@_W@0@QB_WQAPA_W@Z 100a7e20 f i libucrtd:strtox.obj
 0001:000a6e40       ??$parse_integer_from_string@JDPAPAD@__crt_strtox@@YAJQBDQAPADHQAU__crt_locale_pointers@@@Z 100a7e40 f i libucrtd:strtox.obj
 0001:000a6e90       ??$parse_integer_from_string@J_WPAPA_W@__crt_strtox@@YAJQB_WQAPA_WHQAU__crt_locale_pointers@@@Z 100a7e90 f i libucrtd:strtox.obj
 0001:000a6ee0       ??$parse_integer_from_string@KDPAPAD@__crt_strtox@@YAKQBDQAPADHQAU__crt_locale_pointers@@@Z 100a7ee0 f i libucrtd:strtox.obj
 0001:000a6f30       ??$parse_integer_from_string@K_WPAPA_W@__crt_strtox@@YAKQB_WQAPA_WHQAU__crt_locale_pointers@@@Z 100a7f30 f i libucrtd:strtox.obj
