 PhysX3CookingDEBUG_x86

 Timestamp is 619c462e (Tue Nov 23 10:38:54 2021)

 Preferred load address is 10000000

 Start         Length     Name                   Class
 0001:00000000 0000d930H .text$di                CODE
 0001:0000d930 000e4c20H .text$mn                CODE
 0001:000f2550 00001217H .text$x                 CODE
 0002:00000000 00000104H .CRT$XCA                DATA
 0002:00000104 000001f4H .CRT$XCU                DATA
 0002:000002f8 00000104H .CRT$XCZ                DATA
 0002:000003fc 00000104H .CRT$XIA                DATA
 0002:00000500 00000110H .CRT$XIC                DATA
 0002:00000610 00000104H .CRT$XIZ                DATA
 0002:00000714 00000104H .CRT$XPA                DATA
 0002:00000818 0000010cH .CRT$XPX                DATA
 0002:00000924 00000104H .CRT$XPXA               DATA
 0002:00000a28 00000104H .CRT$XPZ                DATA
 0002:00000b2c 00000104H .CRT$XTA                DATA
 0002:00000c30 00000110H .CRT$XTZ                DATA
 0002:00000d40 0002c730H .rdata                  DATA
 0002:0002d470 00000450H .rdata$r                DATA
 0002:0002d8c0 0000014cH .rdata$sxdata           DATA
 0002:0002da0c 000001bcH .rdata$zzzdbg           DATA
 0002:0002dbc8 00000104H .rtc$IAA                DATA
 0002:0002dccc 0000015cH .rtc$IMZ                DATA
 0002:0002de28 00000104H .rtc$IZZ                DATA
 0002:0002df2c 00000104H .rtc$TAA                DATA
 0002:0002e030 0000015cH .rtc$TMZ                DATA
 0002:0002e18c 00000104H .rtc$TZZ                DATA
 0002:0002e290 00000f60H .xdata$x                DATA
 0002:0002f1f0 000001a0H .edata                  DATA
 0003:00000000 00000bf0H .data                   DATA
 0003:00000bf0 00000590H .data$r                 DATA
 0003:00001180 00001cbcH .bss                    DATA
 0004:00000000 000001ccH .idata$5                DATA
 0004:000001cc 00000014H .idata$2                DATA
 0004:000001e0 00000014H .idata$3                DATA
 0004:000001f4 000001ccH .idata$4                DATA
 0004:000003c0 0000080cH .idata$6                DATA
 0005:00000000 00000040H .didat$2                DATA
 0005:00000040 00000020H .didat$3                DATA
 0005:00000060 00000150H .didat$4                DATA
 0005:000001b0 00000150H .didat$5                DATA
 0005:00000300 00000be8H .didat$6                DATA
 0005:00000ee8 000001edH .didat$7                DATA
 0006:00000000 00000104H .00cfg                  DATA
 0007:00000000 000001c0H .rsrc$01                DATA
 0007:000001c0 000006a9H .rsrc$02                DATA

  Address         Publics by Value              Rva+Base       Lib:Object

 0000:00000000       ___guard_longjmp_table     00000000     <absolute>
 0000:00000000       ___hybrid_auxiliary_iat    00000000     <absolute>
 0000:00000000       ___volatile_metadata       00000000     <absolute>
 0000:00000000       __except_list              00000000     <absolute>
 0000:00000000       ___guard_iat_count         00000000     <absolute>
 0000:00000000       ___hybrid_code_map_count   00000000     <absolute>
 0000:00000000       ___hybrid_code_map         00000000     <absolute>
 0000:00000000       ___guard_fids_count        00000000     <absolute>
 0000:00000000       ___guard_fids_table        00000000     <absolute>
 0000:00000000       ___guard_longjmp_count     00000000     <absolute>
 0000:00000000       ___enclave_config          00000000     <absolute>
 0000:00000000       ___guard_iat_table         00000000     <absolute>
 0000:00000000       ___dynamic_value_reloc_table 00000000     <absolute>
 0000:00000010       ___safe_se_handler_count   00000010     <absolute>
 0000:00000100       ___guard_flags             00000100     <absolute>
 0000:00000000       ___ImageBase               10000000     <linker-defined>
 0001:0000d930       _PxSetPhysXCookingDelayLoadHook 1000e930 f   WindowsCookingDelayLoadHook.obj
 0001:0000d940       ?delayHook@@YGP6GHXZIPAUDelayLoadInfo@@@Z 1000e940 f   WindowsCookingDelayLoadHook.obj
 0001:0000d9c0       ?foundationDliNotePreLoadLibrary@shdfnd@physx@@YGP6GHXZPBDPBVPxFoundationDelayLoadHook@2@@Z 1000e9c0 f i WindowsCookingDelayLoadHook.obj
 0001:0000dad0       ?loadLibrary@Cm@physx@@YGPAUHINSTANCE__@@PBD@Z 1000ead0 f i WindowsCookingDelayLoadHook.obj
 0001:0000daf0       ?physXCommonDliNotePreLoadLibrary@Cm@physx@@YGP6GHXZPBDPBVPxDelayLoadHook@2@@Z 1000eaf0 f i WindowsCookingDelayLoadHook.obj
 0001:0000dd10       ?saveHeightField@physx@@YA_NABVHeightField@Gu@1@AAVPxOutputStream@1@_N@Z 1000ed10 f   HeightFieldCooking.obj
 0001:0000e0c0       ??APxVec3@physx@@QBEABMI@Z 1000f0c0 f i HeightFieldCooking.obj
 0001:0000e130       ??B?$PxFlags@W4Enum@PxHeightFieldFlag@physx@@G@physx@@QBEGXZ 1000f130 f i HeightFieldCooking.obj
 0001:0000e150       ?__empty_global_delete@@YAXPAX@Z 1000f150 f i HeightFieldCooking.obj
 0001:0000e160       ?__global_delete@@YAXPAXI@Z 1000f160 f i HeightFieldCooking.obj
 0001:0000e160       ?__global_array_delete@@YAXPAXI@Z 1000f160 f i HeightFieldCooking.obj
 0001:0000e160       ?__empty_global_delete@@YAXPAXI@Z 1000f160 f i HeightFieldCooking.obj
 0001:0000e170       ?getData@HeightField@Gu@physx@@QBEABUHeightFieldData@23@XZ 1000f170 f i HeightFieldCooking.obj
 0001:0000e190       ?getMax@CenterExtents@Gu@physx@@QBEMI@Z 1000f190 f i HeightFieldCooking.obj
 0001:0000e1e0       ?getMin@CenterExtents@Gu@physx@@QBEMI@Z 1000f1e0 f i HeightFieldCooking.obj
 0001:0000e230       ?buildFromTriangles@RTreeCooker@physx@@SAXAAURTree@Gu@2@PBVPxVec3@2@IPBGPBIIAAV?$Array@IVNamedAllocator@shdfnd@physx@@@shdfnd@2@PAURemapCallback@12@MW4Enum@PxMeshCookingHint@2@@Z 1000f230 f   RTreeCooking.obj
 0001:0000f5b0       ??$PX_UNUSED@I@@YAXABI@Z   100105b0 f i RTreeCooking.obj
 0001:0000f5c0       ??$PX_UNUSED@M@@YAXABM@Z   100105c0 f i RTreeCooking.obj
 0001:0000f5d0       ??$PX_UNUSED@PAURTreeNodeNQ@physx@@@@YAXABQAURTreeNodeNQ@physx@@@Z 100105d0 f i RTreeCooking.obj
 0001:0000f5e0       ??$PX_UNUSED@URTreeNodeNQ@physx@@@@YAXABURTreeNodeNQ@physx@@@Z 100105e0 f i RTreeCooking.obj
 0001:0000f5f0       ??$PxMax@H@physx@@YAHHH@Z  100105f0 f i RTreeCooking.obj
 0001:0000f620       ??$PxMax@I@physx@@YAIII@Z  10010620 f i RTreeCooking.obj
 0001:0000f650       ??$PxMax@M@physx@@YAMMM@Z  10010650 f i RTreeCooking.obj
 0001:0000f680       ??$PxMin@I@physx@@YAIII@Z  10010680 f i RTreeCooking.obj
 0001:0000f6b0       ??$PxMin@M@physx@@YAMMM@Z  100106b0 f i RTreeCooking.obj
 0001:0000f6e0       ??$median3@I$$CBU?$Less@I@shdfnd@physx@@@internal@shdfnd@physx@@YAXPAIHHABU?$Less@I@12@@Z 100106e0 f i RTreeCooking.obj
 0001:0000f810       ??$median3@I$$CBUSortBoundsPredicate@physx@@@internal@shdfnd@physx@@YAXPAIHHABUSortBoundsPredicate@2@@Z 10010810 f i RTreeCooking.obj
 0001:0000f940       ??$partition@I$$CBU?$Less@I@shdfnd@physx@@@internal@shdfnd@physx@@YAHPAIHHABU?$Less@I@12@@Z 10010940 f i RTreeCooking.obj
 0001:0000fb00       ??$partition@I$$CBUSortBoundsPredicate@physx@@@internal@shdfnd@physx@@YAHPAIHHABUSortBoundsPredicate@2@@Z 10010b00 f i RTreeCooking.obj
 0001:0000fcc0       ??$partition@UBoundsLTE@physx@@@quickSelect@physx@@YAIPIAIIIIABUBoundsLTE@1@@Z 10010cc0 f i RTreeCooking.obj
 0001:0000ff50       ??$quickSelectFirstK@UBoundsLTE@physx@@@quickSelect@physx@@YAXPIAIIIIABUBoundsLTE@1@@Z 10010f50 f i RTreeCooking.obj
 0001:00010080       ??$smallSort@I$$CBU?$Less@I@shdfnd@physx@@@internal@shdfnd@physx@@YAXPAIHHABU?$Less@I@12@@Z 10011080 f i RTreeCooking.obj
 0001:00010140       ??$smallSort@I$$CBUSortBoundsPredicate@physx@@@internal@shdfnd@physx@@YAXPAIHHABUSortBoundsPredicate@2@@Z 10011140 f i RTreeCooking.obj
 0001:00010200       ??$sort@I@shdfnd@physx@@YAXPAII@Z 10011200 f i RTreeCooking.obj
 0001:00010240       ??$sort@IU?$Less@I@shdfnd@physx@@VNamedAllocator@23@@shdfnd@physx@@YAXPAIIABU?$Less@I@01@ABVNamedAllocator@01@I@Z 10011240 f i RTreeCooking.obj
 0001:00010500       ??$sort@IUSortBoundsPredicate@physx@@@shdfnd@physx@@YAXPAIIABUSortBoundsPredicate@1@@Z 10011500 f i RTreeCooking.obj
 0001:00010540       ??$sort@IUSortBoundsPredicate@physx@@VNamedAllocator@shdfnd@2@@shdfnd@physx@@YAXPAIIABUSortBoundsPredicate@1@ABVNamedAllocator@01@I@Z 10011540 f i RTreeCooking.obj
 0001:00010800       ??$swap@I@shdfnd@physx@@YAXAAI0@Z 10011800 f i RTreeCooking.obj
 0001:00010830       ??0?$AlignedAllocator@$0IA@VNonTrackingAllocator@shdfnd@physx@@@shdfnd@physx@@QAE@ABVNonTrackingAllocator@12@@Z 10011830 f i RTreeCooking.obj
 0001:00010850       ??0?$Array@IVNamedAllocator@shdfnd@physx@@@shdfnd@physx@@QAE@IABIABVNamedAllocator@12@@Z 10011850 f i RTreeCooking.obj
 0001:000108b0       ??0?$Array@UInterval@physx@@V?$InlineAllocator@$0CAAA@VNamedAllocator@shdfnd@physx@@@shdfnd@2@@shdfnd@physx@@QAE@ABV?$InlineAllocator@$0CAAA@VNamedAllocator@shdfnd@physx@@@12@@Z 100118b0 f i RTreeCooking.obj
 0001:00010910       ??0?$Array@UPxBounds3V@physx@@VNamedAllocator@shdfnd@2@@shdfnd@physx@@QAE@ABVNamedAllocator@12@@Z 10011910 f i RTreeCooking.obj
 0001:00010960       ??0?$Array@URTreeNodeNQ@physx@@VNamedAllocator@shdfnd@2@@shdfnd@physx@@QAE@ABVNamedAllocator@12@@Z 10011960 f i RTreeCooking.obj
 0001:000109b0       ??0?$Array@URTreeNodeQ@Gu@physx@@VNamedAllocator@shdfnd@3@@shdfnd@physx@@QAE@ABVNamedAllocator@12@@Z 100119b0 f i RTreeCooking.obj
 0001:00010a00       ??0?$Array@VPxVec3@physx@@VNamedAllocator@shdfnd@2@@shdfnd@physx@@QAE@ABVNamedAllocator@12@@Z 10011a00 f i RTreeCooking.obj
 0001:00010a50       ??0?$InlineAllocator@$0CAAA@VNamedAllocator@shdfnd@physx@@@shdfnd@physx@@QAE@ABV012@@Z 10011a50 f i RTreeCooking.obj
 0001:00010a80       ??0?$InlineAllocator@$0CAAA@VNamedAllocator@shdfnd@physx@@@shdfnd@physx@@QAE@ABVNamedAllocator@12@@Z 10011a80 f i RTreeCooking.obj
 0001:00010ab0       ??0?$InlineArray@UInterval@physx@@$0EAA@VNamedAllocator@shdfnd@2@@shdfnd@physx@@QAE@ABVNamedAllocator@12@@Z 10011ab0 f i RTreeCooking.obj
 0001:00010b30       ??0?$ScopedPointer@HVTempAllocator@shdfnd@physx@@@shdfnd@physx@@QAE@XZ 10011b30 f i RTreeCooking.obj
 0001:00010b50       ??0?$Stack@VNamedAllocator@shdfnd@physx@@@internal@shdfnd@physx@@QAE@PAHIABVNamedAllocator@23@@Z 10011b50 f i RTreeCooking.obj
 0001:00010ba0       ??0BoundsLTE@physx@@QAE@IPBVPxVec3@1@@Z 10011ba0 f i RTreeCooking.obj
 0001:00010bd0       ??0Interval@physx@@QAE@II@Z 10011bd0 f i RTreeCooking.obj
 0001:00010c00       ??0NonTrackingAllocator@shdfnd@physx@@QAE@PBD@Z 10011c00 f i RTreeCooking.obj
 0001:00010c20       ??0PxBounds3@physx@@QAE@ABV01@@Z 10011c20 f i RTreeCooking.obj
 0001:00010c60       ??0PxBounds3@physx@@QAE@ABVPxVec3@1@0@Z 10011c60 f i RTreeCooking.obj
 0001:00010ca0       ??0PxBounds3V@physx@@QAE@AAT__m128@@0@Z 10011ca0 f i RTreeCooking.obj
 0001:00010ce0       ??0PxBounds3V@physx@@QAE@UU@01@@Z 10011ce0 f i RTreeCooking.obj
 0001:00010d00       ??0PxVec3@physx@@QAE@ABV01@@Z 10011d00 f i RTreeCooking.obj
 0001:00010d40       ??0PxVec3@physx@@QAE@M@Z   10011d40 f i RTreeCooking.obj
 0001:00010d90       ??0PxVec3@physx@@QAE@MMM@Z 10011d90 f i RTreeCooking.obj
 0001:00010de0       ??0PxVec3@physx@@QAE@XZ    10011de0 f i RTreeCooking.obj
 0001:00010e00       ??0PxVec4@physx@@QAE@ABVPxVec3@1@M@Z 10011e00 f i RTreeCooking.obj
 0001:00010e50       ??0PxVec4@physx@@QAE@M@Z   10011e50 f i RTreeCooking.obj
 0001:00010eb0       ??0PxVec4@physx@@QAE@MMMM@Z 10011eb0 f i RTreeCooking.obj
 0001:00010f10       ??0RTreeNodeNQ@physx@@QAE@ABU01@@Z 10011f10 f i RTreeCooking.obj
 0001:00010f60       ??0RTreeNodeNQ@physx@@QAE@XZ 10011f60 f i RTreeCooking.obj
 0001:00010fa0       ??0SortBoundsPredicate@physx@@QAE@IPBUPxBounds3V@1@@Z 10011fa0 f i RTreeCooking.obj
 0001:00010fd0       ??0SubSortQuick@physx@@QAE@PAIPBUPxBounds3V@1@IM@Z 10011fd0 f i RTreeCooking.obj
 0001:00011130       ??0SubSortSAH@physx@@QAE@PAIPBUPxBounds3V@1@IPBI22222M@Z 10012130 f i RTreeCooking.obj
 0001:00011320       ??0TempAllocator@shdfnd@physx@@QAE@PBD@Z 10012320 f i RTreeCooking.obj
 0001:00011340       ??1?$Array@IVNamedAllocator@shdfnd@physx@@@shdfnd@physx@@QAE@XZ 10012340 f i RTreeCooking.obj
 0001:000113b0       ??1?$Array@UInterval@physx@@V?$InlineAllocator@$0CAAA@VNamedAllocator@shdfnd@physx@@@shdfnd@2@@shdfnd@physx@@QAE@XZ 100123b0 f i RTreeCooking.obj
 0001:00011430       ??1?$Array@UPxBounds3V@physx@@VNamedAllocator@shdfnd@2@@shdfnd@physx@@QAE@XZ 10012430 f i RTreeCooking.obj
 0001:000114a0       ??1?$Array@URTreeNodeNQ@physx@@VNamedAllocator@shdfnd@2@@shdfnd@physx@@QAE@XZ 100124a0 f i RTreeCooking.obj
 0001:00011510       ??1?$Array@URTreeNodeQ@Gu@physx@@VNamedAllocator@shdfnd@3@@shdfnd@physx@@QAE@XZ 10012510 f i RTreeCooking.obj
 0001:00011580       ??1?$Array@VPxVec3@physx@@VNamedAllocator@shdfnd@2@@shdfnd@physx@@QAE@XZ 10012580 f i RTreeCooking.obj
 0001:000115f0       ??1?$InlineAllocator@$0CAAA@VNamedAllocator@shdfnd@physx@@@shdfnd@physx@@QAE@XZ 100125f0 f i RTreeCooking.obj
 0001:00011610       ??1?$InlineArray@UInterval@physx@@$0EAA@VNamedAllocator@shdfnd@2@@shdfnd@physx@@QAE@XZ 10012610 f i RTreeCooking.obj
 0001:00011630       ??1?$ScopedPointer@HVTempAllocator@shdfnd@physx@@@shdfnd@physx@@QAE@XZ 10012630 f i RTreeCooking.obj
 0001:00011660       ??1?$Stack@VNamedAllocator@shdfnd@physx@@@internal@shdfnd@physx@@QAE@XZ 10012660 f i RTreeCooking.obj
 0001:000116a0       ??1SubSortQuick@physx@@QAE@XZ 100126a0 f i RTreeCooking.obj
 0001:000116c0       ??1SubSortSAH@physx@@QAE@XZ 100126c0 f i RTreeCooking.obj
 0001:00011780       ??2@YAPAXIPAX@Z            10012780 f i RTreeCooking.obj
 0001:00011790       ??4PxVec3@physx@@QAEAAV01@ABV01@@Z 10012790 f i RTreeCooking.obj
 0001:000117d0       ??4PxVec4@physx@@QAEAAV01@ABV01@@Z 100127d0 f i RTreeCooking.obj
 0001:00011820       ??A?$Array@IVNamedAllocator@shdfnd@physx@@@shdfnd@physx@@QAEAAII@Z 10012820 f i RTreeCooking.obj
 0001:00011890       ??A?$Array@UInterval@physx@@V?$InlineAllocator@$0CAAA@VNamedAllocator@shdfnd@physx@@@shdfnd@2@@shdfnd@physx@@QAEAAUInterval@2@I@Z 10012890 f i RTreeCooking.obj
 0001:00011910       ??A?$Array@URTreeNodeNQ@physx@@VNamedAllocator@shdfnd@2@@shdfnd@physx@@QAEAAURTreeNodeNQ@2@I@Z 10012910 f i RTreeCooking.obj
 0001:00011980       ??A?$Array@URTreeNodeQ@Gu@physx@@VNamedAllocator@shdfnd@3@@shdfnd@physx@@QAEAAURTreeNodeQ@Gu@2@I@Z 10012980 f i RTreeCooking.obj
 0001:000119f0       ??B?$ScopedPointer@HVTempAllocator@shdfnd@physx@@@shdfnd@physx@@QBEPAHXZ 100129f0 f i RTreeCooking.obj
 0001:00011a10       ??GPxVec4@physx@@QBE?AV01@ABV01@@Z 10012a10 f i RTreeCooking.obj
 0001:00011aa0       ??HPxVec3@physx@@QBE?AV01@ABV01@@Z 10012aa0 f i RTreeCooking.obj
 0001:00011b10       ??KPxVec4@physx@@QBE?AV01@M@Z 10012b10 f i RTreeCooking.obj
 0001:00011bb0       ??R?$Less@I@shdfnd@physx@@QBE_NABI0@Z 10012bb0 f i RTreeCooking.obj
 0001:00011bf0       ??RBoundsLTE@physx@@QBE_NABI0@Z 10012bf0 f i RTreeCooking.obj
 0001:00011c80       ??RSortBoundsPredicate@physx@@QBE_NABI0@Z 10012c80 f i RTreeCooking.obj
 0001:00011db0       ??_H@YGXPAXIIP6EPAX0@Z@Z   10012db0 f i RTreeCooking.obj
 0001:00011e10       ?FLoad@aos@shdfnd@physx@@YA?AT__m128@@M@Z 10012e10 f i RTreeCooking.obj
 0001:00011e50       ?FMax@aos@shdfnd@physx@@YA?AT__m128@@XZ 10012e50 f i RTreeCooking.obj
 0001:00011ea0       ?FNegMax@aos@shdfnd@physx@@YA?AT__m128@@XZ 10012ea0 f i RTreeCooking.obj
 0001:00011ef0       ?FStore@aos@shdfnd@physx@@YAXT__m128@@PIAM@Z 10012ef0 f i RTreeCooking.obj
 0001:00011f90       ?PxAbs@physx@@YAHH@Z       10012f90 f i RTreeCooking.obj
 0001:00011fb0       ?PxAbs@physx@@YAMM@Z       10012fb0 f i RTreeCooking.obj
 0001:00011fd0       ?PxIsFinite@physx@@YA_NM@Z 10012fd0 f i RTreeCooking.obj
 0001:00011ff0       ?PxMemCopy@physx@@YAPAXPAXPBXI@Z 10012ff0 f i RTreeCooking.obj
 0001:00012010       ?V3Add@aos@shdfnd@physx@@YA?AT__m128@@T4@0@Z 10013010 f i RTreeCooking.obj
 0001:00012110       ?V3Dot@aos@shdfnd@physx@@YA?AT__m128@@T4@0@Z 10013110 f i RTreeCooking.obj
 0001:00012290       ?V3Load@aos@shdfnd@physx@@YA?AT__m128@@M@Z 10013290 f i RTreeCooking.obj
 0001:000122f0       ?V3LoadU@aos@shdfnd@physx@@YA?AT__m128@@ABVPxVec3@3@@Z 100132f0 f i RTreeCooking.obj
 0001:00012350       ?V3Max@aos@shdfnd@physx@@YA?AT__m128@@T4@0@Z 10013350 f i RTreeCooking.obj
 0001:00012450       ?V3Min@aos@shdfnd@physx@@YA?AT__m128@@T4@0@Z 10013450 f i RTreeCooking.obj
 0001:00012550       ?V3PermZXY@aos@shdfnd@physx@@YA?AT__m128@@T4@@Z 10013550 f i RTreeCooking.obj
 0001:000125f0       ?V3ReadXYZ@aos@shdfnd@physx@@YAABVPxVec3@3@ABT__m128@@@Z 100135f0 f i RTreeCooking.obj
 0001:00012600       ?V3Splat@aos@shdfnd@physx@@YA?AT__m128@@T4@@Z 10013600 f i RTreeCooking.obj
 0001:000126d0       ?V3StoreA@aos@shdfnd@physx@@YAXT__m128@@AAVPxVec3@3@@Z 100136d0 f i RTreeCooking.obj
 0001:000127c0       ?V3StoreU@aos@shdfnd@physx@@YAXT__m128@@AAVPxVec3@3@@Z 100137c0 f i RTreeCooking.obj
 0001:00012860       ?V3Sub@aos@shdfnd@physx@@YA?AT__m128@@T4@0@Z 10013860 f i RTreeCooking.obj
 0001:00012960       ?V3Zero@aos@shdfnd@physx@@YA?AT__m128@@XZ 10013960 f i RTreeCooking.obj
 0001:000129a0       ?V4ClearW@aos@shdfnd@physx@@YA?AT__m128@@T4@@Z 100139a0 f i RTreeCooking.obj
 0001:000129f0       ?V4Load@aos@shdfnd@physx@@YA?AT__m128@@M@Z 100139f0 f i RTreeCooking.obj
 0001:00012a30       ?V4ReadW@aos@shdfnd@physx@@YAMABT__m128@@@Z 10013a30 f i RTreeCooking.obj
 0001:00012a40       ?V4ReadX@aos@shdfnd@physx@@YAMABT__m128@@@Z 10013a40 f i RTreeCooking.obj
 0001:00012a50       ?V4ReadY@aos@shdfnd@physx@@YAMABT__m128@@@Z 10013a50 f i RTreeCooking.obj
 0001:00012a60       ?V4ReadZ@aos@shdfnd@physx@@YAMABT__m128@@@Z 10013a60 f i RTreeCooking.obj
 0001:00012a70       ?V4StoreA@aos@shdfnd@physx@@YAXT__m128@@PAM@Z 10013a70 f i RTreeCooking.obj
 0001:00012b10       ?Vec3V_From_FloatV@aos@shdfnd@physx@@YA?AT__m128@@T4@@Z 10013b10 f i RTreeCooking.obj
 0001:00012b70       ?Vec3V_From_Vec4V@aos@shdfnd@physx@@YA?AT__m128@@T4@@Z 10013b70 f i RTreeCooking.obj
 0001:00012bc0       ?Vec4V_From_FloatV@aos@shdfnd@physx@@YA?AT__m128@@T4@@Z 10013bc0 f i RTreeCooking.obj
 0001:00012c00       ?abs@intrinsics@physx@@YAMM@Z 10013c00 f i RTreeCooking.obj
 0001:00012c20       ?allocate@?$AlignedAllocator@$0IA@VNonTrackingAllocator@shdfnd@physx@@@shdfnd@physx@@QAEPAXIPBDH@Z 10013c20 f i RTreeCooking.obj
 0001:00012ca0       ?allocate@?$Array@IVNamedAllocator@shdfnd@physx@@@shdfnd@physx@@IAEPAII@Z 10013ca0 f i RTreeCooking.obj
 0001:00012d20       ?allocate@?$Array@UInterval@physx@@V?$InlineAllocator@$0CAAA@VNamedAllocator@shdfnd@physx@@@shdfnd@2@@shdfnd@physx@@IAEPAUInterval@3@I@Z 10013d20 f i RTreeCooking.obj
 0001:00012da0       ?allocate@?$Array@UPxBounds3V@physx@@VNamedAllocator@shdfnd@2@@shdfnd@physx@@IAEPAUPxBounds3V@3@I@Z 10013da0 f i RTreeCooking.obj
 0001:00012e20       ?allocate@?$Array@URTreeNodeNQ@physx@@VNamedAllocator@shdfnd@2@@shdfnd@physx@@IAEPAURTreeNodeNQ@3@I@Z 10013e20 f i RTreeCooking.obj
 0001:00012ea0       ?allocate@?$Array@URTreeNodeQ@Gu@physx@@VNamedAllocator@shdfnd@3@@shdfnd@physx@@IAEPAURTreeNodeQ@Gu@3@I@Z 10013ea0 f i RTreeCooking.obj
 0001:00012f20       ?allocate@?$Array@VPxVec3@physx@@VNamedAllocator@shdfnd@2@@shdfnd@physx@@IAEPAVPxVec3@3@I@Z 10013f20 f i RTreeCooking.obj
 0001:00012fa0       ?allocate@?$InlineAllocator@$0CAAA@VNamedAllocator@shdfnd@physx@@@shdfnd@physx@@QAEPAXIPBDH@Z 10013fa0 f i RTreeCooking.obj
 0001:00013000       ?allocate@NonTrackingAllocator@shdfnd@physx@@QAEPAXIPBDH@Z 10014000 f i RTreeCooking.obj
 0001:00013060       ?begin@?$Array@IVNamedAllocator@shdfnd@physx@@@shdfnd@physx@@QAEPAIXZ 10014060 f i RTreeCooking.obj
 0001:00013080       ?begin@?$Array@UPxBounds3V@physx@@VNamedAllocator@shdfnd@2@@shdfnd@physx@@QAEPAUPxBounds3V@3@XZ 10014080 f i RTreeCooking.obj
 0001:000130a0       ?begin@?$Array@VPxVec3@physx@@VNamedAllocator@shdfnd@2@@shdfnd@physx@@QAEPAVPxVec3@3@XZ 100140a0 f i RTreeCooking.obj
 0001:000130c0       ?capacity@?$Array@IVNamedAllocator@shdfnd@physx@@@shdfnd@physx@@QBEIXZ 100140c0 f i RTreeCooking.obj
 0001:000130e0       ?capacity@?$Array@UInterval@physx@@V?$InlineAllocator@$0CAAA@VNamedAllocator@shdfnd@physx@@@shdfnd@2@@shdfnd@physx@@QBEIXZ 100140e0 f i RTreeCooking.obj
 0001:00013100       ?capacity@?$Array@UPxBounds3V@physx@@VNamedAllocator@shdfnd@2@@shdfnd@physx@@QBEIXZ 10014100 f i RTreeCooking.obj
 0001:00013120       ?capacity@?$Array@URTreeNodeNQ@physx@@VNamedAllocator@shdfnd@2@@shdfnd@physx@@QBEIXZ 10014120 f i RTreeCooking.obj
 0001:00013140       ?capacity@?$Array@URTreeNodeQ@Gu@physx@@VNamedAllocator@shdfnd@3@@shdfnd@physx@@QBEIXZ 10014140 f i RTreeCooking.obj
 0001:00013160       ?capacity@?$Array@VPxVec3@physx@@VNamedAllocator@shdfnd@2@@shdfnd@physx@@QBEIXZ 10014160 f i RTreeCooking.obj
 0001:00013180       ?capacityIncrement@?$Array@IVNamedAllocator@shdfnd@physx@@@shdfnd@physx@@IBEIXZ 10014180 f i RTreeCooking.obj
 0001:000131c0       ?capacityIncrement@?$Array@UInterval@physx@@V?$InlineAllocator@$0CAAA@VNamedAllocator@shdfnd@physx@@@shdfnd@2@@shdfnd@physx@@IBEIXZ 100141c0 f i RTreeCooking.obj
 0001:00013200       ?capacityIncrement@?$Array@UPxBounds3V@physx@@VNamedAllocator@shdfnd@2@@shdfnd@physx@@IBEIXZ 10014200 f i RTreeCooking.obj
 0001:00013240       ?capacityIncrement@?$Array@URTreeNodeNQ@physx@@VNamedAllocator@shdfnd@2@@shdfnd@physx@@IBEIXZ 10014240 f i RTreeCooking.obj
 0001:00013280       ?capacityIncrement@?$Array@URTreeNodeQ@Gu@physx@@VNamedAllocator@shdfnd@3@@shdfnd@physx@@IBEIXZ 10014280 f i RTreeCooking.obj
 0001:000132c0       ?capacityIncrement@?$Array@VPxVec3@physx@@VNamedAllocator@shdfnd@2@@shdfnd@physx@@IBEIXZ 100142c0 f i RTreeCooking.obj
 0001:00013300       ?computeSA@SubSortSAH@physx@@QAEMPBIABUInterval@2@@Z 10014300 f i RTreeCooking.obj
 0001:00013480       ?copy@?$Array@IVNamedAllocator@shdfnd@physx@@@shdfnd@physx@@KAXPAI0PBI@Z 10014480 f i RTreeCooking.obj
 0001:000134e0       ?copy@?$Array@UInterval@physx@@V?$InlineAllocator@$0CAAA@VNamedAllocator@shdfnd@physx@@@shdfnd@2@@shdfnd@physx@@KAXPAUInterval@3@0PBU43@@Z 100144e0 f i RTreeCooking.obj
 0001:00013550       ?copy@?$Array@UPxBounds3V@physx@@VNamedAllocator@shdfnd@2@@shdfnd@physx@@KAXPAUPxBounds3V@3@0PBU43@@Z 10014550 f i RTreeCooking.obj
 0001:000135c0       ?copy@?$Array@URTreeNodeNQ@physx@@VNamedAllocator@shdfnd@2@@shdfnd@physx@@KAXPAURTreeNodeNQ@3@0PBU43@@Z 100145c0 f i RTreeCooking.obj
 0001:00013620       ?copy@?$Array@URTreeNodeQ@Gu@physx@@VNamedAllocator@shdfnd@3@@shdfnd@physx@@KAXPAURTreeNodeQ@Gu@3@0PBU453@@Z 10014620 f i RTreeCooking.obj
 0001:00013690       ?copy@?$Array@VPxVec3@physx@@VNamedAllocator@shdfnd@2@@shdfnd@physx@@KAXPAVPxVec3@3@0PBV43@@Z 10014690 f i RTreeCooking.obj
 0001:000136f0       ?create@?$Array@IVNamedAllocator@shdfnd@physx@@@shdfnd@physx@@KAXPAI0ABI@Z 100146f0 f i RTreeCooking.obj
 0001:00013740       ?deallocate@?$Array@IVNamedAllocator@shdfnd@physx@@@shdfnd@physx@@IAEXPAX@Z 10014740 f i RTreeCooking.obj
 0001:00013760       ?deallocate@?$Array@UInterval@physx@@V?$InlineAllocator@$0CAAA@VNamedAllocator@shdfnd@physx@@@shdfnd@2@@shdfnd@physx@@IAEXPAX@Z 10014760 f i RTreeCooking.obj
 0001:00013780       ?deallocate@?$Array@UPxBounds3V@physx@@VNamedAllocator@shdfnd@2@@shdfnd@physx@@IAEXPAX@Z 10014780 f i RTreeCooking.obj
 0001:000137a0       ?deallocate@?$Array@URTreeNodeNQ@physx@@VNamedAllocator@shdfnd@2@@shdfnd@physx@@IAEXPAX@Z 100147a0 f i RTreeCooking.obj
 0001:000137c0       ?deallocate@?$Array@URTreeNodeQ@Gu@physx@@VNamedAllocator@shdfnd@3@@shdfnd@physx@@IAEXPAX@Z 100147c0 f i RTreeCooking.obj
 0001:000137e0       ?deallocate@?$Array@VPxVec3@physx@@VNamedAllocator@shdfnd@2@@shdfnd@physx@@IAEXPAX@Z 100147e0 f i RTreeCooking.obj
 0001:00013800       ?deallocate@?$InlineAllocator@$0CAAA@VNamedAllocator@shdfnd@physx@@@shdfnd@physx@@QAEXPAX@Z 10014800 f i RTreeCooking.obj
 0001:00013840       ?deallocate@NonTrackingAllocator@shdfnd@physx@@QAEXPAX@Z 10014840 f i RTreeCooking.obj
 0001:00013880       ?destroy@?$Array@IVNamedAllocator@shdfnd@physx@@@shdfnd@physx@@KAXPAI0@Z 10014880 f i RTreeCooking.obj
 0001:000138a0       ?destroy@?$Array@UInterval@physx@@V?$InlineAllocator@$0CAAA@VNamedAllocator@shdfnd@physx@@@shdfnd@2@@shdfnd@physx@@KAXPAUInterval@3@0@Z 100148a0 f i RTreeCooking.obj
 0001:000138c0       ?destroy@?$Array@UPxBounds3V@physx@@VNamedAllocator@shdfnd@2@@shdfnd@physx@@KAXPAUPxBounds3V@3@0@Z 100148c0 f i RTreeCooking.obj
 0001:000138e0       ?destroy@?$Array@URTreeNodeNQ@physx@@VNamedAllocator@shdfnd@2@@shdfnd@physx@@KAXPAURTreeNodeNQ@3@0@Z 100148e0 f i RTreeCooking.obj
 0001:00013900       ?destroy@?$Array@URTreeNodeQ@Gu@physx@@VNamedAllocator@shdfnd@3@@shdfnd@physx@@KAXPAURTreeNodeQ@Gu@3@0@Z 10014900 f i RTreeCooking.obj
 0001:00013920       ?destroy@?$Array@VPxVec3@physx@@VNamedAllocator@shdfnd@2@@shdfnd@physx@@KAXPAVPxVec3@3@0@Z 10014920 f i RTreeCooking.obj
 0001:00013940       ?empty@?$Stack@VNamedAllocator@shdfnd@physx@@@internal@shdfnd@physx@@QAE_NXZ 10014940 f i RTreeCooking.obj
 0001:00013980       ?empty@PxBounds3@physx@@SA?AV12@XZ 10014980 f i RTreeCooking.obj
 0001:000139e0       ?getExtents@PxBounds3V@physx@@QBE?AT__m128@@XZ 100149e0 f i RTreeCooking.obj
 0001:00013a40       ?getMaxVec3@PxBounds3V@physx@@QBE?BVPxVec3@2@XZ 10014a40 f i RTreeCooking.obj
 0001:00013a90       ?getMinVec3@PxBounds3V@physx@@QBE?BVPxVec3@2@XZ 10014a90 f i RTreeCooking.obj
 0001:00013ae0       ?grow@?$Array@IVNamedAllocator@shdfnd@physx@@@shdfnd@physx@@IAEXI@Z 10014ae0 f i RTreeCooking.obj
 0001:00013b60       ?grow@?$Array@UPxBounds3V@physx@@VNamedAllocator@shdfnd@2@@shdfnd@physx@@IAEXI@Z 10014b60 f i RTreeCooking.obj
 0001:00013be0       ?grow@?$Array@URTreeNodeNQ@physx@@VNamedAllocator@shdfnd@2@@shdfnd@physx@@IAEXI@Z 10014be0 f i RTreeCooking.obj
 0001:00013c60       ?grow@?$Array@URTreeNodeQ@Gu@physx@@VNamedAllocator@shdfnd@3@@shdfnd@physx@@IAEXI@Z 10014c60 f i RTreeCooking.obj
 0001:00013ce0       ?grow@?$Array@VPxVec3@physx@@VNamedAllocator@shdfnd@2@@shdfnd@physx@@IAEXI@Z 10014ce0 f i RTreeCooking.obj
 0001:00013d60       ?grow@?$Stack@VNamedAllocator@shdfnd@physx@@@internal@shdfnd@physx@@QAEXXZ 10014d60 f i RTreeCooking.obj
 0001:00013e10       ?growAndPushBack@?$Array@IVNamedAllocator@shdfnd@physx@@@shdfnd@physx@@IAEAAIABI@Z 10014e10 f i RTreeCooking.obj
 0001:00013f80       ?growAndPushBack@?$Array@UInterval@physx@@V?$InlineAllocator@$0CAAA@VNamedAllocator@shdfnd@physx@@@shdfnd@2@@shdfnd@physx@@IAEAAUInterval@3@ABU43@@Z 10014f80 f i RTreeCooking.obj
 0001:00014130       ?growAndPushBack@?$Array@UPxBounds3V@physx@@VNamedAllocator@shdfnd@2@@shdfnd@physx@@IAEAAUPxBounds3V@3@ABU43@@Z 10015130 f i RTreeCooking.obj
 0001:000142b0       ?growAndPushBack@?$Array@URTreeNodeNQ@physx@@VNamedAllocator@shdfnd@2@@shdfnd@physx@@IAEAAURTreeNodeNQ@3@ABU43@@Z 100152b0 f i RTreeCooking.obj
 0001:00014420       ?growAndPushBack@?$Array@URTreeNodeQ@Gu@physx@@VNamedAllocator@shdfnd@3@@shdfnd@physx@@IAEAAURTreeNodeQ@Gu@3@ABU453@@Z 10015420 f i RTreeCooking.obj
 0001:00014590       ?growAndPushBack@?$Array@VPxVec3@physx@@VNamedAllocator@shdfnd@2@@shdfnd@physx@@IAEAAVPxVec3@3@ABV43@@Z 10015590 f i RTreeCooking.obj
 0001:00014700       ?include@PxBounds3V@physx@@QAEXABU12@@Z 10015700 f i RTreeCooking.obj
 0001:00014780       ?isAligned16@aos@shdfnd@physx@@YA_NPAX@Z 10015780 f i RTreeCooking.obj
 0001:000147b0       ?isFinite@PxBounds3@physx@@QBE_NXZ 100157b0 f i RTreeCooking.obj
 0001:00014810       ?isFinite@PxVec3@physx@@QBE_NXZ 10015810 f i RTreeCooking.obj
 0001:000148b0       ?isFinite@intrinsics@physx@@YA_NM@Z 100158b0 f i RTreeCooking.obj
 0001:00014900       ?isInUserMemory@?$Array@IVNamedAllocator@shdfnd@physx@@@shdfnd@physx@@QBEIXZ 10015900 f i RTreeCooking.obj
 0001:00014920       ?isInUserMemory@?$Array@UInterval@physx@@V?$InlineAllocator@$0CAAA@VNamedAllocator@shdfnd@physx@@@shdfnd@2@@shdfnd@physx@@QBEIXZ 10015920 f i RTreeCooking.obj
 0001:00014940       ?isInUserMemory@?$Array@UPxBounds3V@physx@@VNamedAllocator@shdfnd@2@@shdfnd@physx@@QBEIXZ 10015940 f i RTreeCooking.obj
 0001:00014960       ?isInUserMemory@?$Array@URTreeNodeNQ@physx@@VNamedAllocator@shdfnd@2@@shdfnd@physx@@QBEIXZ 10015960 f i RTreeCooking.obj
 0001:00014980       ?isInUserMemory@?$Array@URTreeNodeQ@Gu@physx@@VNamedAllocator@shdfnd@3@@shdfnd@physx@@QBEIXZ 10015980 f i RTreeCooking.obj
 0001:000149a0       ?isInUserMemory@?$Array@VPxVec3@physx@@VNamedAllocator@shdfnd@2@@shdfnd@physx@@QBEIXZ 100159a0 f i RTreeCooking.obj
 0001:000149c0       ?isInside@PxBounds3@physx@@QBE_NABV12@@Z 100159c0 f i RTreeCooking.obj
 0001:00014ae0       ?isLeaf@RTreeNodeQ@Gu@physx@@QBEIXZ 10015ae0 f i RTreeCooking.obj
 0001:00014b00       ?isValid@PxBounds3@physx@@QBE_NXZ 10015b00 f i RTreeCooking.obj
 0001:00014c20       ?isValidFloatV@aos@shdfnd@physx@@YA_NT__m128@@@Z 10015c20 f i RTreeCooking.obj
 0001:00014df0       ?isValidVec3V@aos@shdfnd@physx@@YA_NT__m128@@@Z 10015df0 f i RTreeCooking.obj
 0001:00014e70       ?memCopy@intrinsics@physx@@YAPAXPAXPBXI@Z 10015e70 f i RTreeCooking.obj
 0001:00014e90       ?pop@?$Stack@VNamedAllocator@shdfnd@physx@@@internal@shdfnd@physx@@QAEXAAH0@Z 10015e90 f i RTreeCooking.obj
 0001:00014f60       ?popBack@?$Array@IVNamedAllocator@shdfnd@physx@@@shdfnd@physx@@QAEIXZ 10015f60 f i RTreeCooking.obj
 0001:00015000       ?push@?$Stack@VNamedAllocator@shdfnd@physx@@@internal@shdfnd@physx@@QAEXHH@Z 10016000 f i RTreeCooking.obj
 0001:00015090       ?pushBack@?$Array@IVNamedAllocator@shdfnd@physx@@@shdfnd@physx@@QAEAAIABI@Z 10016090 f i RTreeCooking.obj
 0001:00015130       ?pushBack@?$Array@UInterval@physx@@V?$InlineAllocator@$0CAAA@VNamedAllocator@shdfnd@physx@@@shdfnd@2@@shdfnd@physx@@QAEAAUInterval@3@ABU43@@Z 10016130 f i RTreeCooking.obj
 0001:000151f0       ?pushBack@?$Array@UPxBounds3V@physx@@VNamedAllocator@shdfnd@2@@shdfnd@physx@@QAEAAUPxBounds3V@3@ABU43@@Z 100161f0 f i RTreeCooking.obj
 0001:00015290       ?pushBack@?$Array@URTreeNodeNQ@physx@@VNamedAllocator@shdfnd@2@@shdfnd@physx@@QAEAAURTreeNodeNQ@3@ABU43@@Z 10016290 f i RTreeCooking.obj
 0001:00015330       ?pushBack@?$Array@URTreeNodeQ@Gu@physx@@VNamedAllocator@shdfnd@3@@shdfnd@physx@@QAEAAURTreeNodeQ@Gu@3@ABU453@@Z 10016330 f i RTreeCooking.obj
 0001:000153d0       ?pushBack@?$Array@VPxVec3@physx@@VNamedAllocator@shdfnd@2@@shdfnd@physx@@QAEAAVPxVec3@3@ABV43@@Z 100163d0 f i RTreeCooking.obj
 0001:00015470       ?recreate@?$Array@IVNamedAllocator@shdfnd@physx@@@shdfnd@physx@@IAEXI@Z 10016470 f i RTreeCooking.obj
 0001:00015580       ?recreate@?$Array@UPxBounds3V@physx@@VNamedAllocator@shdfnd@2@@shdfnd@physx@@IAEXI@Z 10016580 f i RTreeCooking.obj
 0001:00015690       ?recreate@?$Array@URTreeNodeNQ@physx@@VNamedAllocator@shdfnd@2@@shdfnd@physx@@IAEXI@Z 10016690 f i RTreeCooking.obj
 0001:000157a0       ?recreate@?$Array@URTreeNodeQ@Gu@physx@@VNamedAllocator@shdfnd@3@@shdfnd@physx@@IAEXI@Z 100167a0 f i RTreeCooking.obj
 0001:000158a0       ?recreate@?$Array@VPxVec3@physx@@VNamedAllocator@shdfnd@2@@shdfnd@physx@@IAEXI@Z 100168a0 f i RTreeCooking.obj
 0001:000159a0       ?replaceWithLast@?$Array@UInterval@physx@@V?$InlineAllocator@$0CAAA@VNamedAllocator@shdfnd@physx@@@shdfnd@2@@shdfnd@physx@@QAEXI@Z 100169a0 f i RTreeCooking.obj
 0001:00015a60       ?reserve@?$Array@IVNamedAllocator@shdfnd@physx@@@shdfnd@physx@@QAEXI@Z 10016a60 f i RTreeCooking.obj
 0001:00015a90       ?reserve@?$Array@UPxBounds3V@physx@@VNamedAllocator@shdfnd@2@@shdfnd@physx@@QAEXI@Z 10016a90 f i RTreeCooking.obj
 0001:00015ac0       ?reserve@?$Array@URTreeNodeNQ@physx@@VNamedAllocator@shdfnd@2@@shdfnd@physx@@QAEXI@Z 10016ac0 f i RTreeCooking.obj
 0001:00015af0       ?reserve@?$Array@URTreeNodeQ@Gu@physx@@VNamedAllocator@shdfnd@3@@shdfnd@physx@@QAEXI@Z 10016af0 f i RTreeCooking.obj
 0001:00015b20       ?reserve@?$Array@VPxVec3@physx@@VNamedAllocator@shdfnd@2@@shdfnd@physx@@QAEXI@Z 10016b20 f i RTreeCooking.obj
 0001:00015b50       ?resize@?$Array@IVNamedAllocator@shdfnd@physx@@@shdfnd@physx@@QAEXIABI@Z 10016b50 f i RTreeCooking.obj
 0001:00015be0       ?resizeUninitialized@?$Array@URTreeNodeNQ@physx@@VNamedAllocator@shdfnd@2@@shdfnd@physx@@QAEXI@Z 10016be0 f i RTreeCooking.obj
 0001:00015c10       ?selectMax@intrinsics@physx@@YAMMM@Z 10016c10 f i RTreeCooking.obj
 0001:00015c50       ?selectMin@intrinsics@physx@@YAMMM@Z 10016c50 f i RTreeCooking.obj
 0001:00015c90       ?setEmpty@PxBounds3@physx@@QAEXXZ 10016c90 f i RTreeCooking.obj
 0001:00015d00       ?setLeaf@RTreeNodeQ@Gu@physx@@QAEX_N@Z 10016d00 f i RTreeCooking.obj
 0001:00015d50       ?size@?$Array@IVNamedAllocator@shdfnd@physx@@@shdfnd@physx@@QBEIXZ 10016d50 f i RTreeCooking.obj
 0001:00015d70       ?size@?$Array@UInterval@physx@@V?$InlineAllocator@$0CAAA@VNamedAllocator@shdfnd@physx@@@shdfnd@2@@shdfnd@physx@@QBEIXZ 10016d70 f i RTreeCooking.obj
 0001:00015d90       ?size@?$Array@URTreeNodeNQ@physx@@VNamedAllocator@shdfnd@2@@shdfnd@physx@@QBEIXZ 10016d90 f i RTreeCooking.obj
 0001:00015db0       ?size@?$Array@URTreeNodeQ@Gu@physx@@VNamedAllocator@shdfnd@3@@shdfnd@physx@@QBEIXZ 10016db0 f i RTreeCooking.obj
 0001:00015dd0       ?size@?$Array@VPxVec3@physx@@VNamedAllocator@shdfnd@2@@shdfnd@physx@@QBEIXZ 10016dd0 f i RTreeCooking.obj
 0001:00015df0       ?sort4@SubSortQuick@physx@@QAEXPIAIIAAV?$Array@URTreeNodeNQ@physx@@VNamedAllocator@shdfnd@2@@shdfnd@2@AAIAAUPxBounds3V@2@I@Z 10016df0 f i RTreeCooking.obj
 0001:00016660       ?sort4@SubSortSAH@physx@@QAEXPAIIAAV?$Array@URTreeNodeNQ@physx@@VNamedAllocator@shdfnd@2@@shdfnd@2@AAIIPAURTreeNodeNQ@2@@Z 10017660 f i RTreeCooking.obj
 0001:00017410       ?split@SubSortSAH@physx@@QAEIPAII@Z 10018410 f i RTreeCooking.obj
 0001:00018090       _fabsf                     10019090 f i RTreeCooking.obj
 0001:000180c0       ??0TriangleMeshBuilder@physx@@QAE@AAVTriangleMeshData@Gu@1@ABUPxCookingParams@1@@Z 100190c0 f   TriangleMeshBuilder.obj
 0001:00018100       ??1TriangleMeshBuilder@physx@@UAE@XZ 10019100 f   TriangleMeshBuilder.obj
 0001:00018120       ?cleanMesh@TriangleMeshBuilder@physx@@QAE_N_NPAW4Enum@PxTriangleMeshCookingResult@2@@Z 10019120 f   TriangleMeshBuilder.obj
 0001:000186c0       ?remapTopology@TriangleMeshBuilder@physx@@QAEXPBI@Z 100196c0 f   TriangleMeshBuilder.obj
 0001:00018960       ?createSharedEdgeData@TriangleMeshBuilder@physx@@QAEX_N0@Z 10019960 f   TriangleMeshBuilder.obj
 0001:00018f50       ?recordTriangleIndices@TriangleMeshBuilder@physx@@QAEXXZ 10019f50 f   TriangleMeshBuilder.obj
 0001:000190a0       ?createGRBMidPhaseAndData@TriangleMeshBuilder@physx@@QAEXI@Z 1001a0a0 f   TriangleMeshBuilder.obj
 0001:000192f0       ?createGRBData@TriangleMeshBuilder@physx@@QAEXXZ 1001a2f0 f   TriangleMeshBuilder.obj
 0001:00019400       ?loadFromDesc@TriangleMeshBuilder@physx@@QAE_NABVPxTriangleMeshDesc@2@PAW4Enum@PxTriangleMeshCookingResult@2@_N@Z 1001a400 f   TriangleMeshBuilder.obj
 0001:00019600       ?save@TriangleMeshBuilder@physx@@QBE_NAAVPxOutputStream@2@_NABUPxCookingParams@2@@Z 1001a600 f   TriangleMeshBuilder.obj
 0001:00019c90       ?checkMeshIndicesSize@TriangleMeshBuilder@physx@@QAEXXZ 1001ac90 f   TriangleMeshBuilder.obj
 0001:00019e20       ?computeLocalBounds@TriangleMeshBuilder@physx@@IAEXXZ 1001ae20 f   TriangleMeshBuilder.obj
 0001:00019f30       ?importMesh@TriangleMeshBuilder@physx@@IAE_NABVPxTriangleMeshDesc@2@ABUPxCookingParams@2@PAW4Enum@PxTriangleMeshCookingResult@2@_N@Z 1001af30 f   TriangleMeshBuilder.obj
 0001:0001a3a0       ?releaseEdgeList@TriangleMeshBuilder@physx@@IAEXXZ 1001b3a0 f   TriangleMeshBuilder.obj
 0001:0001a3f0       ?createEdgeList@TriangleMeshBuilder@physx@@IAEXXZ 1001b3f0 f   TriangleMeshBuilder.obj
 0001:0001a500       ??0RTreeTriangleMeshBuilder@physx@@QAE@ABUPxCookingParams@1@@Z 1001b500 f   TriangleMeshBuilder.obj
 0001:0001a540       ??1RTreeTriangleMeshBuilder@physx@@UAE@XZ 1001b540 f   TriangleMeshBuilder.obj
 0001:0001a570       ?createMidPhaseStructure@RTreeTriangleMeshBuilder@physx@@UAEXXZ 1001b570 f   TriangleMeshBuilder.obj
 0001:0001a720       ?saveMidPhaseStructure@RTreeTriangleMeshBuilder@physx@@UBEXAAVPxOutputStream@2@_N@Z 1001b720 f   TriangleMeshBuilder.obj
 0001:0001a990       ??0BV4TriangleMeshBuilder@physx@@QAE@ABUPxCookingParams@1@@Z 1001b990 f   TriangleMeshBuilder.obj
 0001:0001a9d0       ??1BV4TriangleMeshBuilder@physx@@UAE@XZ 1001b9d0 f   TriangleMeshBuilder.obj
 0001:0001aa00       ?createMidPhaseStructure@BV4TriangleMeshBuilder@physx@@UAEXXZ 1001ba00 f   TriangleMeshBuilder.obj
 0001:0001ad10       ?saveMidPhaseStructure@BV4TriangleMeshBuilder@physx@@UBEXAAVPxOutputStream@2@_N@Z 1001bd10 f   TriangleMeshBuilder.obj
 0001:0001af60       ?onMeshIndexFormatChange@BV4TriangleMeshBuilder@physx@@UAEXXZ 1001bf60 f   TriangleMeshBuilder.obj
 0001:0001afd0       ?createMidPhaseStructure@BV32TriangleMeshBuilder@physx@@SAXABUPxCookingParams@2@AAVTriangleMeshData@Gu@2@AAVBV32Tree@52@@Z 1001bfd0 f   TriangleMeshBuilder.obj
 0001:0001b1d0       ?saveMidPhaseStructure@BV32TriangleMeshBuilder@physx@@SAXPAVBV32Tree@Gu@2@AAVPxOutputStream@2@_N@Z 1001c1d0 f   TriangleMeshBuilder.obj
 0001:0001b930       ?findSharpVertices@GrbTrimeshCookerHelper@physx@@YAXAAV?$Array@USortedNeighbor@GrbTrimeshCookerHelper@physx@@VNamedAllocator@shdfnd@3@@shdfnd@2@AAV?$Array@USharpEdgeRange@GrbTrimeshCookerHelper@physx@@VNamedAllocator@shdfnd@3@@42@PBUuint3@2@PBUuint4@2@II@Z 1001c930 f   TriangleMeshBuilder.obj
 0001:0001bcc0       ?buildVertexConnectionNew_p1@GrbTrimeshCookerHelper@physx@@YAIAAV?$Array@USortedNeighbor@GrbTrimeshCookerHelper@physx@@VNamedAllocator@shdfnd@3@@shdfnd@2@AAV?$Array@USharpEdgeRange@GrbTrimeshCookerHelper@physx@@VNamedAllocator@shdfnd@3@@42@PBUuint3@2@PBUuint4@2@II@Z 1001ccc0 f   TriangleMeshBuilder.obj
 0001:0001bd30       ?buildVertexConnectionNew_p2@GrbTrimeshCookerHelper@physx@@YAXPAI00AAV?$Array@USortedNeighbor@GrbTrimeshCookerHelper@physx@@VNamedAllocator@shdfnd@3@@shdfnd@2@AAV?$Array@USharpEdgeRange@GrbTrimeshCookerHelper@physx@@VNamedAllocator@shdfnd@3@@42@I@Z 1001cd30 f   TriangleMeshBuilder.obj
 0001:0001cd20       ??$?2V?$ReflectionAllocator@VBV32Tree@Gu@physx@@@shdfnd@physx@@@UserAllocated@shdfnd@physx@@SAPAXIV?$ReflectionAllocator@VBV32Tree@Gu@physx@@@12@PBDH@Z 1001dd20 f i TriangleMeshBuilder.obj
 0001:0001cd40       ??$?2V?$ReflectionAllocator@VEdgeListBuilder@Gu@physx@@@shdfnd@physx@@@UserAllocated@shdfnd@physx@@SAPAXIV?$ReflectionAllocator@VEdgeListBuilder@Gu@physx@@@12@PBDH@Z 1001dd40 f i TriangleMeshBuilder.obj
 0001:0001cd60       ??$?_UE@@YAPAXIV?$ReflectionAllocator@E@shdfnd@physx@@PBDH@Z 1001dd60 f i TriangleMeshBuilder.obj
 0001:0001cd80       ??$?_UG@@YAPAXIV?$ReflectionAllocator@G@shdfnd@physx@@PBDH@Z 1001dd80 f i TriangleMeshBuilder.obj
 0001:0001cda0       ??$?_UI@@YAPAXIV?$ReflectionAllocator@I@shdfnd@physx@@PBDH@Z 1001dda0 f i TriangleMeshBuilder.obj
 0001:0001cdc0       ??$PX_UNUSED@U?$TriangleT@I@Gu@physx@@@@YAXABU?$TriangleT@I@Gu@physx@@@Z 1001ddc0 f i TriangleMeshBuilder.obj
 0001:0001cdd0       ??$median3@UEdgeTriLookup@physx@@$$CBU?$Less@UEdgeTriLookup@physx@@@shdfnd@2@@internal@shdfnd@physx@@YAXPAUEdgeTriLookup@2@HHABU?$Less@UEdgeTriLookup@physx@@@12@@Z 1001ddd0 f i TriangleMeshBuilder.obj
 0001:0001cee0       ??$median3@USortedNeighbor@GrbTrimeshCookerHelper@physx@@$$CBU?$Less@USortedNeighbor@GrbTrimeshCookerHelper@physx@@@shdfnd@3@@internal@shdfnd@physx@@YAXPAUSortedNeighbor@GrbTrimeshCookerHelper@2@HHABU?$Less@USortedNeighbor@GrbTrimeshCookerHelper@physx@@@12@@Z 1001dee0 f i TriangleMeshBuilder.obj
 0001:0001cff0       ??$partition@UEdgeTriLookup@physx@@$$CBU?$Less@UEdgeTriLookup@physx@@@shdfnd@2@@internal@shdfnd@physx@@YAHPAUEdgeTriLookup@2@HHABU?$Less@UEdgeTriLookup@physx@@@12@@Z 1001dff0 f i TriangleMeshBuilder.obj
 0001:0001d1b0       ??$partition@USortedNeighbor@GrbTrimeshCookerHelper@physx@@$$CBU?$Less@USortedNeighbor@GrbTrimeshCookerHelper@physx@@@shdfnd@3@@internal@shdfnd@physx@@YAHPAUSortedNeighbor@GrbTrimeshCookerHelper@2@HHABU?$Less@USortedNeighbor@GrbTrimeshCookerHelper@physx@@@12@@Z 1001e1b0 f i TriangleMeshBuilder.obj
 0001:0001d370       ??$smallSort@UEdgeTriLookup@physx@@$$CBU?$Less@UEdgeTriLookup@physx@@@shdfnd@2@@internal@shdfnd@physx@@YAXPAUEdgeTriLookup@2@HHABU?$Less@UEdgeTriLookup@physx@@@12@@Z 1001e370 f i TriangleMeshBuilder.obj
 0001:0001d430       ??$smallSort@USortedNeighbor@GrbTrimeshCookerHelper@physx@@$$CBU?$Less@USortedNeighbor@GrbTrimeshCookerHelper@physx@@@shdfnd@3@@internal@shdfnd@physx@@YAXPAUSortedNeighbor@GrbTrimeshCookerHelper@2@HHABU?$Less@USortedNeighbor@GrbTrimeshCookerHelper@physx@@@12@@Z 1001e430 f i TriangleMeshBuilder.obj
 0001:0001d4f0       ??$sort@UEdgeTriLookup@physx@@@shdfnd@physx@@YAXPAUEdgeTriLookup@1@I@Z 1001e4f0 f i TriangleMeshBuilder.obj
 0001:0001d530       ??$sort@UEdgeTriLookup@physx@@U?$Less@UEdgeTriLookup@physx@@@shdfnd@2@VNamedAllocator@42@@shdfnd@physx@@YAXPAUEdgeTriLookup@1@IABU?$Less@UEdgeTriLookup@physx@@@01@ABVNamedAllocator@01@I@Z 1001e530 f i TriangleMeshBuilder.obj
 0001:0001d7f0       ??$sort@USortedNeighbor@GrbTrimeshCookerHelper@physx@@@shdfnd@physx@@YAXPAUSortedNeighbor@GrbTrimeshCookerHelper@1@I@Z 1001e7f0 f i TriangleMeshBuilder.obj
 0001:0001d830       ??$sort@USortedNeighbor@GrbTrimeshCookerHelper@physx@@U?$Less@USortedNeighbor@GrbTrimeshCookerHelper@physx@@@shdfnd@3@VNamedAllocator@53@@shdfnd@physx@@YAXPAUSortedNeighbor@GrbTrimeshCookerHelper@1@IABU?$Less@USortedNeighbor@GrbTrimeshCookerHelper@physx@@@01@ABVNamedAllocator@01@I@Z 1001e830 f i TriangleMeshBuilder.obj
 0001:0001daf0       ??$swap@UEdgeTriLookup@physx@@@shdfnd@physx@@YAXAAUEdgeTriLookup@1@0@Z 1001eaf0 f i TriangleMeshBuilder.obj
 0001:0001db50       ??$swap@USortedNeighbor@GrbTrimeshCookerHelper@physx@@@shdfnd@physx@@YAXAAUSortedNeighbor@GrbTrimeshCookerHelper@1@0@Z 1001eb50 f i TriangleMeshBuilder.obj
 0001:0001dbb0       ??0?$Array@IVNamedAllocator@shdfnd@physx@@@shdfnd@physx@@QAE@ABVNamedAllocator@12@@Z 1001ebb0 f i TriangleMeshBuilder.obj
 0001:0001dc00       ??0?$PxFlags@W4Enum@PxMeshFlag@physx@@G@physx@@QAE@ABV01@@Z 1001ec00 f i TriangleMeshBuilder.obj
 0001:0001dc30       ??0?$PxFlags@W4Enum@PxMeshFlag@physx@@G@physx@@QAE@W4Enum@PxMeshFlag@1@@Z 1001ec30 f i TriangleMeshBuilder.obj
 0001:0001dc50       ??0?$PxFlags@W4Enum@PxMeshFlag@physx@@G@physx@@QAE@XZ 1001ec50 f i TriangleMeshBuilder.obj
 0001:0001dc70       ??0?$PxFlags@W4Enum@PxMeshPreprocessingFlag@physx@@I@physx@@QAE@ABV01@@Z 1001ec70 f i TriangleMeshBuilder.obj
 0001:0001dc90       ??0?$ReflectionAllocator@E@shdfnd@physx@@QAE@PBD@Z 1001ec90 f i TriangleMeshBuilder.obj
 0001:0001dcb0       ??0?$ReflectionAllocator@G@shdfnd@physx@@QAE@PBD@Z 1001ecb0 f i TriangleMeshBuilder.obj
 0001:0001dcd0       ??0?$ReflectionAllocator@I@shdfnd@physx@@QAE@PBD@Z 1001ecd0 f i TriangleMeshBuilder.obj
 0001:0001dcf0       ??0?$ReflectionAllocator@VBV32Tree@Gu@physx@@@shdfnd@physx@@QAE@PBD@Z 1001ecf0 f i TriangleMeshBuilder.obj
 0001:0001dd10       ??0?$ReflectionAllocator@VEdgeListBuilder@Gu@physx@@@shdfnd@physx@@QAE@PBD@Z 1001ed10 f i TriangleMeshBuilder.obj
 0001:0001dd30       ??0BV4TriangleData@Gu@physx@@QAE@XZ 1001ed30 f i TriangleMeshBuilder.obj
 0001:0001dd90       ??0EDGELISTCREATE@Gu@physx@@QAE@XZ 1001ed90 f i TriangleMeshBuilder.obj
 0001:0001de00       ??0PxPlane@physx@@QAE@ABVPxVec3@1@0@Z 1001ee00 f i TriangleMeshBuilder.obj
 0001:0001de60       ??0PxSimpleTriangleMesh@physx@@QAE@ABV01@@Z 1001ee60 f i TriangleMeshBuilder.obj
 0001:0001ded0       ??0PxTriangleMeshDesc@physx@@QAE@ABV01@@Z 1001eed0 f i TriangleMeshBuilder.obj
 0001:0001df10       ??0PxVec4@physx@@QAE@XZ    1001ef10 f i TriangleMeshBuilder.obj
 0001:0001df30       ??0RTree@Gu@physx@@QAE@XZ  1001ef30 f i TriangleMeshBuilder.obj
 0001:0001dfc0       ??0RTreeCookerRemap@physx@@QAE@I@Z 1001efc0 f i TriangleMeshBuilder.obj
 0001:0001e000       ??0RTreeTriangleData@Gu@physx@@QAE@XZ 1001f000 f i TriangleMeshBuilder.obj
 0001:0001e050       ??0RemapCallback@RTreeCooker@physx@@QAE@XZ 1001f050 f i TriangleMeshBuilder.obj
 0001:0001e070       ??0SharpEdgeRange@GrbTrimeshCookerHelper@physx@@QAE@II@Z 1001f070 f i TriangleMeshBuilder.obj
 0001:0001e0a0       ??0SharpEdgeRange@GrbTrimeshCookerHelper@physx@@QAE@XZ 1001f0a0 f i TriangleMeshBuilder.obj
 0001:0001e0d0       ??0SortedNeighbor@GrbTrimeshCookerHelper@physx@@QAE@II_N@Z 1001f0d0 f i TriangleMeshBuilder.obj
 0001:0001e110       ??0TriangleMeshData@Gu@physx@@QAE@XZ 1001f110 f i TriangleMeshBuilder.obj
 0001:0001e1f0       ??1BV4TriangleData@Gu@physx@@UAE@XZ 1001f1f0 f i TriangleMeshBuilder.obj
 0001:0001e240       ??1RTree@Gu@physx@@QAE@XZ  1001f240 f i TriangleMeshBuilder.obj
 0001:0001e260       ??1RTreeCookerRemap@physx@@UAE@XZ 1001f260 f i TriangleMeshBuilder.obj
 0001:0001e280       ??1RTreeTriangleData@Gu@physx@@UAE@XZ 1001f280 f i TriangleMeshBuilder.obj
 0001:0001e2b0       ??1RemapCallback@RTreeCooker@physx@@UAE@XZ 1001f2b0 f i TriangleMeshBuilder.obj
 0001:0001e2d0       ??1TriangleMeshData@Gu@physx@@UAE@XZ 1001f2d0 f i TriangleMeshBuilder.obj
 0001:0001e500       ??3UserAllocated@shdfnd@physx@@SAXPAX@Z 1001f500 f i TriangleMeshBuilder.obj
 0001:0001e530       ??A?$Array@USharpEdgeRange@GrbTrimeshCookerHelper@physx@@VNamedAllocator@shdfnd@3@@shdfnd@physx@@QAEAAUSharpEdgeRange@GrbTrimeshCookerHelper@2@I@Z 1001f530 f i TriangleMeshBuilder.obj
 0001:0001e5a0       ??A?$Array@USortedNeighbor@GrbTrimeshCookerHelper@physx@@VNamedAllocator@shdfnd@3@@shdfnd@physx@@QAEAAUSortedNeighbor@GrbTrimeshCookerHelper@2@I@Z 1001f5a0 f i TriangleMeshBuilder.obj
 0001:0001e610       ??APxVec3@physx@@QAEAAMI@Z 1001f610 f i TriangleMeshBuilder.obj
 0001:0001e680       ??B?$PxFlags@W4Enum@PxMeshFlag@physx@@G@physx@@QBE_NXZ 1001f680 f i TriangleMeshBuilder.obj
 0001:0001e6b0       ??B?$PxFlags@W4Enum@PxMeshPreprocessingFlag@physx@@I@physx@@QBE_NXZ 1001f6b0 f i TriangleMeshBuilder.obj
 0001:0001e6e0       ??DPxVec3@physx@@QBE?AV01@M@Z 1001f6e0 f i TriangleMeshBuilder.obj
 0001:0001e750       ??GPxVec3@physx@@QBE?AV01@ABV01@@Z 1001f750 f i TriangleMeshBuilder.obj
 0001:0001e7c0       ??I?$PxFlags@W4Enum@PxMeshFlag@physx@@G@physx@@QBE?AV01@W4Enum@PxMeshFlag@1@@Z 1001f7c0 f i TriangleMeshBuilder.obj
 0001:0001e810       ??I?$PxFlags@W4Enum@PxMeshPreprocessingFlag@physx@@I@physx@@QBE?AV01@W4Enum@PxMeshPreprocessingFlag@1@@Z 1001f810 f i TriangleMeshBuilder.obj
 0001:0001e850       ??MEdgeTriLookup@physx@@QBE_NABU01@@Z 1001f850 f i TriangleMeshBuilder.obj
 0001:0001e8b0       ??MSortedNeighbor@GrbTrimeshCookerHelper@physx@@QBE_NABU012@@Z 1001f8b0 f i TriangleMeshBuilder.obj
 0001:0001e950       ??NEdgeTriLookup@physx@@QBE_NABU01@@Z 1001f950 f i TriangleMeshBuilder.obj
 0001:0001e9b0       ??R?$Less@UEdgeTriLookup@physx@@@shdfnd@physx@@QBE_NABUEdgeTriLookup@2@0@Z 1001f9b0 f i TriangleMeshBuilder.obj
 0001:0001e9d0       ??R?$Less@USortedNeighbor@GrbTrimeshCookerHelper@physx@@@shdfnd@physx@@QBE_NABUSortedNeighbor@GrbTrimeshCookerHelper@2@0@Z 1001f9d0 f i TriangleMeshBuilder.obj
 0001:0001e9f0       ??S?$PxFlags@W4Enum@PxMeshFlag@physx@@G@physx@@QBE?AV01@XZ 1001f9f0 f i TriangleMeshBuilder.obj
 0001:0001ea30       ??Sphysx@@YA?AV?$PxFlags@W4Enum@PxMeshFlag@physx@@G@0@W4Enum@PxMeshFlag@0@@Z 1001fa30 f i TriangleMeshBuilder.obj
 0001:0001ea60       ??_4?$PxFlags@W4Enum@PxMeshFlag@physx@@G@physx@@QAEAAV01@ABV01@@Z 1001fa60 f i TriangleMeshBuilder.obj
 0001:0001ea90       ??_GBV32Tree@Gu@physx@@QAEPAXI@Z 1001fa90 f i TriangleMeshBuilder.obj
 0001:0001eaf0       ??_GBV4TriangleData@Gu@physx@@UAEPAXI@Z 1001faf0 f i TriangleMeshBuilder.obj
 0001:0001eaf0       ??_EBV4TriangleData@Gu@physx@@UAEPAXI@Z 1001faf0 f i TriangleMeshBuilder.obj
 0001:0001eb50       ??_EBV4TriangleMeshBuilder@physx@@UAEPAXI@Z 1001fb50 f i TriangleMeshBuilder.obj
 0001:0001eb50       ??_GBV4TriangleMeshBuilder@physx@@UAEPAXI@Z 1001fb50 f i TriangleMeshBuilder.obj
 0001:0001eb90       ??_GEdgeListBuilder@Gu@physx@@QAEPAXI@Z 1001fb90 f i TriangleMeshBuilder.obj
 0001:0001ebf0       ??_ERTreeCookerRemap@physx@@UAEPAXI@Z 1001fbf0 f i TriangleMeshBuilder.obj
 0001:0001ebf0       ??_GRTreeCookerRemap@physx@@UAEPAXI@Z 1001fbf0 f i TriangleMeshBuilder.obj
 0001:0001ec30       ??_GRTreeTriangleData@Gu@physx@@UAEPAXI@Z 1001fc30 f i TriangleMeshBuilder.obj
 0001:0001ec30       ??_ERTreeTriangleData@Gu@physx@@UAEPAXI@Z 1001fc30 f i TriangleMeshBuilder.obj
 0001:0001ec90       ??_ERTreeTriangleMeshBuilder@physx@@UAEPAXI@Z 1001fc90 f i TriangleMeshBuilder.obj
 0001:0001ec90       ??_GRTreeTriangleMeshBuilder@physx@@UAEPAXI@Z 1001fc90 f i TriangleMeshBuilder.obj
 0001:0001ecd0       ??_ERemapCallback@RTreeCooker@physx@@UAEPAXI@Z 1001fcd0 f i TriangleMeshBuilder.obj
 0001:0001ecd0       ??_GRemapCallback@RTreeCooker@physx@@UAEPAXI@Z 1001fcd0 f i TriangleMeshBuilder.obj
 0001:0001ed10       ??_ETriangleMeshBuilder@physx@@UAEPAXI@Z 1001fd10 f i TriangleMeshBuilder.obj
 0001:0001ed10       ??_GTriangleMeshBuilder@physx@@UAEPAXI@Z 1001fd10 f i TriangleMeshBuilder.obj
 0001:0001ed50       ??_ETriangleMeshData@Gu@physx@@UAEPAXI@Z 1001fd50 f i TriangleMeshBuilder.obj
 0001:0001ed50       ??_GTriangleMeshData@Gu@physx@@UAEPAXI@Z 1001fd50 f i TriangleMeshBuilder.obj
 0001:0001edb0       ?HasActiveEdge01@EdgeTriangleAC@Gu@physx@@SAHABUEdgeTriangleData@23@@Z 1001fdb0 f i TriangleMeshBuilder.obj
 0001:0001edd0       ?HasActiveEdge12@EdgeTriangleAC@Gu@physx@@SAHABUEdgeTriangleData@23@@Z 1001fdd0 f i TriangleMeshBuilder.obj
 0001:0001edf0       ?HasActiveEdge20@EdgeTriangleAC@Gu@physx@@SAHABUEdgeTriangleData@23@@Z 1001fdf0 f i TriangleMeshBuilder.obj
 0001:0001ee10       ?LeafSetData@Gu@physx@@YAIII@Z 1001fe10 f i TriangleMeshBuilder.obj
 0001:0001eee0       ?PxRecipSqrt@physx@@YAMM@Z 1001fee0 f i TriangleMeshBuilder.obj
 0001:0001ef00       ?SetData@LeafTriangles@Gu@physx@@QAEXII@Z 1001ff00 f i TriangleMeshBuilder.obj
 0001:0001ef30       ?WriteDwordBuffer@physx@@YAXPBII_NAAVPxOutputStream@1@@Z 1001ff30 f i TriangleMeshBuilder.obj
 0001:0001ef60       ?allocate@?$Array@USharpEdgeRange@GrbTrimeshCookerHelper@physx@@VNamedAllocator@shdfnd@3@@shdfnd@physx@@IAEPAUSharpEdgeRange@GrbTrimeshCookerHelper@3@I@Z 1001ff60 f i TriangleMeshBuilder.obj
 0001:0001efe0       ?allocate@?$Array@USortedNeighbor@GrbTrimeshCookerHelper@physx@@VNamedAllocator@shdfnd@3@@shdfnd@physx@@IAEPAUSortedNeighbor@GrbTrimeshCookerHelper@3@I@Z 1001ffe0 f i TriangleMeshBuilder.obj
 0001:0001f060       ?allocate@?$ReflectionAllocator@E@shdfnd@physx@@QAEPAXIPBDH@Z 10020060 f i TriangleMeshBuilder.obj
 0001:0001f0c0       ?allocate@?$ReflectionAllocator@G@shdfnd@physx@@QAEPAXIPBDH@Z 100200c0 f i TriangleMeshBuilder.obj
 0001:0001f120       ?allocate@?$ReflectionAllocator@I@shdfnd@physx@@QAEPAXIPBDH@Z 10020120 f i TriangleMeshBuilder.obj
 0001:0001f180       ?allocate@?$ReflectionAllocator@VBV32Tree@Gu@physx@@@shdfnd@physx@@QAEPAXIPBDH@Z 10020180 f i TriangleMeshBuilder.obj
 0001:0001f1e0       ?allocate@?$ReflectionAllocator@VEdgeListBuilder@Gu@physx@@@shdfnd@physx@@QAEPAXIPBDH@Z 100201e0 f i TriangleMeshBuilder.obj
 0001:0001f240       ?allocateMaterials@TriangleMeshData@Gu@physx@@QAEPAGXZ 10020240 f i TriangleMeshBuilder.obj
 0001:0001f350       ?allocateTriangles@TriangleMeshData@Gu@physx@@QAEPAXI_NI@Z 10020350 f i TriangleMeshBuilder.obj
 0001:0001f540       ?allocateVertices@TriangleMeshData@Gu@physx@@QAEPAVPxVec3@3@I@Z 10020540 f i TriangleMeshBuilder.obj
 0001:0001f600       ?begin@?$Array@USortedNeighbor@GrbTrimeshCookerHelper@physx@@VNamedAllocator@shdfnd@3@@shdfnd@physx@@QAEPAUSortedNeighbor@GrbTrimeshCookerHelper@3@XZ 10020600 f i TriangleMeshBuilder.obj
 0001:0001f620       ?capacity@?$Array@USharpEdgeRange@GrbTrimeshCookerHelper@physx@@VNamedAllocator@shdfnd@3@@shdfnd@physx@@QBEIXZ 10020620 f i TriangleMeshBuilder.obj
 0001:0001f640       ?capacity@?$Array@USortedNeighbor@GrbTrimeshCookerHelper@physx@@VNamedAllocator@shdfnd@3@@shdfnd@physx@@QBEIXZ 10020640 f i TriangleMeshBuilder.obj
 0001:0001f660       ?capacityIncrement@?$Array@USortedNeighbor@GrbTrimeshCookerHelper@physx@@VNamedAllocator@shdfnd@3@@shdfnd@physx@@IBEIXZ 10020660 f i TriangleMeshBuilder.obj
 0001:0001f6a0       ?copy@?$Array@USharpEdgeRange@GrbTrimeshCookerHelper@physx@@VNamedAllocator@shdfnd@3@@shdfnd@physx@@KAXPAUSharpEdgeRange@GrbTrimeshCookerHelper@3@0PBU453@@Z 100206a0 f i TriangleMeshBuilder.obj
 0001:0001f710       ?copy@?$Array@USortedNeighbor@GrbTrimeshCookerHelper@physx@@VNamedAllocator@shdfnd@3@@shdfnd@physx@@KAXPAUSortedNeighbor@GrbTrimeshCookerHelper@3@0PBU453@@Z 10020710 f i TriangleMeshBuilder.obj
 0001:0001f780       ?create@?$Array@USharpEdgeRange@GrbTrimeshCookerHelper@physx@@VNamedAllocator@shdfnd@3@@shdfnd@physx@@KAXPAUSharpEdgeRange@GrbTrimeshCookerHelper@3@0ABU453@@Z 10020780 f i TriangleMeshBuilder.obj
 0001:0001f7d0       ?cross@PxVec3@physx@@QBE?AV12@ABV12@@Z 100207d0 f i TriangleMeshBuilder.obj
 0001:0001f890       ?deallocate@?$AlignedAllocator@$0IA@VNonTrackingAllocator@shdfnd@physx@@@shdfnd@physx@@QAEXPAX@Z 10020890 f i TriangleMeshBuilder.obj
 0001:0001f8e0       ?deallocate@?$Array@USharpEdgeRange@GrbTrimeshCookerHelper@physx@@VNamedAllocator@shdfnd@3@@shdfnd@physx@@IAEXPAX@Z 100208e0 f i TriangleMeshBuilder.obj
 0001:0001f900       ?deallocate@?$Array@USortedNeighbor@GrbTrimeshCookerHelper@physx@@VNamedAllocator@shdfnd@3@@shdfnd@physx@@IAEXPAX@Z 10020900 f i TriangleMeshBuilder.obj
 0001:0001f920       ?destroy@?$Array@USharpEdgeRange@GrbTrimeshCookerHelper@physx@@VNamedAllocator@shdfnd@3@@shdfnd@physx@@KAXPAUSharpEdgeRange@GrbTrimeshCookerHelper@3@0@Z 10020920 f i TriangleMeshBuilder.obj
 0001:0001f940       ?destroy@?$Array@USortedNeighbor@GrbTrimeshCookerHelper@physx@@VNamedAllocator@shdfnd@3@@shdfnd@physx@@KAXPAUSortedNeighbor@GrbTrimeshCookerHelper@3@0@Z 10020940 f i TriangleMeshBuilder.obj
 0001:0001f960       ?distance@PxPlane@physx@@QBEMABVPxVec3@2@@Z 10020960 f i TriangleMeshBuilder.obj
 0001:0001f9a0       ?dot@PxVec3@physx@@QBEMABV12@@Z 100209a0 f i TriangleMeshBuilder.obj
 0001:0001fa00       ?findEdgeCCW@?$TriangleT@I@Gu@physx@@QBEEII@Z 10020a00 f i TriangleMeshBuilder.obj
 0001:0001fb70       ?gatherStrided@Cooking@physx@@SAXPBXPAXIII@Z 10020b70 f i TriangleMeshBuilder.obj
 0001:0001fbe0       ?getEdgeToTriangles@EdgeList@Gu@physx@@QBEPBUEdgeDescData@23@XZ 10020be0 f i TriangleMeshBuilder.obj
 0001:0001fc00       ?getEdgeTriangle@EdgeList@Gu@physx@@QBEABUEdgeTriangleData@23@I@Z 10020c00 f i TriangleMeshBuilder.obj
 0001:0001fc20       ?getEdges@EdgeList@Gu@physx@@QBEPBUEdgeData@23@XZ 10020c20 f i TriangleMeshBuilder.obj
 0001:0001fc40       ?getFacesByEdges@EdgeList@Gu@physx@@QBEPBIXZ 10020c40 f i TriangleMeshBuilder.obj
 0001:0001fc60       ?getFoundation@shdfnd@physx@@YAAAVFoundation@12@XZ 10020c60 f i TriangleMeshBuilder.obj
 0001:0001fc70       ?getMidphaseID@BV4TriangleMeshBuilder@physx@@UBE?AW4Enum@PxMeshMidPhase@2@XZ 10020c70 f i TriangleMeshBuilder.obj
 0001:0001fc90       ?getMidphaseID@RTreeTriangleMeshBuilder@physx@@UBE?AW4Enum@PxMeshMidPhase@2@XZ 10020c90 f i TriangleMeshBuilder.obj
 0001:0001fca0       ?getName@?$ReflectionAllocator@E@shdfnd@physx@@CAPBDXZ 10020ca0 f i TriangleMeshBuilder.obj
 0001:0001fcf0       ?getName@?$ReflectionAllocator@G@shdfnd@physx@@CAPBDXZ 10020cf0 f i TriangleMeshBuilder.obj
 0001:0001fd40       ?getName@?$ReflectionAllocator@I@shdfnd@physx@@CAPBDXZ 10020d40 f i TriangleMeshBuilder.obj
 0001:0001fd90       ?getName@?$ReflectionAllocator@VBV32Tree@Gu@physx@@@shdfnd@physx@@CAPBDXZ 10020d90 f i TriangleMeshBuilder.obj
 0001:0001fde0       ?getName@?$ReflectionAllocator@VEdgeListBuilder@Gu@physx@@@shdfnd@physx@@CAPBDXZ 10020de0 f i TriangleMeshBuilder.obj
 0001:0001fe30       ?getNbEdges@EdgeList@Gu@physx@@QBEIXZ 10020e30 f i TriangleMeshBuilder.obj
 0001:0001fe50       ?getNbFaces@EdgeList@Gu@physx@@QBEIXZ 10020e50 f i TriangleMeshBuilder.obj
 0001:0001fe70       ?getNormalized@PxVec3@physx@@QBE?AV12@XZ 10020e70 f i TriangleMeshBuilder.obj
 0001:0001ff20       ?getRemap@SourceMesh@Gu@physx@@QBEPBIXZ 10020f20 f i TriangleMeshBuilder.obj
 0001:0001ff40       ?getType@PxMidphaseDesc@physx@@QBE?AW4Enum@PxMeshMidPhase@2@XZ 10020f40 f i TriangleMeshBuilder.obj
 0001:0001ff60       ?grow@?$Array@USharpEdgeRange@GrbTrimeshCookerHelper@physx@@VNamedAllocator@shdfnd@3@@shdfnd@physx@@IAEXI@Z 10020f60 f i TriangleMeshBuilder.obj
 0001:0001ffe0       ?grow@?$Array@USortedNeighbor@GrbTrimeshCookerHelper@physx@@VNamedAllocator@shdfnd@3@@shdfnd@physx@@IAEXI@Z 10020fe0 f i TriangleMeshBuilder.obj
 0001:00020060       ?growAndPushBack@?$Array@USortedNeighbor@GrbTrimeshCookerHelper@physx@@VNamedAllocator@shdfnd@3@@shdfnd@physx@@IAEAAUSortedNeighbor@GrbTrimeshCookerHelper@3@ABU453@@Z 10021060 f i TriangleMeshBuilder.obj
 0001:000201d0       ?has16BitIndices@TriangleMeshData@Gu@physx@@QBE_NXZ 100211d0 f i TriangleMeshBuilder.obj
 0001:00020200       ?initRemap@SourceMesh@Gu@physx@@QAEXXZ 10021200 f i TriangleMeshBuilder.obj
 0001:00020220       ?isInUserMemory@?$Array@USharpEdgeRange@GrbTrimeshCookerHelper@physx@@VNamedAllocator@shdfnd@3@@shdfnd@physx@@QBEIXZ 10021220 f i TriangleMeshBuilder.obj
 0001:00020240       ?isInUserMemory@?$Array@USortedNeighbor@GrbTrimeshCookerHelper@physx@@VNamedAllocator@shdfnd@3@@shdfnd@physx@@QBEIXZ 10021240 f i TriangleMeshBuilder.obj
 0001:00020260       ?isValid@PxBVH33MidphaseDesc@physx@@QBE_NXZ 10021260 f i TriangleMeshBuilder.obj
 0001:000202a0       ?isValid@PxBVH34MidphaseDesc@physx@@QBE_NXZ 100212a0 f i TriangleMeshBuilder.obj
 0001:000202d0       ?isValid@PxMidphaseDesc@physx@@QBE_NXZ 100212d0 f i TriangleMeshBuilder.obj
 0001:00020320       ?isValid@PxSimpleTriangleMesh@physx@@QBE_NXZ 10021320 f i TriangleMeshBuilder.obj
 0001:000203f0       ?isValid@PxTriangleMeshDesc@physx@@QBE_NXZ 100213f0 f i TriangleMeshBuilder.obj
 0001:00020460       ?magnitudeSquared@PxVec3@physx@@QBEMXZ 10021460 f i TriangleMeshBuilder.obj
 0001:000204c0       ?name@type_info@@QBEPBDXZ  100214c0 f i TriangleMeshBuilder.obj
 0001:000204f0       ?onMeshIndexFormatChange@TriangleMeshBuilder@physx@@UAEXXZ 100214f0 f i TriangleMeshBuilder.obj
 0001:00020500       ?pushBack@?$Array@USortedNeighbor@GrbTrimeshCookerHelper@physx@@VNamedAllocator@shdfnd@3@@shdfnd@physx@@QAEAAUSortedNeighbor@GrbTrimeshCookerHelper@3@ABU453@@Z 10021500 f i TriangleMeshBuilder.obj
 0001:000205a0       ?recipSqrt@intrinsics@physx@@YAMM@Z 100215a0 f i TriangleMeshBuilder.obj
 0001:000205f0       ?recreate@?$Array@USharpEdgeRange@GrbTrimeshCookerHelper@physx@@VNamedAllocator@shdfnd@3@@shdfnd@physx@@IAEXI@Z 100215f0 f i TriangleMeshBuilder.obj
 0001:00020700       ?recreate@?$Array@USortedNeighbor@GrbTrimeshCookerHelper@physx@@VNamedAllocator@shdfnd@3@@shdfnd@physx@@IAEXI@Z 10021700 f i TriangleMeshBuilder.obj
 0001:00020800       ?release@RTree@Gu@physx@@QAEXXZ 10021800 f i TriangleMeshBuilder.obj
 0001:00020860       ?releaseRemap@SourceMesh@Gu@physx@@QAEXXZ 10021860 f i TriangleMeshBuilder.obj
 0001:000208a0       ?remap@RTreeCookerRemap@physx@@UAEXPAIII@Z 100218a0 f i TriangleMeshBuilder.obj
 0001:00020a60       ?reserve@?$Array@USharpEdgeRange@GrbTrimeshCookerHelper@physx@@VNamedAllocator@shdfnd@3@@shdfnd@physx@@QAEXI@Z 10021a60 f i TriangleMeshBuilder.obj
 0001:00020a90       ?reserve@?$Array@USortedNeighbor@GrbTrimeshCookerHelper@physx@@VNamedAllocator@shdfnd@3@@shdfnd@physx@@QAEXI@Z 10021a90 f i TriangleMeshBuilder.obj
 0001:00020ac0       ?resize@?$Array@USharpEdgeRange@GrbTrimeshCookerHelper@physx@@VNamedAllocator@shdfnd@3@@shdfnd@physx@@QAEXIABUSharpEdgeRange@GrbTrimeshCookerHelper@3@@Z 10021ac0 f i TriangleMeshBuilder.obj
 0001:00020b50       ?resizeUninitialized@?$Array@USortedNeighbor@GrbTrimeshCookerHelper@physx@@VNamedAllocator@shdfnd@3@@shdfnd@physx@@QAEXI@Z 10021b50 f i TriangleMeshBuilder.obj
 0001:00020b80       ?setNbTriangles@SourceMesh@Gu@physx@@QAEXI@Z 10021b80 f i TriangleMeshBuilder.obj
 0001:00020ba0       ?setNbVertices@SourceMesh@Gu@physx@@QAEXI@Z 10021ba0 f i TriangleMeshBuilder.obj
 0001:00020bc0       ?setPointers@SourceMesh@Gu@physx@@QAEXPAVIndTri32@23@PAVIndTri16@23@PBVPxVec3@3@@Z 10021bc0 f i TriangleMeshBuilder.obj
 0001:00020c00       ?setTriangleAdjacency@TriangleMeshData@Gu@physx@@QAEXIII@Z 10021c00 f i TriangleMeshBuilder.obj
 0001:00020c80       ?size@?$Array@USortedNeighbor@GrbTrimeshCookerHelper@physx@@VNamedAllocator@shdfnd@3@@shdfnd@physx@@QBEIXZ 10021c80 f i TriangleMeshBuilder.obj
 0001:00020ca0       ?to16@shdfnd@physx@@YAGI@Z 10021ca0 f i TriangleMeshBuilder.obj
 0001:00020d00       ?writeChunk@physx@@YAXCCCCAAVPxOutputStream@1@@Z 10021d00 f i TriangleMeshBuilder.obj
 0001:00020d60       ?writeIntBuffer@physx@@YAXPBII_NAAVPxOutputStream@1@@Z 10021d60 f i TriangleMeshBuilder.obj
 0001:00020d90       _powf                      10021d90 f i TriangleMeshBuilder.obj
 0001:00020dd0       _sqrtf                     10021dd0 f i TriangleMeshBuilder.obj
 0001:00020e00       ??0BigConvexDataBuilder@physx@@QAE@PBUConvexHullData@Gu@1@PAVBigConvexData@1@PBVPxVec3@1@@Z 10021e00 f   BigConvexDataBuilder.obj
 0001:00020e30       ??1BigConvexDataBuilder@physx@@QAE@XZ 10021e30 f   BigConvexDataBuilder.obj
 0001:00020e40       ?precompute@BigConvexDataBuilder@physx@@QAE_NI@Z 10021e40 f   BigConvexDataBuilder.obj
 0001:00021410       ?initialize@BigConvexDataBuilder@physx@@QAE_NXZ 10022410 f   BigConvexDataBuilder.obj
 0001:00021460       ?save@BigConvexDataBuilder@physx@@QBE_NAAVPxOutputStream@2@_N@Z 10022460 f   BigConvexDataBuilder.obj
 0001:00021540       ?computeValencies@BigConvexDataBuilder@physx@@QAE_NABVConvexHullBuilder@2@@Z 10022540 f   BigConvexDataBuilder.obj
 0001:00021ad0       ?saveValencies@BigConvexDataBuilder@physx@@QBE_NAAVPxOutputStream@2@_N@Z 10022ad0 f   BigConvexDataBuilder.obj
 0001:00022000       ??B?$PxBitAndDataT@G$0IAAA@@physx@@QBEGXZ 10023000 f i BigConvexDataBuilder.obj
 0001:00022020       ??_0PxVec3@physx@@QAEAAV01@M@Z 10023020 f i BigConvexDataBuilder.obj
 0001:000220a0       ?PxMemZero@physx@@YAPAXPAXI@Z 100230a0 f i BigConvexDataBuilder.obj
 0001:000220c0       ?PxSqrt@physx@@YAMM@Z      100230c0 f i BigConvexDataBuilder.obj
 0001:000220e0       ?magnitude@PxVec3@physx@@QBEMXZ 100230e0 f i BigConvexDataBuilder.obj
 0001:00022110       ?memZero@intrinsics@physx@@YAPAXPAXI@Z 10023110 f i BigConvexDataBuilder.obj
 0001:00022130       ?normalize@PxVec3@physx@@QAEMXZ 10023130 f i BigConvexDataBuilder.obj
 0001:00022180       ?precomputeSample@BigConvexDataBuilder@physx@@IAEXABVPxVec3@2@AAEM@Z 10023180 f i BigConvexDataBuilder.obj
 0001:00022360       ?sqrt@intrinsics@physx@@YAMM@Z 10023360 f i BigConvexDataBuilder.obj
 0001:000223d0       ??0ConvexHullBuilder@physx@@QAE@PAUConvexHullData@Gu@1@_N@Z 100233d0 f   ConvexHullBuilder.obj
 0001:00022440       ??1ConvexHullBuilder@physx@@QAE@XZ 10023440 f   ConvexHullBuilder.obj
 0001:00022540       ?init@ConvexHullBuilder@physx@@QAE_NIPBVPxVec3@2@PBIIIPBUPxHullPolygon@2@_NPAVConvexHullLib@2@@Z 10023540 f   ConvexHullBuilder.obj
 0001:00022af0       ?save@ConvexHullBuilder@physx@@QBE_NAAVPxOutputStream@2@_N@Z 10023af0 f   ConvexHullBuilder.obj
 0001:00022db0       ?copy@ConvexHullBuilder@physx@@QAE_NAAUConvexHullData@Gu@2@AAI@Z 10023db0 f   ConvexHullBuilder.obj
 0001:000232a0       ?createEdgeList@ConvexHullBuilder@physx@@QAE_N_NI@Z 100242a0 f   ConvexHullBuilder.obj
 0001:00023c90       ?checkHullPolygons@ConvexHullBuilder@physx@@QBE_NXZ 10024c90 f   ConvexHullBuilder.obj
 0001:00024440       ?calculateVertexMapTable@ConvexHullBuilder@physx@@QAE_NI_N@Z 10025440 f   ConvexHullBuilder.obj
 0001:00024650       ?computeGeomCenter@ConvexHullBuilder@physx@@IBE_NAAVPxVec3@2@IPAUHullTriangleData@2@@Z 10025650 f   ConvexHullBuilder.obj
 0001:00025080       ??$?_UUEdgeDescData@Gu@physx@@@@YAPAXIV?$ReflectionAllocator@UEdgeDescData@Gu@physx@@@shdfnd@physx@@PBDH@Z 10026080 f i ConvexHullBuilder.obj
 0001:000250a0       ??$?_U_N@@YAPAXIV?$ReflectionAllocator@_N@shdfnd@physx@@PBDH@Z 100260a0 f i ConvexHullBuilder.obj
 0001:000250c0       ??0?$PxBitAndDataT@G$0IAAA@@physx@@QAE@G_N@Z 100260c0 f i ConvexHullBuilder.obj
 0001:00025110       ??0?$ReflectionAllocator@UEdgeDescData@Gu@physx@@@shdfnd@physx@@QAE@PBD@Z 10026110 f i ConvexHullBuilder.obj
 0001:00025130       ??0?$ReflectionAllocator@_N@shdfnd@physx@@QAE@PBD@Z 10026130 f i ConvexHullBuilder.obj
 0001:00025150       ??0?$TriangleT@I@Gu@physx@@QAE@III@Z 10026150 f i ConvexHullBuilder.obj
 0001:000251b0       ??0HullPolygonData@Gu@physx@@QAE@ABU012@@Z 100261b0 f i ConvexHullBuilder.obj
 0001:00025210       ??0PxPlane@physx@@QAE@ABV01@@Z 10026210 f i ConvexHullBuilder.obj
 0001:00025250       ??0PxPlane@physx@@QAE@MMMM@Z 10026250 f i ConvexHullBuilder.obj
 0001:000252b0       ??4PxPlane@physx@@QAEAAV01@$$QAV01@@Z 100262b0 f i ConvexHullBuilder.obj
 0001:000252f0       ??YPxVec3@physx@@QAEAAV01@ABV01@@Z 100262f0 f i ConvexHullBuilder.obj
 0001:00025360       ?PxMemSet@physx@@YAPAXPAXHI@Z 10026360 f i ConvexHullBuilder.obj
 0001:00025380       ?allocate@?$ReflectionAllocator@UEdgeDescData@Gu@physx@@@shdfnd@physx@@QAEPAXIPBDH@Z 10026380 f i ConvexHullBuilder.obj
 0001:000253e0       ?allocate@?$ReflectionAllocator@_N@shdfnd@physx@@QAEPAXIPBDH@Z 100263e0 f i ConvexHullBuilder.obj
 0001:00025440       ?area@?$TriangleT@I@Gu@physx@@QBEMPBVPxVec3@3@@Z 10026440 f i ConvexHullBuilder.obj
 0001:00025500       ?center@?$TriangleT@I@Gu@physx@@QBEXPBVPxVec3@3@AAV43@@Z 10026500 f i ConvexHullBuilder.obj
 0001:000255c0       ?computeBufferSize@Gu@physx@@YAIABUConvexHullData@12@I@Z 100265c0 f i ConvexHullBuilder.obj
 0001:000256b0       ?computeNbPolygons@ConvexHullBuilder@physx@@QBEIXZ 100266b0 f i ConvexHullBuilder.obj
 0001:00025720       ?flip@physx@@YAXAAG@Z      10026720 f i ConvexHullBuilder.obj
 0001:00025790       ?flip@physx@@YAXAAM@Z      10026790 f i ConvexHullBuilder.obj
 0001:00025840       ?flipData@Gu@physx@@YAXAAUHullPolygonData@12@@Z 10026840 f i ConvexHullBuilder.obj
 0001:000258a0       ?getName@?$ReflectionAllocator@UEdgeDescData@Gu@physx@@@shdfnd@physx@@CAPBDXZ 100268a0 f i ConvexHullBuilder.obj
 0001:000258f0       ?getName@?$ReflectionAllocator@_N@shdfnd@physx@@CAPBDXZ 100268f0 f i ConvexHullBuilder.obj
 0001:00025940       ?isBitSet@?$PxBitAndDataT@G$0IAAA@@physx@@QBEGXZ 10026940 f i ConvexHullBuilder.obj
 0001:00025960       ?memSet@intrinsics@physx@@YAPAXPAXHI@Z 10026960 f i ConvexHullBuilder.obj
 0001:00025980       ?to8@shdfnd@physx@@YAEI@Z  10026980 f i ConvexHullBuilder.obj
 0001:000259e0       ??1ConvexHullLib@physx@@UAE@XZ 100269e0 f   ConvexHullLib.obj
 0001:00025a40       ?cleanupVertices@ConvexHullLib@physx@@IAE_NIPBVPxVec3@2@IAAIPAV32@AAV32@3@Z 10026a40 f   ConvexHullLib.obj
 0001:00025e90       ?shiftAndcleanupVertices@ConvexHullLib@physx@@IAE_NIPBVPxVec3@2@IAAIPAV32@AAV32@3@Z 10026e90 f   ConvexHullLib.obj
 0001:00025fc0       ?swapLargestFace@ConvexHullLib@physx@@IAEXAAVPxConvexMeshDesc@2@@Z 10026fc0 f   ConvexHullLib.obj
 0001:00026290       ?shiftConvexMeshDesc@ConvexHullLib@physx@@IAEXAAVPxConvexMeshDesc@2@@Z 10027290 f   ConvexHullLib.obj
 0001:00026bf0       ??0?$PxFlags@W4Enum@PxConvexFlag@physx@@G@physx@@QAE@ABV01@@Z 10027bf0 f i ConvexHullLib.obj
 0001:00026c20       ??0PxBounds3@physx@@QAE@XZ 10027c20 f i ConvexHullLib.obj
 0001:00026c50       ??B?$PxFlags@W4Enum@PxConvexFlag@physx@@G@physx@@QBE_NXZ 10027c50 f i ConvexHullLib.obj
 0001:00026c80       ??I?$PxFlags@W4Enum@PxConvexFlag@physx@@G@physx@@QBE?AV01@W4Enum@PxConvexFlag@1@@Z 10027c80 f i ConvexHullLib.obj
 0001:00026cd0       ??_EConvexHullLib@physx@@UAEPAXI@Z 10027cd0 f i ConvexHullLib.obj
 0001:00026cd0       ??_GConvexHullLib@physx@@UAEPAXI@Z 10027cd0 f i ConvexHullLib.obj
 0001:00026d10       ?getCenter@PxBounds3@physx@@QBE?AVPxVec3@2@XZ 10027d10 f i ConvexHullLib.obj
 0001:00026dc0       ?getDimensions@PxBounds3@physx@@QBE?AVPxVec3@2@XZ 10027dc0 f i ConvexHullLib.obj
 0001:00026e50       ?include@PxBounds3@physx@@QAEXABVPxVec3@2@@Z 10027e50 f i ConvexHullLib.obj
 0001:00026f00       ?maximum@PxVec3@physx@@QBE?AV12@ABV12@@Z 10027f00 f i ConvexHullLib.obj
 0001:00026fb0       ?minimum@PxVec3@physx@@QBE?AV12@ABV12@@Z 10027fb0 f i ConvexHullLib.obj
 0001:00027060       ?multiply@PxVec3@physx@@QBE?AV12@ABV12@@Z 10028060 f i ConvexHullLib.obj
 0001:000270d0       ??0ConvexHull@physx@@QAE@ABVPxVec3@1@0ABV?$Array@VPxPlane@physx@@VNamedAllocator@shdfnd@2@@shdfnd@1@@Z 100280d0 f   ConvexHullUtils.obj
 0001:000277a0       ??0ConvexHull@physx@@QAE@ABVPxVec3@1@ABVPxTransform@1@ABV?$Array@VPxPlane@physx@@VNamedAllocator@shdfnd@2@@shdfnd@1@@Z 100287a0 f   ConvexHullUtils.obj
 0001:00027fc0       ?findCandidatePlane@ConvexHull@physx@@QBEHMM@Z 10028fc0 f   ConvexHullUtils.obj
 0001:000282e0       ?assertIntact@ConvexHull@physx@@QBE_NM@Z 100292e0 f   ConvexHullUtils.obj
 0001:00028860       ?maxNumVertsPerFace@ConvexHull@physx@@QBEIXZ 10029860 f   ConvexHullUtils.obj
 0001:00028900       ?convexHullCrop@physx@@YAPAVConvexHull@1@ABV21@ABVPxPlane@1@M@Z 10029900 f   ConvexHullUtils.obj
 0001:000299e0       ?computeOBBFromConvex@physx@@YA_NABVPxConvexMeshDesc@1@AAVPxVec3@1@AAVPxTransform@1@@Z 1002a9e0 f   ConvexHullUtils.obj
 0001:0002a0e0       ?computeOBBSIMD@local@@YAXIPBT__m128@@AAT2@ABT2@1@Z 1002b0e0 f   ConvexHullUtils.obj
 0001:0002b140       ??$?2V?$ReflectionAllocator@VConvexHull@physx@@@shdfnd@physx@@@UserAllocated@shdfnd@physx@@SAPAXIV?$ReflectionAllocator@VConvexHull@physx@@@12@PBDH@Z 1002c140 f i ConvexHullUtils.obj
 0001:0002b160       ??$PX_UNUSED@W4PxIDENTITY@physx@@@@YAXABW4PxIDENTITY@physx@@@Z 1002c160 f i ConvexHullUtils.obj
 0001:0002b170       ??0?$Array@VHalfEdge@ConvexHull@physx@@VNamedAllocator@shdfnd@3@@shdfnd@physx@@QAE@ABVNamedAllocator@12@@Z 1002c170 f i ConvexHullUtils.obj
 0001:0002b1c0       ??0?$Array@VPxPlane@physx@@VNamedAllocator@shdfnd@2@@shdfnd@physx@@QAE@ABVNamedAllocator@12@@Z 1002c1c0 f i ConvexHullUtils.obj
 0001:0002b210       ??0?$PxFlags@W4Enum@PxConvexFlag@physx@@G@physx@@QAE@XZ 1002c210 f i ConvexHullUtils.obj
 0001:0002b230       ??0?$ReflectionAllocator@VConvexHull@physx@@@shdfnd@physx@@QAE@PBD@Z 1002c230 f i ConvexHullUtils.obj
 0001:0002b250       ??0ConvexHull@physx@@QAE@ABV01@@Z 1002c250 f i ConvexHullUtils.obj
 0001:0002b300       ??0ConvexHull@physx@@QAE@ABV?$Array@VPxPlane@physx@@VNamedAllocator@shdfnd@2@@shdfnd@1@@Z 1002c300 f i ConvexHullUtils.obj
 0001:0002b3a0       ??0HalfEdge@ConvexHull@physx@@QAE@FEE@Z 1002c3a0 f i ConvexHullUtils.obj
 0001:0002b3e0       ??0HalfEdge@ConvexHull@physx@@QAE@XZ 1002c3e0 f i ConvexHullUtils.obj
 0001:0002b400       ??0Mat33V@aos@shdfnd@physx@@QAE@XZ 1002c400 f i ConvexHullUtils.obj
 0001:0002b420       ??0PxBoundedData@physx@@QAE@XZ 1002c420 f i ConvexHullUtils.obj
 0001:0002b450       ??0PxConvexMeshDesc@physx@@QAE@XZ 1002c450 f i ConvexHullUtils.obj
 0001:0002b4c0       ??0PxIntegrals@physx@@QAE@XZ 1002c4c0 f i ConvexHullUtils.obj
 0001:0002b4e0       ??0PxMat33@physx@@QAE@ABV01@@Z 1002c4e0 f i ConvexHullUtils.obj
 0001:0002b530       ??0PxMat33@physx@@QAE@ABVPxQuat@1@@Z 1002c530 f i ConvexHullUtils.obj
 0001:0002b7b0       ??0PxMat33@physx@@QAE@ABVPxVec3@1@00@Z 1002c7b0 f i ConvexHullUtils.obj
 0001:0002b800       ??0PxMat33@physx@@QAE@W4PxIDENTITY@1@@Z 1002c800 f i ConvexHullUtils.obj
 0001:0002b8c0       ??0PxMat33@physx@@QAE@XZ   1002c8c0 f i ConvexHullUtils.obj
 0001:0002b900       ??0PxPlane@physx@@QAE@ABVPxVec3@1@00@Z 1002c900 f i ConvexHullUtils.obj
 0001:0002b9a0       ??0PxPlane@physx@@QAE@ABVPxVec3@1@M@Z 1002c9a0 f i ConvexHullUtils.obj
 0001:0002b9e0       ??0PxPlane@physx@@QAE@XZ   1002c9e0 f i ConvexHullUtils.obj
 0001:0002ba00       ??0PxQuat@physx@@QAE@MABVPxVec3@1@@Z 1002ca00 f i ConvexHullUtils.obj
 0001:0002bb40       ??0PxQuat@physx@@QAE@XZ    1002cb40 f i ConvexHullUtils.obj
 0001:0002bb60       ??0PxStridedData@physx@@QAE@XZ 1002cb60 f i ConvexHullUtils.obj
 0001:0002bb90       ??4PxPlane@physx@@QAEAAV01@ABV01@@Z 1002cb90 f i ConvexHullUtils.obj
 0001:0002bbd0       ??8PxPlane@physx@@QBE_NABV01@@Z 1002cbd0 f i ConvexHullUtils.obj
 0001:0002bc30       ??8PxVec3@physx@@QBE_NABV01@@Z 1002cc30 f i ConvexHullUtils.obj
 0001:0002bcb0       ??A?$Array@VHalfEdge@ConvexHull@physx@@VNamedAllocator@shdfnd@3@@shdfnd@physx@@QAEAAVHalfEdge@ConvexHull@2@I@Z 1002ccb0 f i ConvexHullUtils.obj
 0001:0002bd20       ??A?$Array@VHalfEdge@ConvexHull@physx@@VNamedAllocator@shdfnd@3@@shdfnd@physx@@QBEABVHalfEdge@ConvexHull@2@I@Z 1002cd20 f i ConvexHullUtils.obj
 0001:0002bd90       ??A?$Array@VPxPlane@physx@@VNamedAllocator@shdfnd@2@@shdfnd@physx@@QBEABVPxPlane@2@I@Z 1002cd90 f i ConvexHullUtils.obj
 0001:0002be00       ??A?$Array@VPxVec3@physx@@VNamedAllocator@shdfnd@2@@shdfnd@physx@@QAEAAVPxVec3@2@I@Z 1002ce00 f i ConvexHullUtils.obj
 0001:0002be70       ??A?$Array@VPxVec3@physx@@VNamedAllocator@shdfnd@2@@shdfnd@physx@@QBEABVPxVec3@2@I@Z 1002ce70 f i ConvexHullUtils.obj
 0001:0002bee0       ??APxMat33@physx@@QAEAAVPxVec3@1@I@Z 1002cee0 f i ConvexHullUtils.obj
 0001:0002bf00       ??GPxVec3@physx@@QBE?AV01@XZ 1002cf00 f i ConvexHullUtils.obj
 0001:0002bf70       ??RPxMat33@physx@@QAEAAMII@Z 1002cf70 f i ConvexHullUtils.obj
 0001:0002bfa0       ??XPxVec3@physx@@QAEAAV01@M@Z 1002cfa0 f i ConvexHullUtils.obj
 0001:0002c000       ?FAdd@aos@shdfnd@physx@@YA?AT__m128@@T4@0@Z 1002d000 f i ConvexHullUtils.obj
 0001:0002c100       ?FMul@aos@shdfnd@physx@@YA?AT__m128@@T4@0@Z 1002d100 f i ConvexHullUtils.obj
 0001:0002c200       ?FScaleAdd@aos@shdfnd@physx@@YA?AT__m128@@T4@00@Z 1002d200 f i ConvexHullUtils.obj
 0001:0002c370       ?PxCos@physx@@YAMM@Z       1002d370 f i ConvexHullUtils.obj
 0001:0002c390       ?PxSin@physx@@YAMM@Z       1002d390 f i ConvexHullUtils.obj
 0001:0002c3b0       ?QuatGetMat33V@aos@shdfnd@physx@@YAXABT__m128@@AAT4@11@Z 1002d3b0 f i ConvexHullUtils.obj
 0001:0002c620       ?QuatRotateInv@aos@shdfnd@physx@@YA?AT__m128@@T4@0@Z 1002d620 f i ConvexHullUtils.obj
 0001:0002c800       ?QuatVLoadU@aos@shdfnd@physx@@YA?AT__m128@@PBM@Z 1002d800 f i ConvexHullUtils.obj
 0001:0002c850       ?V3Cross@aos@shdfnd@physx@@YA?AT__m128@@T4@0@Z 1002d850 f i ConvexHullUtils.obj
 0001:0002ca00       ?V3NegScaleSub@aos@shdfnd@physx@@YA?AT__m128@@T4@00@Z 1002da00 f i ConvexHullUtils.obj
 0001:0002cb70       ?V3Scale@aos@shdfnd@physx@@YA?AT__m128@@T4@0@Z 1002db70 f i ConvexHullUtils.obj
 0001:0002cc70       ?V3ScaleAdd@aos@shdfnd@physx@@YA?AT__m128@@T4@00@Z 1002dc70 f i ConvexHullUtils.obj
 0001:0002cde0       ?V4Add@aos@shdfnd@physx@@YA?AT__m128@@T4@0@Z 1002dde0 f i ConvexHullUtils.obj
 0001:0002ce30       ?V4GetW@aos@shdfnd@physx@@YA?AT__m128@@T4@@Z 1002de30 f i ConvexHullUtils.obj
 0001:0002ce80       ?V4GetX@aos@shdfnd@physx@@YA?AT__m128@@T4@@Z 1002de80 f i ConvexHullUtils.obj
 0001:0002ced0       ?V4GetY@aos@shdfnd@physx@@YA?AT__m128@@T4@@Z 1002ded0 f i ConvexHullUtils.obj
 0001:0002cf20       ?V4GetZ@aos@shdfnd@physx@@YA?AT__m128@@T4@@Z 1002df20 f i ConvexHullUtils.obj
 0001:0002cf70       ?V4LoadU@aos@shdfnd@physx@@YA?AT__m128@@QBM@Z 1002df70 f i ConvexHullUtils.obj
 0001:0002cfb0       ?V4Max@aos@shdfnd@physx@@YA?AT__m128@@T4@0@Z 1002dfb0 f i ConvexHullUtils.obj
 0001:0002d000       ?V4Min@aos@shdfnd@physx@@YA?AT__m128@@T4@0@Z 1002e000 f i ConvexHullUtils.obj
 0001:0002d050       ?V4Mul@aos@shdfnd@physx@@YA?AT__m128@@T4@0@Z 1002e050 f i ConvexHullUtils.obj
 0001:0002d0a0       ?V4MulAdd@aos@shdfnd@physx@@YA?AT__m128@@T4@00@Z 1002e0a0 f i ConvexHullUtils.obj
 0001:0002d110       ?V4Neg@aos@shdfnd@physx@@YA?AT__m128@@T4@@Z 1002e110 f i ConvexHullUtils.obj
 0001:0002d160       ?V4Scale@aos@shdfnd@physx@@YA?AT__m128@@T4@0@Z 1002e160 f i ConvexHullUtils.obj
 0001:0002d1b0       ?V4StoreU@aos@shdfnd@physx@@YAXT__m128@@PAM@Z 1002e1b0 f i ConvexHullUtils.obj
 0001:0002d1f0       ?V4Sub@aos@shdfnd@physx@@YA?AT__m128@@T4@0@Z 1002e1f0 f i ConvexHullUtils.obj
 0001:0002d240       ?Vec4V_From_Vec3V@aos@shdfnd@physx@@YA?AT__m128@@T4@@Z 1002e240 f i ConvexHullUtils.obj
 0001:0002d280       ?allocate@?$Array@VHalfEdge@ConvexHull@physx@@VNamedAllocator@shdfnd@3@@shdfnd@physx@@IAEPAVHalfEdge@ConvexHull@3@I@Z 1002e280 f i ConvexHullUtils.obj
 0001:0002d300       ?allocate@?$Array@VPxPlane@physx@@VNamedAllocator@shdfnd@2@@shdfnd@physx@@IAEPAVPxPlane@3@I@Z 1002e300 f i ConvexHullUtils.obj
 0001:0002d380       ?allocate@?$ReflectionAllocator@VConvexHull@physx@@@shdfnd@physx@@QAEPAXIPBDH@Z 1002e380 f i ConvexHullUtils.obj
 0001:0002d3e0       ?begin@?$Array@VHalfEdge@ConvexHull@physx@@VNamedAllocator@shdfnd@3@@shdfnd@physx@@QAEPAVHalfEdge@ConvexHull@3@XZ 1002e3e0 f i ConvexHullUtils.obj
 0001:0002d400       ?begin@?$Array@VHalfEdge@ConvexHull@physx@@VNamedAllocator@shdfnd@3@@shdfnd@physx@@QBEPBVHalfEdge@ConvexHull@3@XZ 1002e400 f i ConvexHullUtils.obj
 0001:0002d420       ?begin@?$Array@VPxPlane@physx@@VNamedAllocator@shdfnd@2@@shdfnd@physx@@QAEPAVPxPlane@3@XZ 1002e420 f i ConvexHullUtils.obj
 0001:0002d440       ?begin@?$Array@VPxPlane@physx@@VNamedAllocator@shdfnd@2@@shdfnd@physx@@QBEPBVPxPlane@3@XZ 1002e440 f i ConvexHullUtils.obj
 0001:0002d460       ?begin@?$Array@VPxVec3@physx@@VNamedAllocator@shdfnd@2@@shdfnd@physx@@QBEPBVPxVec3@3@XZ 1002e460 f i ConvexHullUtils.obj
 0001:0002d480       ?capacity@?$Array@VHalfEdge@ConvexHull@physx@@VNamedAllocator@shdfnd@3@@shdfnd@physx@@QBEIXZ 1002e480 f i ConvexHullUtils.obj
 0001:0002d4a0       ?capacity@?$Array@VPxPlane@physx@@VNamedAllocator@shdfnd@2@@shdfnd@physx@@QBEIXZ 1002e4a0 f i ConvexHullUtils.obj
 0001:0002d4c0       ?capacityIncrement@?$Array@VHalfEdge@ConvexHull@physx@@VNamedAllocator@shdfnd@3@@shdfnd@physx@@IBEIXZ 1002e4c0 f i ConvexHullUtils.obj
 0001:0002d500       ?capacityIncrement@?$Array@VPxPlane@physx@@VNamedAllocator@shdfnd@2@@shdfnd@physx@@IBEIXZ 1002e500 f i ConvexHullUtils.obj
 0001:0002d540       ?copy@?$Array@VHalfEdge@ConvexHull@physx@@VNamedAllocator@shdfnd@3@@shdfnd@physx@@KAXPAVHalfEdge@ConvexHull@3@0PBV453@@Z 1002e540 f i ConvexHullUtils.obj
 0001:0002d5a0       ?copy@?$Array@VPxPlane@physx@@VNamedAllocator@shdfnd@2@@shdfnd@physx@@KAXPAVPxPlane@3@0PBV43@@Z 1002e5a0 f i ConvexHullUtils.obj
 0001:0002d600       ?copyHull@ConvexHull@physx@@QAEXABV12@@Z 1002e600 f i ConvexHullUtils.obj
 0001:0002d760       ?cos@intrinsics@physx@@YAMM@Z 1002e760 f i ConvexHullUtils.obj
 0001:0002d780       ?create@?$Array@VHalfEdge@ConvexHull@physx@@VNamedAllocator@shdfnd@3@@shdfnd@physx@@KAXPAVHalfEdge@ConvexHull@3@0ABV453@@Z 1002e780 f i ConvexHullUtils.obj
 0001:0002d7d0       ?create@?$Array@VPxPlane@physx@@VNamedAllocator@shdfnd@2@@shdfnd@physx@@KAXPAVPxPlane@3@0ABV43@@Z 1002e7d0 f i ConvexHullUtils.obj
 0001:0002d820       ?create@?$Array@VPxVec3@physx@@VNamedAllocator@shdfnd@2@@shdfnd@physx@@KAXPAVPxVec3@3@0ABV43@@Z 1002e820 f i ConvexHullUtils.obj
 0001:0002d870       ?deallocate@?$Array@VHalfEdge@ConvexHull@physx@@VNamedAllocator@shdfnd@3@@shdfnd@physx@@IAEXPAX@Z 1002e870 f i ConvexHullUtils.obj
 0001:0002d890       ?deallocate@?$Array@VPxPlane@physx@@VNamedAllocator@shdfnd@2@@shdfnd@physx@@IAEXPAX@Z 1002e890 f i ConvexHullUtils.obj
 0001:0002d8b0       ?degToRad@shdfnd@physx@@YAMM@Z 1002e8b0 f i ConvexHullUtils.obj
 0001:0002d8e0       ?destroy@?$Array@VHalfEdge@ConvexHull@physx@@VNamedAllocator@shdfnd@3@@shdfnd@physx@@KAXPAVHalfEdge@ConvexHull@3@0@Z 1002e8e0 f i ConvexHullUtils.obj
 0001:0002d900       ?destroy@?$Array@VPxPlane@physx@@VNamedAllocator@shdfnd@2@@shdfnd@physx@@KAXPAVPxPlane@3@0@Z 1002e900 f i ConvexHullUtils.obj
 0001:0002d920       ?getDeterminant@PxMat33@physx@@QBEMXZ 1002e920 f i ConvexHullUtils.obj
 0001:0002d960       ?getEdges@ConvexHull@physx@@QAEAAV?$Array@VHalfEdge@ConvexHull@physx@@VNamedAllocator@shdfnd@3@@shdfnd@2@XZ 1002e960 f i ConvexHullUtils.obj
 0001:0002d980       ?getEdges@ConvexHull@physx@@QBEABV?$Array@VHalfEdge@ConvexHull@physx@@VNamedAllocator@shdfnd@3@@shdfnd@2@XZ 1002e980 f i ConvexHullUtils.obj
 0001:0002d9a0       ?getFacets@ConvexHull@physx@@QAEAAV?$Array@VPxPlane@physx@@VNamedAllocator@shdfnd@2@@shdfnd@2@XZ 1002e9a0 f i ConvexHullUtils.obj
 0001:0002d9c0       ?getFacets@ConvexHull@physx@@QBEABV?$Array@VPxPlane@physx@@VNamedAllocator@shdfnd@2@@shdfnd@2@XZ 1002e9c0 f i ConvexHullUtils.obj
 0001:0002d9e0       ?getInputPlanes@ConvexHull@physx@@QBEABV?$Array@VPxPlane@physx@@VNamedAllocator@shdfnd@2@@shdfnd@2@XZ 1002e9e0 f i ConvexHullUtils.obj
 0001:0002da00       ?getInverse@PxMat33@physx@@QBE?BV12@XZ 1002ea00 f i ConvexHullUtils.obj
 0001:0002dcb0       ?getName@?$ReflectionAllocator@VConvexHull@physx@@@shdfnd@physx@@CAPBDXZ 1002ecb0 f i ConvexHullUtils.obj
 0001:0002dd00       ?getOriginInertia@PxIntegrals@physx@@QAEXAAVPxMat33@2@@Z 1002ed00 f i ConvexHullUtils.obj
 0001:0002dda0       ?getTranspose@PxMat33@physx@@QBE?BV12@XZ 1002eda0 f i ConvexHullUtils.obj
 0001:0002de90       ?getVertices@ConvexHull@physx@@QAEAAV?$Array@VPxVec3@physx@@VNamedAllocator@shdfnd@2@@shdfnd@2@XZ 1002ee90 f i ConvexHullUtils.obj
 0001:0002deb0       ?getVertices@ConvexHull@physx@@QBEABV?$Array@VPxVec3@physx@@VNamedAllocator@shdfnd@2@@shdfnd@2@XZ 1002eeb0 f i ConvexHullUtils.obj
 0001:0002ded0       ?grow@?$Array@VHalfEdge@ConvexHull@physx@@VNamedAllocator@shdfnd@3@@shdfnd@physx@@IAEXI@Z 1002eed0 f i ConvexHullUtils.obj
 0001:0002df50       ?grow@?$Array@VPxPlane@physx@@VNamedAllocator@shdfnd@2@@shdfnd@physx@@IAEXI@Z 1002ef50 f i ConvexHullUtils.obj
 0001:0002dfd0       ?growAndPushBack@?$Array@VHalfEdge@ConvexHull@physx@@VNamedAllocator@shdfnd@3@@shdfnd@physx@@IAEAAVHalfEdge@ConvexHull@3@ABV453@@Z 1002efd0 f i ConvexHullUtils.obj
 0001:0002e140       ?growAndPushBack@?$Array@VPxPlane@physx@@VNamedAllocator@shdfnd@2@@shdfnd@physx@@IAEAAVPxPlane@3@ABV43@@Z 1002f140 f i ConvexHullUtils.obj
 0001:0002e2b0       ?isInUserMemory@?$Array@VHalfEdge@ConvexHull@physx@@VNamedAllocator@shdfnd@3@@shdfnd@physx@@QBEIXZ 1002f2b0 f i ConvexHullUtils.obj
 0001:0002e2d0       ?isInUserMemory@?$Array@VPxPlane@physx@@VNamedAllocator@shdfnd@2@@shdfnd@physx@@QBEIXZ 1002f2d0 f i ConvexHullUtils.obj
 0001:0002e2f0       ?pushBack@?$Array@VHalfEdge@ConvexHull@physx@@VNamedAllocator@shdfnd@3@@shdfnd@physx@@QAEAAVHalfEdge@ConvexHull@3@ABV453@@Z 1002f2f0 f i ConvexHullUtils.obj
 0001:0002e390       ?pushBack@?$Array@VPxPlane@physx@@VNamedAllocator@shdfnd@2@@shdfnd@physx@@QAEAAVPxPlane@3@ABV43@@Z 1002f390 f i ConvexHullUtils.obj
 0001:0002e430       ?recreate@?$Array@VHalfEdge@ConvexHull@physx@@VNamedAllocator@shdfnd@3@@shdfnd@physx@@IAEXI@Z 1002f430 f i ConvexHullUtils.obj
 0001:0002e540       ?recreate@?$Array@VPxPlane@physx@@VNamedAllocator@shdfnd@2@@shdfnd@physx@@IAEXI@Z 1002f540 f i ConvexHullUtils.obj
 0001:0002e650       ?reserve@?$Array@VHalfEdge@ConvexHull@physx@@VNamedAllocator@shdfnd@3@@shdfnd@physx@@QAEXI@Z 1002f650 f i ConvexHullUtils.obj
 0001:0002e680       ?reserve@?$Array@VPxPlane@physx@@VNamedAllocator@shdfnd@2@@shdfnd@physx@@QAEXI@Z 1002f680 f i ConvexHullUtils.obj
 0001:0002e6b0       ?resize@?$Array@VHalfEdge@ConvexHull@physx@@VNamedAllocator@shdfnd@3@@shdfnd@physx@@QAEXIABVHalfEdge@ConvexHull@3@@Z 1002f6b0 f i ConvexHullUtils.obj
 0001:0002e740       ?resize@?$Array@VPxPlane@physx@@VNamedAllocator@shdfnd@2@@shdfnd@physx@@QAEXIABVPxPlane@3@@Z 1002f740 f i ConvexHullUtils.obj
 0001:0002e7d0       ?resize@?$Array@VPxVec3@physx@@VNamedAllocator@shdfnd@2@@shdfnd@physx@@QAEXIABVPxVec3@3@@Z 1002f7d0 f i ConvexHullUtils.obj
 0001:0002e850       ?sin@intrinsics@physx@@YAMM@Z 1002f850 f i ConvexHullUtils.obj
 0001:0002e870       ?size@?$Array@VHalfEdge@ConvexHull@physx@@VNamedAllocator@shdfnd@3@@shdfnd@physx@@QBEIXZ 1002f870 f i ConvexHullUtils.obj
 0001:0002e890       ?size@?$Array@VPxPlane@physx@@VNamedAllocator@shdfnd@2@@shdfnd@physx@@QBEIXZ 1002f890 f i ConvexHullUtils.obj
 0001:0002e8b0       ?threePlaneIntersection@physx@@YA?AVPxVec3@1@ABVPxPlane@1@00@Z 1002f8b0 f i ConvexHullUtils.obj
 0001:0002e960       ?to8@shdfnd@physx@@YAEG@Z  1002f960 f i ConvexHullUtils.obj
 0001:0002e9c0       ?transform@PxMat33@physx@@QBE?BVPxVec3@2@ABV32@@Z 1002f9c0 f i ConvexHullUtils.obj
 0001:0002ea60       _cosf                      1002fa60 f i ConvexHullUtils.obj
 0001:0002ea90       _sinf                      1002fa90 f i ConvexHullUtils.obj
 0001:0002eac0       ??0ConvexMeshBuilder@physx@@QAE@_N@Z 1002fac0 f   ConvexMeshBuilder.obj
 0001:0002eb20       ??1ConvexMeshBuilder@physx@@QAE@XZ 1002fb20 f   ConvexMeshBuilder.obj
 0001:0002eb80       ?build@ConvexMeshBuilder@physx@@QAE_NABVPxConvexMeshDesc@2@I_NPAVConvexHullLib@2@@Z 1002fb80 f   ConvexMeshBuilder.obj
 0001:0002ec60       ?save@ConvexMeshBuilder@physx@@QBE_NAAVPxOutputStream@2@_N@Z 1002fc60 f   ConvexMeshBuilder.obj
 0001:0002ef40       ?copy@ConvexMeshBuilder@physx@@QAE_NAAUConvexHullData@Gu@2@AAI@Z 1002ff40 f   ConvexMeshBuilder.obj
 0001:0002f010       ?loadConvexHull@ConvexMeshBuilder@physx@@QAE_NABVPxConvexMeshDesc@2@PAVConvexHullLib@2@@Z 10030010 f   ConvexMeshBuilder.obj
 0001:0002f2f0       ?computeHullPolygons@ConvexMeshBuilder@physx@@QAE_NABIPBVPxVec3@2@0PBIAAVPxAllocatorCallback@2@AAIAAPAV32@4AAPAI4AAPAUPxHullPolygon@2@@Z 100302f0 f   ConvexMeshBuilder.obj
 0001:0002f5a0       ?computeGaussMaps@ConvexMeshBuilder@physx@@QAE_NXZ 100305a0 f   ConvexMeshBuilder.obj
 0001:0002f690       ?computeMassInfo@ConvexMeshBuilder@physx@@QAEX_N@Z 10030690 f   ConvexMeshBuilder.obj
 0001:0002f910       ?computeInternalObjects@ConvexMeshBuilder@physx@@QAEXXZ 10030910 f   ConvexMeshBuilder.obj
 0001:00030570       ??0?$PxBitAndDataT@G$0IAAA@@physx@@QAE@XZ 10031570 f i ConvexMeshBuilder.obj
 0001:00030590       ??0?$ReflectionAllocator@VBigConvexData@physx@@@shdfnd@physx@@QAE@PBD@Z 10031590 f i ConvexMeshBuilder.obj
 0001:000305b0       ??0CenterExtents@Gu@physx@@QAE@ABVPxBounds3@2@@Z 100315b0 f i ConvexMeshBuilder.obj
 0001:00030620       ??0CenterExtents@Gu@physx@@QAE@XZ 10031620 f i ConvexMeshBuilder.obj
 0001:00030650       ??0ConvexHullData@Gu@physx@@QAE@XZ 10031650 f i ConvexMeshBuilder.obj
 0001:00030690       ??1CenterExtents@Gu@physx@@QAE@XZ 10031690 f i ConvexMeshBuilder.obj
 0001:000306a0       ??1ConvexHullData@Gu@physx@@QAE@XZ 100316a0 f i ConvexMeshBuilder.obj
 0001:000306c0       ??2UserAllocated@shdfnd@physx@@SAPAXIPAX@Z 100316c0 f i ConvexMeshBuilder.obj
 0001:000306d0       ??4CenterExtents@Gu@physx@@QAEAAV012@ABV012@@Z 100316d0 f i ConvexMeshBuilder.obj
 0001:00030710       ??4PxMat33@physx@@QAEAAV01@ABV01@@Z 10031710 f i ConvexMeshBuilder.obj
 0001:00030760       ??GPxMat33@physx@@QBE?BV01@XZ 10031760 f i ConvexMeshBuilder.obj
 0001:000307c0       ??_GBigConvexData@physx@@QAEPAXI@Z 100317c0 f i ConvexMeshBuilder.obj
 0001:00030820       ?allocate@?$ReflectionAllocator@VBigConvexData@physx@@@shdfnd@physx@@QAEPAXIPBDH@Z 10031820 f i ConvexMeshBuilder.obj
 0001:00030880       ?getExtents@PxBounds3@physx@@QBE?AVPxVec3@2@XZ 10031880 f i ConvexMeshBuilder.obj
 0001:00030920       ?getMax@CenterExtents@Gu@physx@@QBE?AVPxVec3@3@XZ 10031920 f i ConvexMeshBuilder.obj
 0001:00030950       ?getMin@CenterExtents@Gu@physx@@QBE?AVPxVec3@3@XZ 10031950 f i ConvexMeshBuilder.obj
 0001:00030980       ?getName@?$ReflectionAllocator@VBigConvexData@physx@@@shdfnd@physx@@CAPBDXZ 10031980 f i ConvexMeshBuilder.obj
 0001:000309d0       ?getNextIndex3@shdfnd@physx@@YAII@Z 100319d0 f i ConvexMeshBuilder.obj
 0001:000309f0       ?isValid@PxConvexMeshDesc@physx@@QBE_NXZ 100319f0 f i ConvexMeshBuilder.obj
 0001:00030c00       ?largestAxis@shdfnd@physx@@YAIABVPxVec3@2@@Z 10031c00 f i ConvexMeshBuilder.obj
 0001:00030c80       ?markSerializedMem@Cm@physx@@YAXPAXI@Z 10031c80 f i ConvexMeshBuilder.obj
 0001:00030cc0       ??0ConvexPolygonsBuilder@physx@@QAE@PAUConvexHullData@Gu@1@_N@Z 10031cc0 f   ConvexPolygonsBuilder.obj
 0001:00030d00       ??1ConvexPolygonsBuilder@physx@@QAE@XZ 10031d00 f   ConvexPolygonsBuilder.obj
 0001:00030d40       ?computeHullPolygons@ConvexPolygonsBuilder@physx@@QAE_NABIPBVPxVec3@2@0PBI@Z 10031d40 f   ConvexPolygonsBuilder.obj
 0001:000310f0       ?createPolygonData@ConvexPolygonsBuilder@physx@@AAE_NXZ 100320f0 f   ConvexPolygonsBuilder.obj
 0001:00031bc0       ?createTrianglesFromPolygons@ConvexPolygonsBuilder@physx@@AAE_NXZ 10032bc0 f   ConvexPolygonsBuilder.obj
 0001:000343e0       ??$?4VNamedAllocator@shdfnd@physx@@@?$Array@IVNamedAllocator@shdfnd@physx@@@shdfnd@physx@@QAEAAV012@ABV012@@Z 100353e0 f i ConvexPolygonsBuilder.obj
 0001:00034460       ??$?_UUHullTriangleData@physx@@@@YAPAXIV?$ReflectionAllocator@UHullTriangleData@physx@@@shdfnd@physx@@PBDH@Z 10035460 f i ConvexPolygonsBuilder.obj
 0001:00034480       ??$PlaneEquation@U?$TriangleT@I@Gu@physx@@@@YA?AVPxPlane@physx@@ABU?$TriangleT@I@Gu@1@PBVPxVec3@1@@Z 10035480 f i ConvexPolygonsBuilder.obj
 0001:00034500       ??$copy@VNamedAllocator@shdfnd@physx@@@?$Array@VPair@@VNamedAllocator@shdfnd@physx@@@shdfnd@physx@@IAEXABV012@@Z 10035500 f i ConvexPolygonsBuilder.obj
 0001:000345c0       ??$swap@E@shdfnd@physx@@YAXAAE0@Z 100355c0 f i ConvexPolygonsBuilder.obj
 0001:000345f0       ??0?$Array@VPair@@VNamedAllocator@shdfnd@physx@@@shdfnd@physx@@QAE@ABV012@ABVNamedAllocator@12@@Z 100355f0 f i ConvexPolygonsBuilder.obj
 0001:00034630       ??0?$Array@VPair@@VNamedAllocator@shdfnd@physx@@@shdfnd@physx@@QAE@ABVNamedAllocator@12@@Z 10035630 f i ConvexPolygonsBuilder.obj
 0001:00034680       ??0?$ReflectionAllocator@UHullTriangleData@physx@@@shdfnd@physx@@QAE@PBD@Z 10035680 f i ConvexPolygonsBuilder.obj
 0001:000346a0       ??0ADJACENCIESCREATE@physx@@QAE@XZ 100356a0 f i ConvexPolygonsBuilder.obj
 0001:00034700       ??0Pair@@QAE@II@Z          10035700 f i ConvexPolygonsBuilder.obj
 0001:00034730       ??1?$Array@VPair@@VNamedAllocator@shdfnd@physx@@@shdfnd@physx@@QAE@XZ 10035730 f i ConvexPolygonsBuilder.obj
 0001:000347a0       ??1Pair@@QAE@XZ            100357a0 f i ConvexPolygonsBuilder.obj
 0001:000347b0       ??4?$Array@IVNamedAllocator@shdfnd@physx@@@shdfnd@physx@@QAEAAV012@ABV012@@Z 100357b0 f i ConvexPolygonsBuilder.obj
 0001:000347d0       ??A?$Array@VPair@@VNamedAllocator@shdfnd@physx@@@shdfnd@physx@@QAEAAVPair@@I@Z 100357d0 f i ConvexPolygonsBuilder.obj
 0001:00034840       ??_GPair@@QAEPAXI@Z        10035840 f i ConvexPolygonsBuilder.obj
 0001:00034e70       ?GetAdjTri@AdjTriangle@physx@@QBEIW4SharedEdgeIndex@2@@Z 10035e70 f i ConvexPolygonsBuilder.obj
 0001:000351d0       ?HasActiveEdge01@AdjTriangle@physx@@QBEHXZ 100361d0 f i ConvexPolygonsBuilder.obj
 0001:00035200       ?HasActiveEdge12@AdjTriangle@physx@@QBEHXZ 10036200 f i ConvexPolygonsBuilder.obj
 0001:00035230       ?HasActiveEdge20@AdjTriangle@physx@@QBEHXZ 10036230 f i ConvexPolygonsBuilder.obj
 0001:00035260       ?HasActiveEdge@AdjTriangle@physx@@QBEHI@Z 10036260 f i ConvexPolygonsBuilder.obj
 0001:00035290       ?allocate@?$Array@VPair@@VNamedAllocator@shdfnd@physx@@@shdfnd@physx@@IAEPAVPair@@I@Z 10036290 f i ConvexPolygonsBuilder.obj
 0001:00035310       ?allocate@?$ReflectionAllocator@UHullTriangleData@physx@@@shdfnd@physx@@QAEPAXIPBDH@Z 10036310 f i ConvexPolygonsBuilder.obj
 0001:00035370       ?begin@?$Array@VPair@@VNamedAllocator@shdfnd@physx@@@shdfnd@physx@@QAEPAVPair@@XZ 10036370 f i ConvexPolygonsBuilder.obj
 0001:00035390       ?begin@?$Array@VPair@@VNamedAllocator@shdfnd@physx@@@shdfnd@physx@@QBEPBVPair@@XZ 10036390 f i ConvexPolygonsBuilder.obj
 0001:000353b0       ?capacity@?$Array@VPair@@VNamedAllocator@shdfnd@physx@@@shdfnd@physx@@QBEIXZ 100363b0 f i ConvexPolygonsBuilder.obj
 0001:000353d0       ?capacityIncrement@?$Array@VPair@@VNamedAllocator@shdfnd@physx@@@shdfnd@physx@@IBEIXZ 100363d0 f i ConvexPolygonsBuilder.obj
 0001:00035410       ?clear@?$Array@IVNamedAllocator@shdfnd@physx@@@shdfnd@physx@@QAEXXZ 10036410 f i ConvexPolygonsBuilder.obj
 0001:00035450       ?copy@?$Array@VPair@@VNamedAllocator@shdfnd@physx@@@shdfnd@physx@@KAXPAVPair@@0PBV4@@Z 10036450 f i ConvexPolygonsBuilder.obj
 0001:000354c0       ?deallocate@?$Array@VPair@@VNamedAllocator@shdfnd@physx@@@shdfnd@physx@@IAEXPAX@Z 100364c0 f i ConvexPolygonsBuilder.obj
 0001:000354e0       ?destroy@?$Array@VPair@@VNamedAllocator@shdfnd@physx@@@shdfnd@physx@@KAXPAVPair@@0@Z 100364e0 f i ConvexPolygonsBuilder.obj
 0001:00035510       ?empty@?$Array@VPair@@VNamedAllocator@shdfnd@physx@@@shdfnd@physx@@QBE_NXZ 10036510 f i ConvexPolygonsBuilder.obj
 0001:00035550       ?end@?$Array@IVNamedAllocator@shdfnd@physx@@@shdfnd@physx@@QAEPAIXZ 10036550 f i ConvexPolygonsBuilder.obj
 0001:00035570       ?find@?$Array@IVNamedAllocator@shdfnd@physx@@@shdfnd@physx@@QAEPAIABI@Z 10036570 f i ConvexPolygonsBuilder.obj
 0001:000355d0       ?flip@?$TriangleT@I@Gu@physx@@QAEXXZ 100365d0 f i ConvexPolygonsBuilder.obj
 0001:00035610       ?forceSize_Unsafe@?$Array@IVNamedAllocator@shdfnd@physx@@@shdfnd@physx@@QAEXI@Z 10036610 f i ConvexPolygonsBuilder.obj
 0001:00035680       ?getFaces@ConvexPolygonsBuilder@physx@@QBEPBUHullTriangleData@2@XZ 10036680 f i ConvexPolygonsBuilder.obj
 0001:000356a0       ?getName@?$ReflectionAllocator@UHullTriangleData@physx@@@shdfnd@physx@@CAPBDXZ 100366a0 f i ConvexPolygonsBuilder.obj
 0001:000356f0       ?getNbFaces@ConvexPolygonsBuilder@physx@@QBEIXZ 100366f0 f i ConvexPolygonsBuilder.obj
 0001:00035710       ?growAndPushBack@?$Array@VPair@@VNamedAllocator@shdfnd@physx@@@shdfnd@physx@@IAEAAVPair@@ABV4@@Z 10036710 f i ConvexPolygonsBuilder.obj
 0001:000358a0       ?isInUserMemory@?$Array@VPair@@VNamedAllocator@shdfnd@physx@@@shdfnd@physx@@QBEIXZ 100368a0 f i ConvexPolygonsBuilder.obj
 0001:000358c0       ?pushBack@?$Array@VPair@@VNamedAllocator@shdfnd@physx@@@shdfnd@physx@@QAEAAVPair@@ABV4@@Z 100368c0 f i ConvexPolygonsBuilder.obj
 0001:00035980       ?remove@?$Array@IVNamedAllocator@shdfnd@physx@@@shdfnd@physx@@QAEXI@Z 10036980 f i ConvexPolygonsBuilder.obj
 0001:00035a60       ?remove@?$Array@VPair@@VNamedAllocator@shdfnd@physx@@@shdfnd@physx@@QAEXI@Z 10036a60 f i ConvexPolygonsBuilder.obj
 0001:00035b80       ?size@?$Array@VPair@@VNamedAllocator@shdfnd@physx@@@shdfnd@physx@@QBEIXZ 10036b80 f i ConvexPolygonsBuilder.obj
 0001:00035ba0       ??0InflationConvexHullLib@physx@@QAE@ABVPxConvexMeshDesc@1@ABUPxCookingParams@1@@Z 10036ba0 f   InflationConvexHullLib.obj
 0001:00035be0       ??1InflationConvexHullLib@physx@@UAE@XZ 10036be0 f   InflationConvexHullLib.obj
 0001:00035c70       ?createConvexHull@InflationConvexHullLib@physx@@UAE?AW4Enum@PxConvexMeshCookingResult@2@XZ 10036c70 f   InflationConvexHullLib.obj
 0001:00035e60       ?fillConvexMeshDesc@InflationConvexHullLib@physx@@UAEXAAVPxConvexMeshDesc@2@@Z 10036e60 f   InflationConvexHullLib.obj
 0001:00035f60       ?computeHull@InflationConvexHullLib@physx@@IAE?AW4ErrorCode@ConvexHullLibResult@2@IPBVPxVec3@2@@Z 10036f60 f   InflationConvexHullLib.obj
 0001:000363b0       ?calchull@InflationConvexHullLib@physx@@IAE?AW4ErrorCode@ConvexHullLibResult@2@PBVPxVec3@2@IAAPAVConvexHull@2@@Z 100373b0 f   InflationConvexHullLib.obj
 0001:00036650       ?calchullgen@InflationConvexHullLib@physx@@IAE?AW4ErrorCode@ConvexHullLibResult@2@PBVPxVec3@2@IAAVHullTriangles@local@@@Z 10037650 f   InflationConvexHullLib.obj
 0001:00037270       ?calchullplanes@InflationConvexHullLib@physx@@IAE_NPBVPxVec3@2@AAVHullTriangles@local@@AAV?$Array@VPxPlane@physx@@VNamedAllocator@shdfnd@2@@shdfnd@2@@Z 10038270 f   InflationConvexHullLib.obj
 0001:00037500       ?overhull@InflationConvexHullLib@physx@@IAE_NPBVPxVec3@2@IABV?$Array@VPxPlane@physx@@VNamedAllocator@shdfnd@2@@shdfnd@2@AAPAVConvexHull@2@@Z 10038500 f   InflationConvexHullLib.obj
 0001:00037a40       ?expandHull@InflationConvexHullLib@physx@@IAE?AW4ErrorCode@ConvexHullLibResult@2@PBVPxVec3@2@IABVHullTriangles@local@@AAPAVConvexHull@2@@Z 10038a40 f   InflationConvexHullLib.obj
 0001:00038820       ?expandHullOBB@InflationConvexHullLib@physx@@IAE?AW4ErrorCode@ConvexHullLibResult@2@PBVPxVec3@2@IABVHullTriangles@local@@AAPAVConvexHull@2@@Z 10039820 f   InflationConvexHullLib.obj
 0001:00038e30       ?maxIndexInDirFiltered@local@@YAHPBVPxVec3@physx@@IABV23@PA_N@Z 10039e30 f   InflationConvexHullLib.obj
 0001:00039010       ?maxIndexInDirSterid@local@@YAHPBVPxVec3@physx@@IABV23@AAV?$Array@EVNamedAllocator@shdfnd@physx@@@shdfnd@3@@Z 1003a010 f   InflationConvexHullLib.obj
 0001:0003ab20       ??$?2V?$ReflectionAllocator@VTri@local@@@shdfnd@physx@@@UserAllocated@shdfnd@physx@@SAPAXIV?$ReflectionAllocator@VTri@local@@@12@PBDH@Z 1003bb20 f i InflationConvexHullLib.obj
 0001:0003ab40       ??$?_UUPxHullPolygon@physx@@@@YAPAXIV?$ReflectionAllocator@UPxHullPolygon@physx@@@shdfnd@physx@@PBDH@Z 1003bb40 f i InflationConvexHullLib.obj
 0001:0003ab60       ??$PX_UNUSED@H@@YAXABH@Z   1003bb60 f i InflationConvexHullLib.obj
 0001:0003ab70       ??$swap@H@shdfnd@physx@@YAXAAH0@Z 1003bb70 f i InflationConvexHullLib.obj
 0001:0003aba0       ??0?$Array@EVNamedAllocator@shdfnd@physx@@@shdfnd@physx@@QAE@ABVNamedAllocator@12@@Z 1003bba0 f i InflationConvexHullLib.obj
 0001:0003abf0       ??0?$Array@HVNamedAllocator@shdfnd@physx@@@shdfnd@physx@@QAE@ABVNamedAllocator@12@@Z 1003bbf0 f i InflationConvexHullLib.obj
 0001:0003ac40       ??0?$Array@PAVTri@local@@VNamedAllocator@shdfnd@physx@@@shdfnd@physx@@QAE@ABVNamedAllocator@12@@Z 1003bc40 f i InflationConvexHullLib.obj
 0001:0003ac90       ??0?$Array@UExpandPlane@local@@VNamedAllocator@shdfnd@physx@@@shdfnd@physx@@QAE@ABVNamedAllocator@12@@Z 1003bc90 f i InflationConvexHullLib.obj
 0001:0003ace0       ??0?$ReflectionAllocator@UPxHullPolygon@physx@@@shdfnd@physx@@QAE@PBD@Z 1003bce0 f i InflationConvexHullLib.obj
 0001:0003ad00       ??0?$ReflectionAllocator@VTri@local@@@shdfnd@physx@@QAE@PBD@Z 1003bd00 f i InflationConvexHullLib.obj
 0001:0003ad20       ??0?$ScopedPointer@_NVTempAllocator@shdfnd@physx@@@shdfnd@physx@@QAE@XZ 1003bd20 f i InflationConvexHullLib.obj
 0001:0003ad40       ??0ConvexHullLib@physx@@QAE@ABVPxConvexMeshDesc@1@ABUPxCookingParams@1@@Z 1003bd40 f i InflationConvexHullLib.obj
 0001:0003ada0       ??0ConvexHullLibResult@physx@@QAE@XZ 1003bda0 f i InflationConvexHullLib.obj
 0001:0003ae00       ??0ExpandPlane@local@@QAE@ABU01@@Z 1003be00 f i InflationConvexHullLib.obj
 0001:0003aea0       ??0ExpandPlane@local@@QAE@XZ 1003bea0 f i InflationConvexHullLib.obj
 0001:0003af30       ??0HullSimplex@local@@QAE@HHHH@Z 1003bf30 f i InflationConvexHullLib.obj
 0001:0003af70       ??0HullTriangles@local@@QAE@XZ 1003bf70 f i InflationConvexHullLib.obj
 0001:0003afc0       ??0PxTransform@physx@@QAE@XZ 1003bfc0 f i InflationConvexHullLib.obj
 0001:0003aff0       ??0Tri@local@@IAE@HHH@Z    1003bff0 f i InflationConvexHullLib.obj
 0001:0003b050       ??0int3@local@@QAE@HHH@Z   1003c050 f i InflationConvexHullLib.obj
 0001:0003b090       ??1?$Array@EVNamedAllocator@shdfnd@physx@@@shdfnd@physx@@QAE@XZ 1003c090 f i InflationConvexHullLib.obj
 0001:0003b100       ??1?$Array@HVNamedAllocator@shdfnd@physx@@@shdfnd@physx@@QAE@XZ 1003c100 f i InflationConvexHullLib.obj
 0001:0003b170       ??1?$Array@PAVTri@local@@VNamedAllocator@shdfnd@physx@@@shdfnd@physx@@QAE@XZ 1003c170 f i InflationConvexHullLib.obj
 0001:0003b1e0       ??1?$Array@UExpandPlane@local@@VNamedAllocator@shdfnd@physx@@@shdfnd@physx@@QAE@XZ 1003c1e0 f i InflationConvexHullLib.obj
 0001:0003b250       ??1?$Array@VHalfEdge@ConvexHull@physx@@VNamedAllocator@shdfnd@3@@shdfnd@physx@@QAE@XZ 1003c250 f i InflationConvexHullLib.obj
 0001:0003b2c0       ??1?$Array@VPxPlane@physx@@VNamedAllocator@shdfnd@2@@shdfnd@physx@@QAE@XZ 1003c2c0 f i InflationConvexHullLib.obj
 0001:0003b330       ??1?$ScopedPointer@_NVTempAllocator@shdfnd@physx@@@shdfnd@physx@@QAE@XZ 1003c330 f i InflationConvexHullLib.obj
 0001:0003b360       ??1ConvexHull@physx@@QAE@XZ 1003c360 f i InflationConvexHullLib.obj
 0001:0003b3a0       ??1HullTriangles@local@@QAE@XZ 1003c3a0 f i InflationConvexHullLib.obj
 0001:0003b450       ??1Tri@local@@IAE@XZ       1003c450 f i InflationConvexHullLib.obj
 0001:0003b460       ??4?$PxFlags@W4Enum@PxConvexFlag@physx@@G@physx@@QAEAAV01@ABV01@@Z 1003c460 f i InflationConvexHullLib.obj
 0001:0003b490       ??A?$Array@EVNamedAllocator@shdfnd@physx@@@shdfnd@physx@@QAEAAEI@Z 1003c490 f i InflationConvexHullLib.obj
 0001:0003b500       ??A?$Array@HVNamedAllocator@shdfnd@physx@@@shdfnd@physx@@QAEAAHI@Z 1003c500 f i InflationConvexHullLib.obj
 0001:0003b570       ??A?$Array@PAVTri@local@@VNamedAllocator@shdfnd@physx@@@shdfnd@physx@@QAEAAPAVTri@local@@I@Z 1003c570 f i InflationConvexHullLib.obj
 0001:0003b5e0       ??A?$Array@PAVTri@local@@VNamedAllocator@shdfnd@physx@@@shdfnd@physx@@QBEABQAVTri@local@@I@Z 1003c5e0 f i InflationConvexHullLib.obj
 0001:0003b650       ??A?$Array@UExpandPlane@local@@VNamedAllocator@shdfnd@physx@@@shdfnd@physx@@QAEAAUExpandPlane@local@@I@Z 1003c650 f i InflationConvexHullLib.obj
 0001:0003b6c0       ??A?$Array@VPxPlane@physx@@VNamedAllocator@shdfnd@2@@shdfnd@physx@@QAEAAVPxPlane@2@I@Z 1003c6c0 f i InflationConvexHullLib.obj
 0001:0003b730       ??AHullSimplex@local@@QAEAAHH@Z 1003c730 f i InflationConvexHullLib.obj
 0001:0003b750       ??AHullTriangles@local@@QAEPAVTri@1@I@Z 1003c750 f i InflationConvexHullLib.obj
 0001:0003b780       ??AHullTriangles@local@@QBEPBVTri@1@I@Z 1003c780 f i InflationConvexHullLib.obj
 0001:0003b7b0       ??Aint3@local@@QAEAAHH@Z   1003c7b0 f i InflationConvexHullLib.obj
 0001:0003b7d0       ??Aint3@local@@QBEABHH@Z   1003c7d0 f i InflationConvexHullLib.obj
 0001:0003b7f0       ??B?$ScopedPointer@_NVTempAllocator@shdfnd@physx@@@shdfnd@physx@@QBEPA_NXZ 1003c7f0 f i InflationConvexHullLib.obj
 0001:0003b810       ??KPxVec3@physx@@QBE?AV01@M@Z 1003c810 f i InflationConvexHullLib.obj
 0001:0003b890       ??_GConvexHull@physx@@QAEPAXI@Z 1003c890 f i InflationConvexHullLib.obj
 0001:0003b8f0       ??_GInflationConvexHullLib@physx@@UAEPAXI@Z 1003c8f0 f i InflationConvexHullLib.obj
 0001:0003b8f0       ??_EInflationConvexHullLib@physx@@UAEPAXI@Z 1003c8f0 f i InflationConvexHullLib.obj
 0001:0003b950       ??_GTri@local@@IAEPAXI@Z   1003c950 f i InflationConvexHullLib.obj
 0001:0003bae0       ?allocate@?$Array@EVNamedAllocator@shdfnd@physx@@@shdfnd@physx@@IAEPAEI@Z 1003cae0 f i InflationConvexHullLib.obj
 0001:0003bb60       ?allocate@?$Array@HVNamedAllocator@shdfnd@physx@@@shdfnd@physx@@IAEPAHI@Z 1003cb60 f i InflationConvexHullLib.obj
 0001:0003bbe0       ?allocate@?$Array@PAVTri@local@@VNamedAllocator@shdfnd@physx@@@shdfnd@physx@@IAEPAPAVTri@local@@I@Z 1003cbe0 f i InflationConvexHullLib.obj
 0001:0003bc60       ?allocate@?$Array@UExpandPlane@local@@VNamedAllocator@shdfnd@physx@@@shdfnd@physx@@IAEPAUExpandPlane@local@@I@Z 1003cc60 f i InflationConvexHullLib.obj
 0001:0003bce0       ?allocate@?$ReflectionAllocator@UPxHullPolygon@physx@@@shdfnd@physx@@QAEPAXIPBDH@Z 1003cce0 f i InflationConvexHullLib.obj
 0001:0003bd40       ?allocate@?$ReflectionAllocator@VTri@local@@@shdfnd@physx@@QAEPAXIPBDH@Z 1003cd40 f i InflationConvexHullLib.obj
 0001:0003bda0       ?b2bfix@HullTriangles@local@@IAEXPAVTri@2@0@Z 1003cda0 f i InflationConvexHullLib.obj
 0001:0003bfe0       ?capacity@?$Array@EVNamedAllocator@shdfnd@physx@@@shdfnd@physx@@QBEIXZ 1003cfe0 f i InflationConvexHullLib.obj
 0001:0003c000       ?capacity@?$Array@HVNamedAllocator@shdfnd@physx@@@shdfnd@physx@@QBEIXZ 1003d000 f i InflationConvexHullLib.obj
 0001:0003c020       ?capacity@?$Array@PAVTri@local@@VNamedAllocator@shdfnd@physx@@@shdfnd@physx@@QBEIXZ 1003d020 f i InflationConvexHullLib.obj
 0001:0003c040       ?capacity@?$Array@UExpandPlane@local@@VNamedAllocator@shdfnd@physx@@@shdfnd@physx@@QBEIXZ 1003d040 f i InflationConvexHullLib.obj
 0001:0003c060       ?capacityIncrement@?$Array@EVNamedAllocator@shdfnd@physx@@@shdfnd@physx@@IBEIXZ 1003d060 f i InflationConvexHullLib.obj
 0001:0003c0a0       ?capacityIncrement@?$Array@HVNamedAllocator@shdfnd@physx@@@shdfnd@physx@@IBEIXZ 1003d0a0 f i InflationConvexHullLib.obj
 0001:0003c0e0       ?capacityIncrement@?$Array@PAVTri@local@@VNamedAllocator@shdfnd@physx@@@shdfnd@physx@@IBEIXZ 1003d0e0 f i InflationConvexHullLib.obj
 0001:0003c120       ?capacityIncrement@?$Array@UExpandPlane@local@@VNamedAllocator@shdfnd@physx@@@shdfnd@physx@@IBEIXZ 1003d120 f i InflationConvexHullLib.obj
 0001:0003c160       ?checkit@HullTriangles@local@@QBEXPAVTri@2@@Z 1003d160 f i InflationConvexHullLib.obj
 0001:0003c340       ?clear@?$Array@HVNamedAllocator@shdfnd@physx@@@shdfnd@physx@@QAEXXZ 1003d340 f i InflationConvexHullLib.obj
 0001:0003c380       ?clear@?$Array@PAVTri@local@@VNamedAllocator@shdfnd@physx@@@shdfnd@physx@@QAEXXZ 1003d380 f i InflationConvexHullLib.obj
 0001:0003c3c0       ?copy@?$Array@EVNamedAllocator@shdfnd@physx@@@shdfnd@physx@@KAXPAE0PBE@Z 1003d3c0 f i InflationConvexHullLib.obj
 0001:0003c420       ?copy@?$Array@HVNamedAllocator@shdfnd@physx@@@shdfnd@physx@@KAXPAH0PBH@Z 1003d420 f i InflationConvexHullLib.obj
 0001:0003c480       ?copy@?$Array@PAVTri@local@@VNamedAllocator@shdfnd@physx@@@shdfnd@physx@@KAXPAPAVTri@local@@0PBQAV45@@Z 1003d480 f i InflationConvexHullLib.obj
 0001:0003c4e0       ?copy@?$Array@UExpandPlane@local@@VNamedAllocator@shdfnd@physx@@@shdfnd@physx@@KAXPAUExpandPlane@local@@0PBU45@@Z 1003d4e0 f i InflationConvexHullLib.obj
 0001:0003c540       ?create@?$Array@HVNamedAllocator@shdfnd@physx@@@shdfnd@physx@@KAXPAH0ABH@Z 1003d540 f i InflationConvexHullLib.obj
 0001:0003c590       ?createEdgeList@InflationConvexHullLib@physx@@UAE_NIPBEPAPAEPAPAG2@Z 1003d590 f i InflationConvexHullLib.obj
 0001:0003c5b0       ?createTri@HullTriangles@local@@QAEPAVTri@2@HHH@Z 1003d5b0 f i InflationConvexHullLib.obj
 0001:0003c650       ?deallocate@?$Array@EVNamedAllocator@shdfnd@physx@@@shdfnd@physx@@IAEXPAX@Z 1003d650 f i InflationConvexHullLib.obj
 0001:0003c670       ?deallocate@?$Array@HVNamedAllocator@shdfnd@physx@@@shdfnd@physx@@IAEXPAX@Z 1003d670 f i InflationConvexHullLib.obj
 0001:0003c690       ?deallocate@?$Array@PAVTri@local@@VNamedAllocator@shdfnd@physx@@@shdfnd@physx@@IAEXPAX@Z 1003d690 f i InflationConvexHullLib.obj
 0001:0003c6b0       ?deallocate@?$Array@UExpandPlane@local@@VNamedAllocator@shdfnd@physx@@@shdfnd@physx@@IAEXPAX@Z 1003d6b0 f i InflationConvexHullLib.obj
 0001:0003c6d0       ?deleteTri@HullTriangles@local@@QAEXPAVTri@2@@Z 1003d6d0 f i InflationConvexHullLib.obj
 0001:0003c790       ?destroy@?$Array@EVNamedAllocator@shdfnd@physx@@@shdfnd@physx@@KAXPAE0@Z 1003d790 f i InflationConvexHullLib.obj
 0001:0003c7b0       ?destroy@?$Array@HVNamedAllocator@shdfnd@physx@@@shdfnd@physx@@KAXPAH0@Z 1003d7b0 f i InflationConvexHullLib.obj
 0001:0003c7d0       ?destroy@?$Array@PAVTri@local@@VNamedAllocator@shdfnd@physx@@@shdfnd@physx@@KAXPAPAVTri@local@@0@Z 1003d7d0 f i InflationConvexHullLib.obj
 0001:0003c7f0       ?destroy@?$Array@UExpandPlane@local@@VNamedAllocator@shdfnd@physx@@@shdfnd@physx@@KAXPAUExpandPlane@local@@0@Z 1003d7f0 f i InflationConvexHullLib.obj
 0001:0003c810       ?extrude@HullTriangles@local@@QAEXPAVTri@2@H@Z 1003d810 f i InflationConvexHullLib.obj
 0001:0003cc20       ?findExtrudable@HullTriangles@local@@QBEPAVTri@2@M@Z 1003dc20 f i InflationConvexHullLib.obj
 0001:0003ccf0       ?getArea2@Tri@local@@QBEMPBVPxVec3@physx@@@Z 1003dcf0 f i InflationConvexHullLib.obj
 0001:0003cd90       ?getName@?$ReflectionAllocator@UPxHullPolygon@physx@@@shdfnd@physx@@CAPBDXZ 1003dd90 f i InflationConvexHullLib.obj
 0001:0003cde0       ?getName@?$ReflectionAllocator@VTri@local@@@shdfnd@physx@@CAPBDXZ 1003dde0 f i InflationConvexHullLib.obj
 0001:0003ce30       ?getNormal@Tri@local@@QBE?AVPxVec3@physx@@PBV34@@Z 1003de30 f i InflationConvexHullLib.obj
 0001:0003cf50       ?getTriangles@HullTriangles@local@@QAEAAV?$Array@PAVTri@local@@VNamedAllocator@shdfnd@physx@@@shdfnd@physx@@XZ 1003df50 f i InflationConvexHullLib.obj
 0001:0003cf70       ?grow@?$Array@EVNamedAllocator@shdfnd@physx@@@shdfnd@physx@@IAEXI@Z 1003df70 f i InflationConvexHullLib.obj
 0001:0003cff0       ?grow@?$Array@HVNamedAllocator@shdfnd@physx@@@shdfnd@physx@@IAEXI@Z 1003dff0 f i InflationConvexHullLib.obj
 0001:0003d070       ?grow@?$Array@PAVTri@local@@VNamedAllocator@shdfnd@physx@@@shdfnd@physx@@IAEXI@Z 1003e070 f i InflationConvexHullLib.obj
 0001:0003d0f0       ?growAndPushBack@?$Array@EVNamedAllocator@shdfnd@physx@@@shdfnd@physx@@IAEAAEABE@Z 1003e0f0 f i InflationConvexHullLib.obj
 0001:0003d250       ?growAndPushBack@?$Array@HVNamedAllocator@shdfnd@physx@@@shdfnd@physx@@IAEAAHABH@Z 1003e250 f i InflationConvexHullLib.obj
 0001:0003d3c0       ?growAndPushBack@?$Array@PAVTri@local@@VNamedAllocator@shdfnd@physx@@@shdfnd@physx@@IAEAAPAVTri@local@@ABQAV45@@Z 1003e3c0 f i InflationConvexHullLib.obj
 0001:0003d530       ?growAndPushBack@?$Array@UExpandPlane@local@@VNamedAllocator@shdfnd@physx@@@shdfnd@physx@@IAEAAUExpandPlane@local@@ABU45@@Z 1003e530 f i InflationConvexHullLib.obj
 0001:0003d6a0       ?hasVolume@HullSimplex@local@@SA_NPBVPxVec3@physx@@IIII@Z 1003e6a0 f i InflationConvexHullLib.obj
 0001:0003d7b0       ?isInUserMemory@?$Array@EVNamedAllocator@shdfnd@physx@@@shdfnd@physx@@QBEIXZ 1003e7b0 f i InflationConvexHullLib.obj
 0001:0003d7d0       ?isInUserMemory@?$Array@HVNamedAllocator@shdfnd@physx@@@shdfnd@physx@@QBEIXZ 1003e7d0 f i InflationConvexHullLib.obj
 0001:0003d7f0       ?isInUserMemory@?$Array@PAVTri@local@@VNamedAllocator@shdfnd@physx@@@shdfnd@physx@@QBEIXZ 1003e7f0 f i InflationConvexHullLib.obj
 0001:0003d810       ?isInUserMemory@?$Array@UExpandPlane@local@@VNamedAllocator@shdfnd@physx@@@shdfnd@physx@@QBEIXZ 1003e810 f i InflationConvexHullLib.obj
 0001:0003d830       ?neib@Tri@local@@QAEAAHHH@Z 1003e830 f i InflationConvexHullLib.obj
 0001:0003d970       ?pushBack@?$Array@EVNamedAllocator@shdfnd@physx@@@shdfnd@physx@@QAEAAEABE@Z 1003e970 f i InflationConvexHullLib.obj
 0001:0003da00       ?pushBack@?$Array@HVNamedAllocator@shdfnd@physx@@@shdfnd@physx@@QAEAAHABH@Z 1003ea00 f i InflationConvexHullLib.obj
 0001:0003daa0       ?pushBack@?$Array@PAVTri@local@@VNamedAllocator@shdfnd@physx@@@shdfnd@physx@@QAEAAPAVTri@local@@ABQAV45@@Z 1003eaa0 f i InflationConvexHullLib.obj
 0001:0003db40       ?pushBack@?$Array@UExpandPlane@local@@VNamedAllocator@shdfnd@physx@@@shdfnd@physx@@QAEAAUExpandPlane@local@@ABU45@@Z 1003eb40 f i InflationConvexHullLib.obj
 0001:0003dbe0       ?recreate@?$Array@EVNamedAllocator@shdfnd@physx@@@shdfnd@physx@@IAEXI@Z 1003ebe0 f i InflationConvexHullLib.obj
 0001:0003dce0       ?recreate@?$Array@HVNamedAllocator@shdfnd@physx@@@shdfnd@physx@@IAEXI@Z 1003ece0 f i InflationConvexHullLib.obj
 0001:0003ddf0       ?recreate@?$Array@PAVTri@local@@VNamedAllocator@shdfnd@physx@@@shdfnd@physx@@IAEXI@Z 1003edf0 f i InflationConvexHullLib.obj
 0001:0003df00       ?removeb2b@HullTriangles@local@@IAEXPAVTri@2@0@Z 1003ef00 f i InflationConvexHullLib.obj
 0001:0003df50       ?reserve@?$Array@EVNamedAllocator@shdfnd@physx@@@shdfnd@physx@@QAEXI@Z 1003ef50 f i InflationConvexHullLib.obj
 0001:0003df80       ?reserve@?$Array@HVNamedAllocator@shdfnd@physx@@@shdfnd@physx@@QAEXI@Z 1003ef80 f i InflationConvexHullLib.obj
 0001:0003dfb0       ?reserve@?$Array@PAVTri@local@@VNamedAllocator@shdfnd@physx@@@shdfnd@physx@@QAEXI@Z 1003efb0 f i InflationConvexHullLib.obj
 0001:0003dfe0       ?resize@?$Array@HVNamedAllocator@shdfnd@physx@@@shdfnd@physx@@QAEXIABH@Z 1003efe0 f i InflationConvexHullLib.obj
 0001:0003e070       ?size@?$Array@HVNamedAllocator@shdfnd@physx@@@shdfnd@physx@@QBEIXZ 1003f070 f i InflationConvexHullLib.obj
 0001:0003e090       ?size@?$Array@PAVTri@local@@VNamedAllocator@shdfnd@physx@@@shdfnd@physx@@QBEIXZ 1003f090 f i InflationConvexHullLib.obj
 0001:0003e0b0       ?size@?$Array@UExpandPlane@local@@VNamedAllocator@shdfnd@physx@@@shdfnd@physx@@QBEIXZ 1003f0b0 f i InflationConvexHullLib.obj
 0001:0003e0d0       ?size@HullTriangles@local@@QBEIXZ 1003f0d0 f i InflationConvexHullLib.obj
 0001:0003e0f0       ?to8@shdfnd@physx@@YAEH@Z  1003f0f0 f i InflationConvexHullLib.obj
 0001:0003e1e0       ??0QuickHullConvexHullLib@physx@@QAE@ABVPxConvexMeshDesc@1@ABUPxCookingParams@1@@Z 1003f1e0 f   QuickHullConvexHullLib.obj
 0001:0003e2a0       ??1QuickHullConvexHullLib@physx@@UAE@XZ 1003f2a0 f   QuickHullConvexHullLib.obj
 0001:0003e350       ?createConvexHull@QuickHullConvexHullLib@physx@@UAE?AW4Enum@PxConvexMeshCookingResult@2@XZ 1003f350 f   QuickHullConvexHullLib.obj
 0001:0003e720       ?fillConvexMeshDesc@QuickHullConvexHullLib@physx@@UAEXAAVPxConvexMeshDesc@2@@Z 1003f720 f   QuickHullConvexHullLib.obj
 0001:0003e790       ?createEdgeList@QuickHullConvexHullLib@physx@@UAE_NIPBEPAPAEPAPAG2@Z 1003f790 f   QuickHullConvexHullLib.obj
 0001:0003eb10       ?expandHullOBB@QuickHullConvexHullLib@physx@@IAE?AW4Enum@PxConvexMeshCookingResult@2@XZ 1003fb10 f   QuickHullConvexHullLib.obj
 0001:0003ef80       ?expandHull@QuickHullConvexHullLib@physx@@IAE?AW4Enum@PxConvexMeshCookingResult@2@XZ 1003ff80 f   QuickHullConvexHullLib.obj
 0001:0003f580       ?cleanupForSimplex@QuickHullConvexHullLib@physx@@IAE_NPAVPxVec3@2@IPAUQuickHullVertex@local@@1AAM2@Z 10040580 f   QuickHullConvexHullLib.obj
 0001:0003fed0       ?fillConvexMeshDescFromQuickHull@QuickHullConvexHullLib@physx@@IAEXAAVPxConvexMeshDesc@2@@Z 10040ed0 f   QuickHullConvexHullLib.obj
 0001:000403f0       ?fillConvexMeshDescFromCroppedHull@QuickHullConvexHullLib@physx@@IAEXAAVPxConvexMeshDesc@2@@Z 100413f0 f   QuickHullConvexHullLib.obj
 0001:000407a0       ?getOppositeFaceDistance@QuickHullHalfEdge@local@@QBEMXZ 100417a0 f   QuickHullConvexHullLib.obj
 0001:00040850       ?mergeAdjacentFace@QuickHullFace@local@@QAE_NPAUQuickHullHalfEdge@2@AAV?$Array@PAUQuickHullFace@local@@VNamedAllocator@shdfnd@physx@@@shdfnd@physx@@@Z 10041850 f   QuickHullConvexHullLib.obj
 0001:000409f0       ?checkFaceConsistency@QuickHullFace@local@@QAE_NXZ 100419f0 f   QuickHullConvexHullLib.obj
 0001:00040be0       ?connectHalfEdges@QuickHullFace@local@@AAEPAU12@PAUQuickHullHalfEdge@2@0@Z 10041be0 f   QuickHullConvexHullLib.obj
 0001:00040cf0       ??0QuickHull@local@@QAE@ABUPxCookingParams@physx@@ABVPxConvexMeshDesc@3@@Z 10041cf0 f   QuickHullConvexHullLib.obj
 0001:00040e90       ??1QuickHull@local@@QAE@XZ 10041e90 f   QuickHullConvexHullLib.obj
 0001:00040f10       ?preallocate@QuickHull@local@@QAEXI@Z 10041f10 f   QuickHullConvexHullLib.obj
 0001:00041060       ?parseInputVertices@QuickHull@local@@QAEXPBVPxVec3@physx@@I@Z 10042060 f   QuickHullConvexHullLib.obj
 0001:00041140       ?releaseHull@QuickHull@local@@QAEXXZ 10042140 f   QuickHullConvexHullLib.obj
 0001:00041190       ?setPrecomputedMinMax@QuickHull@local@@QAEXPBUQuickHullVertex@2@0MM@Z 10042190 f   QuickHullConvexHullLib.obj
 0001:00041220       ?buildHull@QuickHull@local@@QAE?AW4Enum@QuickHullResult@2@XZ 10042220 f   QuickHullConvexHullLib.obj
 0001:000414a0       ?maxNumVertsPerFace@QuickHull@local@@QBEIXZ 100424a0 f   QuickHullConvexHullLib.obj
 0001:00041520       ?computeMinMaxVerts@QuickHull@local@@IAEXXZ 10042520 f   QuickHullConvexHullLib.obj
 0001:00041900       ?findSimplex@QuickHull@local@@IAE_NXZ 10042900 f   QuickHullConvexHullLib.obj
 0001:00041d40       ?addSimplex@QuickHull@local@@IAEXPAUQuickHullVertex@2@_N@Z 10042d40 f   QuickHullConvexHullLib.obj
 0001:00042230       ?nextPointToAdd@QuickHull@local@@IAEPAUQuickHullVertex@2@AAPAUQuickHullFace@2@@Z 10043230 f   QuickHullConvexHullLib.obj
 0001:00042320       ?addPointToHull@QuickHull@local@@IAE_NPBUQuickHullVertex@2@AAUQuickHullFace@2@AA_N@Z 10043320 f   QuickHullConvexHullLib.obj
 0001:00042590       ?createTriangle@QuickHull@local@@IAEPAUQuickHullFace@2@ABUQuickHullVertex@2@00@Z 10043590 f   QuickHullConvexHullLib.obj
 0001:00042660       ?addPointToFace@QuickHull@local@@IAEXAAUQuickHullFace@2@PAUQuickHullVertex@2@M@Z 10043660 f   QuickHullConvexHullLib.obj
 0001:00042730       ?removeEyePointFromFace@QuickHull@local@@IAEXAAUQuickHullFace@2@PBUQuickHullVertex@2@@Z 10043730 f   QuickHullConvexHullLib.obj
 0001:000427a0       ?calculateHorizon@QuickHull@local@@IAEXABVPxVec3@physx@@PAUQuickHullHalfEdge@2@AAUQuickHullFace@2@AAV?$Array@PAUQuickHullHalfEdge@local@@VNamedAllocator@shdfnd@physx@@@shdfnd@4@AAV?$Array@PAUQuickHullFace@local@@VNamedAllocator@shdfnd@physx@@@84@@Z 100437a0 f   QuickHullConvexHullLib.obj
 0001:00042890       ?addNewFacesFromHorizon@QuickHull@local@@IAEXPBUQuickHullVertex@2@ABV?$Array@PAUQuickHullHalfEdge@local@@VNamedAllocator@shdfnd@physx@@@shdfnd@physx@@AAV?$Array@PAUQuickHullFace@local@@VNamedAllocator@shdfnd@physx@@@56@@Z 10043890 f   QuickHullConvexHullLib.obj
 0001:00042990       ?doAdjacentMerge@QuickHull@local@@IAE_NAAUQuickHullFace@2@_NAA_N@Z 10043990 f   QuickHullConvexHullLib.obj
 0001:00042c10       ?doPostAdjacentMerge@QuickHull@local@@IAE_NAAUQuickHullFace@2@M@Z 10043c10 f   QuickHullConvexHullLib.obj
 0001:00042d80       ?deleteFacePoints@QuickHull@local@@IAEXAAUQuickHullFace@2@PAU32@@Z 10043d80 f   QuickHullConvexHullLib.obj
 0001:00042e60       ?resolveUnclaimedPoints@QuickHull@local@@IAEXABV?$Array@PAUQuickHullFace@local@@VNamedAllocator@shdfnd@physx@@@shdfnd@physx@@@Z 10043e60 f   QuickHullConvexHullLib.obj
 0001:00042f80       ?postMergeHull@QuickHull@local@@IAEXXZ 10043f80 f   QuickHullConvexHullLib.obj
 0001:00043040       ?canMergeFaces@QuickHull@local@@IAE_NABUQuickHullHalfEdge@2@@Z 10044040 f   QuickHullConvexHullLib.obj
 0001:00043680       ?getExpandPoint@local@@YAXABUQuickHullHalfEdge@1@AAUExpandPoint@1@PBV?$Array@IVNamedAllocator@shdfnd@physx@@@shdfnd@physx@@@Z 10044680 f   QuickHullConvexHullLib.obj
 0001:00043850       ?addExpandPoint@local@@YAXABUExpandPoint@1@AAV?$Array@UExpandPoint@local@@VNamedAllocator@shdfnd@physx@@@shdfnd@physx@@@Z 10044850 f   QuickHullConvexHullLib.obj
 0001:00044f30       ??$?2V?$ReflectionAllocator@VQuickHull@local@@@shdfnd@physx@@@UserAllocated@shdfnd@physx@@SAPAXIV?$ReflectionAllocator@VQuickHull@local@@@12@PBDH@Z 10045f30 f i QuickHullConvexHullLib.obj
 0001:00044f50       ??$PX_UNUSED@PAUQuickHullFace@local@@@@YAXABQAUQuickHullFace@local@@@Z 10045f50 f i QuickHullConvexHullLib.obj
 0001:00044f60       ??$PX_UNUSED@PBUQuickHullVertex@local@@@@YAXABQBUQuickHullVertex@local@@@Z 10045f60 f i QuickHullConvexHullLib.obj
 0001:00044f70       ??$PX_UNUSED@W4PxZERO@physx@@@@YAXABW4PxZERO@physx@@@Z 10045f70 f i QuickHullConvexHullLib.obj
 0001:00044f80       ??0?$Array@PAUQuickHullFace@local@@VNamedAllocator@shdfnd@physx@@@shdfnd@physx@@QAE@ABVNamedAllocator@12@@Z 10045f80 f i QuickHullConvexHullLib.obj
 0001:00044fd0       ??0?$Array@PAUQuickHullHalfEdge@local@@VNamedAllocator@shdfnd@physx@@@shdfnd@physx@@QAE@ABVNamedAllocator@12@@Z 10045fd0 f i QuickHullConvexHullLib.obj
 0001:00045020       ??0?$Array@PAUQuickHullVertex@local@@VNamedAllocator@shdfnd@physx@@@shdfnd@physx@@QAE@ABVNamedAllocator@12@@Z 10046020 f i QuickHullConvexHullLib.obj
 0001:00045070       ??0?$Array@UExpandPoint@local@@VNamedAllocator@shdfnd@physx@@@shdfnd@physx@@QAE@ABVNamedAllocator@12@@Z 10046070 f i QuickHullConvexHullLib.obj
 0001:000450c0       ??0?$MemBlock@UQuickHullFace@local@@$00@local@@QAE@XZ 100460c0 f i QuickHullConvexHullLib.obj
 0001:00045120       ??0?$MemBlock@UQuickHullHalfEdge@local@@$0A@@local@@QAE@XZ 10046120 f i QuickHullConvexHullLib.obj
 0001:00045180       ??0?$ReflectionAllocator@VQuickHull@local@@@shdfnd@physx@@QAE@PBD@Z 10046180 f i QuickHullConvexHullLib.obj
 0001:000451a0       ??0?$ScopedPointer@UQuickHullHalfEdge@local@@VTempAllocator@shdfnd@physx@@@shdfnd@physx@@QAE@XZ 100461a0 f i QuickHullConvexHullLib.obj
 0001:000451c0       ??0?$ScopedPointer@VPxVec3@physx@@VTempAllocator@shdfnd@2@@shdfnd@physx@@QAE@XZ 100461c0 f i QuickHullConvexHullLib.obj
 0001:000451e0       ??0ExpandPoint@local@@QAE@ABU01@@Z 100461e0 f i QuickHullConvexHullLib.obj
 0001:00045240       ??0ExpandPoint@local@@QAE@XZ 10046240 f i QuickHullConvexHullLib.obj
 0001:00045270       ??0PxVec3@physx@@QAE@W4PxZERO@1@@Z 10046270 f i QuickHullConvexHullLib.obj
 0001:000452c0       ??0QuickHullFace@local@@QAE@I@Z 100462c0 f i QuickHullConvexHullLib.obj
 0001:00045370       ??0QuickHullFace@local@@QAE@XZ 10046370 f i QuickHullConvexHullLib.obj
 0001:00045420       ??0QuickHullHalfEdge@local@@QAE@I@Z 10046420 f i QuickHullConvexHullLib.obj
 0001:00045480       ??0QuickHullVertex@local@@QAE@XZ 10046480 f i QuickHullConvexHullLib.obj
 0001:000454a0       ??1?$Array@PAUQuickHullFace@local@@VNamedAllocator@shdfnd@physx@@@shdfnd@physx@@QAE@XZ 100464a0 f i QuickHullConvexHullLib.obj
 0001:00045510       ??1?$Array@PAUQuickHullHalfEdge@local@@VNamedAllocator@shdfnd@physx@@@shdfnd@physx@@QAE@XZ 10046510 f i QuickHullConvexHullLib.obj
 0001:00045580       ??1?$Array@PAUQuickHullVertex@local@@VNamedAllocator@shdfnd@physx@@@shdfnd@physx@@QAE@XZ 10046580 f i QuickHullConvexHullLib.obj
 0001:000455f0       ??1?$Array@UExpandPoint@local@@VNamedAllocator@shdfnd@physx@@@shdfnd@physx@@QAE@XZ 100465f0 f i QuickHullConvexHullLib.obj
 0001:00045660       ??1?$MemBlock@UQuickHullFace@local@@$00@local@@QAE@XZ 10046660 f i QuickHullConvexHullLib.obj
 0001:000456f0       ??1?$MemBlock@UQuickHullHalfEdge@local@@$0A@@local@@QAE@XZ 100466f0 f i QuickHullConvexHullLib.obj
 0001:00045780       ??1?$ScopedPointer@UQuickHullHalfEdge@local@@VTempAllocator@shdfnd@physx@@@shdfnd@physx@@QAE@XZ 10046780 f i QuickHullConvexHullLib.obj
 0001:000457b0       ??1?$ScopedPointer@VPxVec3@physx@@VTempAllocator@shdfnd@2@@shdfnd@physx@@QAE@XZ 100467b0 f i QuickHullConvexHullLib.obj
 0001:000457e0       ??1QuickHullFace@local@@QAE@XZ 100467e0 f i QuickHullConvexHullLib.obj
 0001:000457f0       ??4QuickHullVertex@local@@QAEAAU01@ABU01@@Z 100467f0 f i QuickHullConvexHullLib.obj
 0001:00045840       ??8ExpandPoint@local@@QBE_NABU01@@Z 10046840 f i QuickHullConvexHullLib.obj
 0001:000458e0       ??8QuickHullVertex@local@@QBE_NABU01@@Z 100468e0 f i QuickHullConvexHullLib.obj
 0001:00045920       ??A?$Array@IVNamedAllocator@shdfnd@physx@@@shdfnd@physx@@QBEABII@Z 10046920 f i QuickHullConvexHullLib.obj
 0001:00045990       ??A?$Array@PAUQuickHullFace@local@@VNamedAllocator@shdfnd@physx@@@shdfnd@physx@@QAEAAPAUQuickHullFace@local@@I@Z 10046990 f i QuickHullConvexHullLib.obj
 0001:00045a00       ??A?$Array@PAUQuickHullFace@local@@VNamedAllocator@shdfnd@physx@@@shdfnd@physx@@QBEABQAUQuickHullFace@local@@I@Z 10046a00 f i QuickHullConvexHullLib.obj
 0001:00045a70       ??A?$Array@PAUQuickHullHalfEdge@local@@VNamedAllocator@shdfnd@physx@@@shdfnd@physx@@QAEAAPAUQuickHullHalfEdge@local@@I@Z 10046a70 f i QuickHullConvexHullLib.obj
 0001:00045ae0       ??A?$Array@PAUQuickHullHalfEdge@local@@VNamedAllocator@shdfnd@physx@@@shdfnd@physx@@QBEABQAUQuickHullHalfEdge@local@@I@Z 10046ae0 f i QuickHullConvexHullLib.obj
 0001:00045b50       ??A?$Array@PAUQuickHullVertex@local@@VNamedAllocator@shdfnd@physx@@@shdfnd@physx@@QAEAAPAUQuickHullVertex@local@@I@Z 10046b50 f i QuickHullConvexHullLib.obj
 0001:00045bc0       ??A?$Array@UExpandPoint@local@@VNamedAllocator@shdfnd@physx@@@shdfnd@physx@@QAEAAUExpandPoint@local@@I@Z 10046bc0 f i QuickHullConvexHullLib.obj
 0001:00045c30       ??B?$ScopedPointer@UQuickHullHalfEdge@local@@VTempAllocator@shdfnd@physx@@@shdfnd@physx@@QBEPAUQuickHullHalfEdge@local@@XZ 10046c30 f i QuickHullConvexHullLib.obj
 0001:00045c50       ??B?$ScopedPointer@VPxVec3@physx@@VTempAllocator@shdfnd@2@@shdfnd@physx@@QBEPAVPxVec3@2@XZ 10046c50 f i QuickHullConvexHullLib.obj
 0001:00045c70       ??_GQuickHull@local@@QAEPAXI@Z 10046c70 f i QuickHullConvexHullLib.obj
 0001:00045cd0       ??_EQuickHullConvexHullLib@physx@@UAEPAXI@Z 10046cd0 f i QuickHullConvexHullLib.obj
 0001:00045cd0       ??_GQuickHullConvexHullLib@physx@@UAEPAXI@Z 10046cd0 f i QuickHullConvexHullLib.obj
 0001:00045d30       ??__G@YGXPAX0IIP6EPAX00@Z@Z 10046d30 f i QuickHullConvexHullLib.obj
 0001:00045da0       ?allocate@?$Array@PAUQuickHullFace@local@@VNamedAllocator@shdfnd@physx@@@shdfnd@physx@@IAEPAPAUQuickHullFace@local@@I@Z 10046da0 f i QuickHullConvexHullLib.obj
 0001:00045e20       ?allocate@?$Array@PAUQuickHullHalfEdge@local@@VNamedAllocator@shdfnd@physx@@@shdfnd@physx@@IAEPAPAUQuickHullHalfEdge@local@@I@Z 10046e20 f i QuickHullConvexHullLib.obj
 0001:00045ea0       ?allocate@?$Array@PAUQuickHullVertex@local@@VNamedAllocator@shdfnd@physx@@@shdfnd@physx@@IAEPAPAUQuickHullVertex@local@@I@Z 10046ea0 f i QuickHullConvexHullLib.obj
 0001:00045f20       ?allocate@?$Array@UExpandPoint@local@@VNamedAllocator@shdfnd@physx@@@shdfnd@physx@@IAEPAUExpandPoint@local@@I@Z 10046f20 f i QuickHullConvexHullLib.obj
 0001:00045fa0       ?allocate@?$ReflectionAllocator@VQuickHull@local@@@shdfnd@physx@@QAEPAXIPBDH@Z 10046fa0 f i QuickHullConvexHullLib.obj
 0001:00046000       ?capacity@?$Array@PAUQuickHullFace@local@@VNamedAllocator@shdfnd@physx@@@shdfnd@physx@@QBEIXZ 10047000 f i QuickHullConvexHullLib.obj
 0001:00046020       ?capacity@?$Array@PAUQuickHullHalfEdge@local@@VNamedAllocator@shdfnd@physx@@@shdfnd@physx@@QBEIXZ 10047020 f i QuickHullConvexHullLib.obj
 0001:00046040       ?capacity@?$Array@PAUQuickHullVertex@local@@VNamedAllocator@shdfnd@physx@@@shdfnd@physx@@QBEIXZ 10047040 f i QuickHullConvexHullLib.obj
 0001:00046060       ?capacity@?$Array@UExpandPoint@local@@VNamedAllocator@shdfnd@physx@@@shdfnd@physx@@QBEIXZ 10047060 f i QuickHullConvexHullLib.obj
 0001:00046080       ?capacityIncrement@?$Array@PAUQuickHullFace@local@@VNamedAllocator@shdfnd@physx@@@shdfnd@physx@@IBEIXZ 10047080 f i QuickHullConvexHullLib.obj
 0001:000460c0       ?capacityIncrement@?$Array@PAUQuickHullHalfEdge@local@@VNamedAllocator@shdfnd@physx@@@shdfnd@physx@@IBEIXZ 100470c0 f i QuickHullConvexHullLib.obj
 0001:00046100       ?capacityIncrement@?$Array@PAUQuickHullVertex@local@@VNamedAllocator@shdfnd@physx@@@shdfnd@physx@@IBEIXZ 10047100 f i QuickHullConvexHullLib.obj
 0001:00046140       ?capacityIncrement@?$Array@UExpandPoint@local@@VNamedAllocator@shdfnd@physx@@@shdfnd@physx@@IBEIXZ 10047140 f i QuickHullConvexHullLib.obj
 0001:00046180       ?clear@?$Array@PAUQuickHullFace@local@@VNamedAllocator@shdfnd@physx@@@shdfnd@physx@@QAEXXZ 10047180 f i QuickHullConvexHullLib.obj
 0001:000461c0       ?clear@?$Array@PAUQuickHullHalfEdge@local@@VNamedAllocator@shdfnd@physx@@@shdfnd@physx@@QAEXXZ 100471c0 f i QuickHullConvexHullLib.obj
 0001:00046200       ?clear@?$Array@PAUQuickHullVertex@local@@VNamedAllocator@shdfnd@physx@@@shdfnd@physx@@QAEXXZ 10047200 f i QuickHullConvexHullLib.obj
 0001:00046240       ?computeNormalAndCentroid@QuickHullFace@local@@QAEXXZ 10047240 f i QuickHullConvexHullLib.obj
 0001:000464c0       ?copy@?$Array@PAUQuickHullFace@local@@VNamedAllocator@shdfnd@physx@@@shdfnd@physx@@KAXPAPAUQuickHullFace@local@@0PBQAU45@@Z 100474c0 f i QuickHullConvexHullLib.obj
 0001:00046520       ?copy@?$Array@PAUQuickHullHalfEdge@local@@VNamedAllocator@shdfnd@physx@@@shdfnd@physx@@KAXPAPAUQuickHullHalfEdge@local@@0PBQAU45@@Z 10047520 f i QuickHullConvexHullLib.obj
 0001:00046580       ?copy@?$Array@PAUQuickHullVertex@local@@VNamedAllocator@shdfnd@physx@@@shdfnd@physx@@KAXPAPAUQuickHullVertex@local@@0PBQAU45@@Z 10047580 f i QuickHullConvexHullLib.obj
 0001:000465e0       ?copy@?$Array@UExpandPoint@local@@VNamedAllocator@shdfnd@physx@@@shdfnd@physx@@KAXPAUExpandPoint@local@@0PBU45@@Z 100475e0 f i QuickHullConvexHullLib.obj
 0001:00046640       ?deallocate@?$Array@PAUQuickHullFace@local@@VNamedAllocator@shdfnd@physx@@@shdfnd@physx@@IAEXPAX@Z 10047640 f i QuickHullConvexHullLib.obj
 0001:00046660       ?deallocate@?$Array@PAUQuickHullHalfEdge@local@@VNamedAllocator@shdfnd@physx@@@shdfnd@physx@@IAEXPAX@Z 10047660 f i QuickHullConvexHullLib.obj
 0001:00046680       ?deallocate@?$Array@PAUQuickHullVertex@local@@VNamedAllocator@shdfnd@physx@@@shdfnd@physx@@IAEXPAX@Z 10047680 f i QuickHullConvexHullLib.obj
 0001:000466a0       ?deallocate@?$Array@UExpandPoint@local@@VNamedAllocator@shdfnd@physx@@@shdfnd@physx@@IAEXPAX@Z 100476a0 f i QuickHullConvexHullLib.obj
 0001:000466c0       ?destroy@?$Array@PAUQuickHullFace@local@@VNamedAllocator@shdfnd@physx@@@shdfnd@physx@@KAXPAPAUQuickHullFace@local@@0@Z 100476c0 f i QuickHullConvexHullLib.obj
 0001:000466e0       ?destroy@?$Array@PAUQuickHullHalfEdge@local@@VNamedAllocator@shdfnd@physx@@@shdfnd@physx@@KAXPAPAUQuickHullHalfEdge@local@@0@Z 100476e0 f i QuickHullConvexHullLib.obj
 0001:00046700       ?destroy@?$Array@PAUQuickHullVertex@local@@VNamedAllocator@shdfnd@physx@@@shdfnd@physx@@KAXPAPAUQuickHullVertex@local@@0@Z 10047700 f i QuickHullConvexHullLib.obj
 0001:00046720       ?destroy@?$Array@UExpandPoint@local@@VNamedAllocator@shdfnd@physx@@@shdfnd@physx@@KAXPAUExpandPoint@local@@0@Z 10047720 f i QuickHullConvexHullLib.obj
 0001:00046740       ?distanceToPlane@QuickHullFace@local@@QBEMVPxVec3@physx@@@Z 10047740 f i QuickHullConvexHullLib.obj
 0001:00046790       ?getEdge@QuickHullFace@local@@QBEPAUQuickHullHalfEdge@2@I@Z 10047790 f i QuickHullConvexHullLib.obj
 0001:000467e0       ?getFreeHullFace@QuickHull@local@@IAEPAUQuickHullFace@2@XZ 100477e0 f i QuickHullConvexHullLib.obj
 0001:00046800       ?getFreeHullHalfEdge@QuickHull@local@@IAEPAUQuickHullHalfEdge@2@XZ 10047800 f i QuickHullConvexHullLib.obj
 0001:00046820       ?getFreeItem@?$MemBlock@UQuickHullFace@local@@$00@local@@QAEPAUQuickHullFace@2@XZ 10047820 f i QuickHullConvexHullLib.obj
 0001:00046a00       ?getFreeItem@?$MemBlock@UQuickHullHalfEdge@local@@$0A@@local@@QAEPAUQuickHullHalfEdge@2@XZ 10047a00 f i QuickHullConvexHullLib.obj
 0001:00046bd0       ?getHead@QuickHullHalfEdge@local@@QBEABUQuickHullVertex@2@XZ 10047bd0 f i QuickHullConvexHullLib.obj
 0001:00046c40       ?getItem@?$MemBlock@UQuickHullFace@local@@$00@local@@QAEPAUQuickHullFace@2@I@Z 10047c40 f i QuickHullConvexHullLib.obj
 0001:00046d30       ?getName@?$ReflectionAllocator@VQuickHull@local@@@shdfnd@physx@@CAPBDXZ 10047d30 f i QuickHullConvexHullLib.obj
 0001:00046d80       ?getNbHullVerts@QuickHull@local@@IAEIXZ 10047d80 f i QuickHullConvexHullLib.obj
 0001:00046da0       ?getOppositeFace@QuickHullHalfEdge@local@@QBEPAUQuickHullFace@2@XZ 10047da0 f i QuickHullConvexHullLib.obj
 0001:00046dc0       ?getTail@QuickHullHalfEdge@local@@QBEABUQuickHullVertex@2@XZ 10047dc0 f i QuickHullConvexHullLib.obj
 0001:00046de0       ?grow@?$Array@PAUQuickHullFace@local@@VNamedAllocator@shdfnd@physx@@@shdfnd@physx@@IAEXI@Z 10047de0 f i QuickHullConvexHullLib.obj
 0001:00046e60       ?grow@?$Array@PAUQuickHullHalfEdge@local@@VNamedAllocator@shdfnd@physx@@@shdfnd@physx@@IAEXI@Z 10047e60 f i QuickHullConvexHullLib.obj
 0001:00046ee0       ?grow@?$Array@PAUQuickHullVertex@local@@VNamedAllocator@shdfnd@physx@@@shdfnd@physx@@IAEXI@Z 10047ee0 f i QuickHullConvexHullLib.obj
 0001:00046f60       ?grow@?$Array@UExpandPoint@local@@VNamedAllocator@shdfnd@physx@@@shdfnd@physx@@IAEXI@Z 10047f60 f i QuickHullConvexHullLib.obj
 0001:00046fe0       ?growAndPushBack@?$Array@PAUQuickHullFace@local@@VNamedAllocator@shdfnd@physx@@@shdfnd@physx@@IAEAAPAUQuickHullFace@local@@ABQAU45@@Z 10047fe0 f i QuickHullConvexHullLib.obj
 0001:00047150       ?growAndPushBack@?$Array@PAUQuickHullHalfEdge@local@@VNamedAllocator@shdfnd@physx@@@shdfnd@physx@@IAEAAPAUQuickHullHalfEdge@local@@ABQAU45@@Z 10048150 f i QuickHullConvexHullLib.obj
 0001:000472c0       ?growAndPushBack@?$Array@PAUQuickHullVertex@local@@VNamedAllocator@shdfnd@physx@@@shdfnd@physx@@IAEAAPAUQuickHullVertex@local@@ABQAU45@@Z 100482c0 f i QuickHullConvexHullLib.obj
 0001:00047430       ?growAndPushBack@?$Array@UExpandPoint@local@@VNamedAllocator@shdfnd@physx@@@shdfnd@physx@@IAEAAUExpandPoint@local@@ABU45@@Z 10048430 f i QuickHullConvexHullLib.obj
 0001:000475a0       ?init@?$MemBlock@UQuickHullFace@local@@$00@local@@QAEXI@Z 100485a0 f i QuickHullConvexHullLib.obj
 0001:000476b0       ?init@?$MemBlock@UQuickHullHalfEdge@local@@$0A@@local@@QAEXI@Z 100486b0 f i QuickHullConvexHullLib.obj
 0001:000477c0       ?isInUserMemory@?$Array@PAUQuickHullFace@local@@VNamedAllocator@shdfnd@physx@@@shdfnd@physx@@QBEIXZ 100487c0 f i QuickHullConvexHullLib.obj
 0001:000477e0       ?isInUserMemory@?$Array@PAUQuickHullHalfEdge@local@@VNamedAllocator@shdfnd@physx@@@shdfnd@physx@@QBEIXZ 100487e0 f i QuickHullConvexHullLib.obj
 0001:00047800       ?isInUserMemory@?$Array@PAUQuickHullVertex@local@@VNamedAllocator@shdfnd@physx@@@shdfnd@physx@@QBEIXZ 10048800 f i QuickHullConvexHullLib.obj
 0001:00047820       ?isInUserMemory@?$Array@UExpandPoint@local@@VNamedAllocator@shdfnd@physx@@@shdfnd@physx@@QBEIXZ 10048820 f i QuickHullConvexHullLib.obj
 0001:00047840       ?isTriangle@QuickHullFace@local@@ABE_NXZ 10048840 f i QuickHullConvexHullLib.obj
 0001:00047870       ?pushBack@?$Array@PAUQuickHullFace@local@@VNamedAllocator@shdfnd@physx@@@shdfnd@physx@@QAEAAPAUQuickHullFace@local@@ABQAU45@@Z 10048870 f i QuickHullConvexHullLib.obj
 0001:00047910       ?pushBack@?$Array@PAUQuickHullHalfEdge@local@@VNamedAllocator@shdfnd@physx@@@shdfnd@physx@@QAEAAPAUQuickHullHalfEdge@local@@ABQAU45@@Z 10048910 f i QuickHullConvexHullLib.obj
 0001:000479b0       ?pushBack@?$Array@PAUQuickHullVertex@local@@VNamedAllocator@shdfnd@physx@@@shdfnd@physx@@QAEAAPAUQuickHullVertex@local@@ABQAU45@@Z 100489b0 f i QuickHullConvexHullLib.obj
 0001:00047a50       ?pushBack@?$Array@UExpandPoint@local@@VNamedAllocator@shdfnd@physx@@@shdfnd@physx@@QAEAAUExpandPoint@local@@ABU45@@Z 10048a50 f i QuickHullConvexHullLib.obj
 0001:00047af0       ?recreate@?$Array@PAUQuickHullFace@local@@VNamedAllocator@shdfnd@physx@@@shdfnd@physx@@IAEXI@Z 10048af0 f i QuickHullConvexHullLib.obj
 0001:00047c00       ?recreate@?$Array@PAUQuickHullHalfEdge@local@@VNamedAllocator@shdfnd@physx@@@shdfnd@physx@@IAEXI@Z 10048c00 f i QuickHullConvexHullLib.obj
 0001:00047d10       ?recreate@?$Array@PAUQuickHullVertex@local@@VNamedAllocator@shdfnd@physx@@@shdfnd@physx@@IAEXI@Z 10048d10 f i QuickHullConvexHullLib.obj
 0001:00047e20       ?recreate@?$Array@UExpandPoint@local@@VNamedAllocator@shdfnd@physx@@@shdfnd@physx@@IAEXI@Z 10048e20 f i QuickHullConvexHullLib.obj
 0001:00047f20       ?reserve@?$Array@PAUQuickHullFace@local@@VNamedAllocator@shdfnd@physx@@@shdfnd@physx@@QAEXI@Z 10048f20 f i QuickHullConvexHullLib.obj
 0001:00047f50       ?reserve@?$Array@PAUQuickHullHalfEdge@local@@VNamedAllocator@shdfnd@physx@@@shdfnd@physx@@QAEXI@Z 10048f50 f i QuickHullConvexHullLib.obj
 0001:00047f80       ?reserve@?$Array@PAUQuickHullVertex@local@@VNamedAllocator@shdfnd@physx@@@shdfnd@physx@@QAEXI@Z 10048f80 f i QuickHullConvexHullLib.obj
 0001:00047fb0       ?reserve@?$Array@UExpandPoint@local@@VNamedAllocator@shdfnd@physx@@@shdfnd@physx@@QAEXI@Z 10048fb0 f i QuickHullConvexHullLib.obj
 0001:00047fe0       ?reset@?$MemBlock@UQuickHullFace@local@@$00@local@@QAEXXZ 10048fe0 f i QuickHullConvexHullLib.obj
 0001:00048090       ?reset@?$MemBlock@UQuickHullHalfEdge@local@@$0A@@local@@QAEXXZ 10049090 f i QuickHullConvexHullLib.obj
 0001:00048140       ?setTwin@QuickHullHalfEdge@local@@QAEXPAU12@@Z 10049140 f i QuickHullConvexHullLib.obj
 0001:00048170       ?size@?$Array@PAUQuickHullFace@local@@VNamedAllocator@shdfnd@physx@@@shdfnd@physx@@QBEIXZ 10049170 f i QuickHullConvexHullLib.obj
 0001:00048190       ?size@?$Array@PAUQuickHullHalfEdge@local@@VNamedAllocator@shdfnd@physx@@@shdfnd@physx@@QBEIXZ 10049190 f i QuickHullConvexHullLib.obj
 0001:000481b0       ?size@?$Array@PAUQuickHullVertex@local@@VNamedAllocator@shdfnd@physx@@@shdfnd@physx@@QBEIXZ 100491b0 f i QuickHullConvexHullLib.obj
 0001:000481d0       ?size@?$Array@UExpandPoint@local@@VNamedAllocator@shdfnd@physx@@@shdfnd@physx@@QBEIXZ 100491d0 f i QuickHullConvexHullLib.obj
 0001:00048240       ?computeVolumeIntegrals@physx@@YA_NABVPxSimpleTriangleMesh@1@MAAUPxIntegrals@1@@Z 10049240 f   VolumeIntegration.obj
 0001:000482a0       ?computeVolumeIntegralsEberly@physx@@YA_NABVPxConvexMeshDesc@1@MAAUPxIntegrals@1@ABVPxVec3@1@@Z 100492a0 f   VolumeIntegration.obj
 0001:000482f0       ?computeVolumeIntegralsEberlySIMD@physx@@YA_NABVPxConvexMeshDesc@1@MAAUPxIntegrals@1@ABVPxVec3@1@@Z 100492f0 f   VolumeIntegration.obj
 0001:0004cd80       ??$swap@VPxVec3@physx@@@shdfnd@physx@@YAXAAVPxVec3@1@0@Z 1004dd80 f i VolumeIntegration.obj
 0001:0004cdc0       ??0PxSimpleTriangleMesh@physx@@QAE@XZ 1004ddc0 f i VolumeIntegration.obj
 0001:0004ce00       ??4?$PxFlags@W4Enum@PxMeshFlag@physx@@G@physx@@QAEAAV01@ABV01@@Z 1004de00 f i VolumeIntegration.obj
 0001:0004ce30       ??4PxSimpleTriangleMesh@physx@@QAEAAV01@ABV01@@Z 1004de30 f i VolumeIntegration.obj
 0001:0004cea0       ?FAllGrtr@aos@shdfnd@physx@@YAIT__m128@@0@Z 1004dea0 f i VolumeIntegration.obj
 0001:0004cf90       ?V4Cross@aos@shdfnd@physx@@YA?AT__m128@@T4@0@Z 1004df90 f i VolumeIntegration.obj
 0001:0004d090       ?V4Dot3@aos@shdfnd@physx@@YA?AT__m128@@T4@0@Z 1004e090 f i VolumeIntegration.obj
 0001:0004d170       ?V4PermYZXW@aos@shdfnd@physx@@YA?AT__m128@@T4@@Z 1004e170 f i VolumeIntegration.obj
 0001:0004d1c0       ?V4ScaleInv@aos@shdfnd@physx@@YA?AT__m128@@T4@0@Z 1004e1c0 f i VolumeIntegration.obj
 0001:0004d260       ?Vec4V_From_PxVec3_WUndefined@aos@shdfnd@physx@@YA?AT__m128@@ABVPxVec3@3@@Z 1004e260 f i VolumeIntegration.obj
 0001:0004d2c0       ?isZero@PxVec3@physx@@QBE_NXZ 1004e2c0 f i VolumeIntegration.obj
 0001:0004d700       ?ComputeNbBoundaryEdges@AdjTriangle@physx@@QBEIXZ 1004e700 f   Adjacencies.obj
 0001:0004d790       ?ComputeNbNeighbors@AdjTriangle@physx@@QBEIXZ 1004e790 f   Adjacencies.obj
 0001:0004d820       ?HasNeighbor@AdjTriangle@physx@@QBE_NIPAI@Z 1004e820 f   Adjacencies.obj
 0001:0004d910       ?Flip@AdjTriangle@physx@@QAEXXZ 1004e910 f   Adjacencies.obj
 0001:0004d940       ??0Adjacencies@physx@@QAE@XZ 1004e940 f   Adjacencies.obj
 0001:0004d970       ??1Adjacencies@physx@@QAE@XZ 1004e970 f   Adjacencies.obj
 0001:0004d9c0       ?Load@Adjacencies@physx@@QAE_NAAVPxInputStream@2@@Z 1004e9c0 f   Adjacencies.obj
 0001:0004dac0       ?ComputeNbBoundaryEdges@Adjacencies@physx@@QBEIXZ 1004eac0 f   Adjacencies.obj
 0001:0004db20       ?GetBoundaryVertices@Adjacencies@physx@@QBE_NIPA_NPBU?$TriangleT@I@Gu@2@@Z 1004eb20 f   Adjacencies.obj
 0001:0004dd30       ?MakeLastRef@Adjacencies@physx@@QAE_NAAVAdjTriangle@2@IPAU?$TriangleT@I@Gu@2@@Z 1004ed30 f   Adjacencies.obj
 0001:0004dfb0       ?AssignNewEdgeCode@Adjacencies@physx@@AAEXIE@Z 1004efb0 f   Adjacencies.obj
 0001:0004e030       ??0AdjacenciesBuilder@physx@@QAE@XZ 1004f030 f   Adjacencies.obj
 0001:0004e050       ??1AdjacenciesBuilder@physx@@QAE@XZ 1004f050 f   Adjacencies.obj
 0001:0004e070       ?Init@AdjacenciesBuilder@physx@@QAE_NABUADJACENCIESCREATE@2@@Z 1004f070 f   Adjacencies.obj
 0001:0004f2d0       ??$?_UV?$ReflectionAllocator@VAdjEdge@@@shdfnd@physx@@@UserAllocated@shdfnd@physx@@SAPAXIV?$ReflectionAllocator@VAdjEdge@@@12@PBDH@Z 100502d0 f i Adjacencies.obj
 0001:0004f2f0       ??$?_UV?$ReflectionAllocator@VAdjTriangle@physx@@@shdfnd@physx@@@UserAllocated@shdfnd@physx@@SAPAXIV?$ReflectionAllocator@VAdjTriangle@physx@@@12@PBDH@Z 100502f0 f i Adjacencies.obj
 0001:0004f310       ??0?$ReflectionAllocator@VAdjEdge@@@shdfnd@physx@@QAE@PBD@Z 10050310 f i Adjacencies.obj
 0001:0004f330       ??0?$ReflectionAllocator@VAdjTriangle@physx@@@shdfnd@physx@@QAE@PBD@Z 10050330 f i Adjacencies.obj
 0001:0004f350       ??0?$TriangleT@I@Gu@physx@@QAE@XZ 10050350 f i Adjacencies.obj
 0001:0004f370       ??0AdjEdge@@QAE@XZ         10050370 f i Adjacencies.obj
 0001:0004f390       ??0AdjTriangle@physx@@QAE@XZ 10050390 f i Adjacencies.obj
 0001:0004f3b0       ??1AdjEdge@@QAE@XZ         100503b0 f i Adjacencies.obj
 0001:0004f3c0       ??1AdjTriangle@physx@@QAE@XZ 100503c0 f i Adjacencies.obj
 0001:0004f3d0       ??_EAdjEdge@@QAEPAXI@Z     100503d0 f i Adjacencies.obj
 0001:0004f4b0       ??_EAdjTriangle@physx@@QAEPAXI@Z 100504b0 f i Adjacencies.obj
 0001:0004f590       ??_I@YGXPAXIIP6EX0@Z@Z     10050590 f i Adjacencies.obj
 0001:0004f600       ??_VUserAllocated@shdfnd@physx@@SAXPAX@Z 10050600 f i Adjacencies.obj
 0001:0004f630       ?allocate@?$ReflectionAllocator@VAdjEdge@@@shdfnd@physx@@QAEPAXIPBDH@Z 10050630 f i Adjacencies.obj
 0001:0004f690       ?allocate@?$ReflectionAllocator@VAdjTriangle@physx@@@shdfnd@physx@@QAEPAXIPBDH@Z 10050690 f i Adjacencies.obj
 0001:0004f6f0       ?findEdge@?$TriangleT@I@Gu@physx@@QBEEII@Z 100506f0 f i Adjacencies.obj
 0001:0004f860       ?getName@?$ReflectionAllocator@VAdjEdge@@@shdfnd@physx@@CAPBDXZ 10050860 f i Adjacencies.obj
 0001:0004f8b0       ?getName@?$ReflectionAllocator@VAdjTriangle@physx@@@shdfnd@physx@@CAPBDXZ 100508b0 f i Adjacencies.obj
 0001:0004f900       _PxCreateCooking           10050900 f   Cooking.obj
 0001:0004f9b0       ?release@Cooking@physx@@UAEXXZ 100509b0 f   Cooking.obj
 0001:0004f9f0       ?setParams@Cooking@physx@@UAEXABUPxCookingParams@2@@Z 100509f0 f   Cooking.obj
 0001:0004fa10       ?getParams@Cooking@physx@@UBEABUPxCookingParams@2@XZ 10050a10 f   Cooking.obj
 0001:0004fa30       ?platformMismatch@Cooking@physx@@UBE_NXZ 10050a30 f   Cooking.obj
 0001:0004fab0       ?cookTriangleMesh@Cooking@physx@@UBE_NABVPxTriangleMeshDesc@2@AAVPxOutputStream@2@PAW4Enum@PxTriangleMeshCookingResult@2@@Z 10050ab0 f   Cooking.obj
 0001:0004fb80       ?createTriangleMesh@Cooking@physx@@UBEPAVPxTriangleMesh@2@ABVPxTriangleMeshDesc@2@AAVPxPhysicsInsertionCallback@2@PAW4Enum@PxTriangleMeshCookingResult@2@@Z 10050b80 f   Cooking.obj
 0001:0004fc50       ?validateTriangleMesh@Cooking@physx@@UBE_NABVPxTriangleMeshDesc@2@@Z 10050c50 f   Cooking.obj
 0001:0004fcf0       ?cookConvexMesh@Cooking@physx@@UBE_NABVPxConvexMeshDesc@2@AAVPxOutputStream@2@PAW4Enum@PxConvexMeshCookingResult@2@@Z 10050cf0 f   Cooking.obj
 0001:0004ffb0       ?createConvexMesh@Cooking@physx@@UBEPAVPxConvexMesh@2@ABVPxConvexMeshDesc@2@AAVPxPhysicsInsertionCallback@2@PAW4Enum@PxConvexMeshCookingResult@2@@Z 10050fb0 f   Cooking.obj
 0001:00050310       ?validateConvexMesh@Cooking@physx@@UBE_NABVPxConvexMeshDesc@2@@Z 10051310 f   Cooking.obj
 0001:00050360       ?computeHullPolygons@Cooking@physx@@UBE_NABVPxSimpleTriangleMesh@2@AAVPxAllocatorCallback@2@AAIAAPAVPxVec3@2@2AAPAI2AAPAUPxHullPolygon@2@@Z 10051360 f   Cooking.obj
 0001:00050520       ?cookHeightField@Cooking@physx@@UBE_NABVPxHeightFieldDesc@2@AAVPxOutputStream@2@@Z 10051520 f   Cooking.obj
 0001:00050650       ?createHeightField@Cooking@physx@@UBEPAVPxHeightField@2@ABVPxHeightFieldDesc@2@AAVPxPhysicsInsertionCallback@2@@Z 10051650 f   Cooking.obj
 0001:00050850       ?cookConvexMeshInternal@Cooking@physx@@ABE_NABVPxConvexMeshDesc@2@AAVConvexMeshBuilder@2@PAVConvexHullLib@2@PAW4Enum@PxConvexMeshCookingResult@2@@Z 10051850 f   Cooking.obj
 0001:00050a80       ?cookTriangleMesh@Cooking@physx@@ABE_NAAVTriangleMeshBuilder@2@ABVPxTriangleMeshDesc@2@AAVPxOutputStream@2@PAW4Enum@PxTriangleMeshCookingResult@2@@Z 10051a80 f   Cooking.obj
 0001:00050b10       ?createTriangleMesh@Cooking@physx@@ABEPAVPxTriangleMesh@2@AAVTriangleMeshBuilder@2@ABVPxTriangleMeshDesc@2@AAVPxPhysicsInsertionCallback@2@PAW4Enum@PxTriangleMeshCookingResult@2@@Z 10051b10 f   Cooking.obj
 0001:00051090       ??$?2V?$ReflectionAllocator@VCooking@physx@@@shdfnd@physx@@@UserAllocated@shdfnd@physx@@SAPAXIV?$ReflectionAllocator@VCooking@physx@@@12@PBDH@Z 10052090 f i Cooking.obj
 0001:000510b0       ??$?2V?$ReflectionAllocator@VInflationConvexHullLib@physx@@@shdfnd@physx@@@UserAllocated@shdfnd@physx@@SAPAXIV?$ReflectionAllocator@VInflationConvexHullLib@physx@@@12@PBDH@Z 100520b0 f i Cooking.obj
 0001:000510d0       ??$?2V?$ReflectionAllocator@VQuickHullConvexHullLib@physx@@@shdfnd@physx@@@UserAllocated@shdfnd@physx@@SAPAXIV?$ReflectionAllocator@VQuickHullConvexHullLib@physx@@@12@PBDH@Z 100520d0 f i Cooking.obj
 0001:000510f0       ??$PX_UNUSED@VPxFoundation@physx@@@@YAXABVPxFoundation@physx@@@Z 100520f0 f i Cooking.obj
 0001:00051100       ??$PxMin@G@physx@@YAGGG@Z  10052100 f i Cooking.obj
 0001:00051140       ??0?$PxBitAndDataT@I$0IAAAAAAA@@physx@@QAE@I_N@Z 10052140 f i Cooking.obj
 0001:00051190       ??0?$PxFlags@W4Enum@PxConvexFlag@physx@@G@physx@@QAE@W4Enum@PxConvexFlag@1@@Z 10052190 f i Cooking.obj
 0001:000511b0       ??0?$PxFlags@W4Enum@PxHeightFieldFlag@physx@@G@physx@@QAE@ABV01@@Z 100521b0 f i Cooking.obj
 0001:000511e0       ??0?$ReflectionAllocator@VCooking@physx@@@shdfnd@physx@@QAE@PBD@Z 100521e0 f i Cooking.obj
 0001:00051200       ??0?$ReflectionAllocator@VHeightField@Gu@physx@@@shdfnd@physx@@QAE@PBD@Z 10052200 f i Cooking.obj
 0001:00051220       ??0?$ReflectionAllocator@VInflationConvexHullLib@physx@@@shdfnd@physx@@QAE@PBD@Z 10052220 f i Cooking.obj
 0001:00051240       ??0?$ReflectionAllocator@VQuickHullConvexHullLib@physx@@@shdfnd@physx@@QAE@PBD@Z 10052240 f i Cooking.obj
 0001:00051260       ??0Cooking@physx@@QAE@ABUPxCookingParams@1@@Z 10052260 f i Cooking.obj
 0001:000512a0       ??0PxConvexMeshDesc@physx@@QAE@ABV01@@Z 100522a0 f i Cooking.obj
 0001:00051350       ??0PxCooking@physx@@QAE@XZ 10052350 f i Cooking.obj
 0001:00051370       ??0PxCookingParams@physx@@QAE@ABU01@@Z 10052370 f i Cooking.obj
 0001:000514a0       ??1Cooking@physx@@UAE@XZ   100524a0 f i Cooking.obj
 0001:000514c0       ??1PxCooking@physx@@MAE@XZ 100524c0 f i Cooking.obj
 0001:000514e0       ??4?$PxFlags@W4Enum@PxMeshPreprocessingFlag@physx@@I@physx@@QAEAAV01@ABV01@@Z 100524e0 f i Cooking.obj
 0001:00051500       ??4PxCookingParams@physx@@QAEAAU01@ABU01@@Z 10052500 f i Cooking.obj
 0001:00051630       ??9?$PxFlags@W4Enum@PxHeightFieldFlag@physx@@G@physx@@QBE_NABV01@@Z 10052630 f i Cooking.obj
 0001:00051670       ??I?$PxFlags@W4Enum@PxHeightFieldFlag@physx@@G@physx@@QBE?AV01@W4Enum@PxHeightFieldFlag@1@@Z 10052670 f i Cooking.obj
 0001:000516c0       ??S?$PxFlags@W4Enum@PxConvexFlag@physx@@G@physx@@QBE?AV01@XZ 100526c0 f i Cooking.obj
 0001:00051700       ??Sphysx@@YA?AV?$PxFlags@W4Enum@PxConvexFlag@physx@@G@0@W4Enum@PxConvexFlag@0@@Z 10052700 f i Cooking.obj
 0001:00051730       ??_4?$PxFlags@W4Enum@PxConvexFlag@physx@@G@physx@@QAEAAV01@ABV01@@Z 10052730 f i Cooking.obj
 0001:00051760       ??_GCooking@physx@@UAEPAXI@Z 10052760 f i Cooking.obj
 0001:00051760       ??_ECooking@physx@@UAEPAXI@Z 10052760 f i Cooking.obj
 0001:000517c0       ??_GPxCooking@physx@@MAEPAXI@Z 100527c0 f i Cooking.obj
 0001:000517c0       ??_EPxCooking@physx@@MAEPAXI@Z 100527c0 f i Cooking.obj
 0001:00051800       ?allocate@?$ReflectionAllocator@VCooking@physx@@@shdfnd@physx@@QAEPAXIPBDH@Z 10052800 f i Cooking.obj
 0001:00051860       ?allocate@?$ReflectionAllocator@VHeightField@Gu@physx@@@shdfnd@physx@@QAEPAXIPBDH@Z 10052860 f i Cooking.obj
 0001:000518c0       ?allocate@?$ReflectionAllocator@VInflationConvexHullLib@physx@@@shdfnd@physx@@QAEPAXIPBDH@Z 100528c0 f i Cooking.obj
 0001:00051920       ?allocate@?$ReflectionAllocator@VQuickHullConvexHullLib@physx@@@shdfnd@physx@@QAEPAXIPBDH@Z 10052920 f i Cooking.obj
 0001:00051980       ?getBigConvexData@ConvexMeshBuilder@physx@@QBEPAVBigConvexData@2@XZ 10052980 f i Cooking.obj
 0001:000519a0       ?getInertia@ConvexMeshBuilder@physx@@QBEABVPxMat33@2@XZ 100529a0 f i Cooking.obj
 0001:000519c0       ?getMass@ConvexMeshBuilder@physx@@QBEMXZ 100529c0 f i Cooking.obj
 0001:000519e0       ?getMeshData@TriangleMeshBuilder@physx@@QAEAAVTriangleMeshData@Gu@2@XZ 100529e0 f i Cooking.obj
 0001:00051a00       ?getName@?$ReflectionAllocator@VCooking@physx@@@shdfnd@physx@@CAPBDXZ 10052a00 f i Cooking.obj
 0001:00051a50       ?getName@?$ReflectionAllocator@VHeightField@Gu@physx@@@shdfnd@physx@@CAPBDXZ 10052a50 f i Cooking.obj
 0001:00051aa0       ?getName@?$ReflectionAllocator@VInflationConvexHullLib@physx@@@shdfnd@physx@@CAPBDXZ 10052aa0 f i Cooking.obj
 0001:00051af0       ?getName@?$ReflectionAllocator@VQuickHullConvexHullLib@physx@@@shdfnd@physx@@CAPBDXZ 10052af0 f i Cooking.obj
 0001:00051b40       ?isValid@PxHeightFieldDesc@physx@@QBE_NXZ 10052b40 f i Cooking.obj
 0001:00051c10       ?littleEndian@shdfnd@physx@@YADXZ 10052c10 f i Cooking.obj
 0001:00051c30       ?setBigConvexData@ConvexMesh@Gu@physx@@QAEXPAVBigConvexData@3@@Z 10052c30 f i Cooking.obj
 0001:00051c50       ?setBigConvexData@ConvexMeshBuilder@physx@@QAEXPAVBigConvexData@2@@Z 10052c50 f i Cooking.obj
 0001:00051c70       ?setInertia@ConvexMesh@Gu@physx@@QAEXABVPxMat33@3@@Z 10052c70 f i Cooking.obj
 0001:00051ca0       ?setMass@ConvexMesh@Gu@physx@@QAEXM@Z 10052ca0 f i Cooking.obj
 0001:00051cc0       ?setNb@ConvexMesh@Gu@physx@@QAEXI@Z 10052cc0 f i Cooking.obj
 0001:00051cf0       ??0ReducedVertexCloud@physx@@QAE@PBVPxVec3@1@I@Z 10052cf0 f   CookingUtils.obj
 0001:00051d30       ??1ReducedVertexCloud@physx@@QAE@XZ 10052d30 f   CookingUtils.obj
 0001:00051d50       ?Clean@ReducedVertexCloud@physx@@QAEAAV12@XZ 10052d50 f   CookingUtils.obj
 0001:00051db0       ?Reduce@ReducedVertexCloud@physx@@QAE_NPAUREDUCEDCLOUD@2@@Z 10052db0 f   CookingUtils.obj
 0001:000521d0       ??$?_UM@@YAPAXIV?$ReflectionAllocator@M@shdfnd@physx@@PBDH@Z 100531d0 f i CookingUtils.obj
 0001:000521f0       ??0?$ReflectionAllocator@M@shdfnd@physx@@QAE@PBD@Z 100531f0 f i CookingUtils.obj
 0001:00052210       ?allocate@?$ReflectionAllocator@M@shdfnd@physx@@QAEPAXIPBDH@Z 10053210 f i CookingUtils.obj
 0001:00052270       ?getName@?$ReflectionAllocator@M@shdfnd@physx@@CAPBDXZ 10053270 f i CookingUtils.obj
 0001:000522c0       ??0EdgeList@Gu@physx@@QAE@XZ 100532c0 f   EdgeList.obj
 0001:00052300       ??1EdgeList@Gu@physx@@QAE@XZ 10053300 f   EdgeList.obj
 0001:000523a0       ?load@EdgeList@Gu@physx@@QAE_NAAVPxInputStream@3@@Z 100533a0 f   EdgeList.obj
 0001:00052570       ??0EdgeListBuilder@Gu@physx@@QAE@XZ 10053570 f   EdgeList.obj
 0001:00052590       ??1EdgeListBuilder@Gu@physx@@QAE@XZ 10053590 f   EdgeList.obj
 0001:000525b0       ?init@EdgeListBuilder@Gu@physx@@QAE_NABUEDGELISTCREATE@23@@Z 100535b0 f   EdgeList.obj
 0001:00052730       ?createFacesToEdges@EdgeListBuilder@Gu@physx@@AAE_NIPBIPBG@Z 10053730 f   EdgeList.obj
 0001:00052c20       ?createEdgesToFaces@EdgeListBuilder@Gu@physx@@AAE_NIPBIPBG@Z 10053c20 f   EdgeList.obj
 0001:00053030       ?computeActiveEdges@EdgeListBuilder@Gu@physx@@AAE_NIPBIPBGPBVPxVec3@3@M@Z 10054030 f   EdgeList.obj
 0001:00054ad0       ??$?_UUEdgeData@Gu@physx@@@@YAPAXIV?$ReflectionAllocator@UEdgeData@Gu@physx@@@shdfnd@physx@@PBDH@Z 10055ad0 f i EdgeList.obj
 0001:00054af0       ??$?_UUEdgeTriangleData@Gu@physx@@@@YAPAXIV?$ReflectionAllocator@UEdgeTriangleData@Gu@physx@@@shdfnd@physx@@PBDH@Z 10055af0 f i EdgeList.obj
 0001:00054b10       ??0?$ReflectionAllocator@UEdgeData@Gu@physx@@@shdfnd@physx@@QAE@PBD@Z 10055b10 f i EdgeList.obj
 0001:00054b30       ??0?$ReflectionAllocator@UEdgeTriangleData@Gu@physx@@@shdfnd@physx@@QAE@PBD@Z 10055b30 f i EdgeList.obj
 0001:00054b50       ??0PxTriangle@physx@@QAE@ABVPxVec3@1@00@Z 10055b50 f i EdgeList.obj
 0001:00054bd0       ??1PxTriangle@physx@@QAE@XZ 10055bd0 f i EdgeList.obj
 0001:00054be0       ?PxAtan2@physx@@YAMMM@Z    10055be0 f i EdgeList.obj
 0001:00054c10       ?allocate@?$ReflectionAllocator@UEdgeData@Gu@physx@@@shdfnd@physx@@QAEPAXIPBDH@Z 10055c10 f i EdgeList.obj
 0001:00054c70       ?allocate@?$ReflectionAllocator@UEdgeTriangleData@Gu@physx@@@shdfnd@physx@@QAEPAXIPBDH@Z 10055c70 f i EdgeList.obj
 0001:00054cd0       ?angle@shdfnd@physx@@YAMABVPxVec3@2@0@Z 10055cd0 f i EdgeList.obj
 0001:00054d40       ?getName@?$ReflectionAllocator@UEdgeData@Gu@physx@@@shdfnd@physx@@CAPBDXZ 10055d40 f i EdgeList.obj
 0001:00054d90       ?getName@?$ReflectionAllocator@UEdgeTriangleData@Gu@physx@@@shdfnd@physx@@CAPBDXZ 10055d90 f i EdgeList.obj
 0001:00054de0       ?normal@PxTriangle@physx@@QBEXAAVPxVec3@2@@Z 10055de0 f i EdgeList.obj
 0001:00054e70       _atan2f                    10055e70 f i EdgeList.obj
 0001:00054eb0       ??0MeshCleaner@physx@@QAE@IPBVPxVec3@1@IPBIM@Z 10055eb0 f   MeshCleaner.obj
 0001:000556f0       ??1MeshCleaner@physx@@QAE@XZ 100566f0 f   MeshCleaner.obj
 0001:00055bc0       ??9Indices@@QBE_NABU0@@Z   10056bc0 f i MeshCleaner.obj
 0001:00055c60       ??9PxVec3@physx@@QBE_NABV01@@Z 10056c60 f i MeshCleaner.obj
 0001:00055ce0       ?PxFloor@physx@@YAMM@Z     10056ce0 f i MeshCleaner.obj
 0001:00055d00       ?nextPowerOfTwo@shdfnd@physx@@YAII@Z 10056d00 f i MeshCleaner.obj
 0001:00055d60       _floorf                    10056d60 f i MeshCleaner.obj
 0001:00055d90       ?createQuantizer@physx@@YAPAVQuantizer@1@XZ 10056d90 f   Quantizer.obj
 0001:00055df0       ?kmeans_cluster3d@@YAIPBVPxVec3@physx@@IIPAV12@PAIMM@Z 10056df0 f   Quantizer.obj
 0001:00055e50       ??$?2V?$ReflectionAllocator@VQuantizerImpl@@@shdfnd@physx@@@UserAllocated@shdfnd@physx@@SAPAXIV?$ReflectionAllocator@VQuantizerImpl@@@12@PBDH@Z 10056e50 f i Quantizer.obj
 0001:00055e70       ??$kmeans_cluster@VPxVec3@physx@@M@@YAIPBVPxVec3@physx@@IIPAV01@PAIMM@Z 10056e70 f i Quantizer.obj
 0001:00056460       ??0?$ReflectionAllocator@VQuantizerImpl@@@shdfnd@physx@@QAE@PBD@Z 10057460 f i Quantizer.obj
 0001:00056480       ??0Quantizer@physx@@QAE@XZ 10057480 f i Quantizer.obj
 0001:000564a0       ??0QuantizerImpl@@QAE@XZ   100574a0 f i Quantizer.obj
 0001:000565c0       ??1Quantizer@physx@@MAE@XZ 100575c0 f i Quantizer.obj
 0001:000565e0       ??1QuantizerImpl@@EAE@XZ   100575e0 f i Quantizer.obj
 0001:00056620       ??_EQuantizer@physx@@MAEPAXI@Z 10057620 f i Quantizer.obj
 0001:00056620       ??_GQuantizer@physx@@MAEPAXI@Z 10057620 f i Quantizer.obj
 0001:00056660       ??_GQuantizerImpl@@EAEPAXI@Z 10057660 f i Quantizer.obj
 0001:00056660       ??_EQuantizerImpl@@EAEPAXI@Z 10057660 f i Quantizer.obj
 0001:000566c0       ?allocate@?$ReflectionAllocator@VQuantizerImpl@@@shdfnd@physx@@QAEPAXIPBDH@Z 100576c0 f i Quantizer.obj
 0001:00056720       ?clear@?$Array@VPxVec3@physx@@VNamedAllocator@shdfnd@2@@shdfnd@physx@@QAEXXZ 10057720 f i Quantizer.obj
 0001:00056760       ?getDenormalizeCenter@QuantizerImpl@@UBEABVPxVec3@physx@@XZ 10057760 f i Quantizer.obj
 0001:00056780       ?getDenormalizeScale@QuantizerImpl@@UBEABVPxVec3@physx@@XZ 10057780 f i Quantizer.obj
 0001:000567a0       ?getName@?$ReflectionAllocator@VQuantizerImpl@@@shdfnd@physx@@CAPBDXZ 100577a0 f i Quantizer.obj
 0001:000567f0       ?kmeansQuantize3D@QuantizerImpl@@UAEPBVPxVec3@physx@@IPBV23@I_NIAAI@Z 100577f0 f i Quantizer.obj
 0001:00056a60       ?normalizeInput@QuantizerImpl@@AAEXIPBVPxVec3@physx@@I@Z 10057a60 f i Quantizer.obj
 0001:00056cc0       ?release@QuantizerImpl@@UAEXXZ 10057cc0 f i Quantizer.obj
 0001:00056d08       _LoadLibraryA@4            10057d08 f   kernel32:KERNEL32.dll
 0001:00056d0e       __imp_load_?PxGetAssertHandler@physx@@YAAAVPxAssertHandler@1@XZ 10057d0e f   PxFoundationDEBUG_x86:PxFoundationDEBUG_x86.dll
 0001:00056d18       ?PxGetAssertHandler@physx@@YAAAVPxAssertHandler@1@XZ 10057d18 f   PxFoundationDEBUG_x86:PxFoundationDEBUG_x86.dll
 0001:00056d1e       __tailMerge_pxfoundationdebug_x86_dll 10057d1e     PxFoundationDEBUG_x86:PxFoundationDEBUG_x86.dll
 0001:00056d2f       __imp_load_?getAllocator@shdfnd@physx@@YAAAVPxAllocatorCallback@2@XZ 10057d2f f   PxFoundationDEBUG_x86:PxFoundationDEBUG_x86.dll
 0001:00056d39       ?getAllocator@shdfnd@physx@@YAAAVPxAllocatorCallback@2@XZ 10057d39 f   PxFoundationDEBUG_x86:PxFoundationDEBUG_x86.dll
 0001:00056d3f       __imp_load_??0NamedAllocator@shdfnd@physx@@QAE@PBD@Z 10057d3f f   PxFoundationDEBUG_x86:PxFoundationDEBUG_x86.dll
 0001:00056d49       ??0NamedAllocator@shdfnd@physx@@QAE@PBD@Z 10057d49 f   PxFoundationDEBUG_x86:PxFoundationDEBUG_x86.dll
 0001:00056d4f       __imp_load_??0NamedAllocator@shdfnd@physx@@QAE@ABV012@@Z 10057d4f f   PxFoundationDEBUG_x86:PxFoundationDEBUG_x86.dll
 0001:00056d59       ??0NamedAllocator@shdfnd@physx@@QAE@ABV012@@Z 10057d59 f   PxFoundationDEBUG_x86:PxFoundationDEBUG_x86.dll
 0001:00056d5f       __imp_load_??1NamedAllocator@shdfnd@physx@@QAE@XZ 10057d5f f   PxFoundationDEBUG_x86:PxFoundationDEBUG_x86.dll
 0001:00056d69       ??1NamedAllocator@shdfnd@physx@@QAE@XZ 10057d69 f   PxFoundationDEBUG_x86:PxFoundationDEBUG_x86.dll
 0001:00056d6f       __imp_load_?allocate@NamedAllocator@shdfnd@physx@@QAEPAXIPBDH@Z 10057d6f f   PxFoundationDEBUG_x86:PxFoundationDEBUG_x86.dll
 0001:00056d79       ?allocate@NamedAllocator@shdfnd@physx@@QAEPAXIPBDH@Z 10057d79 f   PxFoundationDEBUG_x86:PxFoundationDEBUG_x86.dll
 0001:00056d7f       __imp_load_?deallocate@NamedAllocator@shdfnd@physx@@QAEXPAX@Z 10057d7f f   PxFoundationDEBUG_x86:PxFoundationDEBUG_x86.dll
 0001:00056d89       ?deallocate@NamedAllocator@shdfnd@physx@@QAEXPAX@Z 10057d89 f   PxFoundationDEBUG_x86:PxFoundationDEBUG_x86.dll
 0001:00056d8f       __imp_load_?allocate@TempAllocator@shdfnd@physx@@QAEPAXIPBDH@Z 10057d8f f   PxFoundationDEBUG_x86:PxFoundationDEBUG_x86.dll
 0001:00056d99       ?allocate@TempAllocator@shdfnd@physx@@QAEPAXIPBDH@Z 10057d99 f   PxFoundationDEBUG_x86:PxFoundationDEBUG_x86.dll
 0001:00056d9f       __imp_load_?deallocate@TempAllocator@shdfnd@physx@@QAEXPAX@Z 10057d9f f   PxFoundationDEBUG_x86:PxFoundationDEBUG_x86.dll
 0001:00056da9       ?deallocate@TempAllocator@shdfnd@physx@@QAEXPAX@Z 10057da9 f   PxFoundationDEBUG_x86:PxFoundationDEBUG_x86.dll
 0001:00056daf       __imp_load__PxGetFoundation 10057daf f   PxFoundationDEBUG_x86:PxFoundationDEBUG_x86.dll
 0001:00056db9       _PxGetFoundation           10057db9 f   PxFoundationDEBUG_x86:PxFoundationDEBUG_x86.dll
 0001:00056dbf       __imp_load_?getInstance@Foundation@shdfnd@physx@@SAAAV123@XZ 10057dbf f   PxFoundationDEBUG_x86:PxFoundationDEBUG_x86.dll
 0001:00056dc9       ?getInstance@Foundation@shdfnd@physx@@SAAAV123@XZ 10057dc9 f   PxFoundationDEBUG_x86:PxFoundationDEBUG_x86.dll
 0001:00056dcf       __imp_load_?error@Foundation@shdfnd@physx@@QAAXW4Enum@PxErrorCode@3@PBDH1ZZ 10057dcf f   PxFoundationDEBUG_x86:PxFoundationDEBUG_x86.dll
 0001:00056dd9       ?error@Foundation@shdfnd@physx@@QAAXW4Enum@PxErrorCode@3@PBDH1ZZ 10057dd9 f   PxFoundationDEBUG_x86:PxFoundationDEBUG_x86.dll
 0001:00056ddf       __imp_load_?PxDiagonalize@physx@@YA?AVPxVec3@1@ABVPxMat33@1@AAVPxQuat@1@@Z 10057ddf f   PxFoundationDEBUG_x86:PxFoundationDEBUG_x86.dll
 0001:00056de9       ?PxDiagonalize@physx@@YA?AVPxVec3@1@ABVPxMat33@1@AAVPxQuat@1@@Z 10057de9 f   PxFoundationDEBUG_x86:PxFoundationDEBUG_x86.dll
 0001:00056def       __imp_load_?incRefCount@Foundation@shdfnd@physx@@SAXXZ 10057def f   PxFoundationDEBUG_x86:PxFoundationDEBUG_x86.dll
 0001:00056df9       ?incRefCount@Foundation@shdfnd@physx@@SAXXZ 10057df9 f   PxFoundationDEBUG_x86:PxFoundationDEBUG_x86.dll
 0001:00056dff       __imp_load_?decRefCount@Foundation@shdfnd@physx@@SAXXZ 10057dff f   PxFoundationDEBUG_x86:PxFoundationDEBUG_x86.dll
 0001:00056e09       ?decRefCount@Foundation@shdfnd@physx@@SAXXZ 10057e09 f   PxFoundationDEBUG_x86:PxFoundationDEBUG_x86.dll
 0001:00056e0f       __imp_load_??0FPUGuard@shdfnd@physx@@QAE@XZ 10057e0f f   PxFoundationDEBUG_x86:PxFoundationDEBUG_x86.dll
 0001:00056e19       ??0FPUGuard@shdfnd@physx@@QAE@XZ 10057e19 f   PxFoundationDEBUG_x86:PxFoundationDEBUG_x86.dll
 0001:00056e1f       __imp_load_??1FPUGuard@shdfnd@physx@@QAE@XZ 10057e1f f   PxFoundationDEBUG_x86:PxFoundationDEBUG_x86.dll
 0001:00056e29       ??1FPUGuard@shdfnd@physx@@QAE@XZ 10057e29 f   PxFoundationDEBUG_x86:PxFoundationDEBUG_x86.dll
 0001:00056e2f       __imp_load_?writeWord@physx@@YAXG_NAAVPxOutputStream@1@@Z 10057e2f f   PhysX3CommonDEBUG_x86:PhysX3CommonDEBUG_x86.dll
 0001:00056e39       ?writeWord@physx@@YAXG_NAAVPxOutputStream@1@@Z 10057e39 f   PhysX3CommonDEBUG_x86:PhysX3CommonDEBUG_x86.dll
 0001:00056e3f       __tailMerge_physx3commondebug_x86_dll 10057e3f     PhysX3CommonDEBUG_x86:PhysX3CommonDEBUG_x86.dll
 0001:00056e50       __imp_load_?writeDword@physx@@YAXI_NAAVPxOutputStream@1@@Z 10057e50 f   PhysX3CommonDEBUG_x86:PhysX3CommonDEBUG_x86.dll
 0001:00056e5a       ?writeDword@physx@@YAXI_NAAVPxOutputStream@1@@Z 10057e5a f   PhysX3CommonDEBUG_x86:PhysX3CommonDEBUG_x86.dll
 0001:00056e60       __imp_load_?writeFloat@physx@@YAXM_NAAVPxOutputStream@1@@Z 10057e60 f   PhysX3CommonDEBUG_x86:PhysX3CommonDEBUG_x86.dll
 0001:00056e6a       ?writeFloat@physx@@YAXM_NAAVPxOutputStream@1@@Z 10057e6a f   PhysX3CommonDEBUG_x86:PhysX3CommonDEBUG_x86.dll
 0001:00056e70       __imp_load_?writeHeader@physx@@YA_NCCCCI_NAAVPxOutputStream@1@@Z 10057e70 f   PhysX3CommonDEBUG_x86:PhysX3CommonDEBUG_x86.dll
 0001:00056e7a       ?writeHeader@physx@@YA_NCCCCI_NAAVPxOutputStream@1@@Z 10057e7a f   PhysX3CommonDEBUG_x86:PhysX3CommonDEBUG_x86.dll
 0001:00056e80       __imp_load_?validate@RTree@Gu@physx@@QAEXPAUCallbackRefit@123@@Z 10057e80 f   PhysX3CommonDEBUG_x86:PhysX3CommonDEBUG_x86.dll
 0001:00056e8a       ?validate@RTree@Gu@physx@@QAEXPAUCallbackRefit@123@@Z 10057e8a f   PhysX3CommonDEBUG_x86:PhysX3CommonDEBUG_x86.dll
 0001:00056e90       __imp_load_??0SourceMesh@Gu@physx@@QAE@XZ 10057e90 f   PhysX3CommonDEBUG_x86:PhysX3CommonDEBUG_x86.dll
 0001:00056e9a       ??0SourceMesh@Gu@physx@@QAE@XZ 10057e9a f   PhysX3CommonDEBUG_x86:PhysX3CommonDEBUG_x86.dll
 0001:00056ea0       __imp_load_??1SourceMesh@Gu@physx@@QAE@XZ 10057ea0 f   PhysX3CommonDEBUG_x86:PhysX3CommonDEBUG_x86.dll
 0001:00056eaa       ??1SourceMesh@Gu@physx@@QAE@XZ 10057eaa f   PhysX3CommonDEBUG_x86:PhysX3CommonDEBUG_x86.dll
 0001:00056eb0       __imp_load_??0BV4Tree@Gu@physx@@QAE@XZ 10057eb0 f   PhysX3CommonDEBUG_x86:PhysX3CommonDEBUG_x86.dll
 0001:00056eba       ??0BV4Tree@Gu@physx@@QAE@XZ 10057eba f   PhysX3CommonDEBUG_x86:PhysX3CommonDEBUG_x86.dll
 0001:00056ec0       __imp_load_??1BV4Tree@Gu@physx@@QAE@XZ 10057ec0 f   PhysX3CommonDEBUG_x86:PhysX3CommonDEBUG_x86.dll
 0001:00056eca       ??1BV4Tree@Gu@physx@@QAE@XZ 10057eca f   PhysX3CommonDEBUG_x86:PhysX3CommonDEBUG_x86.dll
 0001:00056ed0       __imp_load_??0BV32Tree@Gu@physx@@QAE@XZ 10057ed0 f   PhysX3CommonDEBUG_x86:PhysX3CommonDEBUG_x86.dll
 0001:00056eda       ??0BV32Tree@Gu@physx@@QAE@XZ 10057eda f   PhysX3CommonDEBUG_x86:PhysX3CommonDEBUG_x86.dll
 0001:00056ee0       __imp_load_??1BV32Tree@Gu@physx@@QAE@XZ 10057ee0 f   PhysX3CommonDEBUG_x86:PhysX3CommonDEBUG_x86.dll
 0001:00056eea       ??1BV32Tree@Gu@physx@@QAE@XZ 10057eea f   PhysX3CommonDEBUG_x86:PhysX3CommonDEBUG_x86.dll
 0001:00056ef0       __imp_load_?writeFloatBuffer@physx@@YAXPBMI_NAAVPxOutputStream@1@@Z 10057ef0 f   PhysX3CommonDEBUG_x86:PhysX3CommonDEBUG_x86.dll
 0001:00056efa       ?writeFloatBuffer@physx@@YAXPBMI_NAAVPxOutputStream@1@@Z 10057efa f   PhysX3CommonDEBUG_x86:PhysX3CommonDEBUG_x86.dll
 0001:00056f00       __imp_load_?writeWordBuffer@physx@@YAXPBGI_NAAVPxOutputStream@1@@Z 10057f00 f   PhysX3CommonDEBUG_x86:PhysX3CommonDEBUG_x86.dll
 0001:00056f0a       ?writeWordBuffer@physx@@YAXPBGI_NAAVPxOutputStream@1@@Z 10057f0a f   PhysX3CommonDEBUG_x86:PhysX3CommonDEBUG_x86.dll
 0001:00056f10       __imp_load_?computeMaxIndex@physx@@YAIPBII@Z 10057f10 f   PhysX3CommonDEBUG_x86:PhysX3CommonDEBUG_x86.dll
 0001:00056f1a       ?computeMaxIndex@physx@@YAIPBII@Z 10057f1a f   PhysX3CommonDEBUG_x86:PhysX3CommonDEBUG_x86.dll
 0001:00056f20       __imp_load_?storeIndices@physx@@YAXIIPBIAAVPxOutputStream@1@_N@Z 10057f20 f   PhysX3CommonDEBUG_x86:PhysX3CommonDEBUG_x86.dll
 0001:00056f2a       ?storeIndices@physx@@YAXIIPBIAAVPxOutputStream@1@_N@Z 10057f2a f   PhysX3CommonDEBUG_x86:PhysX3CommonDEBUG_x86.dll
 0001:00056f30       __imp_load_?computeBoundsAroundVertices@Gu@physx@@YAXAAVPxBounds3@2@IPIBVPxVec3@2@@Z 10057f30 f   PhysX3CommonDEBUG_x86:PhysX3CommonDEBUG_x86.dll
 0001:00056f3a       ?computeBoundsAroundVertices@Gu@physx@@YAXAAVPxBounds3@2@IPIBVPxVec3@2@@Z 10057f3a f   PhysX3CommonDEBUG_x86:PhysX3CommonDEBUG_x86.dll
 0001:00056f40       __imp_load_?BuildBV4Ex@Gu@physx@@YA_NAAVBV4Tree@12@AAVSourceMesh@12@MI@Z 10057f40 f   PhysX3CommonDEBUG_x86:PhysX3CommonDEBUG_x86.dll
 0001:00056f4a       ?BuildBV4Ex@Gu@physx@@YA_NAAVBV4Tree@12@AAVSourceMesh@12@MI@Z 10057f4a f   PhysX3CommonDEBUG_x86:PhysX3CommonDEBUG_x86.dll
 0001:00056f50       __imp_load_?BuildBV32Ex@Gu@physx@@YA_NAAVBV32Tree@12@AAVSourceMesh@12@MI@Z 10057f50 f   PhysX3CommonDEBUG_x86:PhysX3CommonDEBUG_x86.dll
 0001:00056f5a       ?BuildBV32Ex@Gu@physx@@YA_NAAVBV32Tree@12@AAVSourceMesh@12@MI@Z 10057f5a f   PhysX3CommonDEBUG_x86:PhysX3CommonDEBUG_x86.dll
 0001:00056f60       __imp_load_?computeMaxIndex@physx@@YAGPBGI@Z 10057f60 f   PhysX3CommonDEBUG_x86:PhysX3CommonDEBUG_x86.dll
 0001:00056f6a       ?computeMaxIndex@physx@@YAGPBGI@Z 10057f6a f   PhysX3CommonDEBUG_x86:PhysX3CommonDEBUG_x86.dll
 0001:00056f70       __imp_load_?WriteHeader@Gu@physx@@YA_NEEEEI_NAAVPxOutputStream@2@@Z 10057f70 f   PhysX3CommonDEBUG_x86:PhysX3CommonDEBUG_x86.dll
 0001:00056f7a       ?WriteHeader@Gu@physx@@YA_NEEEEI_NAAVPxOutputStream@2@@Z 10057f7a f   PhysX3CommonDEBUG_x86:PhysX3CommonDEBUG_x86.dll
 0001:00056f80       __imp_load_?StoreIndices@Gu@physx@@YAXGIPBGAAVPxOutputStream@2@_N@Z 10057f80 f   PhysX3CommonDEBUG_x86:PhysX3CommonDEBUG_x86.dll
 0001:00056f8a       ?StoreIndices@Gu@physx@@YAXGIPBGAAVPxOutputStream@2@_N@Z 10057f8a f   PhysX3CommonDEBUG_x86:PhysX3CommonDEBUG_x86.dll
 0001:00056f90       __imp_load_?CreateOffsets@BigConvexData@physx@@IAEXXZ 10057f90 f   PhysX3CommonDEBUG_x86:PhysX3CommonDEBUG_x86.dll
 0001:00056f9a       ?CreateOffsets@BigConvexData@physx@@IAEXXZ 10057f9a f   PhysX3CommonDEBUG_x86:PhysX3CommonDEBUG_x86.dll
 0001:00056fa0       __imp_load_?GetRanks@RadixSort@Cm@physx@@QBEPBIXZ 10057fa0 f   PhysX3CommonDEBUG_x86:PhysX3CommonDEBUG_x86.dll
 0001:00056faa       ?GetRanks@RadixSort@Cm@physx@@QBEPBIXZ 10057faa f   PhysX3CommonDEBUG_x86:PhysX3CommonDEBUG_x86.dll
 0001:00056fb0       __imp_load_??0RadixSortBuffered@Cm@physx@@QAE@XZ 10057fb0 f   PhysX3CommonDEBUG_x86:PhysX3CommonDEBUG_x86.dll
 0001:00056fba       ??0RadixSortBuffered@Cm@physx@@QAE@XZ 10057fba f   PhysX3CommonDEBUG_x86:PhysX3CommonDEBUG_x86.dll
 0001:00056fc0       __imp_load_??1RadixSortBuffered@Cm@physx@@UAE@XZ 10057fc0 f   PhysX3CommonDEBUG_x86:PhysX3CommonDEBUG_x86.dll
 0001:00056fca       ??1RadixSortBuffered@Cm@physx@@UAE@XZ 10057fca f   PhysX3CommonDEBUG_x86:PhysX3CommonDEBUG_x86.dll
 0001:00056fd0       __imp_load_?Sort@RadixSortBuffered@Cm@physx@@QAEAAV123@PBIIW4RadixHint@23@@Z 10057fd0 f   PhysX3CommonDEBUG_x86:PhysX3CommonDEBUG_x86.dll
 0001:00056fda       ?Sort@RadixSortBuffered@Cm@physx@@QAEAAV123@PBIIW4RadixHint@23@@Z 10057fda f   PhysX3CommonDEBUG_x86:PhysX3CommonDEBUG_x86.dll
 0001:00056fe0       __imp_load_?computeOBBPoints@Gu@physx@@YAXPIAVPxVec3@2@ABV32@1111@Z 10057fe0 f   PhysX3CommonDEBUG_x86:PhysX3CommonDEBUG_x86.dll
 0001:00056fea       ?computeOBBPoints@Gu@physx@@YAXPIAVPxVec3@2@ABV32@1111@Z 10057fea f   PhysX3CommonDEBUG_x86:PhysX3CommonDEBUG_x86.dll
 0001:00056ff0       __imp_load_??0BigConvexData@physx@@QAE@XZ 10057ff0 f   PhysX3CommonDEBUG_x86:PhysX3CommonDEBUG_x86.dll
 0001:00056ffa       ??0BigConvexData@physx@@QAE@XZ 10057ffa f   PhysX3CommonDEBUG_x86:PhysX3CommonDEBUG_x86.dll
 0001:00057000       __imp_load_??1BigConvexData@physx@@QAE@XZ 10058000 f   PhysX3CommonDEBUG_x86:PhysX3CommonDEBUG_x86.dll
 0001:0005700a       ??1BigConvexData@physx@@QAE@XZ 1005800a f   PhysX3CommonDEBUG_x86:PhysX3CommonDEBUG_x86.dll
 0001:00057010       __imp_load_?readDword@physx@@YAI_NAAVPxInputStream@1@@Z 10058010 f   PhysX3CommonDEBUG_x86:PhysX3CommonDEBUG_x86.dll
 0001:0005701a       ?readDword@physx@@YAI_NAAVPxInputStream@1@@Z 1005801a f   PhysX3CommonDEBUG_x86:PhysX3CommonDEBUG_x86.dll
 0001:00057020       __imp_load_?ReadHeader@Gu@physx@@YA_NEEEEAAIAA_NAAVPxInputStream@2@@Z 10058020 f   PhysX3CommonDEBUG_x86:PhysX3CommonDEBUG_x86.dll
 0001:0005702a       ?ReadHeader@Gu@physx@@YA_NEEEEAAIAA_NAAVPxInputStream@2@@Z 1005802a f   PhysX3CommonDEBUG_x86:PhysX3CommonDEBUG_x86.dll
 0001:00057030       __imp_load_??0HeightField@Gu@physx@@QAE@PAVGuMeshFactory@2@@Z 10058030 f   PhysX3CommonDEBUG_x86:PhysX3CommonDEBUG_x86.dll
 0001:0005703a       ??0HeightField@Gu@physx@@QAE@PAVGuMeshFactory@2@@Z 1005803a f   PhysX3CommonDEBUG_x86:PhysX3CommonDEBUG_x86.dll
 0001:00057040       __imp_load_?loadFromDesc@HeightField@Gu@physx@@QAE_NABVPxHeightFieldDesc@3@@Z 10058040 f   PhysX3CommonDEBUG_x86:PhysX3CommonDEBUG_x86.dll
 0001:0005704a       ?loadFromDesc@HeightField@Gu@physx@@QAE_NABVPxHeightFieldDesc@3@@Z 1005804a f   PhysX3CommonDEBUG_x86:PhysX3CommonDEBUG_x86.dll
 0001:00057050       __imp_load_?releaseMemory@HeightField@Gu@physx@@QAEXXZ 10058050 f   PhysX3CommonDEBUG_x86:PhysX3CommonDEBUG_x86.dll
 0001:0005705a       ?releaseMemory@HeightField@Gu@physx@@QAEXXZ 1005805a f   PhysX3CommonDEBUG_x86:PhysX3CommonDEBUG_x86.dll
 0001:00057060       __imp_load_??1HeightField@Gu@physx@@UAE@XZ 10058060 f   PhysX3CommonDEBUG_x86:PhysX3CommonDEBUG_x86.dll
 0001:0005706a       ??1HeightField@Gu@physx@@UAE@XZ 1005806a f   PhysX3CommonDEBUG_x86:PhysX3CommonDEBUG_x86.dll
 0001:00057070       ??$PFromRva@PAP6GHXZ@@YGPAP6GHXZK@Z 10058070 f i delayimp:delayhlp.obj
 0001:00057086       ??$PFromRva@PAPAUHINSTANCE__@@@@YGPAPAUHINSTANCE__@@K@Z 10058086 f i delayimp:delayhlp.obj
 0001:0005709c       ??$PFromRva@PAU_IMAGE_IMPORT_BY_NAME@@@@YGPAU_IMAGE_IMPORT_BY_NAME@@K@Z 1005809c f i delayimp:delayhlp.obj
 0001:000570b2       ??$PFromRva@PAU_IMAGE_THUNK_DATA32@@@@YGPAU_IMAGE_THUNK_DATA32@@K@Z 100580b2 f i delayimp:delayhlp.obj
 0001:000570c8       ??$PFromRva@PBD@@YGPBDK@Z  100580c8 f i delayimp:delayhlp.obj
 0001:000570de       ??$PFromRva@PBUImgDelayDescr@@@@YGPBUImgDelayDescr@@K@Z 100580de f i delayimp:delayhlp.obj
 0001:000570f4       ??$PFromRva@PBU_IMAGE_THUNK_DATA32@@@@YGPBU_IMAGE_THUNK_DATA32@@K@Z 100580f4 f i delayimp:delayhlp.obj
 0001:0005710a       ?CountOfImports@@YGIPBU_IMAGE_THUNK_DATA32@@@Z 1005810a f i delayimp:delayhlp.obj
 0001:0005712b       ?DloadAcquireSectionWriteAccess@@YGXXZ 1005812b f i delayimp:delayhlp.obj
 0001:0005716a       ?DloadGetSRWLockFunctionPointers@@YGEXZ 1005816a f i delayimp:delayhlp.obj
 0001:000571f9       ?DloadLock@@YGXXZ          100581f9 f i delayimp:delayhlp.obj
 0001:00057247       ?DloadMakePermanentImageCommit@@YGXPAXK@Z 10058247 f i delayimp:delayhlp.obj
 0001:000572d1       ?DloadObtainSection@@YGPAXPAK0@Z 100582d1 f i delayimp:delayhlp.obj
 0001:0005736a       ?DloadProtectSection@@YGXKPAK@Z 1005836a f i delayimp:delayhlp.obj
 0001:000573f3       ?DloadReleaseSectionWriteAccess@@YGXXZ 100583f3 f i delayimp:delayhlp.obj
 0001:00057436       ?DloadUnlock@@YGXXZ        10058436 f i delayimp:delayhlp.obj
 0001:00057487       ?IndexFromPImgThunkData@@YGIPBU_IMAGE_THUNK_DATA32@@0@Z 10058487 f i delayimp:delayhlp.obj
 0001:0005763b       _HRESULT_FROM_WIN32@4      1005863b f i delayimp:delayhlp.obj
 0001:00057659       _ReadAcquire@4             10058659 f i delayimp:delayhlp.obj
 0001:0005766a       _ReadPointerAcquire@4      1005866a f i delayimp:delayhlp.obj
 0001:0005767b       _WritePointerRelease@8     1005867b f i delayimp:delayhlp.obj
 0001:00057690       _WriteRelease@8            10058690 f i delayimp:delayhlp.obj
 0001:000576a5       __InlineInterlockedCompareExchangePointer@12 100586a5 f i delayimp:delayhlp.obj
 0001:000576c0       ___FUnloadDelayLoadedDLL2@4 100586c0 f   delayimp:delayhlp.obj
 0001:00057765       ___HrLoadAllImportsForDll@4 10058765 f   delayimp:delayhlp.obj
 0001:000577de       ___delayLoadHelper2@8      100587de f   delayimp:delayhlp.obj
 0001:00057af0       __CRT_RTC_INIT             10058af0 f   LIBCMTD:init.obj
 0001:00057b00       __CRT_RTC_INITW            10058b00 f   LIBCMTD:init.obj
 0001:00057b10       __RTC_InitBase             10058b10 f   LIBCMTD:init.obj
 0001:00057b50       __RTC_Shutdown             10058b50 f   LIBCMTD:init.obj
 0001:00057b70       __alloca_probe_16          10058b70 f   LIBCMTD:alloca16.obj
 0001:00057b86       __alloca_probe_8           10058b86     LIBCMTD:alloca16.obj
 0001:00057bb0       __alloca_probe             10058bb0 f   LIBCMTD:chkstk.obj
 0001:00057bb0       __chkstk                   10058bb0 f   LIBCMTD:chkstk.obj
 0001:00057bf0       __ftoui3                   10058bf0 f   LIBCMTD:ftol3.obj
 0001:00057bff       __ftoul3                   10058bff f   LIBCMTD:ftol3.obj
 0001:00057c0e       __ftol3                    10058c0e f   LIBCMTD:ftol3.obj
 0001:00057c1b       __ftol3_NaN                10058c1b f   LIBCMTD:ftol3.obj
 0001:00057c33       __ftol3_work               10058c33 f   LIBCMTD:ftol3.obj
 0001:00057cb9       __ftol3_common             10058cb9 f   LIBCMTD:ftol3.obj
 0001:00057d7b       __ftol3_arg_error          10058d7b f   LIBCMTD:ftol3.obj
 0001:00057d8d       __ftol3_except             10058d8d f   LIBCMTD:ftol3.obj
 0001:00057dd1       __dtoui3                   10058dd1 f   LIBCMTD:ftol3.obj
 0001:00057de0       __dtoul3                   10058de0 f   LIBCMTD:ftol3.obj
 0001:00057def       __dtol3                    10058def f   LIBCMTD:ftol3.obj
 0001:00057dfc       __dtol3_NaN                10058dfc f   LIBCMTD:ftol3.obj
 0001:00057e19       __dtol3_work               10058e19 f   LIBCMTD:ftol3.obj
 0001:00057f00       __ultod3                   10058f00 f   LIBCMTD:ftol3.obj
 0001:00057f40       __ltod3                    10058f40 f   LIBCMTD:ftol3.obj
 0001:00058050       ??3@YAXPAXI@Z              10059050 f   LIBCMTD:delete_scalar_size.obj
 0001:00058070       ?__scrt_initialize_type_info@@YAXXZ 10059070 f   LIBCMTD:tncleanup.obj
 0001:00058090       ?__scrt_uninitialize_type_info@@YAXXZ 10059090 f   LIBCMTD:tncleanup.obj
 0001:000580b0       ??1type_info@@UAE@XZ       100590b0 f   LIBCMTD:std_type_info_static.obj
 0001:000580d0       ??_Gtype_info@@UAEPAXI@Z   100590d0 f i LIBCMTD:std_type_info_static.obj
 0001:000580d0       ??_Etype_info@@UAEPAXI@Z   100590d0 f i LIBCMTD:std_type_info_static.obj
 0001:000586d0       __CRT_INIT@12              100596d0 f   LIBCMTD:dll_dllmain.obj
 0001:000586f0       __DllMainCRTStartup@12     100596f0 f   LIBCMTD:dll_dllmain.obj
 0001:00058720       @_guard_check_icall_nop@4  10059720 f i LIBCMTD:guard_support.obj
 0001:00058730       _ReadNoFence               10059730 f i LIBCMTD:guard_support.obj
 0001:00058750       _ReadPointerNoFence        10059750 f i LIBCMTD:guard_support.obj
 0001:00058770       __guard_icall_checks_enforced 10059770 f i LIBCMTD:guard_support.obj
 0001:000587b0       ?_RTC_GetErrorFunc@@YAP6AHHPBDH00ZZPBX@Z 100597b0 f   LIBCMTD:userapi.obj
 0001:000587c0       ?_RTC_GetErrorFuncW@@YAP6AHHPB_WH00ZZPBX@Z 100597c0 f   LIBCMTD:userapi.obj
 0001:000587d0       __RTC_GetErrDesc           100597d0 f   LIBCMTD:userapi.obj
 0001:000587f0       __RTC_NumErrors            100597f0 f   LIBCMTD:userapi.obj
 0001:00058800       __RTC_SetErrorFunc         10059800 f   LIBCMTD:userapi.obj
 0001:00058830       __RTC_SetErrorFuncW        10059830 f   LIBCMTD:userapi.obj
 0001:00058860       __RTC_SetErrorType         10059860 f   LIBCMTD:userapi.obj
 0001:00058890       ??3@YAXPAX@Z               10059890 f   LIBCMTD:delete_scalar.obj
 0001:00058940       ___security_init_cookie    10059940 f   LIBCMTD:gs_support.obj
 0001:000589e0       _DllMain@12                100599e0 f   LIBCMTD:dll_dllmain_stub.obj
 0001:000589f0       ___local_stdio_printf_options 100599f0 f i LIBCMTD:default_local_stdio_options.obj
 0001:00058a00       ___local_stdio_scanf_options 10059a00 f i LIBCMTD:default_local_stdio_options.obj
 0001:00058a10       ___scrt_initialize_default_local_stdio_options 10059a10 f   LIBCMTD:default_local_stdio_options.obj
 0001:00058a60       ??$__crt_fast_decode_pointer@PAP6AXXZ@@YAPAP6AXXZQAP6AXXZ@Z 10059a60 f i LIBCMTD:utility.obj
 0001:00058a90       ??$__crt_fast_encode_pointer@PAP6AXXZ@@YAPAP6AXXZQAP6AXXZ@Z 10059a90 f i LIBCMTD:utility.obj
 0001:00058ad0       ?__crt_rotate_pointer_value@@YAIIH@Z 10059ad0 f i LIBCMTD:utility.obj
 0001:00058ae0       ?configure_argv@__scrt_narrow_argv_policy@@SAHXZ 10059ae0 f i LIBCMTD:utility.obj
 0001:00058bb0       ?initialize_environment@__scrt_narrow_environment_policy@@SAHXZ 10059bb0 f i LIBCMTD:utility.obj
 0001:00058c50       _NtCurrentTeb              10059c50 f i LIBCMTD:utility.obj
 0001:00058c60       ___scrt_acquire_startup_lock 10059c60 f   LIBCMTD:utility.obj
 0001:00058cc0       ___scrt_dllmain_after_initialize_c 10059cc0 f   LIBCMTD:utility.obj
 0001:00058d00       ___scrt_dllmain_before_initialize_c 10059d00 f   LIBCMTD:utility.obj
 0001:00058d30       ___scrt_dllmain_crt_thread_attach 10059d30 f   LIBCMTD:utility.obj
 0001:00058d70       ___scrt_dllmain_crt_thread_detach 10059d70 f   LIBCMTD:utility.obj
 0001:00058d90       ___scrt_dllmain_exception_filter 10059d90 f   LIBCMTD:utility.obj
 0001:00058df0       ___scrt_dllmain_uninitialize_c 10059df0 f   LIBCMTD:utility.obj
 0001:00058e30       ___scrt_dllmain_uninitialize_critical 10059e30 f   LIBCMTD:utility.obj
 0001:00058e50       ___scrt_initialize_crt     10059e50 f   LIBCMTD:utility.obj
 0001:00058eb0       ___scrt_initialize_onexit_tables 10059eb0 f   LIBCMTD:utility.obj
 0001:00058fd0       ___scrt_is_nonwritable_in_current_image 10059fd0 f   LIBCMTD:utility.obj
 0001:00059150       ___scrt_release_startup_lock 1005a150 f   LIBCMTD:utility.obj
 0001:00059180       ___scrt_uninitialize_crt   1005a180 f   LIBCMTD:utility.obj
 0001:000591d0       __onexit                   1005a1d0 f   LIBCMTD:utility.obj
 0001:00059260       _at_quick_exit             1005a260 f   LIBCMTD:utility.obj
 0001:000592c0       _atexit                    1005a2c0 f   LIBCMTD:utility.obj
 0001:00059300       ___scrt_get_dyn_tls_init_callback 1005a300 f   LIBCMTD:dyn_tls_init.obj
 0001:00059310       ___scrt_fastfail           1005a310 f   LIBCMTD:utility_desktop.obj
 0001:000594a0       ___scrt_get_show_window_mode 1005a4a0 f   LIBCMTD:utility_desktop.obj
 0001:000594f0       ___scrt_initialize_mta     1005a4f0 f   LIBCMTD:utility_desktop.obj
 0001:00059500       ___scrt_initialize_winrt   1005a500 f   LIBCMTD:utility_desktop.obj
 0001:00059510       ___scrt_is_managed_app     1005a510 f   LIBCMTD:utility_desktop.obj
 0001:000595c0       ___scrt_set_unhandled_exception_filter 1005a5c0 f   LIBCMTD:utility_desktop.obj
 0001:000595e0       ___scrt_exe_initialize_mta 1005a5e0 f   LIBCMTD:utility_desktop.obj
 0001:000595e0       ___scrt_stub_for_initialize_mta 1005a5e0 f   LIBCMTD:utility_desktop.obj
 0001:000595f0       ___scrt_unhandled_exception_filter@4 1005a5f0 f   LIBCMTD:utility_desktop.obj
 0001:00059670       __crt_debugger_hook        1005a670 f   LIBCMTD:utility_desktop.obj
 0001:00059690       __RTC_Initialize           1005a690 f   LIBCMTD:initsect.obj
 0001:000596d0       __RTC_Terminate            1005a6d0 f   LIBCMTD:initsect.obj
 0001:000597c0       ?_RTC_AllocaFailure@@YAXPAXPAU_RTC_ALLOCA_NODE@@H@Z 1005a7c0 f   LIBCMTD:error.obj
 0001:000598e0       ?_RTC_Failure@@YAXPAXH@Z   1005a8e0 f   LIBCMTD:error.obj
 0001:00059950       ?_RTC_StackFailure@@YAXPAXPBD@Z 1005a950 f   LIBCMTD:error.obj
 0001:00059e00       __RTC_UninitUse            1005ae00 f   LIBCMTD:error.obj
 0001:00059ee0       __vsprintf_s_l             1005aee0 f i LIBCMTD:error.obj
 0001:00059f20       _sprintf_s                 1005af20 f i LIBCMTD:error.obj
 0001:00059f50       ___isa_available_init      1005af50 f   LIBCMTD:cpu_disp.obj
 0001:0005a2e0       __get_startup_argv_mode    1005b2e0 f   LIBCMTD:argv_mode.obj
 0001:0005a2f0       ___scrt_is_ucrt_dll_in_use 1005b2f0 f   LIBCMTD:ucrt_detection.obj
 0001:0005a8b0       ?_RTC_GetSrcLine@@YAHPAEPA_WKPAH1K@Z 1005b8b0 f   LIBCMTD:pdblkup.obj
 0001:0005ad20       @__security_check_cookie@4 1005bd20 f   LIBCMTD:secchk.obj
 0001:0005ad40       __except_handler4_noexcept 1005bd40 f   LIBCMTD:chandler4_noexcept.obj
 0001:0005ada0       ___raise_securityfailure   1005bda0 f   LIBCMTD:gs_report.obj
 0001:0005ade0       ___report_gsfailure        1005bde0 f   LIBCMTD:gs_report.obj
 0001:0005af30       ___report_rangecheckfailure 1005bf30 f   LIBCMTD:gs_report.obj
 0001:0005af40       ___report_securityfailure  1005bf40 f   LIBCMTD:gs_report.obj
 0001:0005b050       ___report_securityfailureEx 1005c050 f   LIBCMTD:gs_report.obj
 0001:0005b1c0       _strstr                    1005c1c0 f   libvcruntimed:strstr.obj
 0001:0005b4c0       _memcpy                    1005c4c0 f   libvcruntimed:memcpy.obj
 0001:0005bba0       ??$__crt_fast_decode_pointer@P6AXXZ@@YAP6AXXZQ6AXXZ@Z 1005cba0 f i libvcruntimed:purevirt.obj
 0001:0005bbd0       ??$__crt_fast_encode_pointer@P6AXXZ@@YAP6AXXZQ6AXXZ@Z 1005cbd0 f i libvcruntimed:purevirt.obj
 0001:0005bc10       ??$__crt_interlocked_exchange_pointer@$$A6AXXZP6AXXZ@@YAP6AXXZPDS6AXXZQ6AXXZ@Z 1005cc10 f i libvcruntimed:purevirt.obj
 0001:0005bc20       ??$__crt_interlocked_read_pointer@$$A6AXXZ@@YAP6AXXZPDS6AXXZ@Z 1005cc20 f i libvcruntimed:purevirt.obj
 0001:0005bc40       ?__crt_interlocked_read_32@@YAHPDH@Z 1005cc40 f i libvcruntimed:purevirt.obj
 0001:0005bc60       __get_purecall_handler     1005cc60 f   libvcruntimed:purevirt.obj
 0001:0005bc90       __purecall                 1005cc90 f   libvcruntimed:purevirt.obj
 0001:0005bcd0       __set_purecall_handler     1005ccd0 f   libvcruntimed:purevirt.obj
 0001:0005bd50       ??$?RD@__crt_internal_free_policy@@QBEXQBD@Z 1005cd50 f i libvcruntimed:std_type_info.obj
 0001:0005bd80       ??$?RX@__crt_internal_free_policy@@QBEXQBX@Z 1005cd80 f i libvcruntimed:std_type_info.obj
 0001:0005bdb0       ??$__crt_interlocked_compare_exchange_pointer@$$CBDPAD$$T@@YAPBDPDSBDQAD$$T@Z 1005cdb0 f i libvcruntimed:std_type_info.obj
 0001:0005bdd0       ??$__crt_interlocked_read_pointer@$$CBD@@YAPBDPDSBD@Z 1005cdd0 f i libvcruntimed:std_type_info.obj
 0001:0005bdf0       ??0?$__crt_unique_heap_ptr@DU__crt_internal_free_policy@@@@QAE@QAD@Z 1005cdf0 f i libvcruntimed:std_type_info.obj
 0001:0005be10       ??0?$__crt_unique_heap_ptr@XU__crt_internal_free_policy@@@@QAE@QAX@Z 1005ce10 f i libvcruntimed:std_type_info.obj
 0001:0005be30       ??1?$__crt_unique_heap_ptr@DU__crt_internal_free_policy@@@@QAE@XZ 1005ce30 f i libvcruntimed:std_type_info.obj
 0001:0005be50       ??1?$__crt_unique_heap_ptr@XU__crt_internal_free_policy@@@@QAE@XZ 1005ce50 f i libvcruntimed:std_type_info.obj
 0001:0005beb0       ??B?$__crt_unique_heap_ptr@DU__crt_internal_free_policy@@@@QBE_NXZ 1005ceb0 f i libvcruntimed:std_type_info.obj
 0001:0005bed0       ??B?$__crt_unique_heap_ptr@XU__crt_internal_free_policy@@@@QBE_NXZ 1005ced0 f i libvcruntimed:std_type_info.obj
 0001:0005bf50       ?detach@?$__crt_unique_heap_ptr@XU__crt_internal_free_policy@@@@QAEPAXXZ 1005cf50 f i libvcruntimed:std_type_info.obj
 0001:0005bf80       ?get@?$__crt_unique_heap_ptr@DU__crt_internal_free_policy@@@@QBEPADXZ 1005cf80 f i libvcruntimed:std_type_info.obj
 0001:0005bfa0       ?get@?$__crt_unique_heap_ptr@XU__crt_internal_free_policy@@@@QBEPAXXZ 1005cfa0 f i libvcruntimed:std_type_info.obj
 0001:0005bfc0       ?is_valid@?$__crt_unique_heap_ptr@DU__crt_internal_free_policy@@@@QBE_NXZ 1005cfc0 f i libvcruntimed:std_type_info.obj
 0001:0005c000       ?is_valid@?$__crt_unique_heap_ptr@XU__crt_internal_free_policy@@@@QBE_NXZ 1005d000 f i libvcruntimed:std_type_info.obj
 0001:0005c040       ?release@?$__crt_unique_heap_ptr@DU__crt_internal_free_policy@@@@QAEXXZ 1005d040 f i libvcruntimed:std_type_info.obj
 0001:0005c070       ?release@?$__crt_unique_heap_ptr@XU__crt_internal_free_policy@@@@QAEXXZ 1005d070 f i libvcruntimed:std_type_info.obj
 0001:0005c0a0       ___std_type_info_compare   1005d0a0 f   libvcruntimed:std_type_info.obj
 0001:0005c0d0       ___std_type_info_destroy_list 1005d0d0 f   libvcruntimed:std_type_info.obj
 0001:0005c120       ___std_type_info_hash      1005d120 f   libvcruntimed:std_type_info.obj
 0001:0005c190       ___std_type_info_name      1005d190 f   libvcruntimed:std_type_info.obj
 0001:0005c3f0       _memset                    1005d3f0 f   libvcruntimed:memset.obj
 0001:0005c620       __except_handler4          1005d620 f   libvcruntimed:chandler4.obj
 0001:0005c870       ___vcrt_initialize         1005d870 f   libvcruntimed:initialization.obj
 0001:0005c8c0       ___vcrt_thread_attach      1005d8c0 f   libvcruntimed:initialization.obj
 0001:0005c8e0       ___vcrt_thread_detach      1005d8e0 f   libvcruntimed:initialization.obj
 0001:0005c900       ___vcrt_uninitialize       1005d900 f   libvcruntimed:initialization.obj
 0001:0005c930       ___vcrt_uninitialize_critical 1005d930 f   libvcruntimed:initialization.obj
 0001:0005c950       ___vcrt_GetModuleFileNameW 1005d950 f   libvcruntimed:winapi_thunks.obj
 0001:0005c970       ___vcrt_GetModuleHandleW   1005d970 f   libvcruntimed:winapi_thunks.obj
 0001:0005c990       ___vcrt_LoadLibraryExW     1005d990 f   libvcruntimed:winapi_thunks.obj
 0001:0005c9b0       _strchr                    1005d9b0 f   libvcruntimed:strchr.obj
 0001:0005ca1e       ___from_strstr_to_strchr   1005da1e     libvcruntimed:strchr.obj
 0001:0005cb30       ??$?B$$A6AXXZ@__crt_fast_encoded_nullptr_t@@QBEP6AXXZXZ 1005db30 f i libvcruntimed:purevirt_data.obj
 0001:0005cb50       ?__crt_fast_encode_pointer@@YA?AU__crt_fast_encoded_nullptr_t@@$$T@Z 1005db50 f i libvcruntimed:purevirt_data.obj
 0001:0005cb60       ___vcrt_initialize_pure_virtual_call_handler 1005db60 f   libvcruntimed:purevirt_data.obj
 0001:0005cb90       ??0Block@_HeapManager@@QAE@XZ 1005db90 f i libvcruntimed:undname.obj
 0001:0005cbb0       ??0DName@@QAE@AAPBDD@Z     1005dbb0 f   libvcruntimed:undname.obj
 0001:0005ce60       ??0DName@@QAE@ABV0@@Z      1005de60 f i libvcruntimed:undname.obj
 0001:0005ce90       ??0DName@@QAE@D@Z          1005de90 f   libvcruntimed:undname.obj
 0001:0005cee0       ??0DName@@QAE@PAV0@@Z      1005dee0 f   libvcruntimed:undname.obj
 0001:0005cfc0       ??0DName@@QAE@PBD@Z        1005dfc0 f   libvcruntimed:undname.obj
 0001:0005d030       ??0DName@@QAE@W4DNameStatus@@@Z 1005e030 f   libvcruntimed:undname.obj
 0001:0005d0f0       ??0DName@@QAE@XZ           1005e0f0 f i libvcruntimed:undname.obj
 0001:0005d120       ??0DName@@QAE@_J@Z         1005e120 f   libvcruntimed:undname.obj
 0001:0005d240       ??0DName@@QAE@_K@Z         1005e240 f   libvcruntimed:undname.obj
 0001:0005d310       ??0DNameNode@@IAE@XZ       1005e310 f i libvcruntimed:undname.obj
 0001:0005d330       ??0Replicator@@QAE@XZ      1005e330 f i libvcruntimed:undname.obj
 0001:0005d380       ??0UnDecorator@@QAE@PBDP6APADJ@ZK@Z 1005e380 f i libvcruntimed:undname.obj
 0001:0005d420       ??0charNode@@QAE@D@Z       1005e420 f i libvcruntimed:undname.obj
 0001:0005d460       ??0pDNameNode@@QAE@PAVDName@@@Z 1005e460 f   libvcruntimed:undname.obj
 0001:0005d4e0       ??0pairNode@@QAE@PBVDNameNode@@0@Z 1005e4e0 f i libvcruntimed:undname.obj
 0001:0005d530       ??0pcharNode@@QAE@PBDH@Z   1005e530 f   libvcruntimed:undname.obj
 0001:0005d610       ??2@YAPAXIAAV_HeapManager@@H@Z 1005e610 f i libvcruntimed:undname.obj
 0001:0005d630       ??4DName@@QAEAAV0@ABV0@@Z  1005e630 f   libvcruntimed:undname.obj
 0001:0005d660       ??4DName@@QAEAAV0@D@Z      1005e660 f i libvcruntimed:undname.obj
 0001:0005d6b0       ??4DName@@QAEAAV0@PAV0@@Z  1005e6b0 f   libvcruntimed:undname.obj
 0001:0005d770       ??4DName@@QAEAAV0@PBD@Z    1005e770 f   libvcruntimed:undname.obj
 0001:0005d7c0       ??4DName@@QAEAAV0@W4DNameStatus@@@Z 1005e7c0 f   libvcruntimed:undname.obj
 0001:0005d860       ??AReplicator@@QBE?AVDName@@H@Z 1005e860 f   libvcruntimed:undname.obj
 0001:0005d8e0       ??H@YA?AVDName@@DABV0@@Z   1005e8e0 f i libvcruntimed:undname.obj
 0001:0005d920       ??H@YA?AVDName@@PBDABV0@@Z 1005e920 f i libvcruntimed:undname.obj
 0001:0005d960       ??H@YA?AVDName@@W4DNameStatus@@ABV0@@Z 1005e960 f i libvcruntimed:undname.obj
 0001:0005d9a0       ??HDName@@QBE?AV0@ABV0@@Z  1005e9a0 f   libvcruntimed:undname.obj
 0001:0005d9f0       ??HDName@@QBE?AV0@D@Z      1005e9f0 f   libvcruntimed:undname.obj
 0001:0005da40       ??HDName@@QBE?AV0@PAV0@@Z  1005ea40 f   libvcruntimed:undname.obj
 0001:0005da90       ??HDName@@QBE?AV0@PBD@Z    1005ea90 f   libvcruntimed:undname.obj
 0001:0005dae0       ??HDName@@QBE?AV0@W4DNameStatus@@@Z 1005eae0 f   libvcruntimed:undname.obj
 0001:0005db30       ??YDName@@QAEAAV0@ABV0@@Z  1005eb30 f   libvcruntimed:undname.obj
 0001:0005dbc0       ??YDName@@QAEAAV0@D@Z      1005ebc0 f   libvcruntimed:undname.obj
 0001:0005dc60       ??YDName@@QAEAAV0@PAV0@@Z  1005ec60 f   libvcruntimed:undname.obj
 0001:0005dd50       ??YDName@@QAEAAV0@PBD@Z    1005ed50 f   libvcruntimed:undname.obj
 0001:0005de10       ??YDName@@QAEAAV0@W4DNameStatus@@@Z 1005ee10 f   libvcruntimed:undname.obj
 0001:0005de90       ??YReplicator@@QAEAAV0@ABVDName@@@Z 1005ee90 f   libvcruntimed:undname.obj
 0001:0005df40       ??_5DName@@QAEAAV0@ABV0@@Z 1005ef40 f   libvcruntimed:undname.obj
 0001:0005dfb0       ?Constructor@_HeapManager@@QAEXP6APAXI@ZP6AXPAX@Z@Z 1005efb0 f i libvcruntimed:undname.obj
 0001:0005e000       ?Destructor@_HeapManager@@QAEXXZ 1005f000 f i libvcruntimed:undname.obj
 0001:0005e080       ?UScore@UnDecorator@@SAPBDW4Tokens@@@Z 1005f080 f   libvcruntimed:undname.obj
 0001:0005e0c0       ?append@DName@@AAEXPBVDNameNode@@@Z 1005f0c0 f   libvcruntimed:undname.obj
 0001:0005e170       ?composeDeclaration@UnDecorator@@CA?AVDName@@ABV2@@Z 1005f170 f i libvcruntimed:undname.obj
 0001:00060860       ?dbGetString@DName@@QBEPADXZ 10061860 f   libvcruntimed:undname.obj
 0001:00060890       ?doAccessSpecifiers@UnDecorator@@SAHXZ 10061890 f i libvcruntimed:undname.obj
 0001:000608c0       ?doAllocationLanguage@UnDecorator@@SAHXZ 100618c0 f i libvcruntimed:undname.obj
 0001:000608f0       ?doAllocationModel@UnDecorator@@SAHXZ 100618f0 f i libvcruntimed:undname.obj
 0001:00060920       ?doEcsu@UnDecorator@@SAHXZ 10061920 f i libvcruntimed:undname.obj
 0001:00060950       ?doEllipsis@UnDecorator@@SAHXZ 10061950 f i libvcruntimed:undname.obj
 0001:00060980       ?doFunctionReturns@UnDecorator@@SAHXZ 10061980 f i libvcruntimed:undname.obj
 0001:000609b0       ?doMSKeywords@UnDecorator@@SAHXZ 100619b0 f i libvcruntimed:undname.obj
 0001:000609e0       ?doMemberTypes@UnDecorator@@SAHXZ 100619e0 f i libvcruntimed:undname.obj
 0001:00060a10       ?doNameOnly@UnDecorator@@SAHXZ 10061a10 f i libvcruntimed:undname.obj
 0001:00060a30       ?doNoIdentCharCheck@UnDecorator@@SAHXZ 10061a30 f i libvcruntimed:undname.obj
 0001:00060a50       ?doPchar@DName@@AAEXPBDH@Z 10061a50 f   libvcruntimed:undname.obj
 0001:00060be0       ?doPtr64@UnDecorator@@SAHXZ 10061be0 f i libvcruntimed:undname.obj
 0001:00060c10       ?doRestrictionSpec@UnDecorator@@SAHXZ 10061c10 f i libvcruntimed:undname.obj
 0001:00060c40       ?doThisTypes@UnDecorator@@SAHXZ 10061c40 f i libvcruntimed:undname.obj
 0001:00060c80       ?doThrowTypes@UnDecorator@@SAHXZ 10061c80 f i libvcruntimed:undname.obj
 0001:00060cb0       ?doTypeOnly@UnDecorator@@SAHXZ 10061cb0 f i libvcruntimed:undname.obj
 0001:00060cd0       ?doUnderScore@UnDecorator@@SAHXZ 10061cd0 f i libvcruntimed:undname.obj
 0001:00060d00       ?getArgumentList@UnDecorator@@CA?AVDName@@XZ 10061d00 f   libvcruntimed:undname.obj
 0001:00060ea0       ?getArgumentTypes@UnDecorator@@CA?AVDName@@XZ 10061ea0 f   libvcruntimed:undname.obj
 0001:00061040       ?getArrayType@UnDecorator@@CA?AVDName@@ABV2@@Z 10062040 f i libvcruntimed:undname.obj
 0001:00061360       ?getBasedType@UnDecorator@@CA?AVDName@@XZ 10062360 f   libvcruntimed:undname.obj
 0001:00061460       ?getBasicDataType@UnDecorator@@CA?AVDName@@ABV2@@Z 10062460 f   libvcruntimed:undname.obj
 0001:00061c00       ?getCHPEName@UnDecorator@@QAEPADPADH@Z 10062c00 f i libvcruntimed:undname.obj
 0001:00061dc0       ?getCallIndex@UnDecorator@@CA?AVDName@@XZ 10062dc0 f i libvcruntimed:undname.obj
 0001:00061de0       ?getCallingConvention@UnDecorator@@CA?AVDName@@XZ 10062de0 f   libvcruntimed:undname.obj
 0001:00062080       ?getDataIndirectType@UnDecorator@@CA?AVDName@@ABV2@PBD0H@Z 10063080 f   libvcruntimed:undname.obj
 0001:00062bc0       ?getDataIndirectType@UnDecorator@@CA?AVDName@@XZ 10063bc0 f i libvcruntimed:undname.obj
 0001:00062c10       ?getDataType@UnDecorator@@CA?AVDName@@PAV2@@Z 10063c10 f   libvcruntimed:undname.obj
 0001:00062d80       ?getDecoratedName@UnDecorator@@CA?AVDName@@XZ 10063d80 f   libvcruntimed:undname.obj
 0001:000632b0       ?getDimension@UnDecorator@@CA?AVDName@@_N@Z 100642b0 f   libvcruntimed:undname.obj
 0001:00063610       ?getDispatchTarget@UnDecorator@@CA?AVDName@@XZ 10064610 f   libvcruntimed:undname.obj
 0001:000636e0       ?getDisplacement@UnDecorator@@CA?AVDName@@XZ 100646e0 f i libvcruntimed:undname.obj
 0001:00063700       ?getECSUDataType@UnDecorator@@CA?AVDName@@XZ 10064700 f   libvcruntimed:undname.obj
 0001:00063950       ?getECSUName@UnDecorator@@CA?AVDName@@XZ 10064950 f i libvcruntimed:undname.obj
 0001:00063970       ?getEnumType@UnDecorator@@CA?AVDName@@XZ 10064970 f i libvcruntimed:undname.obj
 0001:00063b10       ?getExtendedDataIndirectType@UnDecorator@@CA?AVDName@@AAPBDAA_NH@Z 10064b10 f   libvcruntimed:undname.obj
 0001:00063e00       ?getExternalDataType@UnDecorator@@CA?AVDName@@ABV2@@Z 10064e00 f i libvcruntimed:undname.obj
 0001:00063ed0       ?getFunctionIndirectType@UnDecorator@@CA?AVDName@@ABV2@@Z 10064ed0 f   libvcruntimed:undname.obj
 0001:00064570       ?getGuardNumber@UnDecorator@@CA?AVDName@@XZ 10065570 f i libvcruntimed:undname.obj
 0001:00064590       ?getLastChar@DName@@QBEDXZ 10065590 f i libvcruntimed:undname.obj
 0001:000645e0       ?getLastChar@DNameStatusNode@@UBEDXZ 100655e0 f i libvcruntimed:undname.obj
 0001:00064620       ?getLastChar@charNode@@UBEDXZ 10065620 f i libvcruntimed:undname.obj
 0001:00064640       ?getLastChar@pDNameNode@@UBEDXZ 10065640 f i libvcruntimed:undname.obj
 0001:00064680       ?getLastChar@pairNode@@UBEDXZ 10065680 f i libvcruntimed:undname.obj
 0001:00064700       ?getLastChar@pcharNode@@UBEDXZ 10065700 f i libvcruntimed:undname.obj
 0001:00064740       ?getLexicalFrame@UnDecorator@@CA?AVDName@@XZ 10065740 f i libvcruntimed:undname.obj
 0001:00064790       ?getMemory@_HeapManager@@QAEPAXIH@Z 10065790 f   libvcruntimed:undname.obj
 0001:00064900       ?getNoexcept@UnDecorator@@CA?AVDName@@XZ 10065900 f   libvcruntimed:undname.obj
 0001:00064980       ?getNumberOfDimensions@UnDecorator@@CAHXZ 10065980 f   libvcruntimed:undname.obj
 0001:00064ac0       ?getOperatorName@UnDecorator@@CA?AVDName@@_NPA_N@Z 10065ac0 f i libvcruntimed:undname.obj
 0001:00065870       ?getPointerType@UnDecorator@@CA?AVDName@@ABV2@0@Z 10066870 f i libvcruntimed:undname.obj
 0001:000658b0       ?getPointerTypeArray@UnDecorator@@CA?AVDName@@ABV2@0@Z 100668b0 f i libvcruntimed:undname.obj
 0001:000658f0       ?getPrimaryDataType@UnDecorator@@CA?AVDName@@ABV2@@Z 100668f0 f   libvcruntimed:undname.obj
 0001:00065de0       ?getPtrRefDataType@UnDecorator@@CA?AVDName@@ABV2@H@Z 10066de0 f   libvcruntimed:undname.obj
 0001:000660a0       ?getPtrRefType@UnDecorator@@CA?AVDName@@ABV2@0PBD@Z 100670a0 f   libvcruntimed:undname.obj
 0001:00066270       ?getReferenceType@UnDecorator@@CA?AVDName@@ABV2@0PBD@Z 10067270 f i libvcruntimed:undname.obj
 0001:000662a0       ?getRestrictionSpec@UnDecorator@@CA?AVDName@@XZ 100672a0 f   libvcruntimed:undname.obj
 0001:00066470       ?getReturnType@UnDecorator@@CA?AVDName@@PAV2@@Z 10067470 f   libvcruntimed:undname.obj
 0001:000664d0       ?getScope@UnDecorator@@CA?AVDName@@XZ 100674d0 f   libvcruntimed:undname.obj
 0001:00066bd0       ?getScopedName@UnDecorator@@CA?AVDName@@XZ 10067bd0 f   libvcruntimed:undname.obj
 0001:00066d60       ?getSignedDimension@UnDecorator@@CA?AVDName@@XZ 10067d60 f   libvcruntimed:undname.obj
 0001:00066e00       ?getStorageConvention@UnDecorator@@CA?AVDName@@XZ 10067e00 f i libvcruntimed:undname.obj
 0001:00066e20       ?getString@DName@@QBEPADPAD0@Z 10067e20 f i libvcruntimed:undname.obj
 0001:00066e90       ?getString@DName@@QBEPADPADH@Z 10067e90 f i libvcruntimed:undname.obj
 0001:00066f40       ?getString@DNameStatusNode@@UBEPADPAD0@Z 10067f40 f i libvcruntimed:undname.obj
 0001:00066f80       ?getString@charNode@@UBEPADPAD0@Z 10067f80 f i libvcruntimed:undname.obj
 0001:00066fc0       ?getString@pDNameNode@@UBEPADPAD0@Z 10067fc0 f i libvcruntimed:undname.obj
 0001:00067010       ?getString@pairNode@@UBEPADPAD0@Z 10068010 f i libvcruntimed:undname.obj
 0001:000670c0       ?getString@pcharNode@@UBEPADPAD0@Z 100680c0 f i libvcruntimed:undname.obj
 0001:00067100       ?getStringEncoding@UnDecorator@@CA?AVDName@@PBDH@Z 10068100 f   libvcruntimed:undname.obj
 0001:00067250       ?getStringHelper@@YAPADPADPBD1H@Z 10068250 f i libvcruntimed:undname.obj
 0001:000672a0       ?getSymbolName@UnDecorator@@CA?AVDName@@XZ 100682a0 f i libvcruntimed:undname.obj
 0001:00067350       ?getTemplateArgumentList@UnDecorator@@CA?AVDName@@XZ 10068350 f   libvcruntimed:undname.obj
 0001:00067870       ?getTemplateConstant@UnDecorator@@CA?AVDName@@XZ 10068870 f   libvcruntimed:undname.obj
 0001:00068020       ?getTemplateName@UnDecorator@@CA?AVDName@@_N@Z 10069020 f   libvcruntimed:undname.obj
 0001:00068270       ?getThisType@UnDecorator@@CA?AVDName@@XZ 10069270 f i libvcruntimed:undname.obj
 0001:000682c0       ?getThrowTypes@UnDecorator@@CA?AVDName@@XZ 100692c0 f   libvcruntimed:undname.obj
 0001:00068310       ?getTypeEncoding@UnDecorator@@CAHXZ 10069310 f i libvcruntimed:undname.obj
 0001:00069040       ?getUndecoratedName@UnDecorator@@QAEPADPADH@Z 1006a040 f i libvcruntimed:undname.obj
 0001:000691e0       ?getVCallThunkType@UnDecorator@@CA?AVDName@@XZ 1006a1e0 f i libvcruntimed:undname.obj
 0001:00069260       ?getVbTableType@UnDecorator@@CA?AVDName@@ABV2@@Z 1006a260 f i libvcruntimed:undname.obj
 0001:00069280       ?getVdispMapType@UnDecorator@@CA?AVDName@@ABV2@@Z 1006a280 f i libvcruntimed:undname.obj
 0001:00069310       ?getVfTableType@UnDecorator@@CA?AVDName@@ABV2@@Z 1006a310 f i libvcruntimed:undname.obj
 0001:00069570       ?getZName@UnDecorator@@CA?AVDName@@_N0@Z 1006a570 f   libvcruntimed:undname.obj
 0001:00069930       ?haveTemplateParameters@UnDecorator@@SAHXZ 1006a930 f i libvcruntimed:undname.obj
 0001:00069950       ?isArray@DName@@QBEHXZ     1006a950 f i libvcruntimed:undname.obj
 0001:00069970       ?isComArray@DName@@QBEHXZ  1006a970 f i libvcruntimed:undname.obj
 0001:00069990       ?isEmpty@DName@@QBEHXZ     1006a990 f i libvcruntimed:undname.obj
 0001:000699d0       ?isFull@Replicator@@QBEHXZ 1006a9d0 f i libvcruntimed:undname.obj
 0001:00069a10       ?isNoTE@DName@@QBEHXZ      1006aa10 f i libvcruntimed:undname.obj
 0001:00069a30       ?isPinPtr@DName@@QBEHXZ    1006aa30 f i libvcruntimed:undname.obj
 0001:00069a50       ?isPtrRef@DName@@QBEHXZ    1006aa50 f i libvcruntimed:undname.obj
 0001:00069a70       ?isUDC@DName@@QBEHXZ       1006aa70 f i libvcruntimed:undname.obj
 0001:00069ac0       ?isUDTThunk@DName@@QBEHXZ  1006aac0 f i libvcruntimed:undname.obj
 0001:00069b10       ?isVCallThunk@DName@@QBEHXZ 1006ab10 f i libvcruntimed:undname.obj
 0001:00069b30       ?isValid@DName@@QBEHXZ     1006ab30 f i libvcruntimed:undname.obj
 0001:00069b70       ?length@DName@@QBEHXZ      1006ab70 f i libvcruntimed:undname.obj
 0001:00069bc0       ?length@DNameStatusNode@@UBEHXZ 1006abc0 f i libvcruntimed:undname.obj
 0001:00069be0       ?length@charNode@@UBEHXZ   1006abe0 f i libvcruntimed:undname.obj
 0001:00069c00       ?length@pDNameNode@@UBEHXZ 1006ac00 f i libvcruntimed:undname.obj
 0001:00069c40       ?length@pairNode@@UBEHXZ   1006ac40 f i libvcruntimed:undname.obj
 0001:00069cd0       ?length@pcharNode@@UBEHXZ  1006acd0 f i libvcruntimed:undname.obj
 0001:00069cf0       ?make@DNameStatusNode@@SAPBV1@W4DNameStatus@@@Z 1006acf0 f i libvcruntimed:undname.obj
 0001:00069d30       ?parseDecoratedName@UnDecorator@@CA?AVDName@@XZ 1006ad30 f   libvcruntimed:undname.obj
 0001:00069f20       ?setIsArray@DName@@QAEXXZ  1006af20 f i libvcruntimed:undname.obj
 0001:00069f50       ?setIsComArray@DName@@QAEXXZ 1006af50 f i libvcruntimed:undname.obj
 0001:00069f80       ?setIsNoTE@DName@@QAEXXZ   1006af80 f i libvcruntimed:undname.obj
 0001:00069fb0       ?setIsPinPtr@DName@@QAEXXZ 1006afb0 f i libvcruntimed:undname.obj
 0001:00069fe0       ?setIsUDC@DName@@QAEXXZ    1006afe0 f i libvcruntimed:undname.obj
 0001:0006a020       ?setIsVCallThunk@DName@@QAEXXZ 1006b020 f i libvcruntimed:undname.obj
 0001:0006a050       ?setPtrRef@DName@@QAEAAV1@XZ 1006b050 f i libvcruntimed:undname.obj
 0001:0006a080       ?status@DName@@QBE?AW4DNameStatus@@XZ 1006b080 f i libvcruntimed:undname.obj
 0001:0006a1a0       ___unDName                 1006b1a0 f   libvcruntimed:undname.obj
 0001:0006a1e0       ___unDNameEx               1006b1e0 f   libvcruntimed:undname.obj
 0001:0006a2e0       _unDNameGenerateCHPE       1006b2e0 f   libvcruntimed:undname.obj
 0001:0006a360       __local_unwind4            1006b360 f   libvcruntimed:exsup4.obj
 0001:0006a438       __seh_longjmp_unwind4@4    1006b438 f   libvcruntimed:exsup4.obj
 0001:0006a460       @_EH4_CallFilterFunc@8     1006b460 f   libvcruntimed:exsup4.obj
 0001:0006a478       @_EH4_TransferToHandler@8  1006b478 f   libvcruntimed:exsup4.obj
 0001:0006a494       @_EH4_GlobalUnwind2@8      1006b494 f   libvcruntimed:exsup4.obj
 0001:0006a4b0       @_EH4_LocalUnwind@16       1006b4b0 f   libvcruntimed:exsup4.obj
 0001:0006a530       ___except_validate_context_record 1006b530 f   libvcruntimed:jbcxrval.obj
 0001:0006a590       ___except_validate_jump_buffer 1006b590 f   libvcruntimed:jbcxrval.obj
 0001:0006a5b0       ___except_validate_jump_buffer_common 1006b5b0 f i libvcruntimed:jbcxrval.obj
 0001:0006a620       ??$?RU__vcrt_ptd@@@__crt_internal_free_policy@@QBEXQBU__vcrt_ptd@@@Z 1006b620 f i libvcruntimed:per_thread_data.obj
 0001:0006a650       ??0?$__crt_unique_heap_ptr@U__vcrt_ptd@@U__crt_internal_free_policy@@@@QAE@QAU__vcrt_ptd@@@Z 1006b650 f i libvcruntimed:per_thread_data.obj
 0001:0006a690       ??1?$__crt_unique_heap_ptr@U__vcrt_ptd@@U__crt_internal_free_policy@@@@QAE@XZ 1006b690 f i libvcruntimed:per_thread_data.obj
 0001:0006a6d0       ??B?$__crt_unique_heap_ptr@U__vcrt_ptd@@U__crt_internal_free_policy@@@@QBE_NXZ 1006b6d0 f i libvcruntimed:per_thread_data.obj
 0001:0006a6f0       ?detach@?$__crt_unique_heap_ptr@U__vcrt_ptd@@U__crt_internal_free_policy@@@@QAEPAU__vcrt_ptd@@XZ 1006b6f0 f i libvcruntimed:per_thread_data.obj
 0001:0006a720       ?get@?$__crt_unique_heap_ptr@U__vcrt_ptd@@U__crt_internal_free_policy@@@@QBEPAU__vcrt_ptd@@XZ 1006b720 f i libvcruntimed:per_thread_data.obj
 0001:0006a740       ?is_valid@?$__crt_unique_heap_ptr@U__vcrt_ptd@@U__crt_internal_free_policy@@@@QBE_NXZ 1006b740 f i libvcruntimed:per_thread_data.obj
 0001:0006a780       ?release@?$__crt_unique_heap_ptr@U__vcrt_ptd@@U__crt_internal_free_policy@@@@QAEXXZ 1006b780 f i libvcruntimed:per_thread_data.obj
 0001:0006a7e0       ___vcrt_freefls@4          1006b7e0 f   libvcruntimed:per_thread_data.obj
 0001:0006a810       ___vcrt_freeptd            1006b810 f   libvcruntimed:per_thread_data.obj
 0001:0006a880       ___vcrt_getptd             1006b880 f   libvcruntimed:per_thread_data.obj
 0001:0006a8b0       ___vcrt_getptd_noexit      1006b8b0 f   libvcruntimed:per_thread_data.obj
 0001:0006aa60       ___vcrt_getptd_noinit      1006ba60 f   libvcruntimed:per_thread_data.obj
 0001:0006aad0       ___vcrt_initialize_ptd     1006bad0 f   libvcruntimed:per_thread_data.obj
 0001:0006ab30       ___vcrt_uninitialize_ptd   1006bb30 f   libvcruntimed:per_thread_data.obj
 0001:0006ab70       ___vcrt_initialize_locks   1006bb70 f   libvcruntimed:locks.obj
 0001:0006abe0       ___vcrt_lock               1006bbe0 f   libvcruntimed:locks.obj
 0001:0006ac00       ___vcrt_uninitialize_locks 1006bc00 f   libvcruntimed:locks.obj
 0001:0006ac60       ___vcrt_unlock             1006bc60 f   libvcruntimed:locks.obj
 0001:0006ac80       ??$?BX@__crt_fast_encoded_nullptr_t@@QBEPAXXZ 1006bc80 f i libvcruntimed:winapi_downlevel.obj
 0001:0006aca0       ??$__crt_fast_decode_pointer@PAX@@YAPAXQAX@Z 1006bca0 f i libvcruntimed:winapi_downlevel.obj
 0001:0006acd0       ??$__crt_fast_encode_pointer@PAX@@YAPAXQAX@Z 1006bcd0 f i libvcruntimed:winapi_downlevel.obj
 0001:0006ad10       ??$__crt_interlocked_exchange_pointer@UHINSTANCE__@@PAU1@@@YAPAUHINSTANCE__@@PDSAU0@QAU0@@Z 1006bd10 f i libvcruntimed:winapi_downlevel.obj
 0001:0006ad20       ??$__crt_interlocked_exchange_pointer@UHINSTANCE__@@PAX@@YAPAUHINSTANCE__@@PDSAU0@QAX@Z 1006bd20 f i libvcruntimed:winapi_downlevel.obj
 0001:0006ad30       ??$__crt_interlocked_exchange_pointer@XPAX@@YAPAXPDSAXQAX@Z 1006bd30 f i libvcruntimed:winapi_downlevel.obj
 0001:0006ad40       ??$__crt_interlocked_read_pointer@UHINSTANCE__@@@@YAPAUHINSTANCE__@@PDSAU0@@Z 1006bd40 f i libvcruntimed:winapi_downlevel.obj
 0001:0006ad60       ??$__crt_interlocked_read_pointer@X@@YAPAXPDSAX@Z 1006bd60 f i libvcruntimed:winapi_downlevel.obj
 0001:0006b270       ___vcrt_FlsAlloc           1006c270 f   libvcruntimed:winapi_downlevel.obj
 0001:0006b2c0       ___vcrt_FlsFree            1006c2c0 f   libvcruntimed:winapi_downlevel.obj
 0001:0006b310       ___vcrt_FlsGetValue        1006c310 f   libvcruntimed:winapi_downlevel.obj
 0001:0006b360       ___vcrt_FlsSetValue        1006c360 f   libvcruntimed:winapi_downlevel.obj
 0001:0006b3c0       ___vcrt_InitializeCriticalSectionEx 1006c3c0 f   libvcruntimed:winapi_downlevel.obj
 0001:0006b420       ___vcrt_initialize_winapi_thunks 1006c420 f   libvcruntimed:winapi_downlevel.obj
 0001:0006b4a0       ___vcrt_uninitialize_winapi_thunks 1006c4a0 f   libvcruntimed:winapi_downlevel.obj
 0001:0006b530       ??$?0AAViterator@TryBlockMap@__FrameHandler3@@AAV012@$0A@@?$pair@Viterator@TryBlockMap@__FrameHandler3@@V123@@std@@QAE@AAViterator@TryBlockMap@__FrameHandler3@@0@Z 1006c530 f i libvcruntimed:trnsctrl.obj
 0001:0006b590       ??$forward@AAViterator@TryBlockMap@__FrameHandler3@@@std@@YAAAViterator@TryBlockMap@__FrameHandler3@@AAV123@@Z 1006c590 f i libvcruntimed:trnsctrl.obj
 0001:0006b5a0       ??0iterator@TryBlockMap@__FrameHandler3@@QAE@AAV12@I@Z 1006c5a0 f i libvcruntimed:trnsctrl.obj
 0001:0006b5d0       ?GetRangeOfTrysToCheck@__FrameHandler3@@SA?AU?$pair@Viterator@TryBlockMap@__FrameHandler3@@V123@@std@@AAVTryBlockMap@1@HH@Z 1006c5d0 f   libvcruntimed:trnsctrl.obj
 0001:0006b700       ?_CallCatchBlock2@@YAPAXPAUEHRegistrationNode@@PBU_s_FuncInfo@@PAXHK@Z 1006c700 f   libvcruntimed:trnsctrl.obj
 0001:0006b790       ?_CallSETranslator@@YAHPAUEHExceptionRecord@@PAUEHRegistrationNode@@PAX2PBU_s_FuncInfo@@H1@Z 1006c790 f   libvcruntimed:trnsctrl.obj
 0001:0006b8c0       ?_JumpToContinuation@@YGXPAXPAUEHRegistrationNode@@@Z 1006c8c0 f   libvcruntimed:trnsctrl.obj
 0001:0006b900       ?_UnwindNestedFrames@@YGXPAUEHRegistrationNode@@PAUEHExceptionRecord@@@Z 1006c900 f   libvcruntimed:trnsctrl.obj
 0001:0006b970       ?getFuncInfo@TryBlockMap@__FrameHandler3@@QAEPBU_s_FuncInfo@@XZ 1006c970 f i libvcruntimed:trnsctrl.obj
 0001:0006b990       __CatchGuardHandler        1006c990 f   libvcruntimed:trnsctrl.obj
 0001:0006b9f0       __CreateFrameInfo          1006c9f0 f   libvcruntimed:trnsctrl.obj
 0001:0006ba30       __FindAndUnlinkFrame       1006ca30 f   libvcruntimed:trnsctrl.obj
 0001:0006bac0       __TranslatorGuardHandler   1006cac0 f   libvcruntimed:trnsctrl.obj
 0001:0006bba0       ___CxxFrameHandler         1006cba0 f   libvcruntimed:trnsctrl.obj
 0001:0006bbf0       ___CxxFrameHandler2        1006cbf0 f   libvcruntimed:trnsctrl.obj
 0001:0006bc40       ___CxxFrameHandler3        1006cc40 f   libvcruntimed:trnsctrl.obj
 0001:0006bc90       ___CxxLongjmpUnwind@4      1006cc90 f   libvcruntimed:trnsctrl.obj
 0001:0006bce0       __global_unwind2           1006cce0 f   libvcruntimed:exsup.obj
 0001:0006bd46       __local_unwind2            1006cd46 f   libvcruntimed:exsup.obj
 0001:0006bdca       __abnormal_termination     1006cdca f   libvcruntimed:exsup.obj
 0001:0006bdf0       __NLG_Notify1              1006cdf0 f   libvcruntimed:exsup.obj
 0001:0006bdfc       __NLG_Notify               1006cdfc f   libvcruntimed:exsup.obj
 0001:0006be13       __NLG_Dispatch             1006ce13     libvcruntimed:exsup.obj
 0001:0006be13       __NLG_Dispatch2            1006ce13     libvcruntimed:exsup.obj
 0001:0006be1b       __NLG_Call                 1006ce1b f   libvcruntimed:exsup.obj
 0001:0006be1d       __NLG_Return2              1006ce1d     libvcruntimed:exsup.obj
 0001:0006cd10       ??$TypeMatchHelper@V__FrameHandler3@@@@YAHPBU_s_HandlerType@@PBU_s_CatchableType@@PBU_s_ThrowInfo@@@Z 1006dd10 f i libvcruntimed:frame.obj
 0001:0006ce20       ??$__InternalCxxFrameHandler@V__FrameHandler3@@@@YA?AW4_EXCEPTION_DISPOSITION@@PAUEHExceptionRecord@@PAUEHRegistrationNode@@PAU_CONTEXT@@PAXPBU_s_FuncInfo@@H1E@Z 1006de20 f i libvcruntimed:frame.obj
 0001:0006d070       ??0HandlerMap@__FrameHandler3@@QAE@PBU_s_TryBlockMapEntry@@PAX@Z 1006e070 f i libvcruntimed:frame.obj
 0001:0006d0a0       ??0TryBlockMap@__FrameHandler3@@QAE@PBU_s_FuncInfo@@PAX@Z 1006e0a0 f i libvcruntimed:frame.obj
 0001:0006d0d0       ??0bad_exception@std@@QAE@ABV01@@Z 1006e0d0 f i libvcruntimed:frame.obj
 0001:0006d100       ??0bad_exception@std@@QAE@XZ 1006e100 f i libvcruntimed:frame.obj
 0001:0006d130       ??0exception@std@@QAE@ABV01@@Z 1006e130 f i libvcruntimed:frame.obj
 0001:0006d180       ??0exception@std@@QAE@QBDH@Z 1006e180 f i libvcruntimed:frame.obj
 0001:0006d1c0       ??0iterator@HandlerMap@__FrameHandler3@@QAE@AAV12@I@Z 1006e1c0 f i libvcruntimed:frame.obj
 0001:0006d1f0       ??1bad_exception@std@@UAE@XZ 1006e1f0 f i libvcruntimed:frame.obj
 0001:0006d210       ??1exception@std@@UAE@XZ   1006e210 f i libvcruntimed:frame.obj
 0001:0006d240       ??8iterator@HandlerMap@__FrameHandler3@@QBE_NABV012@@Z 1006e240 f i libvcruntimed:frame.obj
 0001:0006d280       ??8type_info@@QBE_NABV0@@Z 1006e280 f i libvcruntimed:frame.obj
 0001:0006d2d0       ??9iterator@HandlerMap@__FrameHandler3@@QBE_NABV012@@Z 1006e2d0 f i libvcruntimed:frame.obj
 0001:0006d320       ??Diterator@HandlerMap@__FrameHandler3@@QAEPBU_s_HandlerType@@XZ 1006e320 f i libvcruntimed:frame.obj
 0001:0006d350       ??Diterator@TryBlockMap@__FrameHandler3@@QAEPBU_s_TryBlockMapEntry@@XZ 1006e350 f i libvcruntimed:frame.obj
 0001:0006d380       ??Eiterator@HandlerMap@__FrameHandler3@@QAEAAV012@XZ 1006e380 f i libvcruntimed:frame.obj
 0001:0006d3b0       ??Eiterator@TryBlockMap@__FrameHandler3@@QAEAAV012@XZ 1006e3b0 f i libvcruntimed:frame.obj
 0001:0006d3e0       ??Miterator@TryBlockMap@__FrameHandler3@@QBE_NABV012@@Z 1006e3e0 f i libvcruntimed:frame.obj
 0001:0006d420       ??_Ebad_exception@std@@UAEPAXI@Z 1006e420 f i libvcruntimed:frame.obj
 0001:0006d420       ??_Gbad_exception@std@@UAEPAXI@Z 1006e420 f i libvcruntimed:frame.obj
 0001:0006d460       ??_Gexception@std@@UAEPAXI@Z 1006e460 f i libvcruntimed:frame.obj
 0001:0006d460       ??_Eexception@std@@UAEPAXI@Z 1006e460 f i libvcruntimed:frame.obj
 0001:0006d4a0       ?BuildCatchObject@__FrameHandler3@@SAXPAUEHExceptionRecord@@PAXPBU_s_HandlerType@@PBU_s_CatchableType@@@Z 1006e4a0 f   libvcruntimed:frame.obj
 0001:0006d4d0       ?BuildCatchObjectHelper@__FrameHandler3@@SAHPAUEHExceptionRecord@@PAXPBU_s_HandlerType@@PBU_s_CatchableType@@@Z 1006e4d0 f   libvcruntimed:frame.obj
 0001:0006d950       ?FrameUnwindToEmptyState@__FrameHandler3@@SAXPAUEHRegistrationNode@@PAXPBU_s_FuncInfo@@@Z 1006e950 f   libvcruntimed:frame.obj
 0001:0006d980       ?FrameUnwindToState@__FrameHandler3@@SAXPAUEHRegistrationNode@@PAXPBU_s_FuncInfo@@H@Z 1006e980 f   libvcruntimed:frame.obj
 0001:0006db60       ?GetMaxState@__FrameHandler3@@SAHPAXPBU_s_FuncInfo@@@Z 1006eb60 f i libvcruntimed:frame.obj
 0001:0006dcc0       ?TypeMatch@__FrameHandler3@@SAHPBU_s_HandlerType@@PBU_s_CatchableType@@PBU_s_ThrowInfo@@@Z 1006ecc0 f   libvcruntimed:frame.obj
 0001:0006dce0       ?_CallMemberFunction1@@YGXQAX00@Z 1006ece0 f i libvcruntimed:frame.obj
 0001:0006dd00       ?_CallMemberFunction2@@YGXQAX00H@Z 1006ed00 f i libvcruntimed:frame.obj
 0001:0006dd30       ?_ValidateExecute@@YA_NP6GHXZ@Z 1006ed30 f i libvcruntimed:frame.obj
 0001:0006dd50       ?_ValidateRead@@YA_NPBXI@Z 1006ed50 f i libvcruntimed:frame.obj
 0001:0006dd70       ?_ValidateWrite@@YA_NPAXI@Z 1006ed70 f i libvcruntimed:frame.obj
 0001:0006dd90       ?begin@HandlerMap@__FrameHandler3@@QAE?AViterator@12@XZ 1006ed90 f i libvcruntimed:frame.obj
 0001:0006ddc0       ?end@HandlerMap@__FrameHandler3@@QAE?AViterator@12@XZ 1006edc0 f i libvcruntimed:frame.obj
 0001:0006ddf0       ?getESTypes@__FrameHandler3@@SAPBU_s_ESTypeList@@PBU_s_FuncInfo@@@Z 1006edf0 f i libvcruntimed:frame.obj
 0001:0006de00       ?getLastEntry@HandlerMap@__FrameHandler3@@QAEPBU_s_HandlerType@@XZ 1006ee00 f i libvcruntimed:frame.obj
 0001:0006de30       ?getMagicNum@__FrameHandler3@@SAIPBU_s_FuncInfo@@@Z 1006ee30 f i libvcruntimed:frame.obj
 0001:0006de50       ?getNumTryBlocks@TryBlockMap@__FrameHandler3@@QAEIXZ 1006ee50 f i libvcruntimed:frame.obj
 0001:0006de70       ?isEHs@__FrameHandler3@@SA_NPBU_s_FuncInfo@@@Z 1006ee70 f i libvcruntimed:frame.obj
 0001:0006dea0       ?isNoExcept@__FrameHandler3@@SA_NPBU_s_FuncInfo@@@Z 1006eea0 f i libvcruntimed:frame.obj
 0001:0006ded0       ?what@exception@std@@UBEPBDXZ 1006eed0 f i libvcruntimed:frame.obj
 0001:0006df10       ___BuildCatchObject        1006ef10 f   libvcruntimed:frame.obj
 0001:0006df40       ___BuildCatchObjectHelper  1006ef40 f   libvcruntimed:frame.obj
 0001:0006df70       ___TypeMatch               1006ef70 f   libvcruntimed:frame.obj
 0001:0006df90       ___vcrt_EncodePointer      1006ef90 f i libvcruntimed:frame.obj
 0001:0006dfb0       __CallSettingFrame@12      1006efb0 f   libvcruntimed:lowhelpr.obj
 0001:0006dfd7       __NLG_Return               1006efd7     libvcruntimed:lowhelpr.obj
 0001:0006e040       __get_unexpected           1006f040 f   libvcruntimed:unexpected.obj
 0001:0006e060       _set_unexpected            1006f060 f   libvcruntimed:unexpected.obj
 0001:0006e0a0       _unexpected                1006f0a0 f   libvcruntimed:unexpected.obj
 0001:0006e0e0       _memmove                   1006f0e0 f   libvcruntimed:memmove.obj
 0001:0006e7c0       ?GetCurrentState@__FrameHandler3@@SAHPAUEHRegistrationNode@@PAXPBU_s_FuncInfo@@@Z 1006f7c0 f   libvcruntimed:ehstate.obj
 0001:0006e800       ?SetState@__FrameHandler3@@SAXPAUEHRegistrationNode@@PBU_s_FuncInfo@@H@Z 1006f800 f   libvcruntimed:ehstate.obj
 0001:0006e820       ___DestructExceptionObject 1006f820 f   libvcruntimed:ehhelpers.obj
 0001:0006e9a0       ?_CallMemberFunction0@@YGXQAX0@Z 1006f9a0 f i libvcruntimed:ehhelpers.obj
 0001:0006e9c0       ?raw_name@type_info@@QBEPBDXZ 1006f9c0 f i libvcruntimed:ehhelpers.obj
 0001:0006e9e0       __IsExceptionObjectToBeDestroyed 1006f9e0 f   libvcruntimed:ehhelpers.obj
 0001:0006ea30       __SetWinRTOutOfMemoryExceptionCallback 1006fa30 f   libvcruntimed:ehhelpers.obj
 0001:0006ea40       ___AdjustPointer           1006fa40 f   libvcruntimed:ehhelpers.obj
 0001:0006eaa0       ___FrameUnwindFilter       1006faa0 f   libvcruntimed:ehhelpers.obj
 0001:0006eb30       ___GetPlatformExceptionInfo 1006fb30 f   libvcruntimed:ehhelpers.obj
 0001:0006ebd0       ___current_exception       1006fbd0 f   libvcruntimed:ehhelpers.obj
 0001:0006ebe0       ___current_exception_context 1006fbe0 f   libvcruntimed:ehhelpers.obj
 0001:0006ebf0       ___processing_throw        1006fbf0 f   libvcruntimed:ehhelpers.obj
 0001:0006ec00       ___std_terminate           1006fc00 f   libvcruntimed:ehhelpers.obj
 0001:0006ec10       __is_exception_typeof      1006fc10 f   libvcruntimed:ehhelpers.obj
 0001:0006ed20       ??$?RD@__crt_public_free_policy@@QBEXQBD@Z 1006fd20 f i libvcruntimed:std_exception.obj
 0001:0006ed40       ??0?$__crt_unique_heap_ptr@DU__crt_public_free_policy@@@@QAE@QAD@Z 1006fd40 f i libvcruntimed:std_exception.obj
 0001:0006ed60       ??1?$__crt_unique_heap_ptr@DU__crt_public_free_policy@@@@QAE@XZ 1006fd60 f i libvcruntimed:std_exception.obj
 0001:0006ed80       ??B?$__crt_unique_heap_ptr@DU__crt_public_free_policy@@@@QBE_NXZ 1006fd80 f i libvcruntimed:std_exception.obj
 0001:0006eda0       ?detach@?$__crt_unique_heap_ptr@DU__crt_public_free_policy@@@@QAEPADXZ 1006fda0 f i libvcruntimed:std_exception.obj
 0001:0006edd0       ?get@?$__crt_unique_heap_ptr@DU__crt_public_free_policy@@@@QBEPADXZ 1006fdd0 f i libvcruntimed:std_exception.obj
 0001:0006edf0       ?is_valid@?$__crt_unique_heap_ptr@DU__crt_public_free_policy@@@@QBE_NXZ 1006fdf0 f i libvcruntimed:std_exception.obj
 0001:0006ee30       ?release@?$__crt_unique_heap_ptr@DU__crt_public_free_policy@@@@QAEXXZ 1006fe30 f i libvcruntimed:std_exception.obj
 0001:0006ee60       ___std_exception_copy      1006fe60 f   libvcruntimed:std_exception.obj
 0001:0006ef80       ___std_exception_destroy   1006ff80 f   libvcruntimed:std_exception.obj
 0001:0006efc0       __CxxThrowException@8      1006ffc0 f   libvcruntimed:throw.obj
 0001:0006f0a0       __abs64                    100700a0 f   libucrtd:abs.obj
 0001:0006f100       _abs                       10070100 f   libucrtd:abs.obj
 0001:0006f140       _fabs                      10070140 f   libucrtd:fabs.obj
 0001:0006f200       __chgsign                  10070200 f   libucrtd:ieeemisc.obj
 0001:0006f240       __chgsignf                 10070240 f   libucrtd:ieeemisc.obj
 0001:0006f290       __copysign                 10070290 f   libucrtd:ieeemisc.obj
 0001:0006f2d0       __copysignf                100702d0 f   libucrtd:ieeemisc.obj
 0001:0006f330       __finite                   10070330 f   libucrtd:ieeemisc.obj
 0001:0006f360       __fpclass                  10070360 f   libucrtd:ieeemisc.obj
 0001:0006f490       __isnan                    10070490 f   libucrtd:ieeemisc.obj
 0001:0006f4f0       __logb                     100704f0 f   libucrtd:ieeemisc.obj
 0001:0006f650       __nextafter                10070650 f   libucrtd:ieeemisc.obj
 0001:0006f680       __scalb                    10070680 f   libucrtd:ieeemisc.obj
 0001:0006f6b0       _pow                       100706b0 f   libucrtd:pow.obj
 0001:0006f710       _sqrt                      10070710 f   libucrtd:sqrt.obj
 0001:0006f730       _cos                       10070730 f   libucrtd:cos.obj
 0001:0006f790       _sin                       10070790 f   libucrtd:sin.obj
 0001:0006f7f0       _atan2                     100707f0 f   libucrtd:atan2.obj
 0001:0006f800       _floor                     10070800 f   libucrtd:floor_pentium4.obj
 0001:0006f840       __floor_pentium4           10070840 f   libucrtd:floor_pentium4.obj
 0001:0006f940       ??$?RU?$__crt_report_hook_node@D@@@__crt_internal_free_policy@@QBEXQBU?$__crt_report_hook_node@D@@@Z 10070940 f i libucrtd:dbgrpt.obj
 0001:0006f970       ??$?RU?$__crt_report_hook_node@_W@@@__crt_internal_free_policy@@QBEXQBU?$__crt_report_hook_node@_W@@@Z 10070970 f i libucrtd:dbgrpt.obj
 0001:00070ac0       ??$get_module_file_name@AAPAUHINSTANCE__@@AAY0BAF@DK@?$__crt_char_traits@D@@SAKAAPAUHINSTANCE__@@AAY0BAF@D$$QAK@Z 10071ac0 f i libucrtd:dbgrpt.obj
 0001:00070af0       ??$get_module_file_name@AAPAUHINSTANCE__@@AAY0BAF@_WK@?$__crt_char_traits@_W@@SAKAAPAUHINSTANCE__@@AAY0BAF@_W$$QAK@Z 10071af0 f i libucrtd:dbgrpt.obj
 0001:00070b20       ??$tcscpy_s@AAY0BAF@DIPBD@?$__crt_char_traits@D@@SAHAAY0BAF@D$$QAI$$QAPBD@Z 10071b20 f i libucrtd:dbgrpt.obj
 0001:00070b50       ??$tcscpy_s@AAY0BAF@_WIPB_W@?$__crt_char_traits@_W@@SAHAAY0BAF@_W$$QAI$$QAPB_W@Z 10071b50 f i libucrtd:dbgrpt.obj
 0001:00070b80       ??$tcslen@AAY0BAF@D@?$__crt_char_traits@D@@SAIAAY0BAF@D@Z 10071b80 f i libucrtd:dbgrpt.obj
 0001:00070ba0       ??$tcslen@AAY0BAF@_W@?$__crt_char_traits@_W@@SAIAAY0BAF@_W@Z 10071ba0 f i libucrtd:dbgrpt.obj
 0001:00070bc0       ??$tcslen@ABQBD@?$__crt_char_traits@D@@SAIABQBD@Z 10071bc0 f i libucrtd:dbgrpt.obj
 0001:00070be0       ??$tcslen@ABQB_W@?$__crt_char_traits@_W@@SAIABQB_W@Z 10071be0 f i libucrtd:dbgrpt.obj
 0001:00070d20       ??0?$__crt_unique_heap_ptr@U?$__crt_report_hook_node@D@@U__crt_internal_free_policy@@@@QAE@QAU?$__crt_report_hook_node@D@@@Z 10071d20 f i libucrtd:dbgrpt.obj
 0001:00070d40       ??0?$__crt_unique_heap_ptr@U?$__crt_report_hook_node@_W@@U__crt_internal_free_policy@@@@QAE@QAU?$__crt_report_hook_node@_W@@@Z 10071d40 f i libucrtd:dbgrpt.obj
 0001:00070d60       ??1?$__crt_unique_heap_ptr@U?$__crt_report_hook_node@D@@U__crt_internal_free_policy@@@@QAE@XZ 10071d60 f i libucrtd:dbgrpt.obj
 0001:00070d80       ??1?$__crt_unique_heap_ptr@U?$__crt_report_hook_node@_W@@U__crt_internal_free_policy@@@@QAE@XZ 10071d80 f i libucrtd:dbgrpt.obj
 0001:00070da0       ??B?$__crt_unique_heap_ptr@U?$__crt_report_hook_node@D@@U__crt_internal_free_policy@@@@QBE_NXZ 10071da0 f i libucrtd:dbgrpt.obj
 0001:00070dc0       ??B?$__crt_unique_heap_ptr@U?$__crt_report_hook_node@_W@@U__crt_internal_free_policy@@@@QBE_NXZ 10071dc0 f i libucrtd:dbgrpt.obj
 0001:00071460       ?detach@?$__crt_unique_heap_ptr@U?$__crt_report_hook_node@D@@U__crt_internal_free_policy@@@@QAEPAU?$__crt_report_hook_node@D@@XZ 10072460 f i libucrtd:dbgrpt.obj
 0001:00071490       ?detach@?$__crt_unique_heap_ptr@U?$__crt_report_hook_node@_W@@U__crt_internal_free_policy@@@@QAEPAU?$__crt_report_hook_node@_W@@XZ 10072490 f i libucrtd:dbgrpt.obj
 0001:000714c0       ?get@?$__crt_unique_heap_ptr@U?$__crt_report_hook_node@D@@U__crt_internal_free_policy@@@@QBEPAU?$__crt_report_hook_node@D@@XZ 100724c0 f i libucrtd:dbgrpt.obj
 0001:000714e0       ?get@?$__crt_unique_heap_ptr@U?$__crt_report_hook_node@_W@@U__crt_internal_free_policy@@@@QBEPAU?$__crt_report_hook_node@_W@@XZ 100724e0 f i libucrtd:dbgrpt.obj
 0001:00071560       ?is_valid@?$__crt_unique_heap_ptr@U?$__crt_report_hook_node@D@@U__crt_internal_free_policy@@@@QBE_NXZ 10072560 f i libucrtd:dbgrpt.obj
 0001:000715a0       ?is_valid@?$__crt_unique_heap_ptr@U?$__crt_report_hook_node@_W@@U__crt_internal_free_policy@@@@QBE_NXZ 100725a0 f i libucrtd:dbgrpt.obj
 0001:000715e0       ?release@?$__crt_unique_heap_ptr@U?$__crt_report_hook_node@D@@U__crt_internal_free_policy@@@@QAEXXZ 100725e0 f i libucrtd:dbgrpt.obj
 0001:00071610       ?release@?$__crt_unique_heap_ptr@U?$__crt_report_hook_node@_W@@U__crt_internal_free_policy@@@@QAEXXZ 10072610 f i libucrtd:dbgrpt.obj
 0001:00071640       __CrtDbgReport             10072640 f   libucrtd:dbgrpt.obj
 0001:000716a0       __CrtDbgReportW            100726a0 f   libucrtd:dbgrpt.obj
 0001:00071700       __CrtSetReportHook2        10072700 f   libucrtd:dbgrpt.obj
 0001:00071720       __CrtSetReportHookW2       10072720 f   libucrtd:dbgrpt.obj
 0001:00071740       ___acrt_MessageWindowA     10072740 f   libucrtd:dbgrpt.obj
 0001:00071770       ___acrt_MessageWindowW     10072770 f   libucrtd:dbgrpt.obj
 0001:000717a0       __invoke_watson_if_error   100727a0 f i libucrtd:dbgrpt.obj
 0001:000717e0       __invoke_watson_if_oneof   100727e0 f i libucrtd:dbgrpt.obj
 0001:00071830       __snwprintf_s              10072830 f i libucrtd:dbgrpt.obj
 0001:00071880       __vsnwprintf_s_l           10072880 f i libucrtd:dbgrpt.obj
 0001:000718f0       __errcode                  100728f0 f   libucrtd:fpexcept.obj
 0001:00071980       __except1                  10072980 f   libucrtd:fpexcept.obj
 0001:00071ac0       __except2                  10072ac0 f   libucrtd:fpexcept.obj
 0001:00071c70       __handle_exc               10072c70 f   libucrtd:fpexcept.obj
 0001:00072050       __handle_qnan2             10073050 f   libucrtd:fpexcept.obj
 0001:00072070       __raise_exc                10073070 f   libucrtd:fpexcept.obj
 0001:000720b0       __raise_exc_ex             100730b0 f   libucrtd:fpexcept.obj
 0001:00072790       __raise_excf               10073790 f   libucrtd:fpexcept.obj
 0001:000727d0       __set_errno_from_matherr   100737d0 f   libucrtd:fpexcept.obj
 0001:00072820       __umatherr                 10073820 f   libucrtd:fpexcept.obj
 0001:000728f0       __initterm                 100738f0 f   libucrtd:initterm.obj
 0001:00072950       __initterm_e               10073950 f   libucrtd:initterm.obj
 0001:000729c0       ??0_LocaleUpdate@@QAE@QAU__crt_locale_pointers@@@Z 100739c0 f i libucrtd:debug_heap.obj
 0001:00072ad0       ??1_LocaleUpdate@@QAE@XZ   10073ad0 f i libucrtd:debug_heap.obj
 0001:00072b10       ?GetLocaleT@_LocaleUpdate@@QAEPAU__crt_locale_pointers@@XZ 10073b10 f i libucrtd:debug_heap.obj
 0001:00074970       __CrtCheckMemory           10075970 f   libucrtd:debug_heap.obj
 0001:00074b60       __CrtDoForAllClientObjects 10075b60 f   libucrtd:debug_heap.obj
 0001:00074d00       __CrtDumpMemoryLeaks       10075d00 f   libucrtd:debug_heap.obj
 0001:00074dc0       __CrtGetAllocHook          10075dc0 f   libucrtd:debug_heap.obj
 0001:00074dd0       __CrtGetDumpClient         10075dd0 f   libucrtd:debug_heap.obj
 0001:00074de0       __CrtIsMemoryBlock         10075de0 f   libucrtd:debug_heap.obj
 0001:00074f80       __CrtIsValidHeapPointer    10075f80 f   libucrtd:debug_heap.obj
 0001:00074fc0       __CrtIsValidPointer        10075fc0 f   libucrtd:debug_heap.obj
 0001:00074ff0       __CrtMemCheckpoint         10075ff0 f   libucrtd:debug_heap.obj
 0001:000752b0       __CrtMemDifference         100762b0 f   libucrtd:debug_heap.obj
 0001:000755c0       __CrtMemDumpAllObjectsSince 100765c0 f   libucrtd:debug_heap.obj
 0001:00075680       __CrtMemDumpStatistics     10076680 f   libucrtd:debug_heap.obj
 0001:000757f0       __CrtReportBlockType       100767f0 f   libucrtd:debug_heap.obj
 0001:00075830       __CrtSetAllocHook          10076830 f   libucrtd:debug_heap.obj
 0001:00075860       __CrtSetBreakAlloc         10076860 f   libucrtd:debug_heap.obj
 0001:00075890       __CrtSetDbgBlockType       10076890 f   libucrtd:debug_heap.obj
 0001:000759a0       __CrtSetDbgFlag            100769a0 f   libucrtd:debug_heap.obj
 0001:00075b70       __CrtSetDumpClient         10076b70 f   libucrtd:debug_heap.obj
 0001:00075ba0       ___acrt_disable_global_locale_sync 10076ba0 f i libucrtd:debug_heap.obj
 0001:00075bd0       ___acrt_enable_global_locale_sync 10076bd0 f i libucrtd:debug_heap.obj
 0001:00075c00       ___acrt_get_locale_data_prefix 10076c00 f i libucrtd:debug_heap.obj
 0001:00075c20       ___acrt_locale_changed     10076c20 f i libucrtd:debug_heap.obj
 0001:00075c50       ___p__crtBreakAlloc        10076c50 f   libucrtd:debug_heap.obj
 0001:00075c60       ___p__crtDbgFlag           10076c60 f   libucrtd:debug_heap.obj
 0001:00075c70       __aligned_free_dbg         10076c70 f   libucrtd:debug_heap.obj
 0001:00075d50       __aligned_malloc_dbg       10076d50 f   libucrtd:debug_heap.obj
 0001:00075d80       __aligned_msize_dbg        10076d80 f   libucrtd:debug_heap.obj
 0001:00075ef0       __aligned_offset_malloc_dbg 10076ef0 f   libucrtd:debug_heap.obj
 0001:00076140       __aligned_offset_realloc_dbg 10077140 f   libucrtd:debug_heap.obj
 0001:00076510       __aligned_offset_recalloc_dbg 10077510 f   libucrtd:debug_heap.obj
 0001:00076600       __aligned_realloc_dbg      10077600 f   libucrtd:debug_heap.obj
 0001:00076630       __aligned_recalloc_dbg     10077630 f   libucrtd:debug_heap.obj
 0001:00076670       __calloc_dbg               10077670 f   libucrtd:debug_heap.obj
 0001:00076700       __chvalidchk_l             10077700 f i libucrtd:debug_heap.obj
 0001:00076730       __expand_dbg               10077730 f   libucrtd:debug_heap.obj
 0001:000768b0       __free_dbg                 100778b0 f   libucrtd:debug_heap.obj
 0001:00076990       __ischartype_l             10077990 f i libucrtd:debug_heap.obj
 0001:00076a30       __malloc_dbg               10077a30 f   libucrtd:debug_heap.obj
 0001:00076a60       __msize_dbg                10077a60 f   libucrtd:debug_heap.obj
 0001:00076c50       __realloc_dbg              10077c50 f   libucrtd:debug_heap.obj
 0001:00076d20       __recalloc_dbg             10077d20 f   libucrtd:debug_heap.obj
 0001:00076e60       __seh_filter_dll           10077e60 f   libucrtd:exception_filter.obj
 0001:00076e90       __seh_filter_exe           10077e90 f   libucrtd:exception_filter.obj
 0001:00077120       ??$?B$$A6GXPAXK0@Z@__crt_fast_encoded_nullptr_t@@QBEP6GXPAXK0@ZXZ 10078120 f i libucrtd:exit.obj
 0001:00077220       ??$__crt_fast_decode_pointer@P6GXPAXK0@Z@@YAP6GXPAXK0@ZQ6GX0K0@Z@Z 10078220 f i libucrtd:exit.obj
 0001:00077260       ??$__crt_fast_encode_pointer@P6GXPAXK0@Z@@YAP6GXPAXK0@ZQ6GX0K0@Z@Z 10078260 f i libucrtd:exit.obj
 0001:000772a0       ??$__crt_get_proc_address@P6GXI@Z@@YAP6GXI@ZQAUHINSTANCE__@@QBD@Z 100782a0 f i libucrtd:exit.obj
 0001:000772c0       ??$__crt_interlocked_read@J@@YAJPDJ@Z 100782c0 f i libucrtd:exit.obj
 0001:00077380       ??0?$__crt_unique_handle_t@U__crt_hmodule_traits@@@@QAE@QAUHINSTANCE__@@@Z 10078380 f i libucrtd:exit.obj
 0001:000773a0       ??1?$__crt_unique_handle_t@U__crt_hmodule_traits@@@@QAE@XZ 100783a0 f i libucrtd:exit.obj
 0001:000775d0       ?__acrt_select_exit_lock@@YA?AW4__acrt_lock_id@@XZ 100785d0 f i libucrtd:exit.obj
 0001:00077600       ?close@?$__crt_unique_handle_t@U__crt_hmodule_traits@@@@QAEXXZ 10078600 f i libucrtd:exit.obj
 0001:00077640       ?close@__crt_hmodule_traits@@SA_NPAUHINSTANCE__@@@Z 10078640 f i libucrtd:exit.obj
 0001:00077770       ?get@?$__crt_unique_handle_t@U__crt_hmodule_traits@@@@QBEPAUHINSTANCE__@@XZ 10078770 f i libucrtd:exit.obj
 0001:00077790       ?get_address_of@?$__crt_unique_handle_t@U__crt_hmodule_traits@@@@QAEPAPAUHINSTANCE__@@XZ 10078790 f i libucrtd:exit.obj
 0001:000777b0       ?get_invalid_value@__crt_hmodule_traits@@SAPAUHINSTANCE__@@XZ 100787b0 f i libucrtd:exit.obj
 0001:00077980       __Exit                     10078980 f   libucrtd:exit.obj
 0001:000779a0       ___acrt_initialize_thread_local_exit_callback 100789a0 f   libucrtd:exit.obj
 0001:000779c0       __c_exit                   100789c0 f   libucrtd:exit.obj
 0001:000779e0       __cexit                    100789e0 f   libucrtd:exit.obj
 0001:00077a00       __exit                     10078a00 f   libucrtd:exit.obj
 0001:00077a20       __is_c_termination_complete 10078a20 f   libucrtd:exit.obj
 0001:00077a40       __register_thread_local_exe_atexit_callback 10078a40 f   libucrtd:exit.obj
 0001:00077a90       _exit                      10078a90 f   libucrtd:exit.obj
 0001:00077ab0       _quick_exit                10078ab0 f   libucrtd:exit.obj
 0001:00077ad0       ??$?RE@__crt_internal_free_policy@@QBEXQBE@Z 10078ad0 f i libucrtd:argv_parsing.obj
 0001:00077b00       ??$?RPAD@__crt_internal_free_policy@@QBEXQBQAD@Z 10078b00 f i libucrtd:argv_parsing.obj
 0001:00077b30       ??$?RPA_W@__crt_internal_free_policy@@QBEXQBQA_W@Z 10078b30 f i libucrtd:argv_parsing.obj
 0001:00078200       ??$get_module_file_name@$$TAAY0BAF@DH@?$__crt_char_traits@D@@SAK$$QA$$TAAY0BAF@D$$QAH@Z 10079200 f i libucrtd:argv_parsing.obj
 0001:00078230       ??$get_module_file_name@$$TAAY0BAF@_WH@?$__crt_char_traits@_W@@SAK$$QA$$TAAY0BAF@_W$$QAH@Z 10079230 f i libucrtd:argv_parsing.obj
 0001:00078b20       ??$set_program_name@PAD@?$__crt_char_traits@D@@SAX$$QAPAD@Z 10079b20 f i libucrtd:argv_parsing.obj
 0001:00078b40       ??$set_program_name@PA_W@?$__crt_char_traits@_W@@SAX$$QAPA_W@Z 10079b40 f i libucrtd:argv_parsing.obj
 0001:00078ba0       ??0?$__crt_unique_heap_ptr@EU__crt_internal_free_policy@@@@QAE@QAE@Z 10079ba0 f i libucrtd:argv_parsing.obj
 0001:00078bc0       ??0?$__crt_unique_heap_ptr@PADU__crt_internal_free_policy@@@@QAE@QAPAD@Z 10079bc0 f i libucrtd:argv_parsing.obj
 0001:00078be0       ??0?$__crt_unique_heap_ptr@PA_WU__crt_internal_free_policy@@@@QAE@QAPA_W@Z 10079be0 f i libucrtd:argv_parsing.obj
 0001:00078c00       ??1?$__crt_unique_heap_ptr@EU__crt_internal_free_policy@@@@QAE@XZ 10079c00 f i libucrtd:argv_parsing.obj
 0001:00078c20       ??1?$__crt_unique_heap_ptr@PADU__crt_internal_free_policy@@@@QAE@XZ 10079c20 f i libucrtd:argv_parsing.obj
 0001:00078c40       ??1?$__crt_unique_heap_ptr@PA_WU__crt_internal_free_policy@@@@QAE@XZ 10079c40 f i libucrtd:argv_parsing.obj
 0001:00078c60       ??B?$__crt_unique_heap_ptr@EU__crt_internal_free_policy@@@@QBE_NXZ 10079c60 f i libucrtd:argv_parsing.obj
 0001:00078d40       ?detach@?$__crt_unique_heap_ptr@EU__crt_internal_free_policy@@@@QAEPAEXZ 10079d40 f i libucrtd:argv_parsing.obj
 0001:00078d70       ?detach@?$__crt_unique_heap_ptr@PADU__crt_internal_free_policy@@@@QAEPAPADXZ 10079d70 f i libucrtd:argv_parsing.obj
 0001:00078da0       ?detach@?$__crt_unique_heap_ptr@PA_WU__crt_internal_free_policy@@@@QAEPAPA_WXZ 10079da0 f i libucrtd:argv_parsing.obj
 0001:00078e30       ?get@?$__crt_unique_heap_ptr@EU__crt_internal_free_policy@@@@QBEPAEXZ 10079e30 f i libucrtd:argv_parsing.obj
 0001:00078e50       ?get@?$__crt_unique_heap_ptr@PADU__crt_internal_free_policy@@@@QBEPAPADXZ 10079e50 f i libucrtd:argv_parsing.obj
 0001:00078e70       ?get@?$__crt_unique_heap_ptr@PA_WU__crt_internal_free_policy@@@@QBEPAPA_WXZ 10079e70 f i libucrtd:argv_parsing.obj
 0001:00078e90       ?get_address_of@?$__crt_unique_heap_ptr@PADU__crt_internal_free_policy@@@@QAEPAPAPADXZ 10079e90 f i libucrtd:argv_parsing.obj
 0001:00078eb0       ?get_address_of@?$__crt_unique_heap_ptr@PA_WU__crt_internal_free_policy@@@@QAEPAPAPA_WXZ 10079eb0 f i libucrtd:argv_parsing.obj
 0001:00078f10       ?is_valid@?$__crt_unique_heap_ptr@EU__crt_internal_free_policy@@@@QBE_NXZ 10079f10 f i libucrtd:argv_parsing.obj
 0001:00078f50       ?release@?$__crt_unique_heap_ptr@EU__crt_internal_free_policy@@@@QAEXXZ 10079f50 f i libucrtd:argv_parsing.obj
 0001:00078f80       ?release@?$__crt_unique_heap_ptr@PADU__crt_internal_free_policy@@@@QAEXXZ 10079f80 f i libucrtd:argv_parsing.obj
 0001:00078fb0       ?release@?$__crt_unique_heap_ptr@PA_WU__crt_internal_free_policy@@@@QAEXXZ 10079fb0 f i libucrtd:argv_parsing.obj
 0001:00079030       ___acrt_allocate_buffer_for_argv 1007a030 f   libucrtd:argv_parsing.obj
 0001:00079120       __configure_narrow_argv    1007a120 f   libucrtd:argv_parsing.obj
 0001:00079140       __configure_wide_argv      1007a140 f   libucrtd:argv_parsing.obj
 0001:00079160       __set_pgmptr               1007a160 f i libucrtd:argv_parsing.obj
 0001:00079180       __set_wpgmptr              1007a180 f i libucrtd:argv_parsing.obj
 0001:00079192       ??$?R_W@__crt_internal_free_policy@@QBEXQB_W@Z 1007a192 f i libucrtd:environment_initialization.obj
 0001:00079712       ??$get_environment_from_os@$$V@?$__crt_char_traits@D@@SAPADXZ 1007a712 f i libucrtd:environment_initialization.obj
 0001:00079717       ??$get_environment_from_os@$$V@?$__crt_char_traits@_W@@SAPA_WXZ 1007a717 f i libucrtd:environment_initialization.obj
 0001:00079888       ??$set_variable_in_environment_nolock@PADH@?$__crt_char_traits@D@@SAH$$QAPAD$$QAH@Z 1007a888 f i libucrtd:environment_initialization.obj
 0001:000798a6       ??$set_variable_in_environment_nolock@PA_WH@?$__crt_char_traits@_W@@SAH$$QAPA_W$$QAH@Z 1007a8a6 f i libucrtd:environment_initialization.obj
 0001:000798c4       ??$tcscpy_s@PADABIAAPAD@?$__crt_char_traits@D@@SAH$$QAPADABIAAPAD@Z 1007a8c4 f i libucrtd:environment_initialization.obj
 0001:000798e9       ??$tcscpy_s@PA_WABIAAPA_W@?$__crt_char_traits@_W@@SAH$$QAPA_WABIAAPA_W@Z 1007a8e9 f i libucrtd:environment_initialization.obj
 0001:0007990e       ??$tcslen@AAPAD@?$__crt_char_traits@D@@SAIAAPAD@Z 1007a90e f i libucrtd:environment_initialization.obj
 0001:0007992c       ??$tcslen@AAPA_W@?$__crt_char_traits@_W@@SAIAAPA_W@Z 1007a92c f i libucrtd:environment_initialization.obj
 0001:00079951       ??$uninitialize@A6AXAAPAPAD@Z@?$dual_state_global@PAPAD@__crt_state_management@@QAEXA6AXAAPAPAD@Z@Z 1007a951 f i libucrtd:environment_initialization.obj
 0001:00079984       ??$uninitialize@A6AXAAPAPA_W@Z@?$dual_state_global@PAPA_W@__crt_state_management@@QAEXA6AXAAPAPA_W@Z@Z 1007a984 f i libucrtd:environment_initialization.obj
 0001:000799f9       ??0?$__crt_unique_heap_ptr@_WU__crt_internal_free_policy@@@@QAE@QA_W@Z 1007a9f9 f i libucrtd:environment_initialization.obj
 0001:00079a0d       ??1?$__crt_unique_heap_ptr@_WU__crt_internal_free_policy@@@@QAE@XZ 1007aa0d f i libucrtd:environment_initialization.obj
 0001:00079a27       ??B?$__crt_unique_heap_ptr@PADU__crt_internal_free_policy@@@@QBE_NXZ 1007aa27 f i libucrtd:environment_initialization.obj
 0001:00079a2e       ??B?$__crt_unique_heap_ptr@PA_WU__crt_internal_free_policy@@@@QBE_NXZ 1007aa2e f i libucrtd:environment_initialization.obj
 0001:00079a35       ??B?$__crt_unique_heap_ptr@_WU__crt_internal_free_policy@@@@QBE_NXZ 1007aa35 f i libucrtd:environment_initialization.obj
 0001:00079a3c       ?__crt_compute_required_transform_buffer_count@@YAIIQBD@Z 1007aa3c f i libucrtd:environment_initialization.obj
 0001:00079a5f       ?__crt_compute_required_transform_buffer_count@@YAIIQB_W@Z 1007aa5f f i libucrtd:environment_initialization.obj
 0001:00079a84       ?__crt_transform_string@@YAIIQBDQA_WI@Z 1007aa84 f i libucrtd:environment_initialization.obj
 0001:00079aaa       ?__crt_transform_string@@YAIIQB_WQADI@Z 1007aaaa f i libucrtd:environment_initialization.obj
 0001:00079ad4       ?detach@?$__crt_unique_heap_ptr@DU__crt_internal_free_policy@@@@QAEPADXZ 1007aad4 f i libucrtd:environment_initialization.obj
 0001:00079ada       ?detach@?$__crt_unique_heap_ptr@_WU__crt_internal_free_policy@@@@QAEPA_WXZ 1007aada f i libucrtd:environment_initialization.obj
 0001:00079ae0       ?get@?$__crt_unique_heap_ptr@_WU__crt_internal_free_policy@@@@QBEPA_WXZ 1007aae0 f i libucrtd:environment_initialization.obj
 0001:00079ae3       ?get_current_state_index@__crt_state_management@@YAIXZ 1007aae3 f i libucrtd:environment_initialization.obj
 0001:00079b0a       ?initialize@?$dual_state_global@PAPAD@__crt_state_management@@QAEXQAPAD@Z 1007ab0a f i libucrtd:environment_initialization.obj
 0001:00079b39       ?initialize@?$dual_state_global@PAPA_W@__crt_state_management@@QAEXQAPA_W@Z 1007ab39 f i libucrtd:environment_initialization.obj
 0001:00079b68       ?is_valid@?$__crt_unique_heap_ptr@PADU__crt_internal_free_policy@@@@QBE_NXZ 1007ab68 f i libucrtd:environment_initialization.obj
 0001:00079b6f       ?is_valid@?$__crt_unique_heap_ptr@PA_WU__crt_internal_free_policy@@@@QBE_NXZ 1007ab6f f i libucrtd:environment_initialization.obj
 0001:00079b76       ?is_valid@?$__crt_unique_heap_ptr@_WU__crt_internal_free_policy@@@@QBE_NXZ 1007ab76 f i libucrtd:environment_initialization.obj
 0001:00079b85       ?release@?$__crt_unique_heap_ptr@_WU__crt_internal_free_policy@@@@QAEXXZ 1007ab85 f i libucrtd:environment_initialization.obj
 0001:00079b9f       ?value@?$dual_state_global@PAPAD@__crt_state_management@@QAEAAPAPADXZ 1007ab9f f i libucrtd:environment_initialization.obj
 0001:00079ba2       ?value@?$dual_state_global@PAPA_W@__crt_state_management@@QAEAAPAPA_WXZ 1007aba2 f i libucrtd:environment_initialization.obj
 0001:00079ba5       ___dcrt_get_or_create_narrow_environment_nolock 1007aba5 f   libucrtd:environment_initialization.obj
 0001:00079baa       ___dcrt_get_or_create_wide_environment_nolock 1007abaa f   libucrtd:environment_initialization.obj
 0001:00079baf       ___dcrt_uninitialize_environments_nolock 1007abaf f   libucrtd:environment_initialization.obj
 0001:00079bf3       ___p__environ              1007abf3 f   libucrtd:environment_initialization.obj
 0001:00079bf9       ___p__wenviron             1007abf9 f   libucrtd:environment_initialization.obj
 0001:00079bff       __get_initial_narrow_environment 1007abff f   libucrtd:environment_initialization.obj
 0001:00079c18       __get_initial_wide_environment 1007ac18 f   libucrtd:environment_initialization.obj
 0001:00079c31       __initialize_narrow_environment 1007ac31 f   libucrtd:environment_initialization.obj
 0001:00079c36       __initialize_wide_environment 1007ac36 f   libucrtd:environment_initialization.obj
 0001:00079c40       ??$?BP6AXXZ@__crt_fast_encoded_nullptr_t@@QBEPAP6AXXZXZ 1007ac40 f i libucrtd:onexit.obj
 0001:00079c60       ??$?RP6AXXZ@__crt_internal_free_policy@@QBEXQBQ6AXXZ@Z 1007ac60 f i libucrtd:onexit.obj
 0001:00079e70       ??$__crt_fast_encode_pointer@P6AHXZ@@YAP6AHXZQ6AHXZ@Z 1007ae70 f i libucrtd:onexit.obj
 0001:00079fc0       ??0?$__crt_unique_heap_ptr@P6AXXZU__crt_internal_free_policy@@@@QAE@QAP6AXXZ@Z 1007afc0 f i libucrtd:onexit.obj
 0001:00079fe0       ??1?$__crt_unique_heap_ptr@P6AXXZU__crt_internal_free_policy@@@@QAE@XZ 1007afe0 f i libucrtd:onexit.obj
 0001:0007a000       ??1scoped_global_state_reset@__crt_state_management@@QAE@XZ 1007b000 f i libucrtd:onexit.obj
 0001:0007a5a0       ?detach@?$__crt_unique_heap_ptr@P6AXXZU__crt_internal_free_policy@@@@QAEPAP6AXXZXZ 1007b5a0 f i libucrtd:onexit.obj
 0001:0007a5d0       ?release@?$__crt_unique_heap_ptr@P6AXXZU__crt_internal_free_policy@@@@QAEXXZ 1007b5d0 f i libucrtd:onexit.obj
 0001:0007a600       __crt_at_quick_exit        1007b600 f   libucrtd:onexit.obj
 0001:0007a620       __crt_atexit               1007b620 f   libucrtd:onexit.obj
 0001:0007a640       __execute_onexit_table     1007b640 f   libucrtd:onexit.obj
 0001:0007a670       __initialize_onexit_table  1007b670 f   libucrtd:onexit.obj
 0001:0007a6f0       __register_onexit_function 1007b6f0 f   libucrtd:onexit.obj
 0001:0007aa20       ?initialize@?$dual_state_global@PAU__crt_locale_data@@@__crt_state_management@@QAEXQAU__crt_locale_data@@@Z 1007ba20 f i libucrtd:initialization.obj
 0001:0007aa70       ___acrt_initialize         1007ba70 f   libucrtd:initialization.obj
 0001:0007aa90       ___acrt_thread_attach      1007ba90 f   libucrtd:initialization.obj
 0001:0007aab0       ___acrt_thread_detach      1007bab0 f   libucrtd:initialization.obj
 0001:0007aad0       ___acrt_uninitialize       1007bad0 f   libucrtd:initialization.obj
 0001:0007aaf0       ___acrt_uninitialize_critical 1007baf0 f   libucrtd:initialization.obj
 0001:0007ab50       __get_terminate            1007bb50 f   libucrtd:terminate.obj
 0001:0007ab70       _set_terminate             1007bb70 f   libucrtd:terminate.obj
 0001:0007abb0       _terminate                 1007bbb0 f   libucrtd:terminate.obj
 0001:0007b040       _strcpy_s                  1007c040 f   libucrtd:strcpy_s.obj
 0001:0007b580       _strcat_s                  1007c580 f   libucrtd:strcat_s.obj
 0001:0007b5b0       ??$?0ABV?$stream_output_adapter@D@__crt_stdio_output@@AB_KABQBDABQAU__crt_locale_pointers@@ABQAD@?$format_validation_base@DV?$stream_output_adapter@D@__crt_stdio_output@@@__crt_stdio_output@@IAE@ABV?$stream_output_adapter@D@1@AB_KABQBDABQAU__crt_locale_pointers@@ABQAD@Z 1007c5b0 f i libucrtd:output.obj
 0001:0007b5f0       ??$?0ABV?$stream_output_adapter@D@__crt_stdio_output@@AB_KABQBDABQAU__crt_locale_pointers@@ABQAD@?$positional_parameter_base@DV?$stream_output_adapter@D@__crt_stdio_output@@@__crt_stdio_output@@IAE@ABV?$stream_output_adapter@D@1@AB_KABQBDABQAU__crt_locale_pointers@@ABQAD@Z 1007c5f0 f i libucrtd:output.obj
 0001:0007b680       ??$?0ABV?$stream_output_adapter@D@__crt_stdio_output@@AB_KABQBDABQAU__crt_locale_pointers@@ABQAD@?$standard_base@DV?$stream_output_adapter@D@__crt_stdio_output@@@__crt_stdio_output@@IAE@ABV?$stream_output_adapter@D@1@AB_KABQBDABQAU__crt_locale_pointers@@ABQAD@Z 1007c680 f i libucrtd:output.obj
 0001:0007b6e0       ??$?0ABV?$stream_output_adapter@_W@__crt_stdio_output@@AB_KABQB_WABQAU__crt_locale_pointers@@ABQAD@?$format_validation_base@_WV?$stream_output_adapter@_W@__crt_stdio_output@@@__crt_stdio_output@@IAE@ABV?$stream_output_adapter@_W@1@AB_KABQB_WABQAU__crt_locale_pointers@@ABQAD@Z 1007c6e0 f i libucrtd:output.obj
 0001:0007b720       ??$?0ABV?$stream_output_adapter@_W@__crt_stdio_output@@AB_KABQB_WABQAU__crt_locale_pointers@@ABQAD@?$positional_parameter_base@_WV?$stream_output_adapter@_W@__crt_stdio_output@@@__crt_stdio_output@@IAE@ABV?$stream_output_adapter@_W@1@AB_KABQB_WABQAU__crt_locale_pointers@@ABQAD@Z 1007c720 f i libucrtd:output.obj
 0001:0007b7b0       ??$?0ABV?$stream_output_adapter@_W@__crt_stdio_output@@AB_KABQB_WABQAU__crt_locale_pointers@@ABQAD@?$standard_base@_WV?$stream_output_adapter@_W@__crt_stdio_output@@@__crt_stdio_output@@IAE@ABV?$stream_output_adapter@_W@1@AB_KABQB_WABQAU__crt_locale_pointers@@ABQAD@Z 1007c7b0 f i libucrtd:output.obj
 0001:0007b810       ??$?0ABV?$string_output_adapter@D@__crt_stdio_output@@AB_KABQBDABQAU__crt_locale_pointers@@ABQAD@?$format_validation_base@DV?$string_output_adapter@D@__crt_stdio_output@@@__crt_stdio_output@@IAE@ABV?$string_output_adapter@D@1@AB_KABQBDABQAU__crt_locale_pointers@@ABQAD@Z 1007c810 f i libucrtd:output.obj
 0001:0007b850       ??$?0ABV?$string_output_adapter@D@__crt_stdio_output@@AB_KABQBDABQAU__crt_locale_pointers@@ABQAD@?$positional_parameter_base@DV?$string_output_adapter@D@__crt_stdio_output@@@__crt_stdio_output@@IAE@ABV?$string_output_adapter@D@1@AB_KABQBDABQAU__crt_locale_pointers@@ABQAD@Z 1007c850 f i libucrtd:output.obj
 0001:0007b8e0       ??$?0ABV?$string_output_adapter@D@__crt_stdio_output@@AB_KABQBDABQAU__crt_locale_pointers@@ABQAD@?$standard_base@DV?$string_output_adapter@D@__crt_stdio_output@@@__crt_stdio_output@@IAE@ABV?$string_output_adapter@D@1@AB_KABQBDABQAU__crt_locale_pointers@@ABQAD@Z 1007c8e0 f i libucrtd:output.obj
 0001:0007b940       ??$?0ABV?$string_output_adapter@_W@__crt_stdio_output@@AB_KABQB_WABQAU__crt_locale_pointers@@ABQAD@?$format_validation_base@_WV?$string_output_adapter@_W@__crt_stdio_output@@@__crt_stdio_output@@IAE@ABV?$string_output_adapter@_W@1@AB_KABQB_WABQAU__crt_locale_pointers@@ABQAD@Z 1007c940 f i libucrtd:output.obj
 0001:0007b980       ??$?0ABV?$string_output_adapter@_W@__crt_stdio_output@@AB_KABQB_WABQAU__crt_locale_pointers@@ABQAD@?$positional_parameter_base@_WV?$string_output_adapter@_W@__crt_stdio_output@@@__crt_stdio_output@@IAE@ABV?$string_output_adapter@_W@1@AB_KABQB_WABQAU__crt_locale_pointers@@ABQAD@Z 1007c980 f i libucrtd:output.obj
 0001:0007ba10       ??$?0ABV?$string_output_adapter@_W@__crt_stdio_output@@AB_KABQB_WABQAU__crt_locale_pointers@@ABQAD@?$standard_base@_WV?$string_output_adapter@_W@__crt_stdio_output@@@__crt_stdio_output@@IAE@ABV?$string_output_adapter@_W@1@AB_KABQB_WABQAU__crt_locale_pointers@@ABQAD@Z 1007ca10 f i libucrtd:output.obj
 0001:0007f890       ??$count@D@formatting_buffer@__crt_stdio_output@@QBEIXZ 10080890 f i libucrtd:output.obj
 0001:0007f8e0       ??$count@_W@formatting_buffer@__crt_stdio_output@@QBEIXZ 100808e0 f i libucrtd:output.obj
 0001:0007f930       ??$data@D@formatting_buffer@__crt_stdio_output@@QAEPADXZ 10080930 f i libucrtd:output.obj
 0001:0007f980       ??$data@_W@formatting_buffer@__crt_stdio_output@@QAEPA_WXZ 10080980 f i libucrtd:output.obj
 0001:0007f9d0       ??$ensure_buffer_is_big_enough@D@formatting_buffer@__crt_stdio_output@@QAE_NI@Z 100809d0 f i libucrtd:output.obj
 0001:0007faf0       ??$ensure_buffer_is_big_enough@_W@formatting_buffer@__crt_stdio_output@@QAE_NI@Z 10080af0 f i libucrtd:output.obj
 0001:0007fc10       ??$extract_argument_from_va_list@C_J@?$positional_parameter_base@DV?$stream_output_adapter@D@__crt_stdio_output@@@__crt_stdio_output@@IAE_NAA_J@Z 10080c10 f i libucrtd:output.obj
 0001:0007fd90       ??$extract_argument_from_va_list@C_J@?$positional_parameter_base@DV?$string_output_adapter@D@__crt_stdio_output@@@__crt_stdio_output@@IAE_NAA_J@Z 10080d90 f i libucrtd:output.obj
 0001:0007ff10       ??$extract_argument_from_va_list@C_J@?$positional_parameter_base@_WV?$stream_output_adapter@_W@__crt_stdio_output@@@__crt_stdio_output@@IAE_NAA_J@Z 10080f10 f i libucrtd:output.obj
 0001:00080090       ??$extract_argument_from_va_list@C_J@?$positional_parameter_base@_WV?$string_output_adapter@_W@__crt_stdio_output@@@__crt_stdio_output@@IAE_NAA_J@Z 10081090 f i libucrtd:output.obj
 0001:00080210       ??$extract_argument_from_va_list@C_J@?$standard_base@DV?$stream_output_adapter@D@__crt_stdio_output@@@__crt_stdio_output@@IAE_NAA_J@Z 10081210 f i libucrtd:output.obj
 0001:00080250       ??$extract_argument_from_va_list@C_J@?$standard_base@DV?$string_output_adapter@D@__crt_stdio_output@@@__crt_stdio_output@@IAE_NAA_J@Z 10081250 f i libucrtd:output.obj
 0001:00080290       ??$extract_argument_from_va_list@C_J@?$standard_base@_WV?$stream_output_adapter@_W@__crt_stdio_output@@@__crt_stdio_output@@IAE_NAA_J@Z 10081290 f i libucrtd:output.obj
 0001:000802d0       ??$extract_argument_from_va_list@C_J@?$standard_base@_WV?$string_output_adapter@_W@__crt_stdio_output@@@__crt_stdio_output@@IAE_NAA_J@Z 100812d0 f i libucrtd:output.obj
 0001:00080310       ??$extract_argument_from_va_list@E_J@?$positional_parameter_base@DV?$stream_output_adapter@D@__crt_stdio_output@@@__crt_stdio_output@@IAE_NAA_J@Z 10081310 f i libucrtd:output.obj
 0001:00080490       ??$extract_argument_from_va_list@E_J@?$positional_parameter_base@DV?$string_output_adapter@D@__crt_stdio_output@@@__crt_stdio_output@@IAE_NAA_J@Z 10081490 f i libucrtd:output.obj
 0001:00080610       ??$extract_argument_from_va_list@E_J@?$positional_parameter_base@_WV?$stream_output_adapter@_W@__crt_stdio_output@@@__crt_stdio_output@@IAE_NAA_J@Z 10081610 f i libucrtd:output.obj
 0001:00080790       ??$extract_argument_from_va_list@E_J@?$positional_parameter_base@_WV?$string_output_adapter@_W@__crt_stdio_output@@@__crt_stdio_output@@IAE_NAA_J@Z 10081790 f i libucrtd:output.obj
 0001:00080910       ??$extract_argument_from_va_list@E_J@?$standard_base@DV?$stream_output_adapter@D@__crt_stdio_output@@@__crt_stdio_output@@IAE_NAA_J@Z 10081910 f i libucrtd:output.obj
 0001:00080950       ??$extract_argument_from_va_list@E_J@?$standard_base@DV?$string_output_adapter@D@__crt_stdio_output@@@__crt_stdio_output@@IAE_NAA_J@Z 10081950 f i libucrtd:output.obj
 0001:00080990       ??$extract_argument_from_va_list@E_J@?$standard_base@_WV?$stream_output_adapter@_W@__crt_stdio_output@@@__crt_stdio_output@@IAE_NAA_J@Z 10081990 f i libucrtd:output.obj
 0001:000809d0       ??$extract_argument_from_va_list@E_J@?$standard_base@_WV?$string_output_adapter@_W@__crt_stdio_output@@@__crt_stdio_output@@IAE_NAA_J@Z 100819d0 f i libucrtd:output.obj
 0001:00080a10       ??$extract_argument_from_va_list@F_J@?$positional_parameter_base@DV?$stream_output_adapter@D@__crt_stdio_output@@@__crt_stdio_output@@IAE_NAA_J@Z 10081a10 f i libucrtd:output.obj
 0001:00080b90       ??$extract_argument_from_va_list@F_J@?$positional_parameter_base@DV?$string_output_adapter@D@__crt_stdio_output@@@__crt_stdio_output@@IAE_NAA_J@Z 10081b90 f i libucrtd:output.obj
 0001:00080d10       ??$extract_argument_from_va_list@F_J@?$positional_parameter_base@_WV?$stream_output_adapter@_W@__crt_stdio_output@@@__crt_stdio_output@@IAE_NAA_J@Z 10081d10 f i libucrtd:output.obj
 0001:00080e90       ??$extract_argument_from_va_list@F_J@?$positional_parameter_base@_WV?$string_output_adapter@_W@__crt_stdio_output@@@__crt_stdio_output@@IAE_NAA_J@Z 10081e90 f i libucrtd:output.obj
 0001:00081010       ??$extract_argument_from_va_list@F_J@?$standard_base@DV?$stream_output_adapter@D@__crt_stdio_output@@@__crt_stdio_output@@IAE_NAA_J@Z 10082010 f i libucrtd:output.obj
 0001:00081050       ??$extract_argument_from_va_list@F_J@?$standard_base@DV?$string_output_adapter@D@__crt_stdio_output@@@__crt_stdio_output@@IAE_NAA_J@Z 10082050 f i libucrtd:output.obj
 0001:00081090       ??$extract_argument_from_va_list@F_J@?$standard_base@_WV?$stream_output_adapter@_W@__crt_stdio_output@@@__crt_stdio_output@@IAE_NAA_J@Z 10082090 f i libucrtd:output.obj
 0001:000810d0       ??$extract_argument_from_va_list@F_J@?$standard_base@_WV?$string_output_adapter@_W@__crt_stdio_output@@@__crt_stdio_output@@IAE_NAA_J@Z 100820d0 f i libucrtd:output.obj
 0001:00081110       ??$extract_argument_from_va_list@GD@?$positional_parameter_base@DV?$stream_output_adapter@D@__crt_stdio_output@@@__crt_stdio_output@@IAE_NAAD@Z 10082110 f i libucrtd:output.obj
 0001:00081290       ??$extract_argument_from_va_list@GD@?$positional_parameter_base@DV?$string_output_adapter@D@__crt_stdio_output@@@__crt_stdio_output@@IAE_NAAD@Z 10082290 f i libucrtd:output.obj
 0001:00081410       ??$extract_argument_from_va_list@GD@?$standard_base@DV?$stream_output_adapter@D@__crt_stdio_output@@@__crt_stdio_output@@IAE_NAAD@Z 10082410 f i libucrtd:output.obj
 0001:00081440       ??$extract_argument_from_va_list@GD@?$standard_base@DV?$string_output_adapter@D@__crt_stdio_output@@@__crt_stdio_output@@IAE_NAAD@Z 10082440 f i libucrtd:output.obj
 0001:00081470       ??$extract_argument_from_va_list@G_J@?$positional_parameter_base@DV?$stream_output_adapter@D@__crt_stdio_output@@@__crt_stdio_output@@IAE_NAA_J@Z 10082470 f i libucrtd:output.obj
 0001:000815f0       ??$extract_argument_from_va_list@G_J@?$positional_parameter_base@DV?$string_output_adapter@D@__crt_stdio_output@@@__crt_stdio_output@@IAE_NAA_J@Z 100825f0 f i libucrtd:output.obj
 0001:00081770       ??$extract_argument_from_va_list@G_J@?$positional_parameter_base@_WV?$stream_output_adapter@_W@__crt_stdio_output@@@__crt_stdio_output@@IAE_NAA_J@Z 10082770 f i libucrtd:output.obj
 0001:000818f0       ??$extract_argument_from_va_list@G_J@?$positional_parameter_base@_WV?$string_output_adapter@_W@__crt_stdio_output@@@__crt_stdio_output@@IAE_NAA_J@Z 100828f0 f i libucrtd:output.obj
 0001:00081a70       ??$extract_argument_from_va_list@G_J@?$standard_base@DV?$stream_output_adapter@D@__crt_stdio_output@@@__crt_stdio_output@@IAE_NAA_J@Z 10082a70 f i libucrtd:output.obj
 0001:00081ab0       ??$extract_argument_from_va_list@G_J@?$standard_base@DV?$string_output_adapter@D@__crt_stdio_output@@@__crt_stdio_output@@IAE_NAA_J@Z 10082ab0 f i libucrtd:output.obj
 0001:00081af0       ??$extract_argument_from_va_list@G_J@?$standard_base@_WV?$stream_output_adapter@_W@__crt_stdio_output@@@__crt_stdio_output@@IAE_NAA_J@Z 10082af0 f i libucrtd:output.obj
 0001:00081b30       ??$extract_argument_from_va_list@G_J@?$standard_base@_WV?$string_output_adapter@_W@__crt_stdio_output@@@__crt_stdio_output@@IAE_NAA_J@Z 10082b30 f i libucrtd:output.obj
 0001:00081b70       ??$extract_argument_from_va_list@H_J@?$positional_parameter_base@DV?$stream_output_adapter@D@__crt_stdio_output@@@__crt_stdio_output@@IAE_NAA_J@Z 10082b70 f i libucrtd:output.obj
 0001:00081cf0       ??$extract_argument_from_va_list@H_J@?$positional_parameter_base@DV?$string_output_adapter@D@__crt_stdio_output@@@__crt_stdio_output@@IAE_NAA_J@Z 10082cf0 f i libucrtd:output.obj
 0001:00081e70       ??$extract_argument_from_va_list@H_J@?$positional_parameter_base@_WV?$stream_output_adapter@_W@__crt_stdio_output@@@__crt_stdio_output@@IAE_NAA_J@Z 10082e70 f i libucrtd:output.obj
 0001:00081ff0       ??$extract_argument_from_va_list@H_J@?$positional_parameter_base@_WV?$string_output_adapter@_W@__crt_stdio_output@@@__crt_stdio_output@@IAE_NAA_J@Z 10082ff0 f i libucrtd:output.obj
 0001:00082170       ??$extract_argument_from_va_list@H_J@?$standard_base@DV?$stream_output_adapter@D@__crt_stdio_output@@@__crt_stdio_output@@IAE_NAA_J@Z 10083170 f i libucrtd:output.obj
 0001:000821b0       ??$extract_argument_from_va_list@H_J@?$standard_base@DV?$string_output_adapter@D@__crt_stdio_output@@@__crt_stdio_output@@IAE_NAA_J@Z 100831b0 f i libucrtd:output.obj
 0001:000821f0       ??$extract_argument_from_va_list@H_J@?$standard_base@_WV?$stream_output_adapter@_W@__crt_stdio_output@@@__crt_stdio_output@@IAE_NAA_J@Z 100831f0 f i libucrtd:output.obj
 0001:00082230       ??$extract_argument_from_va_list@H_J@?$standard_base@_WV?$string_output_adapter@_W@__crt_stdio_output@@@__crt_stdio_output@@IAE_NAA_J@Z 10083230 f i libucrtd:output.obj
 0001:00082270       ??$extract_argument_from_va_list@I_J@?$positional_parameter_base@DV?$stream_output_adapter@D@__crt_stdio_output@@@__crt_stdio_output@@IAE_NAA_J@Z 10083270 f i libucrtd:output.obj
 0001:000823f0       ??$extract_argument_from_va_list@I_J@?$positional_parameter_base@DV?$string_output_adapter@D@__crt_stdio_output@@@__crt_stdio_output@@IAE_NAA_J@Z 100833f0 f i libucrtd:output.obj
 0001:00082570       ??$extract_argument_from_va_list@I_J@?$positional_parameter_base@_WV?$stream_output_adapter@_W@__crt_stdio_output@@@__crt_stdio_output@@IAE_NAA_J@Z 10083570 f i libucrtd:output.obj
 0001:000826f0       ??$extract_argument_from_va_list@I_J@?$positional_parameter_base@_WV?$string_output_adapter@_W@__crt_stdio_output@@@__crt_stdio_output@@IAE_NAA_J@Z 100836f0 f i libucrtd:output.obj
 0001:00082870       ??$extract_argument_from_va_list@I_J@?$standard_base@DV?$stream_output_adapter@D@__crt_stdio_output@@@__crt_stdio_output@@IAE_NAA_J@Z 10083870 f i libucrtd:output.obj
 0001:000828b0       ??$extract_argument_from_va_list@I_J@?$standard_base@DV?$string_output_adapter@D@__crt_stdio_output@@@__crt_stdio_output@@IAE_NAA_J@Z 100838b0 f i libucrtd:output.obj
 0001:000828f0       ??$extract_argument_from_va_list@I_J@?$standard_base@_WV?$stream_output_adapter@_W@__crt_stdio_output@@@__crt_stdio_output@@IAE_NAA_J@Z 100838f0 f i libucrtd:output.obj
 0001:00082930       ??$extract_argument_from_va_list@I_J@?$standard_base@_WV?$string_output_adapter@_W@__crt_stdio_output@@@__crt_stdio_output@@IAE_NAA_J@Z 10083930 f i libucrtd:output.obj
 0001:00082970       ??$extract_argument_from_va_list@PADPAD@?$positional_parameter_base@DV?$stream_output_adapter@D@__crt_stdio_output@@@__crt_stdio_output@@IAE_NAAPAD@Z 10083970 f i libucrtd:output.obj
 0001:00082af0       ??$extract_argument_from_va_list@PADPAD@?$positional_parameter_base@DV?$string_output_adapter@D@__crt_stdio_output@@@__crt_stdio_output@@IAE_NAAPAD@Z 10083af0 f i libucrtd:output.obj
 0001:00082c70       ??$extract_argument_from_va_list@PADPAD@?$positional_parameter_base@_WV?$stream_output_adapter@_W@__crt_stdio_output@@@__crt_stdio_output@@IAE_NAAPAD@Z 10083c70 f i libucrtd:output.obj
 0001:00082df0       ??$extract_argument_from_va_list@PADPAD@?$positional_parameter_base@_WV?$string_output_adapter@_W@__crt_stdio_output@@@__crt_stdio_output@@IAE_NAAPAD@Z 10083df0 f i libucrtd:output.obj
 0001:00082f70       ??$extract_argument_from_va_list@PADPAD@?$standard_base@DV?$stream_output_adapter@D@__crt_stdio_output@@@__crt_stdio_output@@IAE_NAAPAD@Z 10083f70 f i libucrtd:output.obj
 0001:00082fa0       ??$extract_argument_from_va_list@PADPAD@?$standard_base@DV?$string_output_adapter@D@__crt_stdio_output@@@__crt_stdio_output@@IAE_NAAPAD@Z 10083fa0 f i libucrtd:output.obj
 0001:00082fd0       ??$extract_argument_from_va_list@PADPAD@?$standard_base@_WV?$stream_output_adapter@_W@__crt_stdio_output@@@__crt_stdio_output@@IAE_NAAPAD@Z 10083fd0 f i libucrtd:output.obj
 0001:00083000       ??$extract_argument_from_va_list@PADPAD@?$standard_base@_WV?$string_output_adapter@_W@__crt_stdio_output@@@__crt_stdio_output@@IAE_NAAPAD@Z 10084000 f i libucrtd:output.obj
 0001:00083030       ??$extract_argument_from_va_list@PAUansi_string@?1??type_case_Z@?$output_processor@DV?$stream_output_adapter@D@__crt_stdio_output@@V?$format_validation_base@DV?$stream_output_adapter@D@__crt_stdio_output@@@2@@__crt_stdio_output@@AAE_NXZ@PAU1?1??234@AAE_NXZ@@?$standard_base@DV?$stream_output_adapter@D@__crt_stdio_output@@@__crt_stdio_output@@IAE_NAAPAUansi_string@?1??type_case_Z@?$output_processor@DV?$stream_output_adapter@D@__crt_stdio_output@@V?$format_validation_base@DV?$stream_output_adapter@D@__crt_stdio_output@@@2@@1@AAE_NXZ@@Z 10084030 f i libucrtd:output.obj
 0001:00083060       ??$extract_argument_from_va_list@PAUansi_string@?1??type_case_Z@?$output_processor@DV?$stream_output_adapter@D@__crt_stdio_output@@V?$positional_parameter_base@DV?$stream_output_adapter@D@__crt_stdio_output@@@2@@__crt_stdio_output@@AAE_NXZ@PAU1?1??234@AAE_NXZ@@?$positional_parameter_base@DV?$stream_output_adapter@D@__crt_stdio_output@@@__crt_stdio_output@@IAE_NAAPAUansi_string@?1??type_case_Z@?$output_processor@DV?$stream_output_adapter@D@__crt_stdio_output@@V?$positional_parameter_base@DV?$stream_output_adapter@D@__crt_stdio_output@@@2@@1@AAE_NXZ@@Z 10084060 f i libucrtd:output.obj
 0001:000831e0       ??$extract_argument_from_va_list@PAUansi_string@?1??type_case_Z@?$output_processor@DV?$stream_output_adapter@D@__crt_stdio_output@@V?$positional_parameter_base@DV?$stream_output_adapter@D@__crt_stdio_output@@@2@@__crt_stdio_output@@AAE_NXZ@PAU1?1??234@AAE_NXZ@@?$standard_base@DV?$stream_output_adapter@D@__crt_stdio_output@@@__crt_stdio_output@@IAE_NAAPAUansi_string@?1??type_case_Z@?$output_processor@DV?$stream_output_adapter@D@__crt_stdio_output@@V?$positional_parameter_base@DV?$stream_output_adapter@D@__crt_stdio_output@@@2@@1@AAE_NXZ@@Z 100841e0 f i libucrtd:output.obj
 0001:00083210       ??$extract_argument_from_va_list@PAUansi_string@?1??type_case_Z@?$output_processor@DV?$stream_output_adapter@D@__crt_stdio_output@@V?$standard_base@DV?$stream_output_adapter@D@__crt_stdio_output@@@2@@__crt_stdio_output@@AAE_NXZ@PAU1?1??234@AAE_NXZ@@?$standard_base@DV?$stream_output_adapter@D@__crt_stdio_output@@@__crt_stdio_output@@IAE_NAAPAUansi_string@?1??type_case_Z@?$output_processor@DV?$stream_output_adapter@D@__crt_stdio_output@@V?$standard_base@DV?$stream_output_adapter@D@__crt_stdio_output@@@2@@1@AAE_NXZ@@Z 10084210 f i libucrtd:output.obj
 0001:00083240       ??$extract_argument_from_va_list@PAUansi_string@?1??type_case_Z@?$output_processor@DV?$string_output_adapter@D@__crt_stdio_output@@V?$format_validation_base@DV?$string_output_adapter@D@__crt_stdio_output@@@2@@__crt_stdio_output@@AAE_NXZ@PAU1?1??234@AAE_NXZ@@?$standard_base@DV?$string_output_adapter@D@__crt_stdio_output@@@__crt_stdio_output@@IAE_NAAPAUansi_string@?1??type_case_Z@?$output_processor@DV?$string_output_adapter@D@__crt_stdio_output@@V?$format_validation_base@DV?$string_output_adapter@D@__crt_stdio_output@@@2@@1@AAE_NXZ@@Z 10084240 f i libucrtd:output.obj
 0001:00083270       ??$extract_argument_from_va_list@PAUansi_string@?1??type_case_Z@?$output_processor@DV?$string_output_adapter@D@__crt_stdio_output@@V?$positional_parameter_base@DV?$string_output_adapter@D@__crt_stdio_output@@@2@@__crt_stdio_output@@AAE_NXZ@PAU1?1??234@AAE_NXZ@@?$positional_parameter_base@DV?$string_output_adapter@D@__crt_stdio_output@@@__crt_stdio_output@@IAE_NAAPAUansi_string@?1??type_case_Z@?$output_processor@DV?$string_output_adapter@D@__crt_stdio_output@@V?$positional_parameter_base@DV?$string_output_adapter@D@__crt_stdio_output@@@2@@1@AAE_NXZ@@Z 10084270 f i libucrtd:output.obj
 0001:000833f0       ??$extract_argument_from_va_list@PAUansi_string@?1??type_case_Z@?$output_processor@DV?$string_output_adapter@D@__crt_stdio_output@@V?$positional_parameter_base@DV?$string_output_adapter@D@__crt_stdio_output@@@2@@__crt_stdio_output@@AAE_NXZ@PAU1?1??234@AAE_NXZ@@?$standard_base@DV?$string_output_adapter@D@__crt_stdio_output@@@__crt_stdio_output@@IAE_NAAPAUansi_string@?1??type_case_Z@?$output_processor@DV?$string_output_adapter@D@__crt_stdio_output@@V?$positional_parameter_base@DV?$string_output_adapter@D@__crt_stdio_output@@@2@@1@AAE_NXZ@@Z 100843f0 f i libucrtd:output.obj
 0001:00083420       ??$extract_argument_from_va_list@PAUansi_string@?1??type_case_Z@?$output_processor@DV?$string_output_adapter@D@__crt_stdio_output@@V?$standard_base@DV?$string_output_adapter@D@__crt_stdio_output@@@2@@__crt_stdio_output@@AAE_NXZ@PAU1?1??234@AAE_NXZ@@?$standard_base@DV?$string_output_adapter@D@__crt_stdio_output@@@__crt_stdio_output@@IAE_NAAPAUansi_string@?1??type_case_Z@?$output_processor@DV?$string_output_adapter@D@__crt_stdio_output@@V?$standard_base@DV?$string_output_adapter@D@__crt_stdio_output@@@2@@1@AAE_NXZ@@Z 10084420 f i libucrtd:output.obj
 0001:00083450       ??$extract_argument_from_va_list@PAUansi_string@?1??type_case_Z@?$output_processor@_WV?$stream_output_adapter@_W@__crt_stdio_output@@V?$format_validation_base@_WV?$stream_output_adapter@_W@__crt_stdio_output@@@2@@__crt_stdio_output@@AAE_NXZ@PAU1?1??234@AAE_NXZ@@?$standard_base@_WV?$stream_output_adapter@_W@__crt_stdio_output@@@__crt_stdio_output@@IAE_NAAPAUansi_string@?1??type_case_Z@?$output_processor@_WV?$stream_output_adapter@_W@__crt_stdio_output@@V?$format_validation_base@_WV?$stream_output_adapter@_W@__crt_stdio_output@@@2@@1@AAE_NXZ@@Z 10084450 f i libucrtd:output.obj
 0001:00083480       ??$extract_argument_from_va_list@PAUansi_string@?1??type_case_Z@?$output_processor@_WV?$stream_output_adapter@_W@__crt_stdio_output@@V?$positional_parameter_base@_WV?$stream_output_adapter@_W@__crt_stdio_output@@@2@@__crt_stdio_output@@AAE_NXZ@PAU1?1??234@AAE_NXZ@@?$positional_parameter_base@_WV?$stream_output_adapter@_W@__crt_stdio_output@@@__crt_stdio_output@@IAE_NAAPAUansi_string@?1??type_case_Z@?$output_processor@_WV?$stream_output_adapter@_W@__crt_stdio_output@@V?$positional_parameter_base@_WV?$stream_output_adapter@_W@__crt_stdio_output@@@2@@1@AAE_NXZ@@Z 10084480 f i libucrtd:output.obj
 0001:00083600       ??$extract_argument_from_va_list@PAUansi_string@?1??type_case_Z@?$output_processor@_WV?$stream_output_adapter@_W@__crt_stdio_output@@V?$positional_parameter_base@_WV?$stream_output_adapter@_W@__crt_stdio_output@@@2@@__crt_stdio_output@@AAE_NXZ@PAU1?1??234@AAE_NXZ@@?$standard_base@_WV?$stream_output_adapter@_W@__crt_stdio_output@@@__crt_stdio_output@@IAE_NAAPAUansi_string@?1??type_case_Z@?$output_processor@_WV?$stream_output_adapter@_W@__crt_stdio_output@@V?$positional_parameter_base@_WV?$stream_output_adapter@_W@__crt_stdio_output@@@2@@1@AAE_NXZ@@Z 10084600 f i libucrtd:output.obj
 0001:00083630       ??$extract_argument_from_va_list@PAUansi_string@?1??type_case_Z@?$output_processor@_WV?$stream_output_adapter@_W@__crt_stdio_output@@V?$standard_base@_WV?$stream_output_adapter@_W@__crt_stdio_output@@@2@@__crt_stdio_output@@AAE_NXZ@PAU1?1??234@AAE_NXZ@@?$standard_base@_WV?$stream_output_adapter@_W@__crt_stdio_output@@@__crt_stdio_output@@IAE_NAAPAUansi_string@?1??type_case_Z@?$output_processor@_WV?$stream_output_adapter@_W@__crt_stdio_output@@V?$standard_base@_WV?$stream_output_adapter@_W@__crt_stdio_output@@@2@@1@AAE_NXZ@@Z 10084630 f i libucrtd:output.obj
 0001:00083660       ??$extract_argument_from_va_list@PAUansi_string@?1??type_case_Z@?$output_processor@_WV?$string_output_adapter@_W@__crt_stdio_output@@V?$format_validation_base@_WV?$string_output_adapter@_W@__crt_stdio_output@@@2@@__crt_stdio_output@@AAE_NXZ@PAU1?1??234@AAE_NXZ@@?$standard_base@_WV?$string_output_adapter@_W@__crt_stdio_output@@@__crt_stdio_output@@IAE_NAAPAUansi_string@?1??type_case_Z@?$output_processor@_WV?$string_output_adapter@_W@__crt_stdio_output@@V?$format_validation_base@_WV?$string_output_adapter@_W@__crt_stdio_output@@@2@@1@AAE_NXZ@@Z 10084660 f i libucrtd:output.obj
 0001:00083690       ??$extract_argument_from_va_list@PAUansi_string@?1??type_case_Z@?$output_processor@_WV?$string_output_adapter@_W@__crt_stdio_output@@V?$positional_parameter_base@_WV?$string_output_adapter@_W@__crt_stdio_output@@@2@@__crt_stdio_output@@AAE_NXZ@PAU1?1??234@AAE_NXZ@@?$positional_parameter_base@_WV?$string_output_adapter@_W@__crt_stdio_output@@@__crt_stdio_output@@IAE_NAAPAUansi_string@?1??type_case_Z@?$output_processor@_WV?$string_output_adapter@_W@__crt_stdio_output@@V?$positional_parameter_base@_WV?$string_output_adapter@_W@__crt_stdio_output@@@2@@1@AAE_NXZ@@Z 10084690 f i libucrtd:output.obj
 0001:00083810       ??$extract_argument_from_va_list@PAUansi_string@?1??type_case_Z@?$output_processor@_WV?$string_output_adapter@_W@__crt_stdio_output@@V?$positional_parameter_base@_WV?$string_output_adapter@_W@__crt_stdio_output@@@2@@__crt_stdio_output@@AAE_NXZ@PAU1?1??234@AAE_NXZ@@?$standard_base@_WV?$string_output_adapter@_W@__crt_stdio_output@@@__crt_stdio_output@@IAE_NAAPAUansi_string@?1??type_case_Z@?$output_processor@_WV?$string_output_adapter@_W@__crt_stdio_output@@V?$positional_parameter_base@_WV?$string_output_adapter@_W@__crt_stdio_output@@@2@@1@AAE_NXZ@@Z 10084810 f i libucrtd:output.obj
 0001:00083840       ??$extract_argument_from_va_list@PAUansi_string@?1??type_case_Z@?$output_processor@_WV?$string_output_adapter@_W@__crt_stdio_output@@V?$standard_base@_WV?$string_output_adapter@_W@__crt_stdio_output@@@2@@__crt_stdio_output@@AAE_NXZ@PAU1?1??234@AAE_NXZ@@?$standard_base@_WV?$string_output_adapter@_W@__crt_stdio_output@@@__crt_stdio_output@@IAE_NAAPAUansi_string@?1??type_case_Z@?$output_processor@_WV?$string_output_adapter@_W@__crt_stdio_output@@V?$standard_base@_WV?$string_output_adapter@_W@__crt_stdio_output@@@2@@1@AAE_NXZ@@Z 10084840 f i libucrtd:output.obj
 0001:00083870       ??$extract_argument_from_va_list@PAXPAX@?$positional_parameter_base@DV?$stream_output_adapter@D@__crt_stdio_output@@@__crt_stdio_output@@IAE_NAAPAX@Z 10084870 f i libucrtd:output.obj
 0001:000839f0       ??$extract_argument_from_va_list@PAXPAX@?$positional_parameter_base@DV?$string_output_adapter@D@__crt_stdio_output@@@__crt_stdio_output@@IAE_NAAPAX@Z 100849f0 f i libucrtd:output.obj
 0001:00083b70       ??$extract_argument_from_va_list@PAXPAX@?$positional_parameter_base@_WV?$stream_output_adapter@_W@__crt_stdio_output@@@__crt_stdio_output@@IAE_NAAPAX@Z 10084b70 f i libucrtd:output.obj
 0001:00083cf0       ??$extract_argument_from_va_list@PAXPAX@?$positional_parameter_base@_WV?$string_output_adapter@_W@__crt_stdio_output@@@__crt_stdio_output@@IAE_NAAPAX@Z 10084cf0 f i libucrtd:output.obj
 0001:00083e70       ??$extract_argument_from_va_list@PAXPAX@?$standard_base@DV?$stream_output_adapter@D@__crt_stdio_output@@@__crt_stdio_output@@IAE_NAAPAX@Z 10084e70 f i libucrtd:output.obj
 0001:00083ea0       ??$extract_argument_from_va_list@PAXPAX@?$standard_base@DV?$string_output_adapter@D@__crt_stdio_output@@@__crt_stdio_output@@IAE_NAAPAX@Z 10084ea0 f i libucrtd:output.obj
 0001:00083ed0       ??$extract_argument_from_va_list@PAXPAX@?$standard_base@_WV?$stream_output_adapter@_W@__crt_stdio_output@@@__crt_stdio_output@@IAE_NAAPAX@Z 10084ed0 f i libucrtd:output.obj
 0001:00083f00       ??$extract_argument_from_va_list@PAXPAX@?$standard_base@_WV?$string_output_adapter@_W@__crt_stdio_output@@@__crt_stdio_output@@IAE_NAAPAX@Z 10084f00 f i libucrtd:output.obj
 0001:00083f30       ??$extract_argument_from_va_list@U_CRT_DOUBLE@@U1@@?$positional_parameter_base@DV?$stream_output_adapter@D@__crt_stdio_output@@@__crt_stdio_output@@IAE_NAAU_CRT_DOUBLE@@@Z 10084f30 f i libucrtd:output.obj
 0001:000840e0       ??$extract_argument_from_va_list@U_CRT_DOUBLE@@U1@@?$positional_parameter_base@DV?$string_output_adapter@D@__crt_stdio_output@@@__crt_stdio_output@@IAE_NAAU_CRT_DOUBLE@@@Z 100850e0 f i libucrtd:output.obj
 0001:00084290       ??$extract_argument_from_va_list@U_CRT_DOUBLE@@U1@@?$positional_parameter_base@_WV?$stream_output_adapter@_W@__crt_stdio_output@@@__crt_stdio_output@@IAE_NAAU_CRT_DOUBLE@@@Z 10085290 f i libucrtd:output.obj
 0001:00084440       ??$extract_argument_from_va_list@U_CRT_DOUBLE@@U1@@?$positional_parameter_base@_WV?$string_output_adapter@_W@__crt_stdio_output@@@__crt_stdio_output@@IAE_NAAU_CRT_DOUBLE@@@Z 10085440 f i libucrtd:output.obj
 0001:000845f0       ??$extract_argument_from_va_list@U_CRT_DOUBLE@@U1@@?$standard_base@DV?$stream_output_adapter@D@__crt_stdio_output@@@__crt_stdio_output@@IAE_NAAU_CRT_DOUBLE@@@Z 100855f0 f i libucrtd:output.obj
 0001:00084650       ??$extract_argument_from_va_list@U_CRT_DOUBLE@@U1@@?$standard_base@DV?$string_output_adapter@D@__crt_stdio_output@@@__crt_stdio_output@@IAE_NAAU_CRT_DOUBLE@@@Z 10085650 f i libucrtd:output.obj
 0001:000846b0       ??$extract_argument_from_va_list@U_CRT_DOUBLE@@U1@@?$standard_base@_WV?$stream_output_adapter@_W@__crt_stdio_output@@@__crt_stdio_output@@IAE_NAAU_CRT_DOUBLE@@@Z 100856b0 f i libucrtd:output.obj
 0001:00084710       ??$extract_argument_from_va_list@U_CRT_DOUBLE@@U1@@?$standard_base@_WV?$string_output_adapter@_W@__crt_stdio_output@@@__crt_stdio_output@@IAE_NAAU_CRT_DOUBLE@@@Z 10085710 f i libucrtd:output.obj
 0001:00084770       ??$extract_argument_from_va_list@_J_J@?$positional_parameter_base@DV?$stream_output_adapter@D@__crt_stdio_output@@@__crt_stdio_output@@IAE_NAA_J@Z 10085770 f i libucrtd:output.obj
 0001:000848f0       ??$extract_argument_from_va_list@_J_J@?$positional_parameter_base@DV?$string_output_adapter@D@__crt_stdio_output@@@__crt_stdio_output@@IAE_NAA_J@Z 100858f0 f i libucrtd:output.obj
 0001:00084a70       ??$extract_argument_from_va_list@_J_J@?$positional_parameter_base@_WV?$stream_output_adapter@_W@__crt_stdio_output@@@__crt_stdio_output@@IAE_NAA_J@Z 10085a70 f i libucrtd:output.obj
 0001:00084bf0       ??$extract_argument_from_va_list@_J_J@?$positional_parameter_base@_WV?$string_output_adapter@_W@__crt_stdio_output@@@__crt_stdio_output@@IAE_NAA_J@Z 10085bf0 f i libucrtd:output.obj
 0001:00084d70       ??$extract_argument_from_va_list@_J_J@?$standard_base@DV?$stream_output_adapter@D@__crt_stdio_output@@@__crt_stdio_output@@IAE_NAA_J@Z 10085d70 f i libucrtd:output.obj
 0001:00084db0       ??$extract_argument_from_va_list@_J_J@?$standard_base@DV?$string_output_adapter@D@__crt_stdio_output@@@__crt_stdio_output@@IAE_NAA_J@Z 10085db0 f i libucrtd:output.obj
 0001:00084df0       ??$extract_argument_from_va_list@_J_J@?$standard_base@_WV?$stream_output_adapter@_W@__crt_stdio_output@@@__crt_stdio_output@@IAE_NAA_J@Z 10085df0 f i libucrtd:output.obj
 0001:00084e30       ??$extract_argument_from_va_list@_J_J@?$standard_base@_WV?$string_output_adapter@_W@__crt_stdio_output@@@__crt_stdio_output@@IAE_NAA_J@Z 10085e30 f i libucrtd:output.obj
 0001:00084e70       ??$extract_argument_from_va_list@_K_J@?$positional_parameter_base@DV?$stream_output_adapter@D@__crt_stdio_output@@@__crt_stdio_output@@IAE_NAA_J@Z 10085e70 f i libucrtd:output.obj
 0001:00084ff0       ??$extract_argument_from_va_list@_K_J@?$positional_parameter_base@DV?$string_output_adapter@D@__crt_stdio_output@@@__crt_stdio_output@@IAE_NAA_J@Z 10085ff0 f i libucrtd:output.obj
 0001:00085170       ??$extract_argument_from_va_list@_K_J@?$positional_parameter_base@_WV?$stream_output_adapter@_W@__crt_stdio_output@@@__crt_stdio_output@@IAE_NAA_J@Z 10086170 f i libucrtd:output.obj
 0001:000852f0       ??$extract_argument_from_va_list@_K_J@?$positional_parameter_base@_WV?$string_output_adapter@_W@__crt_stdio_output@@@__crt_stdio_output@@IAE_NAA_J@Z 100862f0 f i libucrtd:output.obj
 0001:00085470       ??$extract_argument_from_va_list@_K_J@?$standard_base@DV?$stream_output_adapter@D@__crt_stdio_output@@@__crt_stdio_output@@IAE_NAA_J@Z 10086470 f i libucrtd:output.obj
 0001:000854b0       ??$extract_argument_from_va_list@_K_J@?$standard_base@DV?$string_output_adapter@D@__crt_stdio_output@@@__crt_stdio_output@@IAE_NAA_J@Z 100864b0 f i libucrtd:output.obj
 0001:000854f0       ??$extract_argument_from_va_list@_K_J@?$standard_base@_WV?$stream_output_adapter@_W@__crt_stdio_output@@@__crt_stdio_output@@IAE_NAA_J@Z 100864f0 f i libucrtd:output.obj
 0001:00085530       ??$extract_argument_from_va_list@_K_J@?$standard_base@_WV?$string_output_adapter@_W@__crt_stdio_output@@@__crt_stdio_output@@IAE_NAA_J@Z 10086530 f i libucrtd:output.obj
 0001:00085570       ??$extract_argument_from_va_list@_W_W@?$positional_parameter_base@DV?$stream_output_adapter@D@__crt_stdio_output@@@__crt_stdio_output@@IAE_NAA_W@Z 10086570 f i libucrtd:output.obj
 0001:000856f0       ??$extract_argument_from_va_list@_W_W@?$positional_parameter_base@DV?$string_output_adapter@D@__crt_stdio_output@@@__crt_stdio_output@@IAE_NAA_W@Z 100866f0 f i libucrtd:output.obj
 0001:00085870       ??$extract_argument_from_va_list@_W_W@?$positional_parameter_base@_WV?$stream_output_adapter@_W@__crt_stdio_output@@@__crt_stdio_output@@IAE_NAA_W@Z 10086870 f i libucrtd:output.obj
 0001:000859f0       ??$extract_argument_from_va_list@_W_W@?$positional_parameter_base@_WV?$string_output_adapter@_W@__crt_stdio_output@@@__crt_stdio_output@@IAE_NAA_W@Z 100869f0 f i libucrtd:output.obj
 0001:00085b70       ??$extract_argument_from_va_list@_W_W@?$standard_base@DV?$stream_output_adapter@D@__crt_stdio_output@@@__crt_stdio_output@@IAE_NAA_W@Z 10086b70 f i libucrtd:output.obj
 0001:00085ba0       ??$extract_argument_from_va_list@_W_W@?$standard_base@DV?$string_output_adapter@D@__crt_stdio_output@@@__crt_stdio_output@@IAE_NAA_W@Z 10086ba0 f i libucrtd:output.obj
 0001:00085bd0       ??$extract_argument_from_va_list@_W_W@?$standard_base@_WV?$stream_output_adapter@_W@__crt_stdio_output@@@__crt_stdio_output@@IAE_NAA_W@Z 10086bd0 f i libucrtd:output.obj
 0001:00085c00       ??$extract_argument_from_va_list@_W_W@?$standard_base@_WV?$string_output_adapter@_W@__crt_stdio_output@@@__crt_stdio_output@@IAE_NAA_W@Z 10086c00 f i libucrtd:output.obj
 0001:00085c30       ??$get_parameter_type@D@?$positional_parameter_base@DV?$stream_output_adapter@D@__crt_stdio_output@@@__crt_stdio_output@@CA?AW4parameter_type@01@PAD@Z 10086c30 f i libucrtd:output.obj
 0001:00085c40       ??$get_parameter_type@D@?$positional_parameter_base@DV?$string_output_adapter@D@__crt_stdio_output@@@__crt_stdio_output@@CA?AW4parameter_type@01@PAD@Z 10086c40 f i libucrtd:output.obj
 0001:00085c50       ??$get_parameter_type@D@?$positional_parameter_base@_WV?$stream_output_adapter@_W@__crt_stdio_output@@@__crt_stdio_output@@CA?AW4parameter_type@01@PAD@Z 10086c50 f i libucrtd:output.obj
 0001:00085c60       ??$get_parameter_type@D@?$positional_parameter_base@_WV?$string_output_adapter@_W@__crt_stdio_output@@@__crt_stdio_output@@CA?AW4parameter_type@01@PAD@Z 10086c60 f i libucrtd:output.obj
 0001:00085c70       ??$get_parameter_type@Uansi_string@?1??type_case_Z@?$output_processor@DV?$stream_output_adapter@D@__crt_stdio_output@@V?$positional_parameter_base@DV?$stream_output_adapter@D@__crt_stdio_output@@@2@@__crt_stdio_output@@AAE_NXZ@@?$positional_parameter_base@DV?$stream_output_adapter@D@__crt_stdio_output@@@__crt_stdio_output@@CA?AW4parameter_type@01@PAUansi_string@?1??type_case_Z@?$output_processor@DV?$stream_output_adapter@D@__crt_stdio_output@@V?$positional_parameter_base@DV?$stream_output_adapter@D@__crt_stdio_output@@@2@@1@AAE_NXZ@@Z 10086c70 f i libucrtd:output.obj
 0001:00085c80       ??$get_parameter_type@Uansi_string@?1??type_case_Z@?$output_processor@DV?$string_output_adapter@D@__crt_stdio_output@@V?$positional_parameter_base@DV?$string_output_adapter@D@__crt_stdio_output@@@2@@__crt_stdio_output@@AAE_NXZ@@?$positional_parameter_base@DV?$string_output_adapter@D@__crt_stdio_output@@@__crt_stdio_output@@CA?AW4parameter_type@01@PAUansi_string@?1??type_case_Z@?$output_processor@DV?$string_output_adapter@D@__crt_stdio_output@@V?$positional_parameter_base@DV?$string_output_adapter@D@__crt_stdio_output@@@2@@1@AAE_NXZ@@Z 10086c80 f i libucrtd:output.obj
 0001:00085c90       ??$get_parameter_type@Uansi_string@?1??type_case_Z@?$output_processor@_WV?$stream_output_adapter@_W@__crt_stdio_output@@V?$positional_parameter_base@_WV?$stream_output_adapter@_W@__crt_stdio_output@@@2@@__crt_stdio_output@@AAE_NXZ@@?$positional_parameter_base@_WV?$stream_output_adapter@_W@__crt_stdio_output@@@__crt_stdio_output@@CA?AW4parameter_type@01@PAUansi_string@?1??type_case_Z@?$output_processor@_WV?$stream_output_adapter@_W@__crt_stdio_output@@V?$positional_parameter_base@_WV?$stream_output_adapter@_W@__crt_stdio_output@@@2@@1@AAE_NXZ@@Z 10086c90 f i libucrtd:output.obj
 0001:00085ca0       ??$get_parameter_type@Uansi_string@?1??type_case_Z@?$output_processor@_WV?$string_output_adapter@_W@__crt_stdio_output@@V?$positional_parameter_base@_WV?$string_output_adapter@_W@__crt_stdio_output@@@2@@__crt_stdio_output@@AAE_NXZ@@?$positional_parameter_base@_WV?$string_output_adapter@_W@__crt_stdio_output@@@__crt_stdio_output@@CA?AW4parameter_type@01@PAUansi_string@?1??type_case_Z@?$output_processor@_WV?$string_output_adapter@_W@__crt_stdio_output@@V?$positional_parameter_base@_WV?$string_output_adapter@_W@__crt_stdio_output@@@2@@1@AAE_NXZ@@Z 10086ca0 f i libucrtd:output.obj
 0001:00085cb0       ??$get_parameter_type@X@?$positional_parameter_base@DV?$stream_output_adapter@D@__crt_stdio_output@@@__crt_stdio_output@@CA?AW4parameter_type@01@PAX@Z 10086cb0 f i libucrtd:output.obj
 0001:00085cc0       ??$get_parameter_type@X@?$positional_parameter_base@DV?$string_output_adapter@D@__crt_stdio_output@@@__crt_stdio_output@@CA?AW4parameter_type@01@PAX@Z 10086cc0 f i libucrtd:output.obj
 0001:00085cd0       ??$get_parameter_type@X@?$positional_parameter_base@_WV?$stream_output_adapter@_W@__crt_stdio_output@@@__crt_stdio_output@@CA?AW4parameter_type@01@PAX@Z 10086cd0 f i libucrtd:output.obj
 0001:00085ce0       ??$get_parameter_type@X@?$positional_parameter_base@_WV?$string_output_adapter@_W@__crt_stdio_output@@@__crt_stdio_output@@CA?AW4parameter_type@01@PAX@Z 10086ce0 f i libucrtd:output.obj
 0001:00085cf0       ??$is_character_specifier@D@?$positional_parameter_base@DV?$stream_output_adapter@D@__crt_stdio_output@@@__crt_stdio_output@@CA_ND@Z 10086cf0 f i libucrtd:output.obj
 0001:00085d30       ??$is_character_specifier@D@?$positional_parameter_base@DV?$string_output_adapter@D@__crt_stdio_output@@@__crt_stdio_output@@CA_ND@Z 10086d30 f i libucrtd:output.obj
 0001:00085d70       ??$is_character_specifier@_W@?$positional_parameter_base@_WV?$stream_output_adapter@_W@__crt_stdio_output@@@__crt_stdio_output@@CA_N_W@Z 10086d70 f i libucrtd:output.obj
 0001:00085db0       ??$is_character_specifier@_W@?$positional_parameter_base@_WV?$string_output_adapter@_W@__crt_stdio_output@@@__crt_stdio_output@@CA_N_W@Z 10086db0 f i libucrtd:output.obj
 0001:00085df0       ??$is_integral_specifier@D@?$positional_parameter_base@DV?$stream_output_adapter@D@__crt_stdio_output@@@__crt_stdio_output@@CA_ND@Z 10086df0 f i libucrtd:output.obj
 0001:00085e70       ??$is_integral_specifier@D@?$positional_parameter_base@DV?$string_output_adapter@D@__crt_stdio_output@@@__crt_stdio_output@@CA_ND@Z 10086e70 f i libucrtd:output.obj
 0001:00085ef0       ??$is_integral_specifier@_W@?$positional_parameter_base@_WV?$stream_output_adapter@_W@__crt_stdio_output@@@__crt_stdio_output@@CA_N_W@Z 10086ef0 f i libucrtd:output.obj
 0001:00085f70       ??$is_integral_specifier@_W@?$positional_parameter_base@_WV?$string_output_adapter@_W@__crt_stdio_output@@@__crt_stdio_output@@CA_N_W@Z 10086f70 f i libucrtd:output.obj
 0001:00085ff0       ??$is_pointer_specifier@D@?$positional_parameter_base@DV?$stream_output_adapter@D@__crt_stdio_output@@@__crt_stdio_output@@CA_ND@Z 10086ff0 f i libucrtd:output.obj
 0001:00086020       ??$is_pointer_specifier@D@?$positional_parameter_base@DV?$string_output_adapter@D@__crt_stdio_output@@@__crt_stdio_output@@CA_ND@Z 10087020 f i libucrtd:output.obj
 0001:00086050       ??$is_pointer_specifier@_W@?$positional_parameter_base@_WV?$stream_output_adapter@_W@__crt_stdio_output@@@__crt_stdio_output@@CA_N_W@Z 10087050 f i libucrtd:output.obj
 0001:00086080       ??$is_pointer_specifier@_W@?$positional_parameter_base@_WV?$string_output_adapter@_W@__crt_stdio_output@@@__crt_stdio_output@@CA_N_W@Z 10087080 f i libucrtd:output.obj
 0001:000860b0       ??$is_string_specifier@D@?$positional_parameter_base@DV?$stream_output_adapter@D@__crt_stdio_output@@@__crt_stdio_output@@CA_ND@Z 100870b0 f i libucrtd:output.obj
 0001:000860f0       ??$is_string_specifier@D@?$positional_parameter_base@DV?$string_output_adapter@D@__crt_stdio_output@@@__crt_stdio_output@@CA_ND@Z 100870f0 f i libucrtd:output.obj
 0001:00086130       ??$is_string_specifier@_W@?$positional_parameter_base@_WV?$stream_output_adapter@_W@__crt_stdio_output@@@__crt_stdio_output@@CA_N_W@Z 10087130 f i libucrtd:output.obj
 0001:00086170       ??$is_string_specifier@_W@?$positional_parameter_base@_WV?$string_output_adapter@_W@__crt_stdio_output@@@__crt_stdio_output@@CA_N_W@Z 10087170 f i libucrtd:output.obj
 0001:000861b0       ??$is_wide_character_specifier@D@__crt_stdio_output@@YA_N_KDW4length_modifier@0@@Z 100871b0 f i libucrtd:output.obj
 0001:00086250       ??$is_wide_character_specifier@_W@__crt_stdio_output@@YA_N_K_WW4length_modifier@0@@Z 10087250 f i libucrtd:output.obj
 0001:00086340       ??$peek_va_arg@C@__crt_stdio_output@@YACPAD@Z 10087340 f i libucrtd:output.obj
 0001:00086360       ??$peek_va_arg@E@__crt_stdio_output@@YAEPAD@Z 10087360 f i libucrtd:output.obj
 0001:00086380       ??$peek_va_arg@F@__crt_stdio_output@@YAFPAD@Z 10087380 f i libucrtd:output.obj
 0001:000863a0       ??$peek_va_arg@G@__crt_stdio_output@@YAGPAD@Z 100873a0 f i libucrtd:output.obj
 0001:000863c0       ??$peek_va_arg@H@__crt_stdio_output@@YAHPAD@Z 100873c0 f i libucrtd:output.obj
 0001:000863e0       ??$peek_va_arg@I@__crt_stdio_output@@YAIPAD@Z 100873e0 f i libucrtd:output.obj
 0001:00086400       ??$peek_va_arg@PAD@__crt_stdio_output@@YAPADPAD@Z 10087400 f i libucrtd:output.obj
 0001:00086420       ??$peek_va_arg@PAUansi_string@?1??type_case_Z@?$output_processor@DV?$stream_output_adapter@D@__crt_stdio_output@@V?$positional_parameter_base@DV?$stream_output_adapter@D@__crt_stdio_output@@@2@@__crt_stdio_output@@AAE_NXZ@@__crt_stdio_output@@YAPAUansi_string@?1??type_case_Z@?$output_processor@DV?$stream_output_adapter@D@__crt_stdio_output@@V?$positional_parameter_base@DV?$stream_output_adapter@D@__crt_stdio_output@@@2@@0@AAE_NXZ@PAD@Z 10087420 f i libucrtd:output.obj
 0001:00086440       ??$peek_va_arg@PAUansi_string@?1??type_case_Z@?$output_processor@DV?$string_output_adapter@D@__crt_stdio_output@@V?$positional_parameter_base@DV?$string_output_adapter@D@__crt_stdio_output@@@2@@__crt_stdio_output@@AAE_NXZ@@__crt_stdio_output@@YAPAUansi_string@?1??type_case_Z@?$output_processor@DV?$string_output_adapter@D@__crt_stdio_output@@V?$positional_parameter_base@DV?$string_output_adapter@D@__crt_stdio_output@@@2@@0@AAE_NXZ@PAD@Z 10087440 f i libucrtd:output.obj
 0001:00086460       ??$peek_va_arg@PAUansi_string@?1??type_case_Z@?$output_processor@_WV?$stream_output_adapter@_W@__crt_stdio_output@@V?$positional_parameter_base@_WV?$stream_output_adapter@_W@__crt_stdio_output@@@2@@__crt_stdio_output@@AAE_NXZ@@__crt_stdio_output@@YAPAUansi_string@?1??type_case_Z@?$output_processor@_WV?$stream_output_adapter@_W@__crt_stdio_output@@V?$positional_parameter_base@_WV?$stream_output_adapter@_W@__crt_stdio_output@@@2@@0@AAE_NXZ@PAD@Z 10087460 f i libucrtd:output.obj
 0001:00086480       ??$peek_va_arg@PAUansi_string@?1??type_case_Z@?$output_processor@_WV?$string_output_adapter@_W@__crt_stdio_output@@V?$positional_parameter_base@_WV?$string_output_adapter@_W@__crt_stdio_output@@@2@@__crt_stdio_output@@AAE_NXZ@@__crt_stdio_output@@YAPAUansi_string@?1??type_case_Z@?$output_processor@_WV?$string_output_adapter@_W@__crt_stdio_output@@V?$positional_parameter_base@_WV?$string_output_adapter@_W@__crt_stdio_output@@@2@@0@AAE_NXZ@PAD@Z 10087480 f i libucrtd:output.obj
 0001:000864a0       ??$peek_va_arg@PAX@__crt_stdio_output@@YAPAXPAD@Z 100874a0 f i libucrtd:output.obj
 0001:000864c0       ??$peek_va_arg@U_CRT_DOUBLE@@@__crt_stdio_output@@YA?AU_CRT_DOUBLE@@PAD@Z 100874c0 f i libucrtd:output.obj
 0001:000864e0       ??$peek_va_arg@_J@__crt_stdio_output@@YA_JPAD@Z 100874e0 f i libucrtd:output.obj
 0001:00086500       ??$peek_va_arg@_K@__crt_stdio_output@@YA_KPAD@Z 10087500 f i libucrtd:output.obj
 0001:00086520       ??$peek_va_arg@_W@__crt_stdio_output@@YA_WPAD@Z 10087520 f i libucrtd:output.obj
 0001:00086540       ??$puttc_nolock@ABDPAU_iobuf@@@?$__crt_char_traits@D@@SAHABD$$QAPAU_iobuf@@@Z 10087540 f i libucrtd:output.obj
 0001:00086570       ??$puttc_nolock@AB_WPAU_iobuf@@@?$__crt_char_traits@_W@@SAGAB_W$$QAPAU_iobuf@@@Z 10087570 f i libucrtd:output.obj
 0001:000865a0       ??$read_va_arg@C@__crt_stdio_output@@YACAAPAD@Z 100875a0 f i libucrtd:output.obj
 0001:000865d0       ??$read_va_arg@E@__crt_stdio_output@@YAEAAPAD@Z 100875d0 f i libucrtd:output.obj
 0001:00086600       ??$read_va_arg@F@__crt_stdio_output@@YAFAAPAD@Z 10087600 f i libucrtd:output.obj
 0001:00086630       ??$read_va_arg@G@__crt_stdio_output@@YAGAAPAD@Z 10087630 f i libucrtd:output.obj
 0001:00086660       ??$read_va_arg@H@__crt_stdio_output@@YAHAAPAD@Z 10087660 f i libucrtd:output.obj
 0001:00086690       ??$read_va_arg@I@__crt_stdio_output@@YAIAAPAD@Z 10087690 f i libucrtd:output.obj
 0001:000866c0       ??$read_va_arg@PAD@__crt_stdio_output@@YAPADAAPAD@Z 100876c0 f i libucrtd:output.obj
 0001:000866f0       ??$read_va_arg@PAUansi_string@?1??type_case_Z@?$output_processor@DV?$stream_output_adapter@D@__crt_stdio_output@@V?$format_validation_base@DV?$stream_output_adapter@D@__crt_stdio_output@@@2@@__crt_stdio_output@@AAE_NXZ@@__crt_stdio_output@@YAPAUansi_string@?1??type_case_Z@?$output_processor@DV?$stream_output_adapter@D@__crt_stdio_output@@V?$format_validation_base@DV?$stream_output_adapter@D@__crt_stdio_output@@@2@@0@AAE_NXZ@AAPAD@Z 100876f0 f i libucrtd:output.obj
 0001:00086720       ??$read_va_arg@PAUansi_string@?1??type_case_Z@?$output_processor@DV?$stream_output_adapter@D@__crt_stdio_output@@V?$positional_parameter_base@DV?$stream_output_adapter@D@__crt_stdio_output@@@2@@__crt_stdio_output@@AAE_NXZ@@__crt_stdio_output@@YAPAUansi_string@?1??type_case_Z@?$output_processor@DV?$stream_output_adapter@D@__crt_stdio_output@@V?$positional_parameter_base@DV?$stream_output_adapter@D@__crt_stdio_output@@@2@@0@AAE_NXZ@AAPAD@Z 10087720 f i libucrtd:output.obj
 0001:00086750       ??$read_va_arg@PAUansi_string@?1??type_case_Z@?$output_processor@DV?$stream_output_adapter@D@__crt_stdio_output@@V?$standard_base@DV?$stream_output_adapter@D@__crt_stdio_output@@@2@@__crt_stdio_output@@AAE_NXZ@@__crt_stdio_output@@YAPAUansi_string@?1??type_case_Z@?$output_processor@DV?$stream_output_adapter@D@__crt_stdio_output@@V?$standard_base@DV?$stream_output_adapter@D@__crt_stdio_output@@@2@@0@AAE_NXZ@AAPAD@Z 10087750 f i libucrtd:output.obj
 0001:00086780       ??$read_va_arg@PAUansi_string@?1??type_case_Z@?$output_processor@DV?$string_output_adapter@D@__crt_stdio_output@@V?$format_validation_base@DV?$string_output_adapter@D@__crt_stdio_output@@@2@@__crt_stdio_output@@AAE_NXZ@@__crt_stdio_output@@YAPAUansi_string@?1??type_case_Z@?$output_processor@DV?$string_output_adapter@D@__crt_stdio_output@@V?$format_validation_base@DV?$string_output_adapter@D@__crt_stdio_output@@@2@@0@AAE_NXZ@AAPAD@Z 10087780 f i libucrtd:output.obj
 0001:000867b0       ??$read_va_arg@PAUansi_string@?1??type_case_Z@?$output_processor@DV?$string_output_adapter@D@__crt_stdio_output@@V?$positional_parameter_base@DV?$string_output_adapter@D@__crt_stdio_output@@@2@@__crt_stdio_output@@AAE_NXZ@@__crt_stdio_output@@YAPAUansi_string@?1??type_case_Z@?$output_processor@DV?$string_output_adapter@D@__crt_stdio_output@@V?$positional_parameter_base@DV?$string_output_adapter@D@__crt_stdio_output@@@2@@0@AAE_NXZ@AAPAD@Z 100877b0 f i libucrtd:output.obj
 0001:000867e0       ??$read_va_arg@PAUansi_string@?1??type_case_Z@?$output_processor@DV?$string_output_adapter@D@__crt_stdio_output@@V?$standard_base@DV?$string_output_adapter@D@__crt_stdio_output@@@2@@__crt_stdio_output@@AAE_NXZ@@__crt_stdio_output@@YAPAUansi_string@?1??type_case_Z@?$output_processor@DV?$string_output_adapter@D@__crt_stdio_output@@V?$standard_base@DV?$string_output_adapter@D@__crt_stdio_output@@@2@@0@AAE_NXZ@AAPAD@Z 100877e0 f i libucrtd:output.obj
 0001:00086810       ??$read_va_arg@PAUansi_string@?1??type_case_Z@?$output_processor@_WV?$stream_output_adapter@_W@__crt_stdio_output@@V?$format_validation_base@_WV?$stream_output_adapter@_W@__crt_stdio_output@@@2@@__crt_stdio_output@@AAE_NXZ@@__crt_stdio_output@@YAPAUansi_string@?1??type_case_Z@?$output_processor@_WV?$stream_output_adapter@_W@__crt_stdio_output@@V?$format_validation_base@_WV?$stream_output_adapter@_W@__crt_stdio_output@@@2@@0@AAE_NXZ@AAPAD@Z 10087810 f i libucrtd:output.obj
 0001:00086840       ??$read_va_arg@PAUansi_string@?1??type_case_Z@?$output_processor@_WV?$stream_output_adapter@_W@__crt_stdio_output@@V?$positional_parameter_base@_WV?$stream_output_adapter@_W@__crt_stdio_output@@@2@@__crt_stdio_output@@AAE_NXZ@@__crt_stdio_output@@YAPAUansi_string@?1??type_case_Z@?$output_processor@_WV?$stream_output_adapter@_W@__crt_stdio_output@@V?$positional_parameter_base@_WV?$stream_output_adapter@_W@__crt_stdio_output@@@2@@0@AAE_NXZ@AAPAD@Z 10087840 f i libucrtd:output.obj
 0001:00086870       ??$read_va_arg@PAUansi_string@?1??type_case_Z@?$output_processor@_WV?$stream_output_adapter@_W@__crt_stdio_output@@V?$standard_base@_WV?$stream_output_adapter@_W@__crt_stdio_output@@@2@@__crt_stdio_output@@AAE_NXZ@@__crt_stdio_output@@YAPAUansi_string@?1??type_case_Z@?$output_processor@_WV?$stream_output_adapter@_W@__crt_stdio_output@@V?$standard_base@_WV?$stream_output_adapter@_W@__crt_stdio_output@@@2@@0@AAE_NXZ@AAPAD@Z 10087870 f i libucrtd:output.obj
 0001:000868a0       ??$read_va_arg@PAUansi_string@?1??type_case_Z@?$output_processor@_WV?$string_output_adapter@_W@__crt_stdio_output@@V?$format_validation_base@_WV?$string_output_adapter@_W@__crt_stdio_output@@@2@@__crt_stdio_output@@AAE_NXZ@@__crt_stdio_output@@YAPAUansi_string@?1??type_case_Z@?$output_processor@_WV?$string_output_adapter@_W@__crt_stdio_output@@V?$format_validation_base@_WV?$string_output_adapter@_W@__crt_stdio_output@@@2@@0@AAE_NXZ@AAPAD@Z 100878a0 f i libucrtd:output.obj
 0001:000868d0       ??$read_va_arg@PAUansi_string@?1??type_case_Z@?$output_processor@_WV?$string_output_adapter@_W@__crt_stdio_output@@V?$positional_parameter_base@_WV?$string_output_adapter@_W@__crt_stdio_output@@@2@@__crt_stdio_output@@AAE_NXZ@@__crt_stdio_output@@YAPAUansi_string@?1??type_case_Z@?$output_processor@_WV?$string_output_adapter@_W@__crt_stdio_output@@V?$positional_parameter_base@_WV?$string_output_adapter@_W@__crt_stdio_output@@@2@@0@AAE_NXZ@AAPAD@Z 100878d0 f i libucrtd:output.obj
 0001:00086900       ??$read_va_arg@PAUansi_string@?1??type_case_Z@?$output_processor@_WV?$string_output_adapter@_W@__crt_stdio_output@@V?$standard_base@_WV?$string_output_adapter@_W@__crt_stdio_output@@@2@@__crt_stdio_output@@AAE_NXZ@@__crt_stdio_output@@YAPAUansi_string@?1??type_case_Z@?$output_processor@_WV?$string_output_adapter@_W@__crt_stdio_output@@V?$standard_base@_WV?$string_output_adapter@_W@__crt_stdio_output@@@2@@0@AAE_NXZ@AAPAD@Z 10087900 f i libucrtd:output.obj
 0001:00086930       ??$read_va_arg@PAX@__crt_stdio_output@@YAPAXAAPAD@Z 10087930 f i libucrtd:output.obj
 0001:00086960       ??$read_va_arg@U_CRT_DOUBLE@@@__crt_stdio_output@@YA?AU_CRT_DOUBLE@@AAPAD@Z 10087960 f i libucrtd:output.obj
 0001:00086990       ??$read_va_arg@_J@__crt_stdio_output@@YA_JAAPAD@Z 10087990 f i libucrtd:output.obj
 0001:000869c0       ??$read_va_arg@_K@__crt_stdio_output@@YA_KAAPAD@Z 100879c0 f i libucrtd:output.obj
 0001:000869f0       ??$read_va_arg@_W@__crt_stdio_output@@YA_WAAPAD@Z 100879f0 f i libucrtd:output.obj
 0001:00086a20       ??$scratch_count@D@formatting_buffer@__crt_stdio_output@@QBEIXZ 10087a20 f i libucrtd:output.obj
 0001:00086a40       ??$scratch_data@D@formatting_buffer@__crt_stdio_output@@QAEPADXZ 10087a40 f i libucrtd:output.obj
 0001:00086aa0       ??$tcstol@AAPBDPAPADH@?$__crt_char_traits@D@@SAJAAPBD$$QAPAPAD$$QAH@Z 10087aa0 f i libucrtd:output.obj
 0001:00086ad0       ??$tcstol@AAPB_WPAPA_WH@?$__crt_char_traits@_W@@SAJAAPB_W$$QAPAPA_W$$QAH@Z 10087ad0 f i libucrtd:output.obj
 0001:00086b00       ??$tcstol@PBDPAPADH@?$__crt_char_traits@D@@SAJ$$QAPBD$$QAPAPAD$$QAH@Z 10087b00 f i libucrtd:output.obj
 0001:00086b30       ??$tcstol@PB_WPAPA_WH@?$__crt_char_traits@_W@@SAJ$$QAPB_W$$QAPAPA_W$$QAH@Z 10087b30 f i libucrtd:output.obj
 0001:00086b60       ??$type_case_integer_parse_into_buffer@I@?$output_processor@DV?$stream_output_adapter@D@__crt_stdio_output@@V?$format_validation_base@DV?$stream_output_adapter@D@__crt_stdio_output@@@2@@__crt_stdio_output@@AAEXII_N@Z 10087b60 f i libucrtd:output.obj
 0001:00086c70       ??$type_case_integer_parse_into_buffer@I@?$output_processor@DV?$stream_output_adapter@D@__crt_stdio_output@@V?$positional_parameter_base@DV?$stream_output_adapter@D@__crt_stdio_output@@@2@@__crt_stdio_output@@AAEXII_N@Z 10087c70 f i libucrtd:output.obj
 0001:00086d80       ??$type_case_integer_parse_into_buffer@I@?$output_processor@DV?$stream_output_adapter@D@__crt_stdio_output@@V?$standard_base@DV?$stream_output_adapter@D@__crt_stdio_output@@@2@@__crt_stdio_output@@AAEXII_N@Z 10087d80 f i libucrtd:output.obj
 0001:00086e90       ??$type_case_integer_parse_into_buffer@I@?$output_processor@DV?$string_output_adapter@D@__crt_stdio_output@@V?$format_validation_base@DV?$string_output_adapter@D@__crt_stdio_output@@@2@@__crt_stdio_output@@AAEXII_N@Z 10087e90 f i libucrtd:output.obj
 0001:00086fa0       ??$type_case_integer_parse_into_buffer@I@?$output_processor@DV?$string_output_adapter@D@__crt_stdio_output@@V?$positional_parameter_base@DV?$string_output_adapter@D@__crt_stdio_output@@@2@@__crt_stdio_output@@AAEXII_N@Z 10087fa0 f i libucrtd:output.obj
 0001:000870b0       ??$type_case_integer_parse_into_buffer@I@?$output_processor@DV?$string_output_adapter@D@__crt_stdio_output@@V?$standard_base@DV?$string_output_adapter@D@__crt_stdio_output@@@2@@__crt_stdio_output@@AAEXII_N@Z 100880b0 f i libucrtd:output.obj
 0001:000871c0       ??$type_case_integer_parse_into_buffer@I@?$output_processor@_WV?$stream_output_adapter@_W@__crt_stdio_output@@V?$format_validation_base@_WV?$stream_output_adapter@_W@__crt_stdio_output@@@2@@__crt_stdio_output@@AAEXII_N@Z 100881c0 f i libucrtd:output.obj
 0001:000872d0       ??$type_case_integer_parse_into_buffer@I@?$output_processor@_WV?$stream_output_adapter@_W@__crt_stdio_output@@V?$positional_parameter_base@_WV?$stream_output_adapter@_W@__crt_stdio_output@@@2@@__crt_stdio_output@@AAEXII_N@Z 100882d0 f i libucrtd:output.obj
 0001:000873e0       ??$type_case_integer_parse_into_buffer@I@?$output_processor@_WV?$stream_output_adapter@_W@__crt_stdio_output@@V?$standard_base@_WV?$stream_output_adapter@_W@__crt_stdio_output@@@2@@__crt_stdio_output@@AAEXII_N@Z 100883e0 f i libucrtd:output.obj
 0001:000874f0       ??$type_case_integer_parse_into_buffer@I@?$output_processor@_WV?$string_output_adapter@_W@__crt_stdio_output@@V?$format_validation_base@_WV?$string_output_adapter@_W@__crt_stdio_output@@@2@@__crt_stdio_output@@AAEXII_N@Z 100884f0 f i libucrtd:output.obj
 0001:00087600       ??$type_case_integer_parse_into_buffer@I@?$output_processor@_WV?$string_output_adapter@_W@__crt_stdio_output@@V?$positional_parameter_base@_WV?$string_output_adapter@_W@__crt_stdio_output@@@2@@__crt_stdio_output@@AAEXII_N@Z 10088600 f i libucrtd:output.obj
 0001:00087710       ??$type_case_integer_parse_into_buffer@I@?$output_processor@_WV?$string_output_adapter@_W@__crt_stdio_output@@V?$standard_base@_WV?$string_output_adapter@_W@__crt_stdio_output@@@2@@__crt_stdio_output@@AAEXII_N@Z 10088710 f i libucrtd:output.obj
 0001:00087820       ??$type_case_integer_parse_into_buffer@_K@?$output_processor@DV?$stream_output_adapter@D@__crt_stdio_output@@V?$format_validation_base@DV?$stream_output_adapter@D@__crt_stdio_output@@@2@@__crt_stdio_output@@AAEX_KI_N@Z 10088820 f i libucrtd:output.obj
 0001:00087950       ??$type_case_integer_parse_into_buffer@_K@?$output_processor@DV?$stream_output_adapter@D@__crt_stdio_output@@V?$positional_parameter_base@DV?$stream_output_adapter@D@__crt_stdio_output@@@2@@__crt_stdio_output@@AAEX_KI_N@Z 10088950 f i libucrtd:output.obj
 0001:00087a80       ??$type_case_integer_parse_into_buffer@_K@?$output_processor@DV?$stream_output_adapter@D@__crt_stdio_output@@V?$standard_base@DV?$stream_output_adapter@D@__crt_stdio_output@@@2@@__crt_stdio_output@@AAEX_KI_N@Z 10088a80 f i libucrtd:output.obj
 0001:00087bb0       ??$type_case_integer_parse_into_buffer@_K@?$output_processor@DV?$string_output_adapter@D@__crt_stdio_output@@V?$format_validation_base@DV?$string_output_adapter@D@__crt_stdio_output@@@2@@__crt_stdio_output@@AAEX_KI_N@Z 10088bb0 f i libucrtd:output.obj
 0001:00087ce0       ??$type_case_integer_parse_into_buffer@_K@?$output_processor@DV?$string_output_adapter@D@__crt_stdio_output@@V?$positional_parameter_base@DV?$string_output_adapter@D@__crt_stdio_output@@@2@@__crt_stdio_output@@AAEX_KI_N@Z 10088ce0 f i libucrtd:output.obj
 0001:00087e10       ??$type_case_integer_parse_into_buffer@_K@?$output_processor@DV?$string_output_adapter@D@__crt_stdio_output@@V?$standard_base@DV?$string_output_adapter@D@__crt_stdio_output@@@2@@__crt_stdio_output@@AAEX_KI_N@Z 10088e10 f i libucrtd:output.obj
 0001:00087f40       ??$type_case_integer_parse_into_buffer@_K@?$output_processor@_WV?$stream_output_adapter@_W@__crt_stdio_output@@V?$format_validation_base@_WV?$stream_output_adapter@_W@__crt_stdio_output@@@2@@__crt_stdio_output@@AAEX_KI_N@Z 10088f40 f i libucrtd:output.obj
 0001:00088080       ??$type_case_integer_parse_into_buffer@_K@?$output_processor@_WV?$stream_output_adapter@_W@__crt_stdio_output@@V?$positional_parameter_base@_WV?$stream_output_adapter@_W@__crt_stdio_output@@@2@@__crt_stdio_output@@AAEX_KI_N@Z 10089080 f i libucrtd:output.obj
 0001:000881c0       ??$type_case_integer_parse_into_buffer@_K@?$output_processor@_WV?$stream_output_adapter@_W@__crt_stdio_output@@V?$standard_base@_WV?$stream_output_adapter@_W@__crt_stdio_output@@@2@@__crt_stdio_output@@AAEX_KI_N@Z 100891c0 f i libucrtd:output.obj
 0001:00088300       ??$type_case_integer_parse_into_buffer@_K@?$output_processor@_WV?$string_output_adapter@_W@__crt_stdio_output@@V?$format_validation_base@_WV?$string_output_adapter@_W@__crt_stdio_output@@@2@@__crt_stdio_output@@AAEX_KI_N@Z 10089300 f i libucrtd:output.obj
 0001:00088440       ??$type_case_integer_parse_into_buffer@_K@?$output_processor@_WV?$string_output_adapter@_W@__crt_stdio_output@@V?$positional_parameter_base@_WV?$string_output_adapter@_W@__crt_stdio_output@@@2@@__crt_stdio_output@@AAEX_KI_N@Z 10089440 f i libucrtd:output.obj
 0001:00088580       ??$type_case_integer_parse_into_buffer@_K@?$output_processor@_WV?$string_output_adapter@_W@__crt_stdio_output@@V?$standard_base@_WV?$string_output_adapter@_W@__crt_stdio_output@@@2@@__crt_stdio_output@@AAEX_KI_N@Z 10089580 f i libucrtd:output.obj
 0001:000886c0       ??$write_multiple_characters@V?$stream_output_adapter@D@__crt_stdio_output@@D@__crt_stdio_output@@YAXABV?$stream_output_adapter@D@0@DHQAH@Z 100896c0 f i libucrtd:output.obj
 0001:00088720       ??$write_multiple_characters@V?$stream_output_adapter@_W@__crt_stdio_output@@D@__crt_stdio_output@@YAXABV?$stream_output_adapter@_W@0@DHQAH@Z 10089720 f i libucrtd:output.obj
 0001:00088780       ??$write_multiple_characters@V?$string_output_adapter@D@__crt_stdio_output@@D@__crt_stdio_output@@YAXABV?$string_output_adapter@D@0@DHQAH@Z 10089780 f i libucrtd:output.obj
 0001:000887e0       ??$write_multiple_characters@V?$string_output_adapter@_W@__crt_stdio_output@@D@__crt_stdio_output@@YAXABV?$string_output_adapter@_W@0@DHQAH@Z 100897e0 f i libucrtd:output.obj
 0001:00088c60       ??0?$common_data@D@__crt_stdio_output@@IAE@XZ 10089c60 f i libucrtd:output.obj
 0001:00088d30       ??0?$common_data@_W@__crt_stdio_output@@IAE@XZ 10089d30 f i libucrtd:output.obj
 0001:00088e00       ??0?$output_adapter_data@DV?$stream_output_adapter@D@__crt_stdio_output@@@__crt_stdio_output@@IAE@ABV?$stream_output_adapter@D@1@_KQBDQAU__crt_locale_pointers@@QAD@Z 10089e00 f i libucrtd:output.obj
 0001:00088e70       ??0?$output_adapter_data@DV?$string_output_adapter@D@__crt_stdio_output@@@__crt_stdio_output@@IAE@ABV?$string_output_adapter@D@1@_KQBDQAU__crt_locale_pointers@@QAD@Z 10089e70 f i libucrtd:output.obj
 0001:00088ee0       ??0?$output_adapter_data@_WV?$stream_output_adapter@_W@__crt_stdio_output@@@__crt_stdio_output@@IAE@ABV?$stream_output_adapter@_W@1@_KQB_WQAU__crt_locale_pointers@@QAD@Z 10089ee0 f i libucrtd:output.obj
 0001:00088f50       ??0?$output_adapter_data@_WV?$string_output_adapter@_W@__crt_stdio_output@@@__crt_stdio_output@@IAE@ABV?$string_output_adapter@_W@1@_KQB_WQAU__crt_locale_pointers@@QAD@Z 10089f50 f i libucrtd:output.obj
 0001:00088fc0       ??0?$output_processor@DV?$stream_output_adapter@D@__crt_stdio_output@@V?$format_validation_base@DV?$stream_output_adapter@D@__crt_stdio_output@@@2@@__crt_stdio_output@@QAE@ABV?$stream_output_adapter@D@1@_KQBDQAU__crt_locale_pointers@@QAD@Z 10089fc0 f i libucrtd:output.obj
 0001:00089000       ??0?$output_processor@DV?$stream_output_adapter@D@__crt_stdio_output@@V?$positional_parameter_base@DV?$stream_output_adapter@D@__crt_stdio_output@@@2@@__crt_stdio_output@@QAE@ABV?$stream_output_adapter@D@1@_KQBDQAU__crt_locale_pointers@@QAD@Z 1008a000 f i libucrtd:output.obj
 0001:00089040       ??0?$output_processor@DV?$stream_output_adapter@D@__crt_stdio_output@@V?$standard_base@DV?$stream_output_adapter@D@__crt_stdio_output@@@2@@__crt_stdio_output@@QAE@ABV?$stream_output_adapter@D@1@_KQBDQAU__crt_locale_pointers@@QAD@Z 1008a040 f i libucrtd:output.obj
 0001:00089080       ??0?$output_processor@DV?$string_output_adapter@D@__crt_stdio_output@@V?$format_validation_base@DV?$string_output_adapter@D@__crt_stdio_output@@@2@@__crt_stdio_output@@QAE@ABV?$string_output_adapter@D@1@_KQBDQAU__crt_locale_pointers@@QAD@Z 1008a080 f i libucrtd:output.obj
 0001:000890c0       ??0?$output_processor@DV?$string_output_adapter@D@__crt_stdio_output@@V?$positional_parameter_base@DV?$string_output_adapter@D@__crt_stdio_output@@@2@@__crt_stdio_output@@QAE@ABV?$string_output_adapter@D@1@_KQBDQAU__crt_locale_pointers@@QAD@Z 1008a0c0 f i libucrtd:output.obj
 0001:00089100       ??0?$output_processor@DV?$string_output_adapter@D@__crt_stdio_output@@V?$standard_base@DV?$string_output_adapter@D@__crt_stdio_output@@@2@@__crt_stdio_output@@QAE@ABV?$string_output_adapter@D@1@_KQBDQAU__crt_locale_pointers@@QAD@Z 1008a100 f i libucrtd:output.obj
 0001:00089140       ??0?$output_processor@_WV?$stream_output_adapter@_W@__crt_stdio_output@@V?$format_validation_base@_WV?$stream_output_adapter@_W@__crt_stdio_output@@@2@@__crt_stdio_output@@QAE@ABV?$stream_output_adapter@_W@1@_KQB_WQAU__crt_locale_pointers@@QAD@Z 1008a140 f i libucrtd:output.obj
 0001:00089180       ??0?$output_processor@_WV?$stream_output_adapter@_W@__crt_stdio_output@@V?$positional_parameter_base@_WV?$stream_output_adapter@_W@__crt_stdio_output@@@2@@__crt_stdio_output@@QAE@ABV?$stream_output_adapter@_W@1@_KQB_WQAU__crt_locale_pointers@@QAD@Z 1008a180 f i libucrtd:output.obj
 0001:000891c0       ??0?$output_processor@_WV?$stream_output_adapter@_W@__crt_stdio_output@@V?$standard_base@_WV?$stream_output_adapter@_W@__crt_stdio_output@@@2@@__crt_stdio_output@@QAE@ABV?$stream_output_adapter@_W@1@_KQB_WQAU__crt_locale_pointers@@QAD@Z 1008a1c0 f i libucrtd:output.obj
 0001:00089200       ??0?$output_processor@_WV?$string_output_adapter@_W@__crt_stdio_output@@V?$format_validation_base@_WV?$string_output_adapter@_W@__crt_stdio_output@@@2@@__crt_stdio_output@@QAE@ABV?$string_output_adapter@_W@1@_KQB_WQAU__crt_locale_pointers@@QAD@Z 1008a200 f i libucrtd:output.obj
 0001:00089240       ??0?$output_processor@_WV?$string_output_adapter@_W@__crt_stdio_output@@V?$positional_parameter_base@_WV?$string_output_adapter@_W@__crt_stdio_output@@@2@@__crt_stdio_output@@QAE@ABV?$string_output_adapter@_W@1@_KQB_WQAU__crt_locale_pointers@@QAD@Z 1008a240 f i libucrtd:output.obj
 0001:00089280       ??0?$output_processor@_WV?$string_output_adapter@_W@__crt_stdio_output@@V?$standard_base@_WV?$string_output_adapter@_W@__crt_stdio_output@@@2@@__crt_stdio_output@@QAE@ABV?$string_output_adapter@_W@1@_KQB_WQAU__crt_locale_pointers@@QAD@Z 1008a280 f i libucrtd:output.obj
 0001:000892c0       ??0?$stream_output_adapter@D@__crt_stdio_output@@QAE@QAU_iobuf@@@Z 1008a2c0 f i libucrtd:output.obj
 0001:000892f0       ??0?$stream_output_adapter@_W@__crt_stdio_output@@QAE@QAU_iobuf@@@Z 1008a2f0 f i libucrtd:output.obj
 0001:00089320       ??0?$string_output_adapter@D@__crt_stdio_output@@QAE@QAU?$string_output_adapter_context@D@1@@Z 1008a320 f i libucrtd:output.obj
 0001:00089340       ??0?$string_output_adapter@_W@__crt_stdio_output@@QAE@QAU?$string_output_adapter_context@_W@1@@Z 1008a340 f i libucrtd:output.obj
 0001:00089360       ??0__acrt_stdio_temporary_buffering_guard@@QAE@QAU_iobuf@@@Z 1008a360 f i libucrtd:output.obj
 0001:000893a0       ??0__crt_deferred_errno_cache@@QAE@XZ 1008a3a0 f i libucrtd:output.obj
 0001:000893c0       ??0__crt_errno_guard@@QAE@QAH@Z 1008a3c0 f i libucrtd:output.obj
 0001:00089400       ??0__crt_stdio_stream@@QAE@QAU_iobuf@@@Z 1008a400 f i libucrtd:output.obj
 0001:00089420       ??0formatting_buffer@__crt_stdio_output@@QAE@XZ 1008a420 f i libucrtd:output.obj
 0001:00089460       ??1?$common_data@D@__crt_stdio_output@@QAE@XZ 1008a460 f i libucrtd:output.obj
 0001:00089480       ??1?$common_data@_W@__crt_stdio_output@@QAE@XZ 1008a480 f i libucrtd:output.obj
 0001:000894a0       ??1?$format_validation_base@DV?$stream_output_adapter@D@__crt_stdio_output@@@__crt_stdio_output@@QAE@XZ 1008a4a0 f i libucrtd:output.obj
 0001:000894c0       ??1?$format_validation_base@DV?$string_output_adapter@D@__crt_stdio_output@@@__crt_stdio_output@@QAE@XZ 1008a4c0 f i libucrtd:output.obj
 0001:000894e0       ??1?$format_validation_base@_WV?$stream_output_adapter@_W@__crt_stdio_output@@@__crt_stdio_output@@QAE@XZ 1008a4e0 f i libucrtd:output.obj
 0001:00089500       ??1?$format_validation_base@_WV?$string_output_adapter@_W@__crt_stdio_output@@@__crt_stdio_output@@QAE@XZ 1008a500 f i libucrtd:output.obj
 0001:00089520       ??1?$output_adapter_data@DV?$stream_output_adapter@D@__crt_stdio_output@@@__crt_stdio_output@@QAE@XZ 1008a520 f i libucrtd:output.obj
 0001:00089540       ??1?$output_adapter_data@DV?$string_output_adapter@D@__crt_stdio_output@@@__crt_stdio_output@@QAE@XZ 1008a540 f i libucrtd:output.obj
 0001:00089560       ??1?$output_adapter_data@_WV?$stream_output_adapter@_W@__crt_stdio_output@@@__crt_stdio_output@@QAE@XZ 1008a560 f i libucrtd:output.obj
 0001:00089580       ??1?$output_adapter_data@_WV?$string_output_adapter@_W@__crt_stdio_output@@@__crt_stdio_output@@QAE@XZ 1008a580 f i libucrtd:output.obj
 0001:000895a0       ??1?$output_processor@DV?$stream_output_adapter@D@__crt_stdio_output@@V?$format_validation_base@DV?$stream_output_adapter@D@__crt_stdio_output@@@2@@__crt_stdio_output@@QAE@XZ 1008a5a0 f i libucrtd:output.obj
 0001:000895c0       ??1?$output_processor@DV?$stream_output_adapter@D@__crt_stdio_output@@V?$positional_parameter_base@DV?$stream_output_adapter@D@__crt_stdio_output@@@2@@__crt_stdio_output@@QAE@XZ 1008a5c0 f i libucrtd:output.obj
 0001:000895e0       ??1?$output_processor@DV?$stream_output_adapter@D@__crt_stdio_output@@V?$standard_base@DV?$stream_output_adapter@D@__crt_stdio_output@@@2@@__crt_stdio_output@@QAE@XZ 1008a5e0 f i libucrtd:output.obj
 0001:00089600       ??1?$output_processor@DV?$string_output_adapter@D@__crt_stdio_output@@V?$format_validation_base@DV?$string_output_adapter@D@__crt_stdio_output@@@2@@__crt_stdio_output@@QAE@XZ 1008a600 f i libucrtd:output.obj
 0001:00089620       ??1?$output_processor@DV?$string_output_adapter@D@__crt_stdio_output@@V?$positional_parameter_base@DV?$string_output_adapter@D@__crt_stdio_output@@@2@@__crt_stdio_output@@QAE@XZ 1008a620 f i libucrtd:output.obj
 0001:00089640       ??1?$output_processor@DV?$string_output_adapter@D@__crt_stdio_output@@V?$standard_base@DV?$string_output_adapter@D@__crt_stdio_output@@@2@@__crt_stdio_output@@QAE@XZ 1008a640 f i libucrtd:output.obj
 0001:00089660       ??1?$output_processor@_WV?$stream_output_adapter@_W@__crt_stdio_output@@V?$format_validation_base@_WV?$stream_output_adapter@_W@__crt_stdio_output@@@2@@__crt_stdio_output@@QAE@XZ 1008a660 f i libucrtd:output.obj
 0001:00089680       ??1?$output_processor@_WV?$stream_output_adapter@_W@__crt_stdio_output@@V?$positional_parameter_base@_WV?$stream_output_adapter@_W@__crt_stdio_output@@@2@@__crt_stdio_output@@QAE@XZ 1008a680 f i libucrtd:output.obj
 0001:000896a0       ??1?$output_processor@_WV?$stream_output_adapter@_W@__crt_stdio_output@@V?$standard_base@_WV?$stream_output_adapter@_W@__crt_stdio_output@@@2@@__crt_stdio_output@@QAE@XZ 1008a6a0 f i libucrtd:output.obj
 0001:000896c0       ??1?$output_processor@_WV?$string_output_adapter@_W@__crt_stdio_output@@V?$format_validation_base@_WV?$string_output_adapter@_W@__crt_stdio_output@@@2@@__crt_stdio_output@@QAE@XZ 1008a6c0 f i libucrtd:output.obj
 0001:000896e0       ??1?$output_processor@_WV?$string_output_adapter@_W@__crt_stdio_output@@V?$positional_parameter_base@_WV?$string_output_adapter@_W@__crt_stdio_output@@@2@@__crt_stdio_output@@QAE@XZ 1008a6e0 f i libucrtd:output.obj
 0001:00089700       ??1?$output_processor@_WV?$string_output_adapter@_W@__crt_stdio_output@@V?$standard_base@_WV?$string_output_adapter@_W@__crt_stdio_output@@@2@@__crt_stdio_output@@QAE@XZ 1008a700 f i libucrtd:output.obj
 0001:00089720       ??1?$positional_parameter_base@DV?$stream_output_adapter@D@__crt_stdio_output@@@__crt_stdio_output@@QAE@XZ 1008a720 f i libucrtd:output.obj
 0001:00089740       ??1?$positional_parameter_base@DV?$string_output_adapter@D@__crt_stdio_output@@@__crt_stdio_output@@QAE@XZ 1008a740 f i libucrtd:output.obj
 0001:00089760       ??1?$positional_parameter_base@_WV?$stream_output_adapter@_W@__crt_stdio_output@@@__crt_stdio_output@@QAE@XZ 1008a760 f i libucrtd:output.obj
 0001:00089780       ??1?$positional_parameter_base@_WV?$string_output_adapter@_W@__crt_stdio_output@@@__crt_stdio_output@@QAE@XZ 1008a780 f i libucrtd:output.obj
 0001:000897a0       ??1?$standard_base@DV?$stream_output_adapter@D@__crt_stdio_output@@@__crt_stdio_output@@QAE@XZ 1008a7a0 f i libucrtd:output.obj
 0001:000897c0       ??1?$standard_base@DV?$string_output_adapter@D@__crt_stdio_output@@@__crt_stdio_output@@QAE@XZ 1008a7c0 f i libucrtd:output.obj
 0001:000897e0       ??1?$standard_base@_WV?$stream_output_adapter@_W@__crt_stdio_output@@@__crt_stdio_output@@QAE@XZ 1008a7e0 f i libucrtd:output.obj
 0001:00089800       ??1?$standard_base@_WV?$string_output_adapter@_W@__crt_stdio_output@@@__crt_stdio_output@@QAE@XZ 1008a800 f i libucrtd:output.obj
 0001:00089820       ??1__acrt_stdio_temporary_buffering_guard@@QAE@XZ 1008a820 f i libucrtd:output.obj
 0001:00089850       ??1__crt_errno_guard@@QAE@XZ 1008a850 f i libucrtd:output.obj
 0001:00089890       ??1formatting_buffer@__crt_stdio_output@@QAE@XZ 1008a890 f i libucrtd:output.obj
 0001:000898c0       ??4?$__crt_unique_heap_ptr@DU__crt_internal_free_policy@@@@QAEAAV0@$$QAV0@@Z 1008a8c0 f i libucrtd:output.obj
 0001:00089900       ??A?$spectre_mitigated_lookup_table@Ustate_transition_pair@__crt_stdio_output@@$0IA@@__crt_stdio_output@@QBEABUstate_transition_pair@1@I@Z 1008a900 f i libucrtd:output.obj
 0001:00089930       ??C__crt_stdio_stream@@QBEPAU__crt_stdio_stream_data@@XZ 1008a930 f i libucrtd:output.obj
 0001:0008a250       ?adjust_hexit@?$output_processor@DV?$stream_output_adapter@D@__crt_stdio_output@@V?$format_validation_base@DV?$stream_output_adapter@D@__crt_stdio_output@@@2@@__crt_stdio_output@@CADH_N@Z 1008b250 f i libucrtd:output.obj
 0001:0008a2a0       ?adjust_hexit@?$output_processor@DV?$stream_output_adapter@D@__crt_stdio_output@@V?$positional_parameter_base@DV?$stream_output_adapter@D@__crt_stdio_output@@@2@@__crt_stdio_output@@CADH_N@Z 1008b2a0 f i libucrtd:output.obj
 0001:0008a2f0       ?adjust_hexit@?$output_processor@DV?$stream_output_adapter@D@__crt_stdio_output@@V?$standard_base@DV?$stream_output_adapter@D@__crt_stdio_output@@@2@@__crt_stdio_output@@CADH_N@Z 1008b2f0 f i libucrtd:output.obj
 0001:0008a340       ?adjust_hexit@?$output_processor@DV?$string_output_adapter@D@__crt_stdio_output@@V?$format_validation_base@DV?$string_output_adapter@D@__crt_stdio_output@@@2@@__crt_stdio_output@@CADH_N@Z 1008b340 f i libucrtd:output.obj
 0001:0008a390       ?adjust_hexit@?$output_processor@DV?$string_output_adapter@D@__crt_stdio_output@@V?$positional_parameter_base@DV?$string_output_adapter@D@__crt_stdio_output@@@2@@__crt_stdio_output@@CADH_N@Z 1008b390 f i libucrtd:output.obj
 0001:0008a3e0       ?adjust_hexit@?$output_processor@DV?$string_output_adapter@D@__crt_stdio_output@@V?$standard_base@DV?$string_output_adapter@D@__crt_stdio_output@@@2@@__crt_stdio_output@@CADH_N@Z 1008b3e0 f i libucrtd:output.obj
 0001:0008a430       ?adjust_hexit@?$output_processor@_WV?$stream_output_adapter@_W@__crt_stdio_output@@V?$format_validation_base@_WV?$stream_output_adapter@_W@__crt_stdio_output@@@2@@__crt_stdio_output@@CADH_N@Z 1008b430 f i libucrtd:output.obj
 0001:0008a480       ?adjust_hexit@?$output_processor@_WV?$stream_output_adapter@_W@__crt_stdio_output@@V?$positional_parameter_base@_WV?$stream_output_adapter@_W@__crt_stdio_output@@@2@@__crt_stdio_output@@CADH_N@Z 1008b480 f i libucrtd:output.obj
 0001:0008a4d0       ?adjust_hexit@?$output_processor@_WV?$stream_output_adapter@_W@__crt_stdio_output@@V?$standard_base@_WV?$stream_output_adapter@_W@__crt_stdio_output@@@2@@__crt_stdio_output@@CADH_N@Z 1008b4d0 f i libucrtd:output.obj
 0001:0008a520       ?adjust_hexit@?$output_processor@_WV?$string_output_adapter@_W@__crt_stdio_output@@V?$format_validation_base@_WV?$string_output_adapter@_W@__crt_stdio_output@@@2@@__crt_stdio_output@@CADH_N@Z 1008b520 f i libucrtd:output.obj
 0001:0008a570       ?adjust_hexit@?$output_processor@_WV?$string_output_adapter@_W@__crt_stdio_output@@V?$positional_parameter_base@_WV?$string_output_adapter@_W@__crt_stdio_output@@@2@@__crt_stdio_output@@CADH_N@Z 1008b570 f i libucrtd:output.obj
 0001:0008a5c0       ?adjust_hexit@?$output_processor@_WV?$string_output_adapter@_W@__crt_stdio_output@@V?$standard_base@_WV?$string_output_adapter@_W@__crt_stdio_output@@@2@@__crt_stdio_output@@CADH_N@Z 1008b5c0 f i libucrtd:output.obj
 0001:0008a610       ?advance_to_next_pass@?$positional_parameter_base@DV?$stream_output_adapter@D@__crt_stdio_output@@@__crt_stdio_output@@IAE_NXZ 1008b610 f i libucrtd:output.obj
 0001:0008a6d0       ?advance_to_next_pass@?$positional_parameter_base@DV?$string_output_adapter@D@__crt_stdio_output@@@__crt_stdio_output@@IAE_NXZ 1008b6d0 f i libucrtd:output.obj
 0001:0008a790       ?advance_to_next_pass@?$positional_parameter_base@_WV?$stream_output_adapter@_W@__crt_stdio_output@@@__crt_stdio_output@@IAE_NXZ 1008b790 f i libucrtd:output.obj
 0001:0008a850       ?advance_to_next_pass@?$positional_parameter_base@_WV?$string_output_adapter@_W@__crt_stdio_output@@@__crt_stdio_output@@IAE_NXZ 1008b850 f i libucrtd:output.obj
 0001:0008a910       ?advance_to_next_pass@?$standard_base@DV?$stream_output_adapter@D@__crt_stdio_output@@@__crt_stdio_output@@IAE_NXZ 1008b910 f i libucrtd:output.obj
 0001:0008a970       ?advance_to_next_pass@?$standard_base@DV?$string_output_adapter@D@__crt_stdio_output@@@__crt_stdio_output@@IAE_NXZ 1008b970 f i libucrtd:output.obj
 0001:0008a9d0       ?advance_to_next_pass@?$standard_base@_WV?$stream_output_adapter@_W@__crt_stdio_output@@@__crt_stdio_output@@IAE_NXZ 1008b9d0 f i libucrtd:output.obj
 0001:0008aa30       ?advance_to_next_pass@?$standard_base@_WV?$string_output_adapter@_W@__crt_stdio_output@@@__crt_stdio_output@@IAE_NXZ 1008ba30 f i libucrtd:output.obj
 0001:0008aa90       ?crop_zeroes@__crt_stdio_output@@YAXPADQAU__crt_locale_pointers@@@Z 1008ba90 f i libucrtd:output.obj
 0001:0008abc0       ?find_next_state@?$output_processor@DV?$stream_output_adapter@D@__crt_stdio_output@@V?$format_validation_base@DV?$stream_output_adapter@D@__crt_stdio_output@@@2@@__crt_stdio_output@@ABE?AW4state@2@DW432@@Z 1008bbc0 f i libucrtd:output.obj
 0001:0008ac50       ?find_next_state@?$output_processor@DV?$stream_output_adapter@D@__crt_stdio_output@@V?$positional_parameter_base@DV?$stream_output_adapter@D@__crt_stdio_output@@@2@@__crt_stdio_output@@ABE?AW4state@2@DW432@@Z 1008bc50 f i libucrtd:output.obj
 0001:0008ace0       ?find_next_state@?$output_processor@DV?$stream_output_adapter@D@__crt_stdio_output@@V?$standard_base@DV?$stream_output_adapter@D@__crt_stdio_output@@@2@@__crt_stdio_output@@ABE?AW4state@2@DW432@@Z 1008bce0 f i libucrtd:output.obj
 0001:0008ad70       ?find_next_state@?$output_processor@DV?$string_output_adapter@D@__crt_stdio_output@@V?$format_validation_base@DV?$string_output_adapter@D@__crt_stdio_output@@@2@@__crt_stdio_output@@ABE?AW4state@2@DW432@@Z 1008bd70 f i libucrtd:output.obj
 0001:0008ae00       ?find_next_state@?$output_processor@DV?$string_output_adapter@D@__crt_stdio_output@@V?$positional_parameter_base@DV?$string_output_adapter@D@__crt_stdio_output@@@2@@__crt_stdio_output@@ABE?AW4state@2@DW432@@Z 1008be00 f i libucrtd:output.obj
 0001:0008ae90       ?find_next_state@?$output_processor@DV?$string_output_adapter@D@__crt_stdio_output@@V?$standard_base@DV?$string_output_adapter@D@__crt_stdio_output@@@2@@__crt_stdio_output@@ABE?AW4state@2@DW432@@Z 1008be90 f i libucrtd:output.obj
 0001:0008af20       ?find_next_state@?$output_processor@_WV?$stream_output_adapter@_W@__crt_stdio_output@@V?$format_validation_base@_WV?$stream_output_adapter@_W@__crt_stdio_output@@@2@@__crt_stdio_output@@ABE?AW4state@2@_WW432@@Z 1008bf20 f i libucrtd:output.obj
 0001:0008afb0       ?find_next_state@?$output_processor@_WV?$stream_output_adapter@_W@__crt_stdio_output@@V?$positional_parameter_base@_WV?$stream_output_adapter@_W@__crt_stdio_output@@@2@@__crt_stdio_output@@ABE?AW4state@2@_WW432@@Z 1008bfb0 f i libucrtd:output.obj
 0001:0008b040       ?find_next_state@?$output_processor@_WV?$stream_output_adapter@_W@__crt_stdio_output@@V?$standard_base@_WV?$stream_output_adapter@_W@__crt_stdio_output@@@2@@__crt_stdio_output@@ABE?AW4state@2@_WW432@@Z 1008c040 f i libucrtd:output.obj
 0001:0008b0d0       ?find_next_state@?$output_processor@_WV?$string_output_adapter@_W@__crt_stdio_output@@V?$format_validation_base@_WV?$string_output_adapter@_W@__crt_stdio_output@@@2@@__crt_stdio_output@@ABE?AW4state@2@_WW432@@Z 1008c0d0 f i libucrtd:output.obj
 0001:0008b160       ?find_next_state@?$output_processor@_WV?$string_output_adapter@_W@__crt_stdio_output@@V?$positional_parameter_base@_WV?$string_output_adapter@_W@__crt_stdio_output@@@2@@__crt_stdio_output@@ABE?AW4state@2@_WW432@@Z 1008c160 f i libucrtd:output.obj
 0001:0008b1f0       ?find_next_state@?$output_processor@_WV?$string_output_adapter@_W@__crt_stdio_output@@V?$standard_base@_WV?$string_output_adapter@_W@__crt_stdio_output@@@2@@__crt_stdio_output@@ABE?AW4state@2@_WW432@@Z 1008c1f0 f i libucrtd:output.obj
 0001:0008b280       ?force_decimal_point@__crt_stdio_output@@YAXPADQAU__crt_locale_pointers@@@Z 1008c280 f i libucrtd:output.obj
 0001:0008b380       ?get@__crt_deferred_errno_cache@@QAEAAHXZ 1008c380 f i libucrtd:output.obj
 0001:0008b3b0       ?get_flags@__crt_stdio_stream@@QBEJXZ 1008c3b0 f i libucrtd:output.obj
 0001:0008b3e0       ?get_parameter_type@?$positional_parameter_base@DV?$stream_output_adapter@D@__crt_stdio_output@@@__crt_stdio_output@@CA?AW4parameter_type@12@F@Z 1008c3e0 f i libucrtd:output.obj
 0001:0008b3f0       ?get_parameter_type@?$positional_parameter_base@DV?$stream_output_adapter@D@__crt_stdio_output@@@__crt_stdio_output@@CA?AW4parameter_type@12@G@Z 1008c3f0 f i libucrtd:output.obj
 0001:0008b400       ?get_parameter_type@?$positional_parameter_base@DV?$stream_output_adapter@D@__crt_stdio_output@@@__crt_stdio_output@@CA?AW4parameter_type@12@H@Z 1008c400 f i libucrtd:output.obj
 0001:0008b410       ?get_parameter_type@?$positional_parameter_base@DV?$stream_output_adapter@D@__crt_stdio_output@@@__crt_stdio_output@@CA?AW4parameter_type@12@I@Z 1008c410 f i libucrtd:output.obj
 0001:0008b420       ?get_parameter_type@?$positional_parameter_base@DV?$stream_output_adapter@D@__crt_stdio_output@@@__crt_stdio_output@@CA?AW4parameter_type@12@U_CRT_DOUBLE@@@Z 1008c420 f i libucrtd:output.obj
 0001:0008b430       ?get_parameter_type@?$positional_parameter_base@DV?$stream_output_adapter@D@__crt_stdio_output@@@__crt_stdio_output@@CA?AW4parameter_type@12@_J@Z 1008c430 f i libucrtd:output.obj
 0001:0008b440       ?get_parameter_type@?$positional_parameter_base@DV?$stream_output_adapter@D@__crt_stdio_output@@@__crt_stdio_output@@CA?AW4parameter_type@12@_K@Z 1008c440 f i libucrtd:output.obj
 0001:0008b450       ?get_parameter_type@?$positional_parameter_base@DV?$stream_output_adapter@D@__crt_stdio_output@@@__crt_stdio_output@@CA?AW4parameter_type@12@_W@Z 1008c450 f i libucrtd:output.obj
 0001:0008b460       ?get_parameter_type@?$positional_parameter_base@DV?$string_output_adapter@D@__crt_stdio_output@@@__crt_stdio_output@@CA?AW4parameter_type@12@F@Z 1008c460 f i libucrtd:output.obj
 0001:0008b470       ?get_parameter_type@?$positional_parameter_base@DV?$string_output_adapter@D@__crt_stdio_output@@@__crt_stdio_output@@CA?AW4parameter_type@12@G@Z 1008c470 f i libucrtd:output.obj
 0001:0008b480       ?get_parameter_type@?$positional_parameter_base@DV?$string_output_adapter@D@__crt_stdio_output@@@__crt_stdio_output@@CA?AW4parameter_type@12@H@Z 1008c480 f i libucrtd:output.obj
 0001:0008b490       ?get_parameter_type@?$positional_parameter_base@DV?$string_output_adapter@D@__crt_stdio_output@@@__crt_stdio_output@@CA?AW4parameter_type@12@I@Z 1008c490 f i libucrtd:output.obj
 0001:0008b4a0       ?get_parameter_type@?$positional_parameter_base@DV?$string_output_adapter@D@__crt_stdio_output@@@__crt_stdio_output@@CA?AW4parameter_type@12@U_CRT_DOUBLE@@@Z 1008c4a0 f i libucrtd:output.obj
 0001:0008b4b0       ?get_parameter_type@?$positional_parameter_base@DV?$string_output_adapter@D@__crt_stdio_output@@@__crt_stdio_output@@CA?AW4parameter_type@12@_J@Z 1008c4b0 f i libucrtd:output.obj
 0001:0008b4c0       ?get_parameter_type@?$positional_parameter_base@DV?$string_output_adapter@D@__crt_stdio_output@@@__crt_stdio_output@@CA?AW4parameter_type@12@_K@Z 1008c4c0 f i libucrtd:output.obj
 0001:0008b4d0       ?get_parameter_type@?$positional_parameter_base@DV?$string_output_adapter@D@__crt_stdio_output@@@__crt_stdio_output@@CA?AW4parameter_type@12@_W@Z 1008c4d0 f i libucrtd:output.obj
 0001:0008b4e0       ?get_parameter_type@?$positional_parameter_base@_WV?$stream_output_adapter@_W@__crt_stdio_output@@@__crt_stdio_output@@CA?AW4parameter_type@12@F@Z 1008c4e0 f i libucrtd:output.obj
 0001:0008b4f0       ?get_parameter_type@?$positional_parameter_base@_WV?$stream_output_adapter@_W@__crt_stdio_output@@@__crt_stdio_output@@CA?AW4parameter_type@12@G@Z 1008c4f0 f i libucrtd:output.obj
 0001:0008b500       ?get_parameter_type@?$positional_parameter_base@_WV?$stream_output_adapter@_W@__crt_stdio_output@@@__crt_stdio_output@@CA?AW4parameter_type@12@H@Z 1008c500 f i libucrtd:output.obj
 0001:0008b510       ?get_parameter_type@?$positional_parameter_base@_WV?$stream_output_adapter@_W@__crt_stdio_output@@@__crt_stdio_output@@CA?AW4parameter_type@12@I@Z 1008c510 f i libucrtd:output.obj
 0001:0008b520       ?get_parameter_type@?$positional_parameter_base@_WV?$stream_output_adapter@_W@__crt_stdio_output@@@__crt_stdio_output@@CA?AW4parameter_type@12@U_CRT_DOUBLE@@@Z 1008c520 f i libucrtd:output.obj
 0001:0008b530       ?get_parameter_type@?$positional_parameter_base@_WV?$stream_output_adapter@_W@__crt_stdio_output@@@__crt_stdio_output@@CA?AW4parameter_type@12@_J@Z 1008c530 f i libucrtd:output.obj
 0001:0008b540       ?get_parameter_type@?$positional_parameter_base@_WV?$stream_output_adapter@_W@__crt_stdio_output@@@__crt_stdio_output@@CA?AW4parameter_type@12@_K@Z 1008c540 f i libucrtd:output.obj
 0001:0008b550       ?get_parameter_type@?$positional_parameter_base@_WV?$stream_output_adapter@_W@__crt_stdio_output@@@__crt_stdio_output@@CA?AW4parameter_type@12@_W@Z 1008c550 f i libucrtd:output.obj
 0001:0008b560       ?get_parameter_type@?$positional_parameter_base@_WV?$string_output_adapter@_W@__crt_stdio_output@@@__crt_stdio_output@@CA?AW4parameter_type@12@F@Z 1008c560 f i libucrtd:output.obj
 0001:0008b570       ?get_parameter_type@?$positional_parameter_base@_WV?$string_output_adapter@_W@__crt_stdio_output@@@__crt_stdio_output@@CA?AW4parameter_type@12@G@Z 1008c570 f i libucrtd:output.obj
 0001:0008b580       ?get_parameter_type@?$positional_parameter_base@_WV?$string_output_adapter@_W@__crt_stdio_output@@@__crt_stdio_output@@CA?AW4parameter_type@12@H@Z 1008c580 f i libucrtd:output.obj
 0001:0008b590       ?get_parameter_type@?$positional_parameter_base@_WV?$string_output_adapter@_W@__crt_stdio_output@@@__crt_stdio_output@@CA?AW4parameter_type@12@I@Z 1008c590 f i libucrtd:output.obj
 0001:0008b5a0       ?get_parameter_type@?$positional_parameter_base@_WV?$string_output_adapter@_W@__crt_stdio_output@@@__crt_stdio_output@@CA?AW4parameter_type@12@U_CRT_DOUBLE@@@Z 1008c5a0 f i libucrtd:output.obj
 0001:0008b5b0       ?get_parameter_type@?$positional_parameter_base@_WV?$string_output_adapter@_W@__crt_stdio_output@@@__crt_stdio_output@@CA?AW4parameter_type@12@_J@Z 1008c5b0 f i libucrtd:output.obj
 0001:0008b5c0       ?get_parameter_type@?$positional_parameter_base@_WV?$string_output_adapter@_W@__crt_stdio_output@@@__crt_stdio_output@@CA?AW4parameter_type@12@_K@Z 1008c5c0 f i libucrtd:output.obj
 0001:0008b5d0       ?get_parameter_type@?$positional_parameter_base@_WV?$string_output_adapter@_W@__crt_stdio_output@@@__crt_stdio_output@@CA?AW4parameter_type@12@_W@Z 1008c5d0 f i libucrtd:output.obj
 0001:0008b5e0       ?has_flag@?$output_processor@DV?$stream_output_adapter@D@__crt_stdio_output@@V?$format_validation_base@DV?$stream_output_adapter@D@__crt_stdio_output@@@2@@__crt_stdio_output@@ABE_NI@Z 1008c5e0 f i libucrtd:output.obj
 0001:0008b620       ?has_flag@?$output_processor@DV?$stream_output_adapter@D@__crt_stdio_output@@V?$positional_parameter_base@DV?$stream_output_adapter@D@__crt_stdio_output@@@2@@__crt_stdio_output@@ABE_NI@Z 1008c620 f i libucrtd:output.obj
 0001:0008b660       ?has_flag@?$output_processor@DV?$stream_output_adapter@D@__crt_stdio_output@@V?$standard_base@DV?$stream_output_adapter@D@__crt_stdio_output@@@2@@__crt_stdio_output@@ABE_NI@Z 1008c660 f i libucrtd:output.obj
 0001:0008b6a0       ?has_flag@?$output_processor@DV?$string_output_adapter@D@__crt_stdio_output@@V?$format_validation_base@DV?$string_output_adapter@D@__crt_stdio_output@@@2@@__crt_stdio_output@@ABE_NI@Z 1008c6a0 f i libucrtd:output.obj
 0001:0008b6e0       ?has_flag@?$output_processor@DV?$string_output_adapter@D@__crt_stdio_output@@V?$positional_parameter_base@DV?$string_output_adapter@D@__crt_stdio_output@@@2@@__crt_stdio_output@@ABE_NI@Z 1008c6e0 f i libucrtd:output.obj
 0001:0008b720       ?has_flag@?$output_processor@DV?$string_output_adapter@D@__crt_stdio_output@@V?$standard_base@DV?$string_output_adapter@D@__crt_stdio_output@@@2@@__crt_stdio_output@@ABE_NI@Z 1008c720 f i libucrtd:output.obj
 0001:0008b760       ?has_flag@?$output_processor@_WV?$stream_output_adapter@_W@__crt_stdio_output@@V?$format_validation_base@_WV?$stream_output_adapter@_W@__crt_stdio_output@@@2@@__crt_stdio_output@@ABE_NI@Z 1008c760 f i libucrtd:output.obj
 0001:0008b7a0       ?has_flag@?$output_processor@_WV?$stream_output_adapter@_W@__crt_stdio_output@@V?$positional_parameter_base@_WV?$stream_output_adapter@_W@__crt_stdio_output@@@2@@__crt_stdio_output@@ABE_NI@Z 1008c7a0 f i libucrtd:output.obj
 0001:0008b7e0       ?has_flag@?$output_processor@_WV?$stream_output_adapter@_W@__crt_stdio_output@@V?$standard_base@_WV?$stream_output_adapter@_W@__crt_stdio_output@@@2@@__crt_stdio_output@@ABE_NI@Z 1008c7e0 f i libucrtd:output.obj
 0001:0008b820       ?has_flag@?$output_processor@_WV?$string_output_adapter@_W@__crt_stdio_output@@V?$format_validation_base@_WV?$string_output_adapter@_W@__crt_stdio_output@@@2@@__crt_stdio_output@@ABE_NI@Z 1008c820 f i libucrtd:output.obj
 0001:0008b860       ?has_flag@?$output_processor@_WV?$string_output_adapter@_W@__crt_stdio_output@@V?$positional_parameter_base@_WV?$string_output_adapter@_W@__crt_stdio_output@@@2@@__crt_stdio_output@@ABE_NI@Z 1008c860 f i libucrtd:output.obj
 0001:0008b8a0       ?has_flag@?$output_processor@_WV?$string_output_adapter@_W@__crt_stdio_output@@V?$standard_base@_WV?$string_output_adapter@_W@__crt_stdio_output@@@2@@__crt_stdio_output@@ABE_NI@Z 1008c8a0 f i libucrtd:output.obj
 0001:0008b8e0       ?is_positional_parameter_reappearance_consistent@?$positional_parameter_base@DV?$stream_output_adapter@D@__crt_stdio_output@@@__crt_stdio_output@@AAE_NABUparameter_data@12@W4parameter_type@12@DW4length_modifier@2@@Z 1008c8e0 f i libucrtd:output.obj
 0001:0008bb90       ?is_positional_parameter_reappearance_consistent@?$positional_parameter_base@DV?$string_output_adapter@D@__crt_stdio_output@@@__crt_stdio_output@@AAE_NABUparameter_data@12@W4parameter_type@12@DW4length_modifier@2@@Z 1008cb90 f i libucrtd:output.obj
 0001:0008be40       ?is_positional_parameter_reappearance_consistent@?$positional_parameter_base@_WV?$stream_output_adapter@_W@__crt_stdio_output@@@__crt_stdio_output@@AAE_NABUparameter_data@12@W4parameter_type@12@_WW4length_modifier@2@@Z 1008ce40 f i libucrtd:output.obj
 0001:0008c0f0       ?is_positional_parameter_reappearance_consistent@?$positional_parameter_base@_WV?$string_output_adapter@_W@__crt_stdio_output@@@__crt_stdio_output@@AAE_NABUparameter_data@12@W4parameter_type@12@_WW4length_modifier@2@@Z 1008d0f0 f i libucrtd:output.obj
 0001:0008c3a0       ?is_string_backed@__crt_stdio_stream@@QBE_NXZ 1008d3a0 f i libucrtd:output.obj
 0001:0008c3e0       ?narrow_null_string@?$output_processor@DV?$stream_output_adapter@D@__crt_stdio_output@@V?$format_validation_base@DV?$stream_output_adapter@D@__crt_stdio_output@@@2@@__crt_stdio_output@@CAPADXZ 1008d3e0 f i libucrtd:output.obj
 0001:0008c3f0       ?narrow_null_string@?$output_processor@DV?$stream_output_adapter@D@__crt_stdio_output@@V?$positional_parameter_base@DV?$stream_output_adapter@D@__crt_stdio_output@@@2@@__crt_stdio_output@@CAPADXZ 1008d3f0 f i libucrtd:output.obj
 0001:0008c400       ?narrow_null_string@?$output_processor@DV?$stream_output_adapter@D@__crt_stdio_output@@V?$standard_base@DV?$stream_output_adapter@D@__crt_stdio_output@@@2@@__crt_stdio_output@@CAPADXZ 1008d400 f i libucrtd:output.obj
 0001:0008c410       ?narrow_null_string@?$output_processor@DV?$string_output_adapter@D@__crt_stdio_output@@V?$format_validation_base@DV?$string_output_adapter@D@__crt_stdio_output@@@2@@__crt_stdio_output@@CAPADXZ 1008d410 f i libucrtd:output.obj
 0001:0008c420       ?narrow_null_string@?$output_processor@DV?$string_output_adapter@D@__crt_stdio_output@@V?$positional_parameter_base@DV?$string_output_adapter@D@__crt_stdio_output@@@2@@__crt_stdio_output@@CAPADXZ 1008d420 f i libucrtd:output.obj
 0001:0008c430       ?narrow_null_string@?$output_processor@DV?$string_output_adapter@D@__crt_stdio_output@@V?$standard_base@DV?$string_output_adapter@D@__crt_stdio_output@@@2@@__crt_stdio_output@@CAPADXZ 1008d430 f i libucrtd:output.obj
 0001:0008c440       ?narrow_null_string@?$output_processor@_WV?$stream_output_adapter@_W@__crt_stdio_output@@V?$format_validation_base@_WV?$stream_output_adapter@_W@__crt_stdio_output@@@2@@__crt_stdio_output@@CAPADXZ 1008d440 f i libucrtd:output.obj
 0001:0008c450       ?narrow_null_string@?$output_processor@_WV?$stream_output_adapter@_W@__crt_stdio_output@@V?$positional_parameter_base@_WV?$stream_output_adapter@_W@__crt_stdio_output@@@2@@__crt_stdio_output@@CAPADXZ 1008d450 f i libucrtd:output.obj
 0001:0008c460       ?narrow_null_string@?$output_processor@_WV?$stream_output_adapter@_W@__crt_stdio_output@@V?$standard_base@_WV?$stream_output_adapter@_W@__crt_stdio_output@@@2@@__crt_stdio_output@@CAPADXZ 1008d460 f i libucrtd:output.obj
 0001:0008c470       ?narrow_null_string@?$output_processor@_WV?$string_output_adapter@_W@__crt_stdio_output@@V?$format_validation_base@_WV?$string_output_adapter@_W@__crt_stdio_output@@@2@@__crt_stdio_output@@CAPADXZ 1008d470 f i libucrtd:output.obj
 0001:0008c480       ?narrow_null_string@?$output_processor@_WV?$string_output_adapter@_W@__crt_stdio_output@@V?$positional_parameter_base@_WV?$string_output_adapter@_W@__crt_stdio_output@@@2@@__crt_stdio_output@@CAPADXZ 1008d480 f i libucrtd:output.obj
 0001:0008c490       ?narrow_null_string@?$output_processor@_WV?$string_output_adapter@_W@__crt_stdio_output@@V?$standard_base@_WV?$string_output_adapter@_W@__crt_stdio_output@@@2@@__crt_stdio_output@@CAPADXZ 1008d490 f i libucrtd:output.obj
 0001:0008c4a0       ?parse_int_from_format_string@?$output_processor@DV?$stream_output_adapter@D@__crt_stdio_output@@V?$format_validation_base@DV?$stream_output_adapter@D@__crt_stdio_output@@@2@@__crt_stdio_output@@AAE_NQAH@Z 1008d4a0 f i libucrtd:output.obj
 0001:0008c580       ?parse_int_from_format_string@?$output_processor@DV?$stream_output_adapter@D@__crt_stdio_output@@V?$positional_parameter_base@DV?$stream_output_adapter@D@__crt_stdio_output@@@2@@__crt_stdio_output@@AAE_NQAH@Z 1008d580 f i libucrtd:output.obj
 0001:0008c660       ?parse_int_from_format_string@?$output_processor@DV?$stream_output_adapter@D@__crt_stdio_output@@V?$standard_base@DV?$stream_output_adapter@D@__crt_stdio_output@@@2@@__crt_stdio_output@@AAE_NQAH@Z 1008d660 f i libucrtd:output.obj
 0001:0008c740       ?parse_int_from_format_string@?$output_processor@DV?$string_output_adapter@D@__crt_stdio_output@@V?$format_validation_base@DV?$string_output_adapter@D@__crt_stdio_output@@@2@@__crt_stdio_output@@AAE_NQAH@Z 1008d740 f i libucrtd:output.obj
 0001:0008c820       ?parse_int_from_format_string@?$output_processor@DV?$string_output_adapter@D@__crt_stdio_output@@V?$positional_parameter_base@DV?$string_output_adapter@D@__crt_stdio_output@@@2@@__crt_stdio_output@@AAE_NQAH@Z 1008d820 f i libucrtd:output.obj
 0001:0008c900       ?parse_int_from_format_string@?$output_processor@DV?$string_output_adapter@D@__crt_stdio_output@@V?$standard_base@DV?$string_output_adapter@D@__crt_stdio_output@@@2@@__crt_stdio_output@@AAE_NQAH@Z 1008d900 f i libucrtd:output.obj
 0001:0008c9e0       ?parse_int_from_format_string@?$output_processor@_WV?$stream_output_adapter@_W@__crt_stdio_output@@V?$format_validation_base@_WV?$stream_output_adapter@_W@__crt_stdio_output@@@2@@__crt_stdio_output@@AAE_NQAH@Z 1008d9e0 f i libucrtd:output.obj
 0001:0008cac0       ?parse_int_from_format_string@?$output_processor@_WV?$stream_output_adapter@_W@__crt_stdio_output@@V?$positional_parameter_base@_WV?$stream_output_adapter@_W@__crt_stdio_output@@@2@@__crt_stdio_output@@AAE_NQAH@Z 1008dac0 f i libucrtd:output.obj
 0001:0008cba0       ?parse_int_from_format_string@?$output_processor@_WV?$stream_output_adapter@_W@__crt_stdio_output@@V?$standard_base@_WV?$stream_output_adapter@_W@__crt_stdio_output@@@2@@__crt_stdio_output@@AAE_NQAH@Z 1008dba0 f i libucrtd:output.obj
 0001:0008cc80       ?parse_int_from_format_string@?$output_processor@_WV?$string_output_adapter@_W@__crt_stdio_output@@V?$format_validation_base@_WV?$string_output_adapter@_W@__crt_stdio_output@@@2@@__crt_stdio_output@@AAE_NQAH@Z 1008dc80 f i libucrtd:output.obj
 0001:0008cd60       ?parse_int_from_format_string@?$output_processor@_WV?$string_output_adapter@_W@__crt_stdio_output@@V?$positional_parameter_base@_WV?$string_output_adapter@_W@__crt_stdio_output@@@2@@__crt_stdio_output@@AAE_NQAH@Z 1008dd60 f i libucrtd:output.obj
 0001:0008ce40       ?parse_int_from_format_string@?$output_processor@_WV?$string_output_adapter@_W@__crt_stdio_output@@V?$standard_base@_WV?$string_output_adapter@_W@__crt_stdio_output@@@2@@__crt_stdio_output@@AAE_NQAH@Z 1008de40 f i libucrtd:output.obj
 0001:0008cf20       ?process@?$output_processor@DV?$stream_output_adapter@D@__crt_stdio_output@@V?$format_validation_base@DV?$stream_output_adapter@D@__crt_stdio_output@@@2@@__crt_stdio_output@@QAEHXZ 1008df20 f i libucrtd:output.obj
 0001:0008d270       ?process@?$output_processor@DV?$stream_output_adapter@D@__crt_stdio_output@@V?$positional_parameter_base@DV?$stream_output_adapter@D@__crt_stdio_output@@@2@@__crt_stdio_output@@QAEHXZ 1008e270 f i libucrtd:output.obj
 0001:0008d5c0       ?process@?$output_processor@DV?$stream_output_adapter@D@__crt_stdio_output@@V?$standard_base@DV?$stream_output_adapter@D@__crt_stdio_output@@@2@@__crt_stdio_output@@QAEHXZ 1008e5c0 f i libucrtd:output.obj
 0001:0008d910       ?process@?$output_processor@DV?$string_output_adapter@D@__crt_stdio_output@@V?$format_validation_base@DV?$string_output_adapter@D@__crt_stdio_output@@@2@@__crt_stdio_output@@QAEHXZ 1008e910 f i libucrtd:output.obj
 0001:0008dc60       ?process@?$output_processor@DV?$string_output_adapter@D@__crt_stdio_output@@V?$positional_parameter_base@DV?$string_output_adapter@D@__crt_stdio_output@@@2@@__crt_stdio_output@@QAEHXZ 1008ec60 f i libucrtd:output.obj
 0001:0008dfb0       ?process@?$output_processor@DV?$string_output_adapter@D@__crt_stdio_output@@V?$standard_base@DV?$string_output_adapter@D@__crt_stdio_output@@@2@@__crt_stdio_output@@QAEHXZ 1008efb0 f i libucrtd:output.obj
 0001:0008e300       ?process@?$output_processor@_WV?$stream_output_adapter@_W@__crt_stdio_output@@V?$format_validation_base@_WV?$stream_output_adapter@_W@__crt_stdio_output@@@2@@__crt_stdio_output@@QAEHXZ 1008f300 f i libucrtd:output.obj
 0001:0008e650       ?process@?$output_processor@_WV?$stream_output_adapter@_W@__crt_stdio_output@@V?$positional_parameter_base@_WV?$stream_output_adapter@_W@__crt_stdio_output@@@2@@__crt_stdio_output@@QAEHXZ 1008f650 f i libucrtd:output.obj
 0001:0008e9a0       ?process@?$output_processor@_WV?$stream_output_adapter@_W@__crt_stdio_output@@V?$standard_base@_WV?$stream_output_adapter@_W@__crt_stdio_output@@@2@@__crt_stdio_output@@QAEHXZ 1008f9a0 f i libucrtd:output.obj
 0001:0008ecf0       ?process@?$output_processor@_WV?$string_output_adapter@_W@__crt_stdio_output@@V?$format_validation_base@_WV?$string_output_adapter@_W@__crt_stdio_output@@@2@@__crt_stdio_output@@QAEHXZ 1008fcf0 f i libucrtd:output.obj
 0001:0008f040       ?process@?$output_processor@_WV?$string_output_adapter@_W@__crt_stdio_output@@V?$positional_parameter_base@_WV?$string_output_adapter@_W@__crt_stdio_output@@@2@@__crt_stdio_output@@QAEHXZ 10090040 f i libucrtd:output.obj
 0001:0008f390       ?process@?$output_processor@_WV?$string_output_adapter@_W@__crt_stdio_output@@V?$standard_base@_WV?$string_output_adapter@_W@__crt_stdio_output@@@2@@__crt_stdio_output@@QAEHXZ 10090390 f i libucrtd:output.obj
 0001:0008f6e0       ?public_stream@__crt_stdio_stream@@QBEPAU_iobuf@@XZ 100906e0 f i libucrtd:output.obj
 0001:0008f700       ?set_flag@?$output_processor@DV?$stream_output_adapter@D@__crt_stdio_output@@V?$format_validation_base@DV?$stream_output_adapter@D@__crt_stdio_output@@@2@@__crt_stdio_output@@AAEXI@Z 10090700 f i libucrtd:output.obj
 0001:0008f730       ?set_flag@?$output_processor@DV?$stream_output_adapter@D@__crt_stdio_output@@V?$positional_parameter_base@DV?$stream_output_adapter@D@__crt_stdio_output@@@2@@__crt_stdio_output@@AAEXI@Z 10090730 f i libucrtd:output.obj
 0001:0008f760       ?set_flag@?$output_processor@DV?$stream_output_adapter@D@__crt_stdio_output@@V?$standard_base@DV?$stream_output_adapter@D@__crt_stdio_output@@@2@@__crt_stdio_output@@AAEXI@Z 10090760 f i libucrtd:output.obj
 0001:0008f790       ?set_flag@?$output_processor@DV?$string_output_adapter@D@__crt_stdio_output@@V?$format_validation_base@DV?$string_output_adapter@D@__crt_stdio_output@@@2@@__crt_stdio_output@@AAEXI@Z 10090790 f i libucrtd:output.obj
 0001:0008f7c0       ?set_flag@?$output_processor@DV?$string_output_adapter@D@__crt_stdio_output@@V?$positional_parameter_base@DV?$string_output_adapter@D@__crt_stdio_output@@@2@@__crt_stdio_output@@AAEXI@Z 100907c0 f i libucrtd:output.obj
 0001:0008f7f0       ?set_flag@?$output_processor@DV?$string_output_adapter@D@__crt_stdio_output@@V?$standard_base@DV?$string_output_adapter@D@__crt_stdio_output@@@2@@__crt_stdio_output@@AAEXI@Z 100907f0 f i libucrtd:output.obj
 0001:0008f820       ?set_flag@?$output_processor@_WV?$stream_output_adapter@_W@__crt_stdio_output@@V?$format_validation_base@_WV?$stream_output_adapter@_W@__crt_stdio_output@@@2@@__crt_stdio_output@@AAEXI@Z 10090820 f i libucrtd:output.obj
 0001:0008f850       ?set_flag@?$output_processor@_WV?$stream_output_adapter@_W@__crt_stdio_output@@V?$positional_parameter_base@_WV?$stream_output_adapter@_W@__crt_stdio_output@@@2@@__crt_stdio_output@@AAEXI@Z 10090850 f i libucrtd:output.obj
 0001:0008f880       ?set_flag@?$output_processor@_WV?$stream_output_adapter@_W@__crt_stdio_output@@V?$standard_base@_WV?$stream_output_adapter@_W@__crt_stdio_output@@@2@@__crt_stdio_output@@AAEXI@Z 10090880 f i libucrtd:output.obj
 0001:0008f8b0       ?set_flag@?$output_processor@_WV?$string_output_adapter@_W@__crt_stdio_output@@V?$format_validation_base@_WV?$string_output_adapter@_W@__crt_stdio_output@@@2@@__crt_stdio_output@@AAEXI@Z 100908b0 f i libucrtd:output.obj
 0001:0008f8e0       ?set_flag@?$output_processor@_WV?$string_output_adapter@_W@__crt_stdio_output@@V?$positional_parameter_base@_WV?$string_output_adapter@_W@__crt_stdio_output@@@2@@__crt_stdio_output@@AAEXI@Z 100908e0 f i libucrtd:output.obj
 0001:0008f910       ?set_flag@?$output_processor@_WV?$string_output_adapter@_W@__crt_stdio_output@@V?$standard_base@_WV?$string_output_adapter@_W@__crt_stdio_output@@@2@@__crt_stdio_output@@AAEXI@Z 10090910 f i libucrtd:output.obj
 0001:0008f940       ?should_format@?$positional_parameter_base@DV?$stream_output_adapter@D@__crt_stdio_output@@@__crt_stdio_output@@IAE_NXZ 10090940 f i libucrtd:output.obj
 0001:0008f990       ?should_format@?$positional_parameter_base@DV?$string_output_adapter@D@__crt_stdio_output@@@__crt_stdio_output@@IAE_NXZ 10090990 f i libucrtd:output.obj
 0001:0008f9e0       ?should_format@?$positional_parameter_base@_WV?$stream_output_adapter@_W@__crt_stdio_output@@@__crt_stdio_output@@IAE_NXZ 100909e0 f i libucrtd:output.obj
 0001:0008fa30       ?should_format@?$positional_parameter_base@_WV?$string_output_adapter@_W@__crt_stdio_output@@@__crt_stdio_output@@IAE_NXZ 10090a30 f i libucrtd:output.obj
 0001:0008fa80       ?should_format@?$standard_base@DV?$stream_output_adapter@D@__crt_stdio_output@@@__crt_stdio_output@@IAE_NXZ 10090a80 f i libucrtd:output.obj
 0001:0008faa0       ?should_format@?$standard_base@DV?$string_output_adapter@D@__crt_stdio_output@@@__crt_stdio_output@@IAE_NXZ 10090aa0 f i libucrtd:output.obj
 0001:0008fac0       ?should_format@?$standard_base@_WV?$stream_output_adapter@_W@__crt_stdio_output@@@__crt_stdio_output@@IAE_NXZ 10090ac0 f i libucrtd:output.obj
 0001:0008fae0       ?should_format@?$standard_base@_WV?$string_output_adapter@_W@__crt_stdio_output@@@__crt_stdio_output@@IAE_NXZ 10090ae0 f i libucrtd:output.obj
 0001:0008fb00       ?should_skip_normal_state_processing@?$positional_parameter_base@DV?$stream_output_adapter@D@__crt_stdio_output@@@__crt_stdio_output@@IAE_NXZ 10090b00 f i libucrtd:output.obj
 0001:0008fb60       ?should_skip_normal_state_processing@?$positional_parameter_base@DV?$string_output_adapter@D@__crt_stdio_output@@@__crt_stdio_output@@IAE_NXZ 10090b60 f i libucrtd:output.obj
 0001:0008fbc0       ?should_skip_normal_state_processing@?$positional_parameter_base@_WV?$stream_output_adapter@_W@__crt_stdio_output@@@__crt_stdio_output@@IAE_NXZ 10090bc0 f i libucrtd:output.obj
 0001:0008fc20       ?should_skip_normal_state_processing@?$positional_parameter_base@_WV?$string_output_adapter@_W@__crt_stdio_output@@@__crt_stdio_output@@IAE_NXZ 10090c20 f i libucrtd:output.obj
 0001:0008fc80       ?should_skip_normal_state_processing@?$standard_base@DV?$stream_output_adapter@D@__crt_stdio_output@@@__crt_stdio_output@@IAE_NXZ 10090c80 f i libucrtd:output.obj
 0001:0008fca0       ?should_skip_normal_state_processing@?$standard_base@DV?$string_output_adapter@D@__crt_stdio_output@@@__crt_stdio_output@@IAE_NXZ 10090ca0 f i libucrtd:output.obj
 0001:0008fcc0       ?should_skip_normal_state_processing@?$standard_base@_WV?$stream_output_adapter@_W@__crt_stdio_output@@@__crt_stdio_output@@IAE_NXZ 10090cc0 f i libucrtd:output.obj
 0001:0008fce0       ?should_skip_normal_state_processing@?$standard_base@_WV?$string_output_adapter@_W@__crt_stdio_output@@@__crt_stdio_output@@IAE_NXZ 10090ce0 f i libucrtd:output.obj
 0001:0008fd00       ?should_skip_type_state_output@?$positional_parameter_base@DV?$stream_output_adapter@D@__crt_stdio_output@@@__crt_stdio_output@@IBE_NXZ 10090d00 f i libucrtd:output.obj
 0001:0008fd50       ?should_skip_type_state_output@?$positional_parameter_base@DV?$string_output_adapter@D@__crt_stdio_output@@@__crt_stdio_output@@IBE_NXZ 10090d50 f i libucrtd:output.obj
 0001:0008fda0       ?should_skip_type_state_output@?$positional_parameter_base@_WV?$stream_output_adapter@_W@__crt_stdio_output@@@__crt_stdio_output@@IBE_NXZ 10090da0 f i libucrtd:output.obj
 0001:0008fdf0       ?should_skip_type_state_output@?$positional_parameter_base@_WV?$string_output_adapter@_W@__crt_stdio_output@@@__crt_stdio_output@@IBE_NXZ 10090df0 f i libucrtd:output.obj
 0001:0008fe40       ?should_skip_type_state_output@?$standard_base@DV?$stream_output_adapter@D@__crt_stdio_output@@@__crt_stdio_output@@IBE_NXZ 10090e40 f i libucrtd:output.obj
 0001:0008fe60       ?should_skip_type_state_output@?$standard_base@DV?$string_output_adapter@D@__crt_stdio_output@@@__crt_stdio_output@@IBE_NXZ 10090e60 f i libucrtd:output.obj
 0001:0008fe80       ?should_skip_type_state_output@?$standard_base@_WV?$stream_output_adapter@_W@__crt_stdio_output@@@__crt_stdio_output@@IBE_NXZ 10090e80 f i libucrtd:output.obj
 0001:0008fea0       ?should_skip_type_state_output@?$standard_base@_WV?$string_output_adapter@_W@__crt_stdio_output@@@__crt_stdio_output@@IBE_NXZ 10090ea0 f i libucrtd:output.obj
 0001:0008fec0       ?state_case_dot@?$output_processor@DV?$stream_output_adapter@D@__crt_stdio_output@@V?$format_validation_base@DV?$stream_output_adapter@D@__crt_stdio_output@@@2@@__crt_stdio_output@@AAE_NXZ 10090ec0 f i libucrtd:output.obj
 0001:0008fee0       ?state_case_dot@?$output_processor@DV?$stream_output_adapter@D@__crt_stdio_output@@V?$positional_parameter_base@DV?$stream_output_adapter@D@__crt_stdio_output@@@2@@__crt_stdio_output@@AAE_NXZ 10090ee0 f i libucrtd:output.obj
 0001:0008ff00       ?state_case_dot@?$output_processor@DV?$stream_output_adapter@D@__crt_stdio_output@@V?$standard_base@DV?$stream_output_adapter@D@__crt_stdio_output@@@2@@__crt_stdio_output@@AAE_NXZ 10090f00 f i libucrtd:output.obj
 0001:0008ff20       ?state_case_dot@?$output_processor@DV?$string_output_adapter@D@__crt_stdio_output@@V?$format_validation_base@DV?$string_output_adapter@D@__crt_stdio_output@@@2@@__crt_stdio_output@@AAE_NXZ 10090f20 f i libucrtd:output.obj
 0001:0008ff40       ?state_case_dot@?$output_processor@DV?$string_output_adapter@D@__crt_stdio_output@@V?$positional_parameter_base@DV?$string_output_adapter@D@__crt_stdio_output@@@2@@__crt_stdio_output@@AAE_NXZ 10090f40 f i libucrtd:output.obj
 0001:0008ff60       ?state_case_dot@?$output_processor@DV?$string_output_adapter@D@__crt_stdio_output@@V?$standard_base@DV?$string_output_adapter@D@__crt_stdio_output@@@2@@__crt_stdio_output@@AAE_NXZ 10090f60 f i libucrtd:output.obj
 0001:0008ff80       ?state_case_dot@?$output_processor@_WV?$stream_output_adapter@_W@__crt_stdio_output@@V?$format_validation_base@_WV?$stream_output_adapter@_W@__crt_stdio_output@@@2@@__crt_stdio_output@@AAE_NXZ 10090f80 f i libucrtd:output.obj
 0001:0008ffa0       ?state_case_dot@?$output_processor@_WV?$stream_output_adapter@_W@__crt_stdio_output@@V?$positional_parameter_base@_WV?$stream_output_adapter@_W@__crt_stdio_output@@@2@@__crt_stdio_output@@AAE_NXZ 10090fa0 f i libucrtd:output.obj
 0001:0008ffc0       ?state_case_dot@?$output_processor@_WV?$stream_output_adapter@_W@__crt_stdio_output@@V?$standard_base@_WV?$stream_output_adapter@_W@__crt_stdio_output@@@2@@__crt_stdio_output@@AAE_NXZ 10090fc0 f i libucrtd:output.obj
 0001:0008ffe0       ?state_case_dot@?$output_processor@_WV?$string_output_adapter@_W@__crt_stdio_output@@V?$format_validation_base@_WV?$string_output_adapter@_W@__crt_stdio_output@@@2@@__crt_stdio_output@@AAE_NXZ 10090fe0 f i libucrtd:output.obj
 0001:00090000       ?state_case_dot@?$output_processor@_WV?$string_output_adapter@_W@__crt_stdio_output@@V?$positional_parameter_base@_WV?$string_output_adapter@_W@__crt_stdio_output@@@2@@__crt_stdio_output@@AAE_NXZ 10091000 f i libucrtd:output.obj
 0001:00090020       ?state_case_dot@?$output_processor@_WV?$string_output_adapter@_W@__crt_stdio_output@@V?$standard_base@_WV?$string_output_adapter@_W@__crt_stdio_output@@@2@@__crt_stdio_output@@AAE_NXZ 10091020 f i libucrtd:output.obj
 0001:00090040       ?state_case_flag@?$output_processor@DV?$stream_output_adapter@D@__crt_stdio_output@@V?$format_validation_base@DV?$stream_output_adapter@D@__crt_stdio_output@@@2@@__crt_stdio_output@@AAE_NXZ 10091040 f i libucrtd:output.obj
 0001:00090110       ?state_case_flag@?$output_processor@DV?$stream_output_adapter@D@__crt_stdio_output@@V?$positional_parameter_base@DV?$stream_output_adapter@D@__crt_stdio_output@@@2@@__crt_stdio_output@@AAE_NXZ 10091110 f i libucrtd:output.obj
 0001:000901e0       ?state_case_flag@?$output_processor@DV?$stream_output_adapter@D@__crt_stdio_output@@V?$standard_base@DV?$stream_output_adapter@D@__crt_stdio_output@@@2@@__crt_stdio_output@@AAE_NXZ 100911e0 f i libucrtd:output.obj
 0001:000902b0       ?state_case_flag@?$output_processor@DV?$string_output_adapter@D@__crt_stdio_output@@V?$format_validation_base@DV?$string_output_adapter@D@__crt_stdio_output@@@2@@__crt_stdio_output@@AAE_NXZ 100912b0 f i libucrtd:output.obj
 0001:00090380       ?state_case_flag@?$output_processor@DV?$string_output_adapter@D@__crt_stdio_output@@V?$positional_parameter_base@DV?$string_output_adapter@D@__crt_stdio_output@@@2@@__crt_stdio_output@@AAE_NXZ 10091380 f i libucrtd:output.obj
 0001:00090450       ?state_case_flag@?$output_processor@DV?$string_output_adapter@D@__crt_stdio_output@@V?$standard_base@DV?$string_output_adapter@D@__crt_stdio_output@@@2@@__crt_stdio_output@@AAE_NXZ 10091450 f i libucrtd:output.obj
 0001:00090520       ?state_case_flag@?$output_processor@_WV?$stream_output_adapter@_W@__crt_stdio_output@@V?$format_validation_base@_WV?$stream_output_adapter@_W@__crt_stdio_output@@@2@@__crt_stdio_output@@AAE_NXZ 10091520 f i libucrtd:output.obj
 0001:000905f0       ?state_case_flag@?$output_processor@_WV?$stream_output_adapter@_W@__crt_stdio_output@@V?$positional_parameter_base@_WV?$stream_output_adapter@_W@__crt_stdio_output@@@2@@__crt_stdio_output@@AAE_NXZ 100915f0 f i libucrtd:output.obj
 0001:000906c0       ?state_case_flag@?$output_processor@_WV?$stream_output_adapter@_W@__crt_stdio_output@@V?$standard_base@_WV?$stream_output_adapter@_W@__crt_stdio_output@@@2@@__crt_stdio_output@@AAE_NXZ 100916c0 f i libucrtd:output.obj
 0001:00090790       ?state_case_flag@?$output_processor@_WV?$string_output_adapter@_W@__crt_stdio_output@@V?$format_validation_base@_WV?$string_output_adapter@_W@__crt_stdio_output@@@2@@__crt_stdio_output@@AAE_NXZ 10091790 f i libucrtd:output.obj
 0001:00090860       ?state_case_flag@?$output_processor@_WV?$string_output_adapter@_W@__crt_stdio_output@@V?$positional_parameter_base@_WV?$string_output_adapter@_W@__crt_stdio_output@@@2@@__crt_stdio_output@@AAE_NXZ 10091860 f i libucrtd:output.obj
 0001:00090930       ?state_case_flag@?$output_processor@_WV?$string_output_adapter@_W@__crt_stdio_output@@V?$standard_base@_WV?$string_output_adapter@_W@__crt_stdio_output@@@2@@__crt_stdio_output@@AAE_NXZ 10091930 f i libucrtd:output.obj
 0001:00090a00       ?state_case_normal@?$output_processor@DV?$stream_output_adapter@D@__crt_stdio_output@@V?$format_validation_base@DV?$stream_output_adapter@D@__crt_stdio_output@@@2@@__crt_stdio_output@@AAE_NXZ 10091a00 f i libucrtd:output.obj
 0001:00090ae0       ?state_case_normal@?$output_processor@DV?$stream_output_adapter@D@__crt_stdio_output@@V?$positional_parameter_base@DV?$stream_output_adapter@D@__crt_stdio_output@@@2@@__crt_stdio_output@@AAE_NXZ 10091ae0 f i libucrtd:output.obj
 0001:00090bc0       ?state_case_normal@?$output_processor@DV?$stream_output_adapter@D@__crt_stdio_output@@V?$standard_base@DV?$stream_output_adapter@D@__crt_stdio_output@@@2@@__crt_stdio_output@@AAE_NXZ 10091bc0 f i libucrtd:output.obj
 0001:00090ca0       ?state_case_normal@?$output_processor@DV?$string_output_adapter@D@__crt_stdio_output@@V?$format_validation_base@DV?$string_output_adapter@D@__crt_stdio_output@@@2@@__crt_stdio_output@@AAE_NXZ 10091ca0 f i libucrtd:output.obj
 0001:00090d80       ?state_case_normal@?$output_processor@DV?$string_output_adapter@D@__crt_stdio_output@@V?$positional_parameter_base@DV?$string_output_adapter@D@__crt_stdio_output@@@2@@__crt_stdio_output@@AAE_NXZ 10091d80 f i libucrtd:output.obj
 0001:00090e60       ?state_case_normal@?$output_processor@DV?$string_output_adapter@D@__crt_stdio_output@@V?$standard_base@DV?$string_output_adapter@D@__crt_stdio_output@@@2@@__crt_stdio_output@@AAE_NXZ 10091e60 f i libucrtd:output.obj
 0001:00090f40       ?state_case_normal@?$output_processor@_WV?$stream_output_adapter@_W@__crt_stdio_output@@V?$format_validation_base@_WV?$stream_output_adapter@_W@__crt_stdio_output@@@2@@__crt_stdio_output@@AAE_NXZ 10091f40 f i libucrtd:output.obj
 0001:00091020       ?state_case_normal@?$output_processor@_WV?$stream_output_adapter@_W@__crt_stdio_output@@V?$positional_parameter_base@_WV?$stream_output_adapter@_W@__crt_stdio_output@@@2@@__crt_stdio_output@@AAE_NXZ 10092020 f i libucrtd:output.obj
 0001:00091100       ?state_case_normal@?$output_processor@_WV?$stream_output_adapter@_W@__crt_stdio_output@@V?$standard_base@_WV?$stream_output_adapter@_W@__crt_stdio_output@@@2@@__crt_stdio_output@@AAE_NXZ 10092100 f i libucrtd:output.obj
 0001:000911e0       ?state_case_normal@?$output_processor@_WV?$string_output_adapter@_W@__crt_stdio_output@@V?$format_validation_base@_WV?$string_output_adapter@_W@__crt_stdio_output@@@2@@__crt_stdio_output@@AAE_NXZ 100921e0 f i libucrtd:output.obj
 0001:000912c0       ?state_case_normal@?$output_processor@_WV?$string_output_adapter@_W@__crt_stdio_output@@V?$positional_parameter_base@_WV?$string_output_adapter@_W@__crt_stdio_output@@@2@@__crt_stdio_output@@AAE_NXZ 100922c0 f i libucrtd:output.obj
 0001:000913a0       ?state_case_normal@?$output_processor@_WV?$string_output_adapter@_W@__crt_stdio_output@@V?$standard_base@_WV?$string_output_adapter@_W@__crt_stdio_output@@@2@@__crt_stdio_output@@AAE_NXZ 100923a0 f i libucrtd:output.obj
 0001:00091480       ?state_case_normal_common@?$output_processor@DV?$stream_output_adapter@D@__crt_stdio_output@@V?$format_validation_base@DV?$stream_output_adapter@D@__crt_stdio_output@@@2@@__crt_stdio_output@@AAE_NXZ 10092480 f i libucrtd:output.obj
 0001:000914e0       ?state_case_normal_common@?$output_processor@DV?$stream_output_adapter@D@__crt_stdio_output@@V?$positional_parameter_base@DV?$stream_output_adapter@D@__crt_stdio_output@@@2@@__crt_stdio_output@@AAE_NXZ 100924e0 f i libucrtd:output.obj
 0001:00091540       ?state_case_normal_common@?$output_processor@DV?$stream_output_adapter@D@__crt_stdio_output@@V?$standard_base@DV?$stream_output_adapter@D@__crt_stdio_output@@@2@@__crt_stdio_output@@AAE_NXZ 10092540 f i libucrtd:output.obj
 0001:000915a0       ?state_case_normal_common@?$output_processor@DV?$string_output_adapter@D@__crt_stdio_output@@V?$format_validation_base@DV?$string_output_adapter@D@__crt_stdio_output@@@2@@__crt_stdio_output@@AAE_NXZ 100925a0 f i libucrtd:output.obj
 0001:00091600       ?state_case_normal_common@?$output_processor@DV?$string_output_adapter@D@__crt_stdio_output@@V?$positional_parameter_base@DV?$string_output_adapter@D@__crt_stdio_output@@@2@@__crt_stdio_output@@AAE_NXZ 10092600 f i libucrtd:output.obj
 0001:00091660       ?state_case_normal_common@?$output_processor@DV?$string_output_adapter@D@__crt_stdio_output@@V?$standard_base@DV?$string_output_adapter@D@__crt_stdio_output@@@2@@__crt_stdio_output@@AAE_NXZ 10092660 f i libucrtd:output.obj
 0001:000916c0       ?state_case_normal_common@?$output_processor@_WV?$stream_output_adapter@_W@__crt_stdio_output@@V?$format_validation_base@_WV?$stream_output_adapter@_W@__crt_stdio_output@@@2@@__crt_stdio_output@@AAE_NXZ 100926c0 f i libucrtd:output.obj
 0001:00091720       ?state_case_normal_common@?$output_processor@_WV?$stream_output_adapter@_W@__crt_stdio_output@@V?$positional_parameter_base@_WV?$stream_output_adapter@_W@__crt_stdio_output@@@2@@__crt_stdio_output@@AAE_NXZ 10092720 f i libucrtd:output.obj
 0001:00091780       ?state_case_normal_common@?$output_processor@_WV?$stream_output_adapter@_W@__crt_stdio_output@@V?$standard_base@_WV?$stream_output_adapter@_W@__crt_stdio_output@@@2@@__crt_stdio_output@@AAE_NXZ 10092780 f i libucrtd:output.obj
 0001:000917e0       ?state_case_normal_common@?$output_processor@_WV?$string_output_adapter@_W@__crt_stdio_output@@V?$format_validation_base@_WV?$string_output_adapter@_W@__crt_stdio_output@@@2@@__crt_stdio_output@@AAE_NXZ 100927e0 f i libucrtd:output.obj
 0001:00091840       ?state_case_normal_common@?$output_processor@_WV?$string_output_adapter@_W@__crt_stdio_output@@V?$positional_parameter_base@_WV?$string_output_adapter@_W@__crt_stdio_output@@@2@@__crt_stdio_output@@AAE_NXZ 10092840 f i libucrtd:output.obj
 0001:000918a0       ?state_case_normal_common@?$output_processor@_WV?$string_output_adapter@_W@__crt_stdio_output@@V?$standard_base@_WV?$string_output_adapter@_W@__crt_stdio_output@@@2@@__crt_stdio_output@@AAE_NXZ 100928a0 f i libucrtd:output.obj
 0001:00091900       ?state_case_normal_tchar@?$output_processor@DV?$stream_output_adapter@D@__crt_stdio_output@@V?$format_validation_base@DV?$stream_output_adapter@D@__crt_stdio_output@@@2@@__crt_stdio_output@@AAE_ND@Z 10092900 f i libucrtd:output.obj
 0001:00091a30       ?state_case_normal_tchar@?$output_processor@DV?$stream_output_adapter@D@__crt_stdio_output@@V?$positional_parameter_base@DV?$stream_output_adapter@D@__crt_stdio_output@@@2@@__crt_stdio_output@@AAE_ND@Z 10092a30 f i libucrtd:output.obj
 0001:00091b60       ?state_case_normal_tchar@?$output_processor@DV?$stream_output_adapter@D@__crt_stdio_output@@V?$standard_base@DV?$stream_output_adapter@D@__crt_stdio_output@@@2@@__crt_stdio_output@@AAE_ND@Z 10092b60 f i libucrtd:output.obj
 0001:00091c90       ?state_case_normal_tchar@?$output_processor@DV?$string_output_adapter@D@__crt_stdio_output@@V?$format_validation_base@DV?$string_output_adapter@D@__crt_stdio_output@@@2@@__crt_stdio_output@@AAE_ND@Z 10092c90 f i libucrtd:output.obj
 0001:00091dc0       ?state_case_normal_tchar@?$output_processor@DV?$string_output_adapter@D@__crt_stdio_output@@V?$positional_parameter_base@DV?$string_output_adapter@D@__crt_stdio_output@@@2@@__crt_stdio_output@@AAE_ND@Z 10092dc0 f i libucrtd:output.obj
 0001:00091ef0       ?state_case_normal_tchar@?$output_processor@DV?$string_output_adapter@D@__crt_stdio_output@@V?$standard_base@DV?$string_output_adapter@D@__crt_stdio_output@@@2@@__crt_stdio_output@@AAE_ND@Z 10092ef0 f i libucrtd:output.obj
 0001:00092020       ?state_case_normal_tchar@?$output_processor@_WV?$stream_output_adapter@_W@__crt_stdio_output@@V?$format_validation_base@_WV?$stream_output_adapter@_W@__crt_stdio_output@@@2@@__crt_stdio_output@@AAE_N_W@Z 10093020 f i libucrtd:output.obj
 0001:00092040       ?state_case_normal_tchar@?$output_processor@_WV?$stream_output_adapter@_W@__crt_stdio_output@@V?$positional_parameter_base@_WV?$stream_output_adapter@_W@__crt_stdio_output@@@2@@__crt_stdio_output@@AAE_N_W@Z 10093040 f i libucrtd:output.obj
 0001:00092060       ?state_case_normal_tchar@?$output_processor@_WV?$stream_output_adapter@_W@__crt_stdio_output@@V?$standard_base@_WV?$stream_output_adapter@_W@__crt_stdio_output@@@2@@__crt_stdio_output@@AAE_N_W@Z 10093060 f i libucrtd:output.obj
 0001:00092080       ?state_case_normal_tchar@?$output_processor@_WV?$string_output_adapter@_W@__crt_stdio_output@@V?$format_validation_base@_WV?$string_output_adapter@_W@__crt_stdio_output@@@2@@__crt_stdio_output@@AAE_N_W@Z 10093080 f i libucrtd:output.obj
 0001:000920a0       ?state_case_normal_tchar@?$output_processor@_WV?$string_output_adapter@_W@__crt_stdio_output@@V?$positional_parameter_base@_WV?$string_output_adapter@_W@__crt_stdio_output@@@2@@__crt_stdio_output@@AAE_N_W@Z 100930a0 f i libucrtd:output.obj
 0001:000920c0       ?state_case_normal_tchar@?$output_processor@_WV?$string_output_adapter@_W@__crt_stdio_output@@V?$standard_base@_WV?$string_output_adapter@_W@__crt_stdio_output@@@2@@__crt_stdio_output@@AAE_N_W@Z 100930c0 f i libucrtd:output.obj
 0001:000920e0       ?state_case_percent@?$output_processor@DV?$stream_output_adapter@D@__crt_stdio_output@@V?$format_validation_base@DV?$stream_output_adapter@D@__crt_stdio_output@@@2@@__crt_stdio_output@@AAE_NXZ 100930e0 f i libucrtd:output.obj
 0001:00092140       ?state_case_percent@?$output_processor@DV?$stream_output_adapter@D@__crt_stdio_output@@V?$positional_parameter_base@DV?$stream_output_adapter@D@__crt_stdio_output@@@2@@__crt_stdio_output@@AAE_NXZ 10093140 f i libucrtd:output.obj
 0001:000921a0       ?state_case_percent@?$output_processor@DV?$stream_output_adapter@D@__crt_stdio_output@@V?$standard_base@DV?$stream_output_adapter@D@__crt_stdio_output@@@2@@__crt_stdio_output@@AAE_NXZ 100931a0 f i libucrtd:output.obj
 0001:00092200       ?state_case_percent@?$output_processor@DV?$string_output_adapter@D@__crt_stdio_output@@V?$format_validation_base@DV?$string_output_adapter@D@__crt_stdio_output@@@2@@__crt_stdio_output@@AAE_NXZ 10093200 f i libucrtd:output.obj
 0001:00092260       ?state_case_percent@?$output_processor@DV?$string_output_adapter@D@__crt_stdio_output@@V?$positional_parameter_base@DV?$string_output_adapter@D@__crt_stdio_output@@@2@@__crt_stdio_output@@AAE_NXZ 10093260 f i libucrtd:output.obj
 0001:000922c0       ?state_case_percent@?$output_processor@DV?$string_output_adapter@D@__crt_stdio_output@@V?$standard_base@DV?$string_output_adapter@D@__crt_stdio_output@@@2@@__crt_stdio_output@@AAE_NXZ 100932c0 f i libucrtd:output.obj
 0001:00092320       ?state_case_percent@?$output_processor@_WV?$stream_output_adapter@_W@__crt_stdio_output@@V?$format_validation_base@_WV?$stream_output_adapter@_W@__crt_stdio_output@@@2@@__crt_stdio_output@@AAE_NXZ 10093320 f i libucrtd:output.obj
 0001:00092380       ?state_case_percent@?$output_processor@_WV?$stream_output_adapter@_W@__crt_stdio_output@@V?$positional_parameter_base@_WV?$stream_output_adapter@_W@__crt_stdio_output@@@2@@__crt_stdio_output@@AAE_NXZ 10093380 f i libucrtd:output.obj
 0001:000923e0       ?state_case_percent@?$output_processor@_WV?$stream_output_adapter@_W@__crt_stdio_output@@V?$standard_base@_WV?$stream_output_adapter@_W@__crt_stdio_output@@@2@@__crt_stdio_output@@AAE_NXZ 100933e0 f i libucrtd:output.obj
 0001:00092440       ?state_case_percent@?$output_processor@_WV?$string_output_adapter@_W@__crt_stdio_output@@V?$format_validation_base@_WV?$string_output_adapter@_W@__crt_stdio_output@@@2@@__crt_stdio_output@@AAE_NXZ 10093440 f i libucrtd:output.obj
 0001:000924a0       ?state_case_percent@?$output_processor@_WV?$string_output_adapter@_W@__crt_stdio_output@@V?$positional_parameter_base@_WV?$string_output_adapter@_W@__crt_stdio_output@@@2@@__crt_stdio_output@@AAE_NXZ 100934a0 f i libucrtd:output.obj
 0001:00092500       ?state_case_percent@?$output_processor@_WV?$string_output_adapter@_W@__crt_stdio_output@@V?$standard_base@_WV?$string_output_adapter@_W@__crt_stdio_output@@@2@@__crt_stdio_output@@AAE_NXZ 10093500 f i libucrtd:output.obj
 0001:00092560       ?state_case_precision@?$output_processor@DV?$stream_output_adapter@D@__crt_stdio_output@@V?$format_validation_base@DV?$stream_output_adapter@D@__crt_stdio_output@@@2@@__crt_stdio_output@@AAE_NXZ 10093560 f i libucrtd:output.obj
 0001:000925e0       ?state_case_precision@?$output_processor@DV?$stream_output_adapter@D@__crt_stdio_output@@V?$positional_parameter_base@DV?$stream_output_adapter@D@__crt_stdio_output@@@2@@__crt_stdio_output@@AAE_NXZ 100935e0 f i libucrtd:output.obj
 0001:00092660       ?state_case_precision@?$output_processor@DV?$stream_output_adapter@D@__crt_stdio_output@@V?$standard_base@DV?$stream_output_adapter@D@__crt_stdio_output@@@2@@__crt_stdio_output@@AAE_NXZ 10093660 f i libucrtd:output.obj
 0001:000926e0       ?state_case_precision@?$output_processor@DV?$string_output_adapter@D@__crt_stdio_output@@V?$format_validation_base@DV?$string_output_adapter@D@__crt_stdio_output@@@2@@__crt_stdio_output@@AAE_NXZ 100936e0 f i libucrtd:output.obj
 0001:00092760       ?state_case_precision@?$output_processor@DV?$string_output_adapter@D@__crt_stdio_output@@V?$positional_parameter_base@DV?$string_output_adapter@D@__crt_stdio_output@@@2@@__crt_stdio_output@@AAE_NXZ 10093760 f i libucrtd:output.obj
 0001:000927e0       ?state_case_precision@?$output_processor@DV?$string_output_adapter@D@__crt_stdio_output@@V?$standard_base@DV?$string_output_adapter@D@__crt_stdio_output@@@2@@__crt_stdio_output@@AAE_NXZ 100937e0 f i libucrtd:output.obj
 0001:00092860       ?state_case_precision@?$output_processor@_WV?$stream_output_adapter@_W@__crt_stdio_output@@V?$format_validation_base@_WV?$stream_output_adapter@_W@__crt_stdio_output@@@2@@__crt_stdio_output@@AAE_NXZ 10093860 f i libucrtd:output.obj
 0001:000928e0       ?state_case_precision@?$output_processor@_WV?$stream_output_adapter@_W@__crt_stdio_output@@V?$positional_parameter_base@_WV?$stream_output_adapter@_W@__crt_stdio_output@@@2@@__crt_stdio_output@@AAE_NXZ 100938e0 f i libucrtd:output.obj
 0001:00092960       ?state_case_precision@?$output_processor@_WV?$stream_output_adapter@_W@__crt_stdio_output@@V?$standard_base@_WV?$stream_output_adapter@_W@__crt_stdio_output@@@2@@__crt_stdio_output@@AAE_NXZ 10093960 f i libucrtd:output.obj
 0001:000929e0       ?state_case_precision@?$output_processor@_WV?$string_output_adapter@_W@__crt_stdio_output@@V?$format_validation_base@_WV?$string_output_adapter@_W@__crt_stdio_output@@@2@@__crt_stdio_output@@AAE_NXZ 100939e0 f i libucrtd:output.obj
 0001:00092a60       ?state_case_precision@?$output_processor@_WV?$string_output_adapter@_W@__crt_stdio_output@@V?$positional_parameter_base@_WV?$string_output_adapter@_W@__crt_stdio_output@@@2@@__crt_stdio_output@@AAE_NXZ 10093a60 f i libucrtd:output.obj
 0001:00092ae0       ?state_case_precision@?$output_processor@_WV?$string_output_adapter@_W@__crt_stdio_output@@V?$standard_base@_WV?$string_output_adapter@_W@__crt_stdio_output@@@2@@__crt_stdio_output@@AAE_NXZ 10093ae0 f i libucrtd:output.obj
 0001:00092b60       ?state_case_size@?$output_processor@DV?$stream_output_adapter@D@__crt_stdio_output@@V?$format_validation_base@DV?$stream_output_adapter@D@__crt_stdio_output@@@2@@__crt_stdio_output@@AAE_NXZ 10093b60 f i libucrtd:output.obj
 0001:00093020       ?state_case_size@?$output_processor@DV?$stream_output_adapter@D@__crt_stdio_output@@V?$positional_parameter_base@DV?$stream_output_adapter@D@__crt_stdio_output@@@2@@__crt_stdio_output@@AAE_NXZ 10094020 f i libucrtd:output.obj
 0001:000934e0       ?state_case_size@?$output_processor@DV?$stream_output_adapter@D@__crt_stdio_output@@V?$standard_base@DV?$stream_output_adapter@D@__crt_stdio_output@@@2@@__crt_stdio_output@@AAE_NXZ 100944e0 f i libucrtd:output.obj
 0001:000939a0       ?state_case_size@?$output_processor@DV?$string_output_adapter@D@__crt_stdio_output@@V?$format_validation_base@DV?$string_output_adapter@D@__crt_stdio_output@@@2@@__crt_stdio_output@@AAE_NXZ 100949a0 f i libucrtd:output.obj
 0001:00093e60       ?state_case_size@?$output_processor@DV?$string_output_adapter@D@__crt_stdio_output@@V?$positional_parameter_base@DV?$string_output_adapter@D@__crt_stdio_output@@@2@@__crt_stdio_output@@AAE_NXZ 10094e60 f i libucrtd:output.obj
 0001:00094320       ?state_case_size@?$output_processor@DV?$string_output_adapter@D@__crt_stdio_output@@V?$standard_base@DV?$string_output_adapter@D@__crt_stdio_output@@@2@@__crt_stdio_output@@AAE_NXZ 10095320 f i libucrtd:output.obj
 0001:000947e0       ?state_case_size@?$output_processor@_WV?$stream_output_adapter@_W@__crt_stdio_output@@V?$format_validation_base@_WV?$stream_output_adapter@_W@__crt_stdio_output@@@2@@__crt_stdio_output@@AAE_NXZ 100957e0 f i libucrtd:output.obj
 0001:00094ca0       ?state_case_size@?$output_processor@_WV?$stream_output_adapter@_W@__crt_stdio_output@@V?$positional_parameter_base@_WV?$stream_output_adapter@_W@__crt_stdio_output@@@2@@__crt_stdio_output@@AAE_NXZ 10095ca0 f i libucrtd:output.obj
 0001:00095160       ?state_case_size@?$output_processor@_WV?$stream_output_adapter@_W@__crt_stdio_output@@V?$standard_base@_WV?$stream_output_adapter@_W@__crt_stdio_output@@@2@@__crt_stdio_output@@AAE_NXZ 10096160 f i libucrtd:output.obj
 0001:00095620       ?state_case_size@?$output_processor@_WV?$string_output_adapter@_W@__crt_stdio_output@@V?$format_validation_base@_WV?$string_output_adapter@_W@__crt_stdio_output@@@2@@__crt_stdio_output@@AAE_NXZ 10096620 f i libucrtd:output.obj
 0001:00095ae0       ?state_case_size@?$output_processor@_WV?$string_output_adapter@_W@__crt_stdio_output@@V?$positional_parameter_base@_WV?$string_output_adapter@_W@__crt_stdio_output@@@2@@__crt_stdio_output@@AAE_NXZ 10096ae0 f i libucrtd:output.obj
 0001:00095fa0       ?state_case_size@?$output_processor@_WV?$string_output_adapter@_W@__crt_stdio_output@@V?$standard_base@_WV?$string_output_adapter@_W@__crt_stdio_output@@@2@@__crt_stdio_output@@AAE_NXZ 10096fa0 f i libucrtd:output.obj
 0001:00096460       ?state_case_type@?$output_processor@DV?$stream_output_adapter@D@__crt_stdio_output@@V?$format_validation_base@DV?$stream_output_adapter@D@__crt_stdio_output@@@2@@__crt_stdio_output@@AAE_NXZ 10097460 f i libucrtd:output.obj
 0001:00096900       ?state_case_type@?$output_processor@DV?$stream_output_adapter@D@__crt_stdio_output@@V?$positional_parameter_base@DV?$stream_output_adapter@D@__crt_stdio_output@@@2@@__crt_stdio_output@@AAE_NXZ 10097900 f i libucrtd:output.obj
 0001:00096da0       ?state_case_type@?$output_processor@DV?$stream_output_adapter@D@__crt_stdio_output@@V?$standard_base@DV?$stream_output_adapter@D@__crt_stdio_output@@@2@@__crt_stdio_output@@AAE_NXZ 10097da0 f i libucrtd:output.obj
 0001:00097240       ?state_case_type@?$output_processor@DV?$string_output_adapter@D@__crt_stdio_output@@V?$format_validation_base@DV?$string_output_adapter@D@__crt_stdio_output@@@2@@__crt_stdio_output@@AAE_NXZ 10098240 f i libucrtd:output.obj
 0001:000976e0       ?state_case_type@?$output_processor@DV?$string_output_adapter@D@__crt_stdio_output@@V?$positional_parameter_base@DV?$string_output_adapter@D@__crt_stdio_output@@@2@@__crt_stdio_output@@AAE_NXZ 100986e0 f i libucrtd:output.obj
 0001:00097b80       ?state_case_type@?$output_processor@DV?$string_output_adapter@D@__crt_stdio_output@@V?$standard_base@DV?$string_output_adapter@D@__crt_stdio_output@@@2@@__crt_stdio_output@@AAE_NXZ 10098b80 f i libucrtd:output.obj
 0001:00098020       ?state_case_type@?$output_processor@_WV?$stream_output_adapter@_W@__crt_stdio_output@@V?$format_validation_base@_WV?$stream_output_adapter@_W@__crt_stdio_output@@@2@@__crt_stdio_output@@AAE_NXZ 10099020 f i libucrtd:output.obj
 0001:000984f0       ?state_case_type@?$output_processor@_WV?$stream_output_adapter@_W@__crt_stdio_output@@V?$positional_parameter_base@_WV?$stream_output_adapter@_W@__crt_stdio_output@@@2@@__crt_stdio_output@@AAE_NXZ 100994f0 f i libucrtd:output.obj
 0001:000989c0       ?state_case_type@?$output_processor@_WV?$stream_output_adapter@_W@__crt_stdio_output@@V?$standard_base@_WV?$stream_output_adapter@_W@__crt_stdio_output@@@2@@__crt_stdio_output@@AAE_NXZ 100999c0 f i libucrtd:output.obj
 0001:00098e90       ?state_case_type@?$output_processor@_WV?$string_output_adapter@_W@__crt_stdio_output@@V?$format_validation_base@_WV?$string_output_adapter@_W@__crt_stdio_output@@@2@@__crt_stdio_output@@AAE_NXZ 10099e90 f i libucrtd:output.obj
 0001:00099360       ?state_case_type@?$output_processor@_WV?$string_output_adapter@_W@__crt_stdio_output@@V?$positional_parameter_base@_WV?$string_output_adapter@_W@__crt_stdio_output@@@2@@__crt_stdio_output@@AAE_NXZ 1009a360 f i libucrtd:output.obj
 0001:00099830       ?state_case_type@?$output_processor@_WV?$string_output_adapter@_W@__crt_stdio_output@@V?$standard_base@_WV?$string_output_adapter@_W@__crt_stdio_output@@@2@@__crt_stdio_output@@AAE_NXZ 1009a830 f i libucrtd:output.obj
 0001:00099d00       ?state_case_width@?$output_processor@DV?$stream_output_adapter@D@__crt_stdio_output@@V?$format_validation_base@DV?$stream_output_adapter@D@__crt_stdio_output@@@2@@__crt_stdio_output@@AAE_NXZ 1009ad00 f i libucrtd:output.obj
 0001:00099d90       ?state_case_width@?$output_processor@DV?$stream_output_adapter@D@__crt_stdio_output@@V?$positional_parameter_base@DV?$stream_output_adapter@D@__crt_stdio_output@@@2@@__crt_stdio_output@@AAE_NXZ 1009ad90 f i libucrtd:output.obj
 0001:00099e20       ?state_case_width@?$output_processor@DV?$stream_output_adapter@D@__crt_stdio_output@@V?$standard_base@DV?$stream_output_adapter@D@__crt_stdio_output@@@2@@__crt_stdio_output@@AAE_NXZ 1009ae20 f i libucrtd:output.obj
 0001:00099eb0       ?state_case_width@?$output_processor@DV?$string_output_adapter@D@__crt_stdio_output@@V?$format_validation_base@DV?$string_output_adapter@D@__crt_stdio_output@@@2@@__crt_stdio_output@@AAE_NXZ 1009aeb0 f i libucrtd:output.obj
 0001:00099f40       ?state_case_width@?$output_processor@DV?$string_output_adapter@D@__crt_stdio_output@@V?$positional_parameter_base@DV?$string_output_adapter@D@__crt_stdio_output@@@2@@__crt_stdio_output@@AAE_NXZ 1009af40 f i libucrtd:output.obj
 0001:00099fd0       ?state_case_width@?$output_processor@DV?$string_output_adapter@D@__crt_stdio_output@@V?$standard_base@DV?$string_output_adapter@D@__crt_stdio_output@@@2@@__crt_stdio_output@@AAE_NXZ 1009afd0 f i libucrtd:output.obj
 0001:0009a060       ?state_case_width@?$output_processor@_WV?$stream_output_adapter@_W@__crt_stdio_output@@V?$format_validation_base@_WV?$stream_output_adapter@_W@__crt_stdio_output@@@2@@__crt_stdio_output@@AAE_NXZ 1009b060 f i libucrtd:output.obj
 0001:0009a0f0       ?state_case_width@?$output_processor@_WV?$stream_output_adapter@_W@__crt_stdio_output@@V?$positional_parameter_base@_WV?$stream_output_adapter@_W@__crt_stdio_output@@@2@@__crt_stdio_output@@AAE_NXZ 1009b0f0 f i libucrtd:output.obj
 0001:0009a180       ?state_case_width@?$output_processor@_WV?$stream_output_adapter@_W@__crt_stdio_output@@V?$standard_base@_WV?$stream_output_adapter@_W@__crt_stdio_output@@@2@@__crt_stdio_output@@AAE_NXZ 1009b180 f i libucrtd:output.obj
 0001:0009a210       ?state_case_width@?$output_processor@_WV?$string_output_adapter@_W@__crt_stdio_output@@V?$format_validation_base@_WV?$string_output_adapter@_W@__crt_stdio_output@@@2@@__crt_stdio_output@@AAE_NXZ 1009b210 f i libucrtd:output.obj
 0001:0009a2a0       ?state_case_width@?$output_processor@_WV?$string_output_adapter@_W@__crt_stdio_output@@V?$positional_parameter_base@_WV?$string_output_adapter@_W@__crt_stdio_output@@@2@@__crt_stdio_output@@AAE_NXZ 1009b2a0 f i libucrtd:output.obj
 0001:0009a330       ?state_case_width@?$output_processor@_WV?$string_output_adapter@_W@__crt_stdio_output@@V?$standard_base@_WV?$string_output_adapter@_W@__crt_stdio_output@@@2@@__crt_stdio_output@@AAE_NXZ 1009b330 f i libucrtd:output.obj
 0001:0009a3c0       ?state_count@?$format_validation_base@DV?$stream_output_adapter@D@__crt_stdio_output@@@__crt_stdio_output@@KAIXZ 1009b3c0 f i libucrtd:output.obj
 0001:0009a3d0       ?state_count@?$format_validation_base@DV?$string_output_adapter@D@__crt_stdio_output@@@__crt_stdio_output@@KAIXZ 1009b3d0 f i libucrtd:output.obj
 0001:0009a3e0       ?state_count@?$format_validation_base@_WV?$stream_output_adapter@_W@__crt_stdio_output@@@__crt_stdio_output@@KAIXZ 1009b3e0 f i libucrtd:output.obj
 0001:0009a3f0       ?state_count@?$format_validation_base@_WV?$string_output_adapter@_W@__crt_stdio_output@@@__crt_stdio_output@@KAIXZ 1009b3f0 f i libucrtd:output.obj
 0001:0009a400       ?state_count@?$standard_base@DV?$stream_output_adapter@D@__crt_stdio_output@@@__crt_stdio_output@@KAIXZ 1009b400 f i libucrtd:output.obj
 0001:0009a410       ?state_count@?$standard_base@DV?$string_output_adapter@D@__crt_stdio_output@@@__crt_stdio_output@@KAIXZ 1009b410 f i libucrtd:output.obj
 0001:0009a420       ?state_count@?$standard_base@_WV?$stream_output_adapter@_W@__crt_stdio_output@@@__crt_stdio_output@@KAIXZ 1009b420 f i libucrtd:output.obj
 0001:0009a430       ?state_count@?$standard_base@_WV?$string_output_adapter@_W@__crt_stdio_output@@@__crt_stdio_output@@KAIXZ 1009b430 f i libucrtd:output.obj
 0001:0009a440       ?state_transition_table@?$format_validation_base@DV?$stream_output_adapter@D@__crt_stdio_output@@@__crt_stdio_output@@KAABV?$spectre_mitigated_lookup_table@Ustate_transition_pair@__crt_stdio_output@@$0IA@@2@XZ 1009b440 f i libucrtd:output.obj
 0001:0009a450       ?state_transition_table@?$format_validation_base@DV?$string_output_adapter@D@__crt_stdio_output@@@__crt_stdio_output@@KAABV?$spectre_mitigated_lookup_table@Ustate_transition_pair@__crt_stdio_output@@$0IA@@2@XZ 1009b450 f i libucrtd:output.obj
 0001:0009a460       ?state_transition_table@?$format_validation_base@_WV?$stream_output_adapter@_W@__crt_stdio_output@@@__crt_stdio_output@@KAABV?$spectre_mitigated_lookup_table@Ustate_transition_pair@__crt_stdio_output@@$0IA@@2@XZ 1009b460 f i libucrtd:output.obj
 0001:0009a470       ?state_transition_table@?$format_validation_base@_WV?$string_output_adapter@_W@__crt_stdio_output@@@__crt_stdio_output@@KAABV?$spectre_mitigated_lookup_table@Ustate_transition_pair@__crt_stdio_output@@$0IA@@2@XZ 1009b470 f i libucrtd:output.obj
 0001:0009a480       ?state_transition_table@?$standard_base@DV?$stream_output_adapter@D@__crt_stdio_output@@@__crt_stdio_output@@KAABV?$spectre_mitigated_lookup_table@Ustate_transition_pair@__crt_stdio_output@@$0IA@@2@XZ 1009b480 f i libucrtd:output.obj
 0001:0009a490       ?state_transition_table@?$standard_base@DV?$string_output_adapter@D@__crt_stdio_output@@@__crt_stdio_output@@KAABV?$spectre_mitigated_lookup_table@Ustate_transition_pair@__crt_stdio_output@@$0IA@@2@XZ 1009b490 f i libucrtd:output.obj
 0001:0009a4a0       ?state_transition_table@?$standard_base@_WV?$stream_output_adapter@_W@__crt_stdio_output@@@__crt_stdio_output@@KAABV?$spectre_mitigated_lookup_table@Ustate_transition_pair@__crt_stdio_output@@$0IA@@2@XZ 1009b4a0 f i libucrtd:output.obj
 0001:0009a4b0       ?state_transition_table@?$standard_base@_WV?$string_output_adapter@_W@__crt_stdio_output@@@__crt_stdio_output@@KAABV?$spectre_mitigated_lookup_table@Ustate_transition_pair@__crt_stdio_output@@$0IA@@2@XZ 1009b4b0 f i libucrtd:output.obj
 0001:0009a4c0       ?tchar_string@?$common_data@D@__crt_stdio_output@@IAEAAPADD@Z 1009b4c0 f i libucrtd:output.obj
 0001:0009a4e0       ?tchar_string@?$common_data@D@__crt_stdio_output@@IAEAAPADXZ 1009b4e0 f i libucrtd:output.obj
 0001:0009a500       ?tchar_string@?$common_data@_W@__crt_stdio_output@@IAEAAPA_WXZ 1009b500 f i libucrtd:output.obj
 0001:0009a520       ?tchar_string@?$common_data@_W@__crt_stdio_output@@IAEAAPA_W_W@Z 1009b520 f i libucrtd:output.obj
 0001:0009a540       ?to_integer_size@__crt_stdio_output@@YAIW4length_modifier@1@@Z 1009b540 f i libucrtd:output.obj
 0001:0009a610       ?type_case_X@?$output_processor@DV?$stream_output_adapter@D@__crt_stdio_output@@V?$format_validation_base@DV?$stream_output_adapter@D@__crt_stdio_output@@@2@@__crt_stdio_output@@AAE_NXZ 1009b610 f i libucrtd:output.obj
 0001:0009a630       ?type_case_X@?$output_processor@DV?$stream_output_adapter@D@__crt_stdio_output@@V?$positional_parameter_base@DV?$stream_output_adapter@D@__crt_stdio_output@@@2@@__crt_stdio_output@@AAE_NXZ 1009b630 f i libucrtd:output.obj
 0001:0009a650       ?type_case_X@?$output_processor@DV?$stream_output_adapter@D@__crt_stdio_output@@V?$standard_base@DV?$stream_output_adapter@D@__crt_stdio_output@@@2@@__crt_stdio_output@@AAE_NXZ 1009b650 f i libucrtd:output.obj
 0001:0009a670       ?type_case_X@?$output_processor@DV?$string_output_adapter@D@__crt_stdio_output@@V?$format_validation_base@DV?$string_output_adapter@D@__crt_stdio_output@@@2@@__crt_stdio_output@@AAE_NXZ 1009b670 f i libucrtd:output.obj
 0001:0009a690       ?type_case_X@?$output_processor@DV?$string_output_adapter@D@__crt_stdio_output@@V?$positional_parameter_base@DV?$string_output_adapter@D@__crt_stdio_output@@@2@@__crt_stdio_output@@AAE_NXZ 1009b690 f i libucrtd:output.obj
 0001:0009a6b0       ?type_case_X@?$output_processor@DV?$string_output_adapter@D@__crt_stdio_output@@V?$standard_base@DV?$string_output_adapter@D@__crt_stdio_output@@@2@@__crt_stdio_output@@AAE_NXZ 1009b6b0 f i libucrtd:output.obj
 0001:0009a6d0       ?type_case_X@?$output_processor@_WV?$stream_output_adapter@_W@__crt_stdio_output@@V?$format_validation_base@_WV?$stream_output_adapter@_W@__crt_stdio_output@@@2@@__crt_stdio_output@@AAE_NXZ 1009b6d0 f i libucrtd:output.obj
 0001:0009a6f0       ?type_case_X@?$output_processor@_WV?$stream_output_adapter@_W@__crt_stdio_output@@V?$positional_parameter_base@_WV?$stream_output_adapter@_W@__crt_stdio_output@@@2@@__crt_stdio_output@@AAE_NXZ 1009b6f0 f i libucrtd:output.obj
 0001:0009a710       ?type_case_X@?$output_processor@_WV?$stream_output_adapter@_W@__crt_stdio_output@@V?$standard_base@_WV?$stream_output_adapter@_W@__crt_stdio_output@@@2@@__crt_stdio_output@@AAE_NXZ 1009b710 f i libucrtd:output.obj
 0001:0009a730       ?type_case_X@?$output_processor@_WV?$string_output_adapter@_W@__crt_stdio_output@@V?$format_validation_base@_WV?$string_output_adapter@_W@__crt_stdio_output@@@2@@__crt_stdio_output@@AAE_NXZ 1009b730 f i libucrtd:output.obj
 0001:0009a750       ?type_case_X@?$output_processor@_WV?$string_output_adapter@_W@__crt_stdio_output@@V?$positional_parameter_base@_WV?$string_output_adapter@_W@__crt_stdio_output@@@2@@__crt_stdio_output@@AAE_NXZ 1009b750 f i libucrtd:output.obj
 0001:0009a770       ?type_case_X@?$output_processor@_WV?$string_output_adapter@_W@__crt_stdio_output@@V?$standard_base@_WV?$string_output_adapter@_W@__crt_stdio_output@@@2@@__crt_stdio_output@@AAE_NXZ 1009b770 f i libucrtd:output.obj
 0001:0009a790       ?type_case_Z@?$output_processor@DV?$stream_output_adapter@D@__crt_stdio_output@@V?$format_validation_base@DV?$stream_output_adapter@D@__crt_stdio_output@@@2@@__crt_stdio_output@@AAE_NXZ 1009b790 f i libucrtd:output.obj
 0001:0009a8c0       ?type_case_Z@?$output_processor@DV?$stream_output_adapter@D@__crt_stdio_output@@V?$positional_parameter_base@DV?$stream_output_adapter@D@__crt_stdio_output@@@2@@__crt_stdio_output@@AAE_NXZ 1009b8c0 f i libucrtd:output.obj
 0001:0009a9f0       ?type_case_Z@?$output_processor@DV?$stream_output_adapter@D@__crt_stdio_output@@V?$standard_base@DV?$stream_output_adapter@D@__crt_stdio_output@@@2@@__crt_stdio_output@@AAE_NXZ 1009b9f0 f i libucrtd:output.obj
 0001:0009ab20       ?type_case_Z@?$output_processor@DV?$string_output_adapter@D@__crt_stdio_output@@V?$format_validation_base@DV?$string_output_adapter@D@__crt_stdio_output@@@2@@__crt_stdio_output@@AAE_NXZ 1009bb20 f i libucrtd:output.obj
 0001:0009ac50       ?type_case_Z@?$output_processor@DV?$string_output_adapter@D@__crt_stdio_output@@V?$positional_parameter_base@DV?$string_output_adapter@D@__crt_stdio_output@@@2@@__crt_stdio_output@@AAE_NXZ 1009bc50 f i libucrtd:output.obj
 0001:0009ad80       ?type_case_Z@?$output_processor@DV?$string_output_adapter@D@__crt_stdio_output@@V?$standard_base@DV?$string_output_adapter@D@__crt_stdio_output@@@2@@__crt_stdio_output@@AAE_NXZ 1009bd80 f i libucrtd:output.obj
 0001:0009aeb0       ?type_case_Z@?$output_processor@_WV?$stream_output_adapter@_W@__crt_stdio_output@@V?$format_validation_base@_WV?$stream_output_adapter@_W@__crt_stdio_output@@@2@@__crt_stdio_output@@AAE_NXZ 1009beb0 f i libucrtd:output.obj
 0001:0009afe0       ?type_case_Z@?$output_processor@_WV?$stream_output_adapter@_W@__crt_stdio_output@@V?$positional_parameter_base@_WV?$stream_output_adapter@_W@__crt_stdio_output@@@2@@__crt_stdio_output@@AAE_NXZ 1009bfe0 f i libucrtd:output.obj
 0001:0009b110       ?type_case_Z@?$output_processor@_WV?$stream_output_adapter@_W@__crt_stdio_output@@V?$standard_base@_WV?$stream_output_adapter@_W@__crt_stdio_output@@@2@@__crt_stdio_output@@AAE_NXZ 1009c110 f i libucrtd:output.obj
 0001:0009b240       ?type_case_Z@?$output_processor@_WV?$string_output_adapter@_W@__crt_stdio_output@@V?$format_validation_base@_WV?$string_output_adapter@_W@__crt_stdio_output@@@2@@__crt_stdio_output@@AAE_NXZ 1009c240 f i libucrtd:output.obj
 0001:0009b370       ?type_case_Z@?$output_processor@_WV?$string_output_adapter@_W@__crt_stdio_output@@V?$positional_parameter_base@_WV?$string_output_adapter@_W@__crt_stdio_output@@@2@@__crt_stdio_output@@AAE_NXZ 1009c370 f i libucrtd:output.obj
 0001:0009b4a0       ?type_case_Z@?$output_processor@_WV?$string_output_adapter@_W@__crt_stdio_output@@V?$standard_base@_WV?$string_output_adapter@_W@__crt_stdio_output@@@2@@__crt_stdio_output@@AAE_NXZ 1009c4a0 f i libucrtd:output.obj
 0001:0009b5d0       ?type_case_a@?$output_processor@DV?$stream_output_adapter@D@__crt_stdio_output@@V?$format_validation_base@DV?$stream_output_adapter@D@__crt_stdio_output@@@2@@__crt_stdio_output@@AAE_NXZ 1009c5d0 f i libucrtd:output.obj
 0001:0009b8d0       ?type_case_a@?$output_processor@DV?$stream_output_adapter@D@__crt_stdio_output@@V?$positional_parameter_base@DV?$stream_output_adapter@D@__crt_stdio_output@@@2@@__crt_stdio_output@@AAE_NXZ 1009c8d0 f i libucrtd:output.obj
 0001:0009bbd0       ?type_case_a@?$output_processor@DV?$stream_output_adapter@D@__crt_stdio_output@@V?$standard_base@DV?$stream_output_adapter@D@__crt_stdio_output@@@2@@__crt_stdio_output@@AAE_NXZ 1009cbd0 f i libucrtd:output.obj
 0001:0009bed0       ?type_case_a@?$output_processor@DV?$string_output_adapter@D@__crt_stdio_output@@V?$format_validation_base@DV?$string_output_adapter@D@__crt_stdio_output@@@2@@__crt_stdio_output@@AAE_NXZ 1009ced0 f i libucrtd:output.obj
 0001:0009c1d0       ?type_case_a@?$output_processor@DV?$string_output_adapter@D@__crt_stdio_output@@V?$positional_parameter_base@DV?$string_output_adapter@D@__crt_stdio_output@@@2@@__crt_stdio_output@@AAE_NXZ 1009d1d0 f i libucrtd:output.obj
 0001:0009c4d0       ?type_case_a@?$output_processor@DV?$string_output_adapter@D@__crt_stdio_output@@V?$standard_base@DV?$string_output_adapter@D@__crt_stdio_output@@@2@@__crt_stdio_output@@AAE_NXZ 1009d4d0 f i libucrtd:output.obj
 0001:0009c7d0       ?type_case_a@?$output_processor@_WV?$stream_output_adapter@_W@__crt_stdio_output@@V?$format_validation_base@_WV?$stream_output_adapter@_W@__crt_stdio_output@@@2@@__crt_stdio_output@@AAE_NXZ 1009d7d0 f i libucrtd:output.obj
 0001:0009cae0       ?type_case_a@?$output_processor@_WV?$stream_output_adapter@_W@__crt_stdio_output@@V?$positional_parameter_base@_WV?$stream_output_adapter@_W@__crt_stdio_output@@@2@@__crt_stdio_output@@AAE_NXZ 1009dae0 f i libucrtd:output.obj
 0001:0009cdf0       ?type_case_a@?$output_processor@_WV?$stream_output_adapter@_W@__crt_stdio_output@@V?$standard_base@_WV?$stream_output_adapter@_W@__crt_stdio_output@@@2@@__crt_stdio_output@@AAE_NXZ 1009ddf0 f i libucrtd:output.obj
 0001:0009d100       ?type_case_a@?$output_processor@_WV?$string_output_adapter@_W@__crt_stdio_output@@V?$format_validation_base@_WV?$string_output_adapter@_W@__crt_stdio_output@@@2@@__crt_stdio_output@@AAE_NXZ 1009e100 f i libucrtd:output.obj
 0001:0009d410       ?type_case_a@?$output_processor@_WV?$string_output_adapter@_W@__crt_stdio_output@@V?$positional_parameter_base@_WV?$string_output_adapter@_W@__crt_stdio_output@@@2@@__crt_stdio_output@@AAE_NXZ 1009e410 f i libucrtd:output.obj
 0001:0009d720       ?type_case_a@?$output_processor@_WV?$string_output_adapter@_W@__crt_stdio_output@@V?$standard_base@_WV?$string_output_adapter@_W@__crt_stdio_output@@@2@@__crt_stdio_output@@AAE_NXZ 1009e720 f i libucrtd:output.obj
 0001:0009da30       ?type_case_c@?$output_processor@DV?$stream_output_adapter@D@__crt_stdio_output@@V?$format_validation_base@DV?$stream_output_adapter@D@__crt_stdio_output@@@2@@__crt_stdio_output@@AAE_NXZ 1009ea30 f i libucrtd:output.obj
 0001:0009da50       ?type_case_c@?$output_processor@DV?$stream_output_adapter@D@__crt_stdio_output@@V?$positional_parameter_base@DV?$stream_output_adapter@D@__crt_stdio_output@@@2@@__crt_stdio_output@@AAE_NXZ 1009ea50 f i libucrtd:output.obj
 0001:0009da70       ?type_case_c@?$output_processor@DV?$stream_output_adapter@D@__crt_stdio_output@@V?$standard_base@DV?$stream_output_adapter@D@__crt_stdio_output@@@2@@__crt_stdio_output@@AAE_NXZ 1009ea70 f i libucrtd:output.obj
 0001:0009da90       ?type_case_c@?$output_processor@DV?$string_output_adapter@D@__crt_stdio_output@@V?$format_validation_base@DV?$string_output_adapter@D@__crt_stdio_output@@@2@@__crt_stdio_output@@AAE_NXZ 1009ea90 f i libucrtd:output.obj
 0001:0009dab0       ?type_case_c@?$output_processor@DV?$string_output_adapter@D@__crt_stdio_output@@V?$positional_parameter_base@DV?$string_output_adapter@D@__crt_stdio_output@@@2@@__crt_stdio_output@@AAE_NXZ 1009eab0 f i libucrtd:output.obj
 0001:0009dad0       ?type_case_c@?$output_processor@DV?$string_output_adapter@D@__crt_stdio_output@@V?$standard_base@DV?$string_output_adapter@D@__crt_stdio_output@@@2@@__crt_stdio_output@@AAE_NXZ 1009ead0 f i libucrtd:output.obj
 0001:0009daf0       ?type_case_c@?$output_processor@_WV?$stream_output_adapter@_W@__crt_stdio_output@@V?$format_validation_base@_WV?$stream_output_adapter@_W@__crt_stdio_output@@@2@@__crt_stdio_output@@AAE_NXZ 1009eaf0 f i libucrtd:output.obj
 0001:0009db10       ?type_case_c@?$output_processor@_WV?$stream_output_adapter@_W@__crt_stdio_output@@V?$positional_parameter_base@_WV?$stream_output_adapter@_W@__crt_stdio_output@@@2@@__crt_stdio_output@@AAE_NXZ 1009eb10 f i libucrtd:output.obj
 0001:0009db30       ?type_case_c@?$output_processor@_WV?$stream_output_adapter@_W@__crt_stdio_output@@V?$standard_base@_WV?$stream_output_adapter@_W@__crt_stdio_output@@@2@@__crt_stdio_output@@AAE_NXZ 1009eb30 f i libucrtd:output.obj
 0001:0009db50       ?type_case_c@?$output_processor@_WV?$string_output_adapter@_W@__crt_stdio_output@@V?$format_validation_base@_WV?$string_output_adapter@_W@__crt_stdio_output@@@2@@__crt_stdio_output@@AAE_NXZ 1009eb50 f i libucrtd:output.obj
 0001:0009db70       ?type_case_c@?$output_processor@_WV?$string_output_adapter@_W@__crt_stdio_output@@V?$positional_parameter_base@_WV?$string_output_adapter@_W@__crt_stdio_output@@@2@@__crt_stdio_output@@AAE_NXZ 1009eb70 f i libucrtd:output.obj
 0001:0009db90       ?type_case_c@?$output_processor@_WV?$string_output_adapter@_W@__crt_stdio_output@@V?$standard_base@_WV?$string_output_adapter@_W@__crt_stdio_output@@@2@@__crt_stdio_output@@AAE_NXZ 1009eb90 f i libucrtd:output.obj
 0001:0009dbb0       ?type_case_c_tchar@?$output_processor@DV?$stream_output_adapter@D@__crt_stdio_output@@V?$format_validation_base@DV?$stream_output_adapter@D@__crt_stdio_output@@@2@@__crt_stdio_output@@AAE_ND@Z 1009ebb0 f i libucrtd:output.obj
 0001:0009dd00       ?type_case_c_tchar@?$output_processor@DV?$stream_output_adapter@D@__crt_stdio_output@@V?$positional_parameter_base@DV?$stream_output_adapter@D@__crt_stdio_output@@@2@@__crt_stdio_output@@AAE_ND@Z 1009ed00 f i libucrtd:output.obj
 0001:0009de50       ?type_case_c_tchar@?$output_processor@DV?$stream_output_adapter@D@__crt_stdio_output@@V?$standard_base@DV?$stream_output_adapter@D@__crt_stdio_output@@@2@@__crt_stdio_output@@AAE_ND@Z 1009ee50 f i libucrtd:output.obj
 0001:0009dfa0       ?type_case_c_tchar@?$output_processor@DV?$string_output_adapter@D@__crt_stdio_output@@V?$format_validation_base@DV?$string_output_adapter@D@__crt_stdio_output@@@2@@__crt_stdio_output@@AAE_ND@Z 1009efa0 f i libucrtd:output.obj
 0001:0009e0f0       ?type_case_c_tchar@?$output_processor@DV?$string_output_adapter@D@__crt_stdio_output@@V?$positional_parameter_base@DV?$string_output_adapter@D@__crt_stdio_output@@@2@@__crt_stdio_output@@AAE_ND@Z 1009f0f0 f i libucrtd:output.obj
 0001:0009e240       ?type_case_c_tchar@?$output_processor@DV?$string_output_adapter@D@__crt_stdio_output@@V?$standard_base@DV?$string_output_adapter@D@__crt_stdio_output@@@2@@__crt_stdio_output@@AAE_ND@Z 1009f240 f i libucrtd:output.obj
 0001:0009e390       ?type_case_c_tchar@?$output_processor@_WV?$stream_output_adapter@_W@__crt_stdio_output@@V?$format_validation_base@_WV?$stream_output_adapter@_W@__crt_stdio_output@@@2@@__crt_stdio_output@@AAE_N_W@Z 1009f390 f i libucrtd:output.obj
 0001:0009e4d0       ?type_case_c_tchar@?$output_processor@_WV?$stream_output_adapter@_W@__crt_stdio_output@@V?$positional_parameter_base@_WV?$stream_output_adapter@_W@__crt_stdio_output@@@2@@__crt_stdio_output@@AAE_N_W@Z 1009f4d0 f i libucrtd:output.obj
 0001:0009e610       ?type_case_c_tchar@?$output_processor@_WV?$stream_output_adapter@_W@__crt_stdio_output@@V?$standard_base@_WV?$stream_output_adapter@_W@__crt_stdio_output@@@2@@__crt_stdio_output@@AAE_N_W@Z 1009f610 f i libucrtd:output.obj
 0001:0009e750       ?type_case_c_tchar@?$output_processor@_WV?$string_output_adapter@_W@__crt_stdio_output@@V?$format_validation_base@_WV?$string_output_adapter@_W@__crt_stdio_output@@@2@@__crt_stdio_output@@AAE_N_W@Z 1009f750 f i libucrtd:output.obj
 0001:0009e890       ?type_case_c_tchar@?$output_processor@_WV?$string_output_adapter@_W@__crt_stdio_output@@V?$positional_parameter_base@_WV?$string_output_adapter@_W@__crt_stdio_output@@@2@@__crt_stdio_output@@AAE_N_W@Z 1009f890 f i libucrtd:output.obj
 0001:0009e9d0       ?type_case_c_tchar@?$output_processor@_WV?$string_output_adapter@_W@__crt_stdio_output@@V?$standard_base@_WV?$string_output_adapter@_W@__crt_stdio_output@@@2@@__crt_stdio_output@@AAE_N_W@Z 1009f9d0 f i libucrtd:output.obj
 0001:0009eb10       ?type_case_d@?$output_processor@DV?$stream_output_adapter@D@__crt_stdio_output@@V?$format_validation_base@DV?$stream_output_adapter@D@__crt_stdio_output@@@2@@__crt_stdio_output@@AAE_NXZ 1009fb10 f i libucrtd:output.obj
 0001:0009eb40       ?type_case_d@?$output_processor@DV?$stream_output_adapter@D@__crt_stdio_output@@V?$positional_parameter_base@DV?$stream_output_adapter@D@__crt_stdio_output@@@2@@__crt_stdio_output@@AAE_NXZ 1009fb40 f i libucrtd:output.obj
 0001:0009eb70       ?type_case_d@?$output_processor@DV?$stream_output_adapter@D@__crt_stdio_output@@V?$standard_base@DV?$stream_output_adapter@D@__crt_stdio_output@@@2@@__crt_stdio_output@@AAE_NXZ 1009fb70 f i libucrtd:output.obj
 0001:0009eba0       ?type_case_d@?$output_processor@DV?$string_output_adapter@D@__crt_stdio_output@@V?$format_validation_base@DV?$string_output_adapter@D@__crt_stdio_output@@@2@@__crt_stdio_output@@AAE_NXZ 1009fba0 f i libucrtd:output.obj
 0001:0009ebd0       ?type_case_d@?$output_processor@DV?$string_output_adapter@D@__crt_stdio_output@@V?$positional_parameter_base@DV?$string_output_adapter@D@__crt_stdio_output@@@2@@__crt_stdio_output@@AAE_NXZ 1009fbd0 f i libucrtd:output.obj
 0001:0009ec00       ?type_case_d@?$output_processor@DV?$string_output_adapter@D@__crt_stdio_output@@V?$standard_base@DV?$string_output_adapter@D@__crt_stdio_output@@@2@@__crt_stdio_output@@AAE_NXZ 1009fc00 f i libucrtd:output.obj
 0001:0009ec30       ?type_case_d@?$output_processor@_WV?$stream_output_adapter@_W@__crt_stdio_output@@V?$format_validation_base@_WV?$stream_output_adapter@_W@__crt_stdio_output@@@2@@__crt_stdio_output@@AAE_NXZ 1009fc30 f i libucrtd:output.obj
 0001:0009ec60       ?type_case_d@?$output_processor@_WV?$stream_output_adapter@_W@__crt_stdio_output@@V?$positional_parameter_base@_WV?$stream_output_adapter@_W@__crt_stdio_output@@@2@@__crt_stdio_output@@AAE_NXZ 1009fc60 f i libucrtd:output.obj
 0001:0009ec90       ?type_case_d@?$output_processor@_WV?$stream_output_adapter@_W@__crt_stdio_output@@V?$standard_base@_WV?$stream_output_adapter@_W@__crt_stdio_output@@@2@@__crt_stdio_output@@AAE_NXZ 1009fc90 f i libucrtd:output.obj
 0001:0009ecc0       ?type_case_d@?$output_processor@_WV?$string_output_adapter@_W@__crt_stdio_output@@V?$format_validation_base@_WV?$string_output_adapter@_W@__crt_stdio_output@@@2@@__crt_stdio_output@@AAE_NXZ 1009fcc0 f i libucrtd:output.obj
 0001:0009ecf0       ?type_case_d@?$output_processor@_WV?$string_output_adapter@_W@__crt_stdio_output@@V?$positional_parameter_base@_WV?$string_output_adapter@_W@__crt_stdio_output@@@2@@__crt_stdio_output@@AAE_NXZ 1009fcf0 f i libucrtd:output.obj
 0001:0009ed20       ?type_case_d@?$output_processor@_WV?$string_output_adapter@_W@__crt_stdio_output@@V?$standard_base@_WV?$string_output_adapter@_W@__crt_stdio_output@@@2@@__crt_stdio_output@@AAE_NXZ 1009fd20 f i libucrtd:output.obj
 0001:0009ed50       ?type_case_integer@?$output_processor@DV?$stream_output_adapter@D@__crt_stdio_output@@V?$format_validation_base@DV?$stream_output_adapter@D@__crt_stdio_output@@@2@@__crt_stdio_output@@AAE_NI_N@Z 1009fd50 f i libucrtd:output.obj
 0001:0009f170       ?type_case_integer@?$output_processor@DV?$stream_output_adapter@D@__crt_stdio_output@@V?$positional_parameter_base@DV?$stream_output_adapter@D@__crt_stdio_output@@@2@@__crt_stdio_output@@AAE_NI_N@Z 100a0170 f i libucrtd:output.obj
 0001:0009f590       ?type_case_integer@?$output_processor@DV?$stream_output_adapter@D@__crt_stdio_output@@V?$standard_base@DV?$stream_output_adapter@D@__crt_stdio_output@@@2@@__crt_stdio_output@@AAE_NI_N@Z 100a0590 f i libucrtd:output.obj
 0001:0009f9b0       ?type_case_integer@?$output_processor@DV?$string_output_adapter@D@__crt_stdio_output@@V?$format_validation_base@DV?$string_output_adapter@D@__crt_stdio_output@@@2@@__crt_stdio_output@@AAE_NI_N@Z 100a09b0 f i libucrtd:output.obj
 0001:0009fdd0       ?type_case_integer@?$output_processor@DV?$string_output_adapter@D@__crt_stdio_output@@V?$positional_parameter_base@DV?$string_output_adapter@D@__crt_stdio_output@@@2@@__crt_stdio_output@@AAE_NI_N@Z 100a0dd0 f i libucrtd:output.obj
 0001:000a01f0       ?type_case_integer@?$output_processor@DV?$string_output_adapter@D@__crt_stdio_output@@V?$standard_base@DV?$string_output_adapter@D@__crt_stdio_output@@@2@@__crt_stdio_output@@AAE_NI_N@Z 100a11f0 f i libucrtd:output.obj
 0001:000a0610       ?type_case_integer@?$output_processor@_WV?$stream_output_adapter@_W@__crt_stdio_output@@V?$format_validation_base@_WV?$stream_output_adapter@_W@__crt_stdio_output@@@2@@__crt_stdio_output@@AAE_NI_N@Z 100a1610 f i libucrtd:output.obj
 0001:000a0a30       ?type_case_integer@?$output_processor@_WV?$stream_output_adapter@_W@__crt_stdio_output@@V?$positional_parameter_base@_WV?$stream_output_adapter@_W@__crt_stdio_output@@@2@@__crt_stdio_output@@AAE_NI_N@Z 100a1a30 f i libucrtd:output.obj
 0001:000a0e50       ?type_case_integer@?$output_processor@_WV?$stream_output_adapter@_W@__crt_stdio_output@@V?$standard_base@_WV?$stream_output_adapter@_W@__crt_stdio_output@@@2@@__crt_stdio_output@@AAE_NI_N@Z 100a1e50 f i libucrtd:output.obj
 0001:000a1270       ?type_case_integer@?$output_processor@_WV?$string_output_adapter@_W@__crt_stdio_output@@V?$format_validation_base@_WV?$string_output_adapter@_W@__crt_stdio_output@@@2@@__crt_stdio_output@@AAE_NI_N@Z 100a2270 f i libucrtd:output.obj
 0001:000a1690       ?type_case_integer@?$output_processor@_WV?$string_output_adapter@_W@__crt_stdio_output@@V?$positional_parameter_base@_WV?$string_output_adapter@_W@__crt_stdio_output@@@2@@__crt_stdio_output@@AAE_NI_N@Z 100a2690 f i libucrtd:output.obj
 0001:000a1ab0       ?type_case_integer@?$output_processor@_WV?$string_output_adapter@_W@__crt_stdio_output@@V?$standard_base@_WV?$string_output_adapter@_W@__crt_stdio_output@@@2@@__crt_stdio_output@@AAE_NI_N@Z 100a2ab0 f i libucrtd:output.obj
 0001:000a1ed0       ?type_case_n@?$output_processor@DV?$stream_output_adapter@D@__crt_stdio_output@@V?$format_validation_base@DV?$stream_output_adapter@D@__crt_stdio_output@@@2@@__crt_stdio_output@@AAE_NXZ 100a2ed0 f i libucrtd:output.obj
 0001:000a2140       ?type_case_n@?$output_processor@DV?$stream_output_adapter@D@__crt_stdio_output@@V?$positional_parameter_base@DV?$stream_output_adapter@D@__crt_stdio_output@@@2@@__crt_stdio_output@@AAE_NXZ 100a3140 f i libucrtd:output.obj
 0001:000a23b0       ?type_case_n@?$output_processor@DV?$stream_output_adapter@D@__crt_stdio_output@@V?$standard_base@DV?$stream_output_adapter@D@__crt_stdio_output@@@2@@__crt_stdio_output@@AAE_NXZ 100a33b0 f i libucrtd:output.obj
 0001:000a2620       ?type_case_n@?$output_processor@DV?$string_output_adapter@D@__crt_stdio_output@@V?$format_validation_base@DV?$string_output_adapter@D@__crt_stdio_output@@@2@@__crt_stdio_output@@AAE_NXZ 100a3620 f i libucrtd:output.obj
 0001:000a2890       ?type_case_n@?$output_processor@DV?$string_output_adapter@D@__crt_stdio_output@@V?$positional_parameter_base@DV?$string_output_adapter@D@__crt_stdio_output@@@2@@__crt_stdio_output@@AAE_NXZ 100a3890 f i libucrtd:output.obj
 0001:000a2b00       ?type_case_n@?$output_processor@DV?$string_output_adapter@D@__crt_stdio_output@@V?$standard_base@DV?$string_output_adapter@D@__crt_stdio_output@@@2@@__crt_stdio_output@@AAE_NXZ 100a3b00 f i libucrtd:output.obj
 0001:000a2d70       ?type_case_n@?$output_processor@_WV?$stream_output_adapter@_W@__crt_stdio_output@@V?$format_validation_base@_WV?$stream_output_adapter@_W@__crt_stdio_output@@@2@@__crt_stdio_output@@AAE_NXZ 100a3d70 f i libucrtd:output.obj
 0001:000a2fe0       ?type_case_n@?$output_processor@_WV?$stream_output_adapter@_W@__crt_stdio_output@@V?$positional_parameter_base@_WV?$stream_output_adapter@_W@__crt_stdio_output@@@2@@__crt_stdio_output@@AAE_NXZ 100a3fe0 f i libucrtd:output.obj
 0001:000a3250       ?type_case_n@?$output_processor@_WV?$stream_output_adapter@_W@__crt_stdio_output@@V?$standard_base@_WV?$stream_output_adapter@_W@__crt_stdio_output@@@2@@__crt_stdio_output@@AAE_NXZ 100a4250 f i libucrtd:output.obj
 0001:000a34c0       ?type_case_n@?$output_processor@_WV?$string_output_adapter@_W@__crt_stdio_output@@V?$format_validation_base@_WV?$string_output_adapter@_W@__crt_stdio_output@@@2@@__crt_stdio_output@@AAE_NXZ 100a44c0 f i libucrtd:output.obj
 0001:000a3730       ?type_case_n@?$output_processor@_WV?$string_output_adapter@_W@__crt_stdio_output@@V?$positional_parameter_base@_WV?$string_output_adapter@_W@__crt_stdio_output@@@2@@__crt_stdio_output@@AAE_NXZ 100a4730 f i libucrtd:output.obj
 0001:000a39a0       ?type_case_n@?$output_processor@_WV?$string_output_adapter@_W@__crt_stdio_output@@V?$standard_base@_WV?$string_output_adapter@_W@__crt_stdio_output@@@2@@__crt_stdio_output@@AAE_NXZ 100a49a0 f i libucrtd:output.obj
 0001:000a3c10       ?type_case_o@?$output_processor@DV?$stream_output_adapter@D@__crt_stdio_output@@V?$format_validation_base@DV?$stream_output_adapter@D@__crt_stdio_output@@@2@@__crt_stdio_output@@AAE_NXZ 100a4c10 f i libucrtd:output.obj
 0001:000a3c60       ?type_case_o@?$output_processor@DV?$stream_output_adapter@D@__crt_stdio_output@@V?$positional_parameter_base@DV?$stream_output_adapter@D@__crt_stdio_output@@@2@@__crt_stdio_output@@AAE_NXZ 100a4c60 f i libucrtd:output.obj
 0001:000a3cb0       ?type_case_o@?$output_processor@DV?$stream_output_adapter@D@__crt_stdio_output@@V?$standard_base@DV?$stream_output_adapter@D@__crt_stdio_output@@@2@@__crt_stdio_output@@AAE_NXZ 100a4cb0 f i libucrtd:output.obj
 0001:000a3d00       ?type_case_o@?$output_processor@DV?$string_output_adapter@D@__crt_stdio_output@@V?$format_validation_base@DV?$string_output_adapter@D@__crt_stdio_output@@@2@@__crt_stdio_output@@AAE_NXZ 100a4d00 f i libucrtd:output.obj
 0001:000a3d50       ?type_case_o@?$output_processor@DV?$string_output_adapter@D@__crt_stdio_output@@V?$positional_parameter_base@DV?$string_output_adapter@D@__crt_stdio_output@@@2@@__crt_stdio_output@@AAE_NXZ 100a4d50 f i libucrtd:output.obj
 0001:000a3da0       ?type_case_o@?$output_processor@DV?$string_output_adapter@D@__crt_stdio_output@@V?$standard_base@DV?$string_output_adapter@D@__crt_stdio_output@@@2@@__crt_stdio_output@@AAE_NXZ 100a4da0 f i libucrtd:output.obj
 0001:000a3df0       ?type_case_o@?$output_processor@_WV?$stream_output_adapter@_W@__crt_stdio_output@@V?$format_validation_base@_WV?$stream_output_adapter@_W@__crt_stdio_output@@@2@@__crt_stdio_output@@AAE_NXZ 100a4df0 f i libucrtd:output.obj
 0001:000a3e40       ?type_case_o@?$output_processor@_WV?$stream_output_adapter@_W@__crt_stdio_output@@V?$positional_parameter_base@_WV?$stream_output_adapter@_W@__crt_stdio_output@@@2@@__crt_stdio_output@@AAE_NXZ 100a4e40 f i libucrtd:output.obj
 0001:000a3e90       ?type_case_o@?$output_processor@_WV?$stream_output_adapter@_W@__crt_stdio_output@@V?$standard_base@_WV?$stream_output_adapter@_W@__crt_stdio_output@@@2@@__crt_stdio_output@@AAE_NXZ 100a4e90 f i libucrtd:output.obj
 0001:000a3ee0       ?type_case_o@?$output_processor@_WV?$string_output_adapter@_W@__crt_stdio_output@@V?$format_validation_base@_WV?$string_output_adapter@_W@__crt_stdio_output@@@2@@__crt_stdio_output@@AAE_NXZ 100a4ee0 f i libucrtd:output.obj
 0001:000a3f30       ?type_case_o@?$output_processor@_WV?$string_output_adapter@_W@__crt_stdio_output@@V?$positional_parameter_base@_WV?$string_output_adapter@_W@__crt_stdio_output@@@2@@__crt_stdio_output@@AAE_NXZ 100a4f30 f i libucrtd:output.obj
 0001:000a3f80       ?type_case_o@?$output_processor@_WV?$string_output_adapter@_W@__crt_stdio_output@@V?$standard_base@_WV?$string_output_adapter@_W@__crt_stdio_output@@@2@@__crt_stdio_output@@AAE_NXZ 100a4f80 f i libucrtd:output.obj
 0001:000a3fd0       ?type_case_p@?$output_processor@DV?$stream_output_adapter@D@__crt_stdio_output@@V?$format_validation_base@DV?$stream_output_adapter@D@__crt_stdio_output@@@2@@__crt_stdio_output@@AAE_NXZ 100a4fd0 f i libucrtd:output.obj
 0001:000a4010       ?type_case_p@?$output_processor@DV?$stream_output_adapter@D@__crt_stdio_output@@V?$positional_parameter_base@DV?$stream_output_adapter@D@__crt_stdio_output@@@2@@__crt_stdio_output@@AAE_NXZ 100a5010 f i libucrtd:output.obj
 0001:000a4050       ?type_case_p@?$output_processor@DV?$stream_output_adapter@D@__crt_stdio_output@@V?$standard_base@DV?$stream_output_adapter@D@__crt_stdio_output@@@2@@__crt_stdio_output@@AAE_NXZ 100a5050 f i libucrtd:output.obj
 0001:000a4090       ?type_case_p@?$output_processor@DV?$string_output_adapter@D@__crt_stdio_output@@V?$format_validation_base@DV?$string_output_adapter@D@__crt_stdio_output@@@2@@__crt_stdio_output@@AAE_NXZ 100a5090 f i libucrtd:output.obj
 0001:000a40d0       ?type_case_p@?$output_processor@DV?$string_output_adapter@D@__crt_stdio_output@@V?$positional_parameter_base@DV?$string_output_adapter@D@__crt_stdio_output@@@2@@__crt_stdio_output@@AAE_NXZ 100a50d0 f i libucrtd:output.obj
 0001:000a4110       ?type_case_p@?$output_processor@DV?$string_output_adapter@D@__crt_stdio_output@@V?$standard_base@DV?$string_output_adapter@D@__crt_stdio_output@@@2@@__crt_stdio_output@@AAE_NXZ 100a5110 f i libucrtd:output.obj
 0001:000a4150       ?type_case_p@?$output_processor@_WV?$stream_output_adapter@_W@__crt_stdio_output@@V?$format_validation_base@_WV?$stream_output_adapter@_W@__crt_stdio_output@@@2@@__crt_stdio_output@@AAE_NXZ 100a5150 f i libucrtd:output.obj
 0001:000a4190       ?type_case_p@?$output_processor@_WV?$stream_output_adapter@_W@__crt_stdio_output@@V?$positional_parameter_base@_WV?$stream_output_adapter@_W@__crt_stdio_output@@@2@@__crt_stdio_output@@AAE_NXZ 100a5190 f i libucrtd:output.obj
 0001:000a41d0       ?type_case_p@?$output_processor@_WV?$stream_output_adapter@_W@__crt_stdio_output@@V?$standard_base@_WV?$stream_output_adapter@_W@__crt_stdio_output@@@2@@__crt_stdio_output@@AAE_NXZ 100a51d0 f i libucrtd:output.obj
 0001:000a4210       ?type_case_p@?$output_processor@_WV?$string_output_adapter@_W@__crt_stdio_output@@V?$format_validation_base@_WV?$string_output_adapter@_W@__crt_stdio_output@@@2@@__crt_stdio_output@@AAE_NXZ 100a5210 f i libucrtd:output.obj
 0001:000a4250       ?type_case_p@?$output_processor@_WV?$string_output_adapter@_W@__crt_stdio_output@@V?$positional_parameter_base@_WV?$string_output_adapter@_W@__crt_stdio_output@@@2@@__crt_stdio_output@@AAE_NXZ 100a5250 f i libucrtd:output.obj
 0001:000a4290       ?type_case_p@?$output_processor@_WV?$string_output_adapter@_W@__crt_stdio_output@@V?$standard_base@_WV?$string_output_adapter@_W@__crt_stdio_output@@@2@@__crt_stdio_output@@AAE_NXZ 100a5290 f i libucrtd:output.obj
 0001:000a42d0       ?type_case_s@?$output_processor@DV?$stream_output_adapter@D@__crt_stdio_output@@V?$format_validation_base@DV?$stream_output_adapter@D@__crt_stdio_output@@@2@@__crt_stdio_output@@AAE_NXZ 100a52d0 f i libucrtd:output.obj
 0001:000a4400       ?type_case_s@?$output_processor@DV?$stream_output_adapter@D@__crt_stdio_output@@V?$positional_parameter_base@DV?$stream_output_adapter@D@__crt_stdio_output@@@2@@__crt_stdio_output@@AAE_NXZ 100a5400 f i libucrtd:output.obj
 0001:000a4530       ?type_case_s@?$output_processor@DV?$stream_output_adapter@D@__crt_stdio_output@@V?$standard_base@DV?$stream_output_adapter@D@__crt_stdio_output@@@2@@__crt_stdio_output@@AAE_NXZ 100a5530 f i libucrtd:output.obj
 0001:000a4660       ?type_case_s@?$output_processor@DV?$string_output_adapter@D@__crt_stdio_output@@V?$format_validation_base@DV?$string_output_adapter@D@__crt_stdio_output@@@2@@__crt_stdio_output@@AAE_NXZ 100a5660 f i libucrtd:output.obj
 0001:000a4790       ?type_case_s@?$output_processor@DV?$string_output_adapter@D@__crt_stdio_output@@V?$positional_parameter_base@DV?$string_output_adapter@D@__crt_stdio_output@@@2@@__crt_stdio_output@@AAE_NXZ 100a5790 f i libucrtd:output.obj
 0001:000a48c0       ?type_case_s@?$output_processor@DV?$string_output_adapter@D@__crt_stdio_output@@V?$standard_base@DV?$string_output_adapter@D@__crt_stdio_output@@@2@@__crt_stdio_output@@AAE_NXZ 100a58c0 f i libucrtd:output.obj
 0001:000a49f0       ?type_case_s@?$output_processor@_WV?$stream_output_adapter@_W@__crt_stdio_output@@V?$format_validation_base@_WV?$stream_output_adapter@_W@__crt_stdio_output@@@2@@__crt_stdio_output@@AAE_NXZ 100a59f0 f i libucrtd:output.obj
 0001:000a4b20       ?type_case_s@?$output_processor@_WV?$stream_output_adapter@_W@__crt_stdio_output@@V?$positional_parameter_base@_WV?$stream_output_adapter@_W@__crt_stdio_output@@@2@@__crt_stdio_output@@AAE_NXZ 100a5b20 f i libucrtd:output.obj
 0001:000a4c50       ?type_case_s@?$output_processor@_WV?$stream_output_adapter@_W@__crt_stdio_output@@V?$standard_base@_WV?$stream_output_adapter@_W@__crt_stdio_output@@@2@@__crt_stdio_output@@AAE_NXZ 100a5c50 f i libucrtd:output.obj
 0001:000a4d80       ?type_case_s@?$output_processor@_WV?$string_output_adapter@_W@__crt_stdio_output@@V?$format_validation_base@_WV?$string_output_adapter@_W@__crt_stdio_output@@@2@@__crt_stdio_output@@AAE_NXZ 100a5d80 f i libucrtd:output.obj
 0001:000a4eb0       ?type_case_s@?$output_processor@_WV?$string_output_adapter@_W@__crt_stdio_output@@V?$positional_parameter_base@_WV?$string_output_adapter@_W@__crt_stdio_output@@@2@@__crt_stdio_output@@AAE_NXZ 100a5eb0 f i libucrtd:output.obj
 0001:000a4fe0       ?type_case_s@?$output_processor@_WV?$string_output_adapter@_W@__crt_stdio_output@@V?$standard_base@_WV?$string_output_adapter@_W@__crt_stdio_output@@@2@@__crt_stdio_output@@AAE_NXZ 100a5fe0 f i libucrtd:output.obj
 0001:000a5110       ?type_case_s_compute_narrow_string_length@?$output_processor@DV?$stream_output_adapter@D@__crt_stdio_output@@V?$format_validation_base@DV?$stream_output_adapter@D@__crt_stdio_output@@@2@@__crt_stdio_output@@ABEHHD@Z 100a6110 f i libucrtd:output.obj
 0001:000a5140       ?type_case_s_compute_narrow_string_length@?$output_processor@DV?$stream_output_adapter@D@__crt_stdio_output@@V?$positional_parameter_base@DV?$stream_output_adapter@D@__crt_stdio_output@@@2@@__crt_stdio_output@@ABEHHD@Z 100a6140 f i libucrtd:output.obj
 0001:000a5170       ?type_case_s_compute_narrow_string_length@?$output_processor@DV?$stream_output_adapter@D@__crt_stdio_output@@V?$standard_base@DV?$stream_output_adapter@D@__crt_stdio_output@@@2@@__crt_stdio_output@@ABEHHD@Z 100a6170 f i libucrtd:output.obj
 0001:000a51a0       ?type_case_s_compute_narrow_string_length@?$output_processor@DV?$string_output_adapter@D@__crt_stdio_output@@V?$format_validation_base@DV?$string_output_adapter@D@__crt_stdio_output@@@2@@__crt_stdio_output@@ABEHHD@Z 100a61a0 f i libucrtd:output.obj
 0001:000a51d0       ?type_case_s_compute_narrow_string_length@?$output_processor@DV?$string_output_adapter@D@__crt_stdio_output@@V?$positional_parameter_base@DV?$string_output_adapter@D@__crt_stdio_output@@@2@@__crt_stdio_output@@ABEHHD@Z 100a61d0 f i libucrtd:output.obj
 0001:000a5200       ?type_case_s_compute_narrow_string_length@?$output_processor@DV?$string_output_adapter@D@__crt_stdio_output@@V?$standard_base@DV?$string_output_adapter@D@__crt_stdio_output@@@2@@__crt_stdio_output@@ABEHHD@Z 100a6200 f i libucrtd:output.obj
 0001:000a5230       ?type_case_s_compute_narrow_string_length@?$output_processor@_WV?$stream_output_adapter@_W@__crt_stdio_output@@V?$format_validation_base@_WV?$stream_output_adapter@_W@__crt_stdio_output@@@2@@__crt_stdio_output@@ABEHH_W@Z 100a6230 f i libucrtd:output.obj
 0001:000a52c0       ?type_case_s_compute_narrow_string_length@?$output_processor@_WV?$stream_output_adapter@_W@__crt_stdio_output@@V?$positional_parameter_base@_WV?$stream_output_adapter@_W@__crt_stdio_output@@@2@@__crt_stdio_output@@ABEHH_W@Z 100a62c0 f i libucrtd:output.obj
 0001:000a5350       ?type_case_s_compute_narrow_string_length@?$output_processor@_WV?$stream_output_adapter@_W@__crt_stdio_output@@V?$standard_base@_WV?$stream_output_adapter@_W@__crt_stdio_output@@@2@@__crt_stdio_output@@ABEHH_W@Z 100a6350 f i libucrtd:output.obj
 0001:000a53e0       ?type_case_s_compute_narrow_string_length@?$output_processor@_WV?$string_output_adapter@_W@__crt_stdio_output@@V?$format_validation_base@_WV?$string_output_adapter@_W@__crt_stdio_output@@@2@@__crt_stdio_output@@ABEHH_W@Z 100a63e0 f i libucrtd:output.obj
 0001:000a5470       ?type_case_s_compute_narrow_string_length@?$output_processor@_WV?$string_output_adapter@_W@__crt_stdio_output@@V?$positional_parameter_base@_WV?$string_output_adapter@_W@__crt_stdio_output@@@2@@__crt_stdio_output@@ABEHH_W@Z 100a6470 f i libucrtd:output.obj
 0001:000a5500       ?type_case_s_compute_narrow_string_length@?$output_processor@_WV?$string_output_adapter@_W@__crt_stdio_output@@V?$standard_base@_WV?$string_output_adapter@_W@__crt_stdio_output@@@2@@__crt_stdio_output@@ABEHH_W@Z 100a6500 f i libucrtd:output.obj
 0001:000a5590       ?type_case_u@?$output_processor@DV?$stream_output_adapter@D@__crt_stdio_output@@V?$format_validation_base@DV?$stream_output_adapter@D@__crt_stdio_output@@@2@@__crt_stdio_output@@AAE_NXZ 100a6590 f i libucrtd:output.obj
 0001:000a55b0       ?type_case_u@?$output_processor@DV?$stream_output_adapter@D@__crt_stdio_output@@V?$positional_parameter_base@DV?$stream_output_adapter@D@__crt_stdio_output@@@2@@__crt_stdio_output@@AAE_NXZ 100a65b0 f i libucrtd:output.obj
 0001:000a55d0       ?type_case_u@?$output_processor@DV?$stream_output_adapter@D@__crt_stdio_output@@V?$standard_base@DV?$stream_output_adapter@D@__crt_stdio_output@@@2@@__crt_stdio_output@@AAE_NXZ 100a65d0 f i libucrtd:output.obj
 0001:000a55f0       ?type_case_u@?$output_processor@DV?$string_output_adapter@D@__crt_stdio_output@@V?$format_validation_base@DV?$string_output_adapter@D@__crt_stdio_output@@@2@@__crt_stdio_output@@AAE_NXZ 100a65f0 f i libucrtd:output.obj
 0001:000a5610       ?type_case_u@?$output_processor@DV?$string_output_adapter@D@__crt_stdio_output@@V?$positional_parameter_base@DV?$string_output_adapter@D@__crt_stdio_output@@@2@@__crt_stdio_output@@AAE_NXZ 100a6610 f i libucrtd:output.obj
 0001:000a5630       ?type_case_u@?$output_processor@DV?$string_output_adapter@D@__crt_stdio_output@@V?$standard_base@DV?$string_output_adapter@D@__crt_stdio_output@@@2@@__crt_stdio_output@@AAE_NXZ 100a6630 f i libucrtd:output.obj
 0001:000a5650       ?type_case_u@?$output_processor@_WV?$stream_output_adapter@_W@__crt_stdio_output@@V?$format_validation_base@_WV?$stream_output_adapter@_W@__crt_stdio_output@@@2@@__crt_stdio_output@@AAE_NXZ 100a6650 f i libucrtd:output.obj
 0001:000a5670       ?type_case_u@?$output_processor@_WV?$stream_output_adapter@_W@__crt_stdio_output@@V?$positional_parameter_base@_WV?$stream_output_adapter@_W@__crt_stdio_output@@@2@@__crt_stdio_output@@AAE_NXZ 100a6670 f i libucrtd:output.obj
 0001:000a5690       ?type_case_u@?$output_processor@_WV?$stream_output_adapter@_W@__crt_stdio_output@@V?$standard_base@_WV?$stream_output_adapter@_W@__crt_stdio_output@@@2@@__crt_stdio_output@@AAE_NXZ 100a6690 f i libucrtd:output.obj
 0001:000a56b0       ?type_case_u@?$output_processor@_WV?$string_output_adapter@_W@__crt_stdio_output@@V?$format_validation_base@_WV?$string_output_adapter@_W@__crt_stdio_output@@@2@@__crt_stdio_output@@AAE_NXZ 100a66b0 f i libucrtd:output.obj
 0001:000a56d0       ?type_case_u@?$output_processor@_WV?$string_output_adapter@_W@__crt_stdio_output@@V?$positional_parameter_base@_WV?$string_output_adapter@_W@__crt_stdio_output@@@2@@__crt_stdio_output@@AAE_NXZ 100a66d0 f i libucrtd:output.obj
 0001:000a56f0       ?type_case_u@?$output_processor@_WV?$string_output_adapter@_W@__crt_stdio_output@@V?$standard_base@_WV?$string_output_adapter@_W@__crt_stdio_output@@@2@@__crt_stdio_output@@AAE_NXZ 100a66f0 f i libucrtd:output.obj
 0001:000a5710       ?type_case_x@?$output_processor@DV?$stream_output_adapter@D@__crt_stdio_output@@V?$format_validation_base@DV?$stream_output_adapter@D@__crt_stdio_output@@@2@@__crt_stdio_output@@AAE_NXZ 100a6710 f i libucrtd:output.obj
 0001:000a5730       ?type_case_x@?$output_processor@DV?$stream_output_adapter@D@__crt_stdio_output@@V?$positional_parameter_base@DV?$stream_output_adapter@D@__crt_stdio_output@@@2@@__crt_stdio_output@@AAE_NXZ 100a6730 f i libucrtd:output.obj
 0001:000a5750       ?type_case_x@?$output_processor@DV?$stream_output_adapter@D@__crt_stdio_output@@V?$standard_base@DV?$stream_output_adapter@D@__crt_stdio_output@@@2@@__crt_stdio_output@@AAE_NXZ 100a6750 f i libucrtd:output.obj
 0001:000a5770       ?type_case_x@?$output_processor@DV?$string_output_adapter@D@__crt_stdio_output@@V?$format_validation_base@DV?$string_output_adapter@D@__crt_stdio_output@@@2@@__crt_stdio_output@@AAE_NXZ 100a6770 f i libucrtd:output.obj
 0001:000a5790       ?type_case_x@?$output_processor@DV?$string_output_adapter@D@__crt_stdio_output@@V?$positional_parameter_base@DV?$string_output_adapter@D@__crt_stdio_output@@@2@@__crt_stdio_output@@AAE_NXZ 100a6790 f i libucrtd:output.obj
 0001:000a57b0       ?type_case_x@?$output_processor@DV?$string_output_adapter@D@__crt_stdio_output@@V?$standard_base@DV?$string_output_adapter@D@__crt_stdio_output@@@2@@__crt_stdio_output@@AAE_NXZ 100a67b0 f i libucrtd:output.obj
 0001:000a57d0       ?type_case_x@?$output_processor@_WV?$stream_output_adapter@_W@__crt_stdio_output@@V?$format_validation_base@_WV?$stream_output_adapter@_W@__crt_stdio_output@@@2@@__crt_stdio_output@@AAE_NXZ 100a67d0 f i libucrtd:output.obj
 0001:000a57f0       ?type_case_x@?$output_processor@_WV?$stream_output_adapter@_W@__crt_stdio_output@@V?$positional_parameter_base@_WV?$stream_output_adapter@_W@__crt_stdio_output@@@2@@__crt_stdio_output@@AAE_NXZ 100a67f0 f i libucrtd:output.obj
 0001:000a5810       ?type_case_x@?$output_processor@_WV?$stream_output_adapter@_W@__crt_stdio_output@@V?$standard_base@_WV?$stream_output_adapter@_W@__crt_stdio_output@@@2@@__crt_stdio_output@@AAE_NXZ 100a6810 f i libucrtd:output.obj
 0001:000a5830       ?type_case_x@?$output_processor@_WV?$string_output_adapter@_W@__crt_stdio_output@@V?$format_validation_base@_WV?$string_output_adapter@_W@__crt_stdio_output@@@2@@__crt_stdio_output@@AAE_NXZ 100a6830 f i libucrtd:output.obj
 0001:000a5850       ?type_case_x@?$output_processor@_WV?$string_output_adapter@_W@__crt_stdio_output@@V?$positional_parameter_base@_WV?$string_output_adapter@_W@__crt_stdio_output@@@2@@__crt_stdio_output@@AAE_NXZ 100a6850 f i libucrtd:output.obj
 0001:000a5870       ?type_case_x@?$output_processor@_WV?$string_output_adapter@_W@__crt_stdio_output@@V?$standard_base@_WV?$string_output_adapter@_W@__crt_stdio_output@@@2@@__crt_stdio_output@@AAE_NXZ 100a6870 f i libucrtd:output.obj
 0001:000a5890       ?unset_flag@?$output_processor@DV?$stream_output_adapter@D@__crt_stdio_output@@V?$format_validation_base@DV?$stream_output_adapter@D@__crt_stdio_output@@@2@@__crt_stdio_output@@AAEXI@Z 100a6890 f i libucrtd:output.obj
 0001:000a58c0       ?unset_flag@?$output_processor@DV?$stream_output_adapter@D@__crt_stdio_output@@V?$positional_parameter_base@DV?$stream_output_adapter@D@__crt_stdio_output@@@2@@__crt_stdio_output@@AAEXI@Z 100a68c0 f i libucrtd:output.obj
 0001:000a58f0       ?unset_flag@?$output_processor@DV?$stream_output_adapter@D@__crt_stdio_output@@V?$standard_base@DV?$stream_output_adapter@D@__crt_stdio_output@@@2@@__crt_stdio_output@@AAEXI@Z 100a68f0 f i libucrtd:output.obj
 0001:000a5920       ?unset_flag@?$output_processor@DV?$string_output_adapter@D@__crt_stdio_output@@V?$format_validation_base@DV?$string_output_adapter@D@__crt_stdio_output@@@2@@__crt_stdio_output@@AAEXI@Z 100a6920 f i libucrtd:output.obj
 0001:000a5950       ?unset_flag@?$output_processor@DV?$string_output_adapter@D@__crt_stdio_output@@V?$positional_parameter_base@DV?$string_output_adapter@D@__crt_stdio_output@@@2@@__crt_stdio_output@@AAEXI@Z 100a6950 f i libucrtd:output.obj
 0001:000a5980       ?unset_flag@?$output_processor@DV?$string_output_adapter@D@__crt_stdio_output@@V?$standard_base@DV?$string_output_adapter@D@__crt_stdio_output@@@2@@__crt_stdio_output@@AAEXI@Z 100a6980 f i libucrtd:output.obj
 0001:000a59b0       ?unset_flag@?$output_processor@_WV?$stream_output_adapter@_W@__crt_stdio_output@@V?$format_validation_base@_WV?$stream_output_adapter@_W@__crt_stdio_output@@@2@@__crt_stdio_output@@AAEXI@Z 100a69b0 f i libucrtd:output.obj
 0001:000a59e0       ?unset_flag@?$output_processor@_WV?$stream_output_adapter@_W@__crt_stdio_output@@V?$positional_parameter_base@_WV?$stream_output_adapter@_W@__crt_stdio_output@@@2@@__crt_stdio_output@@AAEXI@Z 100a69e0 f i libucrtd:output.obj
 0001:000a5a10       ?unset_flag@?$output_processor@_WV?$stream_output_adapter@_W@__crt_stdio_output@@V?$standard_base@_WV?$stream_output_adapter@_W@__crt_stdio_output@@@2@@__crt_stdio_output@@AAEXI@Z 100a6a10 f i libucrtd:output.obj
 0001:000a5a40       ?unset_flag@?$output_processor@_WV?$string_output_adapter@_W@__crt_stdio_output@@V?$format_validation_base@_WV?$string_output_adapter@_W@__crt_stdio_output@@@2@@__crt_stdio_output@@AAEXI@Z 100a6a40 f i libucrtd:output.obj
 0001:000a5a70       ?unset_flag@?$output_processor@_WV?$string_output_adapter@_W@__crt_stdio_output@@V?$positional_parameter_base@_WV?$string_output_adapter@_W@__crt_stdio_output@@@2@@__crt_stdio_output@@AAEXI@Z 100a6a70 f i libucrtd:output.obj
 0001:000a5aa0       ?unset_flag@?$output_processor@_WV?$string_output_adapter@_W@__crt_stdio_output@@V?$standard_base@_WV?$string_output_adapter@_W@__crt_stdio_output@@@2@@__crt_stdio_output@@AAEXI@Z 100a6aa0 f i libucrtd:output.obj
 0001:000a5ad0       ?update_field_width@?$positional_parameter_base@DV?$stream_output_adapter@D@__crt_stdio_output@@@__crt_stdio_output@@IAE_NXZ 100a6ad0 f i libucrtd:output.obj
 0001:000a5cb0       ?update_field_width@?$positional_parameter_base@DV?$string_output_adapter@D@__crt_stdio_output@@@__crt_stdio_output@@IAE_NXZ 100a6cb0 f i libucrtd:output.obj
 0001:000a5e90       ?update_field_width@?$positional_parameter_base@_WV?$stream_output_adapter@_W@__crt_stdio_output@@@__crt_stdio_output@@IAE_NXZ 100a6e90 f i libucrtd:output.obj
 0001:000a6070       ?update_field_width@?$positional_parameter_base@_WV?$string_output_adapter@_W@__crt_stdio_output@@@__crt_stdio_output@@IAE_NXZ 100a7070 f i libucrtd:output.obj
 0001:000a6250       ?update_field_width@?$standard_base@DV?$stream_output_adapter@D@__crt_stdio_output@@@__crt_stdio_output@@IAE_NXZ 100a7250 f i libucrtd:output.obj
 0001:000a6280       ?update_field_width@?$standard_base@DV?$string_output_adapter@D@__crt_stdio_output@@@__crt_stdio_output@@IAE_NXZ 100a7280 f i libucrtd:output.obj
 0001:000a62b0       ?update_field_width@?$standard_base@_WV?$stream_output_adapter@_W@__crt_stdio_output@@@__crt_stdio_output@@IAE_NXZ 100a72b0 f i libucrtd:output.obj
 0001:000a62e0       ?update_field_width@?$standard_base@_WV?$string_output_adapter@_W@__crt_stdio_output@@@__crt_stdio_output@@IAE_NXZ 100a72e0 f i libucrtd:output.obj
 0001:000a6310       ?update_precision@?$positional_parameter_base@DV?$stream_output_adapter@D@__crt_stdio_output@@@__crt_stdio_output@@IAE_NXZ 100a7310 f i libucrtd:output.obj
 0001:000a64f0       ?update_precision@?$positional_parameter_base@DV?$string_output_adapter@D@__crt_stdio_output@@@__crt_stdio_output@@IAE_NXZ 100a74f0 f i libucrtd:output.obj
 0001:000a66d0       ?update_precision@?$positional_parameter_base@_WV?$stream_output_adapter@_W@__crt_stdio_output@@@__crt_stdio_output@@IAE_NXZ 100a76d0 f i libucrtd:output.obj
 0001:000a68b0       ?update_precision@?$positional_parameter_base@_WV?$string_output_adapter@_W@__crt_stdio_output@@@__crt_stdio_output@@IAE_NXZ 100a78b0 f i libucrtd:output.obj
 0001:000a6a90       ?update_precision@?$standard_base@DV?$stream_output_adapter@D@__crt_stdio_output@@@__crt_stdio_output@@IAE_NXZ 100a7a90 f i libucrtd:output.obj
 0001:000a6ac0       ?update_precision@?$standard_base@DV?$string_output_adapter@D@__crt_stdio_output@@@__crt_stdio_output@@IAE_NXZ 100a7ac0 f i libucrtd:output.obj
 0001:000a6af0       ?update_precision@?$standard_base@_WV?$stream_output_adapter@_W@__crt_stdio_output@@@__crt_stdio_output@@IAE_NXZ 100a7af0 f i libucrtd:output.obj
 0001:000a6b20       ?update_precision@?$standard_base@_WV?$string_output_adapter@_W@__crt_stdio_output@@@__crt_stdio_output@@IAE_NXZ 100a7b20 f i libucrtd:output.obj
 0001:000a6b50       ?valid@__crt_stdio_stream@@QBE_NXZ 100a7b50 f i libucrtd:output.obj
 0001:000a6b90       ?validate@?$stream_output_adapter@D@__crt_stdio_output@@QBE_NXZ 100a7b90 f i libucrtd:output.obj
 0001:000a6c60       ?validate@?$stream_output_adapter@_W@__crt_stdio_output@@QBE_NXZ 100a7c60 f i libucrtd:output.obj
 0001:000a6d30       ?validate@?$string_output_adapter@D@__crt_stdio_output@@QBE_NXZ 100a7d30 f i libucrtd:output.obj
 0001:000a6df0       ?validate@?$string_output_adapter@_W@__crt_stdio_output@@QBE_NXZ 100a7df0 f i libucrtd:output.obj
 0001:000a6eb0       ?validate_and_store_parameter_data@?$positional_parameter_base@DV?$stream_output_adapter@D@__crt_stdio_output@@@__crt_stdio_output@@AAE_NAAUparameter_data@12@W4parameter_type@12@DW4length_modifier@2@@Z 100a7eb0 f i libucrtd:output.obj
 0001:000a6fc0       ?validate_and_store_parameter_data@?$positional_parameter_base@DV?$string_output_adapter@D@__crt_stdio_output@@@__crt_stdio_output@@AAE_NAAUparameter_data@12@W4parameter_type@12@DW4length_modifier@2@@Z 100a7fc0 f i libucrtd:output.obj
 0001:000a70d0       ?validate_and_store_parameter_data@?$positional_parameter_base@_WV?$stream_output_adapter@_W@__crt_stdio_output@@@__crt_stdio_output@@AAE_NAAUparameter_data@12@W4parameter_type@12@_WW4length_modifier@2@@Z 100a80d0 f i libucrtd:output.obj
 0001:000a71e0       ?validate_and_store_parameter_data@?$positional_parameter_base@_WV?$string_output_adapter@_W@__crt_stdio_output@@@__crt_stdio_output@@AAE_NAAUparameter_data@12@W4parameter_type@12@_WW4length_modifier@2@@Z 100a81e0 f i libucrtd:output.obj
 0001:000a72f0       ?validate_and_update_state_at_beginning_of_format_character@?$positional_parameter_base@DV?$stream_output_adapter@D@__crt_stdio_output@@@__crt_stdio_output@@IAE_NXZ 100a82f0 f i libucrtd:output.obj
 0001:000a75a0       ?validate_and_update_state_at_beginning_of_format_character@?$positional_parameter_base@DV?$string_output_adapter@D@__crt_stdio_output@@@__crt_stdio_output@@IAE_NXZ 100a85a0 f i libucrtd:output.obj
 0001:000a7850       ?validate_and_update_state_at_beginning_of_format_character@?$positional_parameter_base@_WV?$stream_output_adapter@_W@__crt_stdio_output@@@__crt_stdio_output@@IAE_NXZ 100a8850 f i libucrtd:output.obj
 0001:000a7b00       ?validate_and_update_state_at_beginning_of_format_character@?$positional_parameter_base@_WV?$string_output_adapter@_W@__crt_stdio_output@@@__crt_stdio_output@@IAE_NXZ 100a8b00 f i libucrtd:output.obj
 0001:000a7db0       ?validate_and_update_state_at_beginning_of_format_character@?$standard_base@DV?$stream_output_adapter@D@__crt_stdio_output@@@__crt_stdio_output@@IAE_NXZ 100a8db0 f i libucrtd:output.obj
 0001:000a7dd0       ?validate_and_update_state_at_beginning_of_format_character@?$standard_base@DV?$string_output_adapter@D@__crt_stdio_output@@@__crt_stdio_output@@IAE_NXZ 100a8dd0 f i libucrtd:output.obj
 0001:000a7df0       ?validate_and_update_state_at_beginning_of_format_character@?$standard_base@_WV?$stream_output_adapter@_W@__crt_stdio_output@@@__crt_stdio_output@@IAE_NXZ 100a8df0 f i libucrtd:output.obj
 0001:000a7e10       ?validate_and_update_state_at_beginning_of_format_character@?$standard_base@_WV?$string_output_adapter@_W@__crt_stdio_output@@@__crt_stdio_output@@IAE_NXZ 100a8e10 f i libucrtd:output.obj
 0001:000a7e30       ?validate_and_update_state_at_end_of_format_string@?$format_validation_base@DV?$stream_output_adapter@D@__crt_stdio_output@@@__crt_stdio_output@@IBE_NXZ 100a8e30 f i libucrtd:output.obj
 0001:000a7ef0       ?validate_and_update_state_at_end_of_format_string@?$format_validation_base@DV?$string_output_adapter@D@__crt_stdio_output@@@__crt_stdio_output@@IBE_NXZ 100a8ef0 f i libucrtd:output.obj
 0001:000a7fb0       ?validate_and_update_state_at_end_of_format_string@?$format_validation_base@_WV?$stream_output_adapter@_W@__crt_stdio_output@@@__crt_stdio_output@@IBE_NXZ 100a8fb0 f i libucrtd:output.obj
 0001:000a8070       ?validate_and_update_state_at_end_of_format_string@?$format_validation_base@_WV?$string_output_adapter@_W@__crt_stdio_output@@@__crt_stdio_output@@IBE_NXZ 100a9070 f i libucrtd:output.obj
 0001:000a8130       ?validate_and_update_state_at_end_of_format_string@?$positional_parameter_base@DV?$stream_output_adapter@D@__crt_stdio_output@@@__crt_stdio_output@@IAE_NXZ 100a9130 f i libucrtd:output.obj
 0001:000a8330       ?validate_and_update_state_at_end_of_format_string@?$positional_parameter_base@DV?$string_output_adapter@D@__crt_stdio_output@@@__crt_stdio_output@@IAE_NXZ 100a9330 f i libucrtd:output.obj
 0001:000a8530       ?validate_and_update_state_at_end_of_format_string@?$positional_parameter_base@_WV?$stream_output_adapter@_W@__crt_stdio_output@@@__crt_stdio_output@@IAE_NXZ 100a9530 f i libucrtd:output.obj
 0001:000a8730       ?validate_and_update_state_at_end_of_format_string@?$positional_parameter_base@_WV?$string_output_adapter@_W@__crt_stdio_output@@@__crt_stdio_output@@IAE_NXZ 100a9730 f i libucrtd:output.obj
 0001:000a8930       ?validate_and_update_state_at_end_of_format_string@?$standard_base@DV?$stream_output_adapter@D@__crt_stdio_output@@@__crt_stdio_output@@IBE_NXZ 100a9930 f i libucrtd:output.obj
 0001:000a8950       ?validate_and_update_state_at_end_of_format_string@?$standard_base@DV?$string_output_adapter@D@__crt_stdio_output@@@__crt_stdio_output@@IBE_NXZ 100a9950 f i libucrtd:output.obj
 0001:000a8970       ?validate_and_update_state_at_end_of_format_string@?$standard_base@_WV?$stream_output_adapter@_W@__crt_stdio_output@@@__crt_stdio_output@@IBE_NXZ 100a9970 f i libucrtd:output.obj
 0001:000a8990       ?validate_and_update_state_at_end_of_format_string@?$standard_base@_WV?$string_output_adapter@_W@__crt_stdio_output@@@__crt_stdio_output@@IBE_NXZ 100a9990 f i libucrtd:output.obj
 0001:000a89b0       ?validate_state_for_type_case_a@?$positional_parameter_base@DV?$stream_output_adapter@D@__crt_stdio_output@@@__crt_stdio_output@@IAE_NXZ 100a99b0 f i libucrtd:output.obj
 0001:000a8ae0       ?validate_state_for_type_case_a@?$positional_parameter_base@DV?$string_output_adapter@D@__crt_stdio_output@@@__crt_stdio_output@@IAE_NXZ 100a9ae0 f i libucrtd:output.obj
 0001:000a8c10       ?validate_state_for_type_case_a@?$positional_parameter_base@_WV?$stream_output_adapter@_W@__crt_stdio_output@@@__crt_stdio_output@@IAE_NXZ 100a9c10 f i libucrtd:output.obj
 0001:000a8d40       ?validate_state_for_type_case_a@?$positional_parameter_base@_WV?$string_output_adapter@_W@__crt_stdio_output@@@__crt_stdio_output@@IAE_NXZ 100a9d40 f i libucrtd:output.obj
 0001:000a8e70       ?validate_state_for_type_case_a@?$standard_base@DV?$stream_output_adapter@D@__crt_stdio_output@@@__crt_stdio_output@@IBE_NXZ 100a9e70 f i libucrtd:output.obj
 0001:000a8e90       ?validate_state_for_type_case_a@?$standard_base@DV?$string_output_adapter@D@__crt_stdio_output@@@__crt_stdio_output@@IBE_NXZ 100a9e90 f i libucrtd:output.obj
 0001:000a8eb0       ?validate_state_for_type_case_a@?$standard_base@_WV?$stream_output_adapter@_W@__crt_stdio_output@@@__crt_stdio_output@@IBE_NXZ 100a9eb0 f i libucrtd:output.obj
 0001:000a8ed0       ?validate_state_for_type_case_a@?$standard_base@_WV?$string_output_adapter@_W@__crt_stdio_output@@@__crt_stdio_output@@IBE_NXZ 100a9ed0 f i libucrtd:output.obj
 0001:000a8ef0       ?validate_stream_is_ansi_if_required@?$__acrt_stdio_char_traits@D@@SA_NQAU_iobuf@@@Z 100a9ef0 f i libucrtd:output.obj
 0001:000a9070       ?validate_stream_is_ansi_if_required@?$__acrt_stdio_char_traits@_W@@SA_NQAU_iobuf@@@Z 100aa070 f i libucrtd:output.obj
 0001:000a9080       ?wide_null_string@?$output_processor@DV?$stream_output_adapter@D@__crt_stdio_output@@V?$format_validation_base@DV?$stream_output_adapter@D@__crt_stdio_output@@@2@@__crt_stdio_output@@CAPA_WXZ 100aa080 f i libucrtd:output.obj
 0001:000a9090       ?wide_null_string@?$output_processor@DV?$stream_output_adapter@D@__crt_stdio_output@@V?$positional_parameter_base@DV?$stream_output_adapter@D@__crt_stdio_output@@@2@@__crt_stdio_output@@CAPA_WXZ 100aa090 f i libucrtd:output.obj
 0001:000a90a0       ?wide_null_string@?$output_processor@DV?$stream_output_adapter@D@__crt_stdio_output@@V?$standard_base@DV?$stream_output_adapter@D@__crt_stdio_output@@@2@@__crt_stdio_output@@CAPA_WXZ 100aa0a0 f i libucrtd:output.obj
 0001:000a90b0       ?wide_null_string@?$output_processor@DV?$string_output_adapter@D@__crt_stdio_output@@V?$format_validation_base@DV?$string_output_adapter@D@__crt_stdio_output@@@2@@__crt_stdio_output@@CAPA_WXZ 100aa0b0 f i libucrtd:output.obj
 0001:000a90c0       ?wide_null_string@?$output_processor@DV?$string_output_adapter@D@__crt_stdio_output@@V?$positional_parameter_base@DV?$string_output_adapter@D@__crt_stdio_output@@@2@@__crt_stdio_output@@CAPA_WXZ 100aa0c0 f i libucrtd:output.obj
 0001:000a90d0       ?wide_null_string@?$output_processor@DV?$string_output_adapter@D@__crt_stdio_output@@V?$standard_base@DV?$string_output_adapter@D@__crt_stdio_output@@@2@@__crt_stdio_output@@CAPA_WXZ 100aa0d0 f i libucrtd:output.obj
 0001:000a90e0       ?wide_null_string@?$output_processor@_WV?$stream_output_adapter@_W@__crt_stdio_output@@V?$format_validation_base@_WV?$stream_output_adapter@_W@__crt_stdio_output@@@2@@__crt_stdio_output@@CAPA_WXZ 100aa0e0 f i libucrtd:output.obj
 0001:000a90f0       ?wide_null_string@?$output_processor@_WV?$stream_output_adapter@_W@__crt_stdio_output@@V?$positional_parameter_base@_WV?$stream_output_adapter@_W@__crt_stdio_output@@@2@@__crt_stdio_output@@CAPA_WXZ 100aa0f0 f i libucrtd:output.obj
 0001:000a9100       ?wide_null_string@?$output_processor@_WV?$stream_output_adapter@_W@__crt_stdio_output@@V?$standard_base@_WV?$stream_output_adapter@_W@__crt_stdio_output@@@2@@__crt_stdio_output@@CAPA_WXZ 100aa100 f i libucrtd:output.obj
 0001:000a9110       ?wide_null_string@?$output_processor@_WV?$string_output_adapter@_W@__crt_stdio_output@@V?$format_validation_base@_WV?$string_output_adapter@_W@__crt_stdio_output@@@2@@__crt_stdio_output@@CAPA_WXZ 100aa110 f i libucrtd:output.obj
 0001:000a9120       ?wide_null_string@?$output_processor@_WV?$string_output_adapter@_W@__crt_stdio_output@@V?$positional_parameter_base@_WV?$string_output_adapter@_W@__crt_stdio_output@@@2@@__crt_stdio_output@@CAPA_WXZ 100aa120 f i libucrtd:output.obj
 0001:000a9130       ?wide_null_string@?$output_processor@_WV?$string_output_adapter@_W@__crt_stdio_output@@V?$standard_base@_WV?$string_output_adapter@_W@__crt_stdio_output@@@2@@__crt_stdio_output@@CAPA_WXZ 100aa130 f i libucrtd:output.obj
 0001:000a9140       ?write_character@?$output_adapter_common@DV?$stream_output_adapter@D@__crt_stdio_output@@@__crt_stdio_output@@QBEXDQAH@Z 100aa140 f i libucrtd:output.obj
 0001:000a9190       ?write_character@?$output_adapter_common@_WV?$stream_output_adapter@_W@__crt_stdio_output@@@__crt_stdio_output@@QBEX_WQAH@Z 100aa190 f i libucrtd:output.obj
 0001:000a91e0       ?write_character@?$string_output_adapter@D@__crt_stdio_output@@QBE_NDQAH@Z 100aa1e0 f i libucrtd:output.obj
 0001:000a92a0       ?write_character@?$string_output_adapter@_W@__crt_stdio_output@@QBE_N_WQAH@Z 100aa2a0 f i libucrtd:output.obj
 0001:000a9360       ?write_character_without_count_update@?$stream_output_adapter@D@__crt_stdio_output@@QBE_ND@Z 100aa360 f i libucrtd:output.obj
 0001:000a93e0       ?write_character_without_count_update@?$stream_output_adapter@_W@__crt_stdio_output@@QBE_N_W@Z 100aa3e0 f i libucrtd:output.obj
 0001:000a9470       ?write_stored_string_tchar@?$output_processor@DV?$stream_output_adapter@D@__crt_stdio_output@@V?$format_validation_base@DV?$stream_output_adapter@D@__crt_stdio_output@@@2@@__crt_stdio_output@@AAE_ND@Z 100aa470 f i libucrtd:output.obj
 0001:000a95d0       ?write_stored_string_tchar@?$output_processor@DV?$stream_output_adapter@D@__crt_stdio_output@@V?$positional_parameter_base@DV?$stream_output_adapter@D@__crt_stdio_output@@@2@@__crt_stdio_output@@AAE_ND@Z 100aa5d0 f i libucrtd:output.obj
 0001:000a9730       ?write_stored_string_tchar@?$output_processor@DV?$stream_output_adapter@D@__crt_stdio_output@@V?$standard_base@DV?$stream_output_adapter@D@__crt_stdio_output@@@2@@__crt_stdio_output@@AAE_ND@Z 100aa730 f i libucrtd:output.obj
 0001:000a9890       ?write_stored_string_tchar@?$output_processor@DV?$string_output_adapter@D@__crt_stdio_output@@V?$format_validation_base@DV?$string_output_adapter@D@__crt_stdio_output@@@2@@__crt_stdio_output@@AAE_ND@Z 100aa890 f i libucrtd:output.obj
 0001:000a99f0       ?write_stored_string_tchar@?$output_processor@DV?$string_output_adapter@D@__crt_stdio_output@@V?$positional_parameter_base@DV?$string_output_adapter@D@__crt_stdio_output@@@2@@__crt_stdio_output@@AAE_ND@Z 100aa9f0 f i libucrtd:output.obj
 0001:000a9b50       ?write_stored_string_tchar@?$output_processor@DV?$string_output_adapter@D@__crt_stdio_output@@V?$standard_base@DV?$string_output_adapter@D@__crt_stdio_output@@@2@@__crt_stdio_output@@AAE_ND@Z 100aab50 f i libucrtd:output.obj
 0001:000a9cb0       ?write_stored_string_tchar@?$output_processor@_WV?$stream_output_adapter@_W@__crt_stdio_output@@V?$format_validation_base@_WV?$stream_output_adapter@_W@__crt_stdio_output@@@2@@__crt_stdio_output@@AAE_N_W@Z 100aacb0 f i libucrtd:output.obj
 0001:000a9dd0       ?write_stored_string_tchar@?$output_processor@_WV?$stream_output_adapter@_W@__crt_stdio_output@@V?$positional_parameter_base@_WV?$stream_output_adapter@_W@__crt_stdio_output@@@2@@__crt_stdio_output@@AAE_N_W@Z 100aadd0 f i libucrtd:output.obj
 0001:000a9ef0       ?write_stored_string_tchar@?$output_processor@_WV?$stream_output_adapter@_W@__crt_stdio_output@@V?$standard_base@_WV?$stream_output_adapter@_W@__crt_stdio_output@@@2@@__crt_stdio_output@@AAE_N_W@Z 100aaef0 f i libucrtd:output.obj
 0001:000aa010       ?write_stored_string_tchar@?$output_processor@_WV?$string_output_adapter@_W@__crt_stdio_output@@V?$format_validation_base@_WV?$string_output_adapter@_W@__crt_stdio_output@@@2@@__crt_stdio_output@@AAE_N_W@Z 100ab010 f i libucrtd:output.obj
 0001:000aa130       ?write_stored_string_tchar@?$output_processor@_WV?$string_output_adapter@_W@__crt_stdio_output@@V?$positional_parameter_base@_WV?$string_output_adapter@_W@__crt_stdio_output@@@2@@__crt_stdio_output@@AAE_N_W@Z 100ab130 f i libucrtd:output.obj
 0001:000aa250       ?write_stored_string_tchar@?$output_processor@_WV?$string_output_adapter@_W@__crt_stdio_output@@V?$standard_base@_WV?$string_output_adapter@_W@__crt_stdio_output@@@2@@__crt_stdio_output@@AAE_N_W@Z 100ab250 f i libucrtd:output.obj
 0001:000aa370       ?write_string@?$stream_output_adapter@D@__crt_stdio_output@@QBEXQBDHQAHAAV__crt_deferred_errno_cache@@@Z 100ab370 f i libucrtd:output.obj
 0001:000aa3e0       ?write_string@?$stream_output_adapter@_W@__crt_stdio_output@@QBEXQB_WHQAHAAV__crt_deferred_errno_cache@@@Z 100ab3e0 f i libucrtd:output.obj
 0001:000aa450       ?write_string@?$string_output_adapter@D@__crt_stdio_output@@QBEXQBDHQAHAAV__crt_deferred_errno_cache@@@Z 100ab450 f i libucrtd:output.obj
 0001:000aa590       ?write_string@?$string_output_adapter@_W@__crt_stdio_output@@QBEXQB_WHQAHAAV__crt_deferred_errno_cache@@@Z 100ab590 f i libucrtd:output.obj
 0001:000aa6e0       ?write_string_impl@?$output_adapter_common@DV?$stream_output_adapter@D@__crt_stdio_output@@@__crt_stdio_output@@IBEXQBDHQAHAAV__crt_deferred_errno_cache@@@Z 100ab6e0 f i libucrtd:output.obj
 0001:000aa7a0       ?write_string_impl@?$output_adapter_common@_WV?$stream_output_adapter@_W@__crt_stdio_output@@@__crt_stdio_output@@IBEXQB_WHQAHAAV__crt_deferred_errno_cache@@@Z 100ab7a0 f i libucrtd:output.obj
 0001:000aa870       ___acrt_isleadbyte_l_noupdate 100ab870 f i libucrtd:output.obj
 0001:000aa8a0       ___acrt_locale_get_ctype_array_value 100ab8a0 f i libucrtd:output.obj
 0001:000aa8d0       ___stdio_common_vfprintf   100ab8d0 f   libucrtd:output.obj
 0001:000aa900       ___stdio_common_vfprintf_p 100ab900 f   libucrtd:output.obj
 0001:000aa930       ___stdio_common_vfprintf_s 100ab930 f   libucrtd:output.obj
 0001:000aa960       ___stdio_common_vfwprintf  100ab960 f   libucrtd:output.obj
 0001:000aa990       ___stdio_common_vfwprintf_p 100ab990 f   libucrtd:output.obj
 0001:000aa9c0       ___stdio_common_vfwprintf_s 100ab9c0 f   libucrtd:output.obj
 0001:000aa9f0       ___stdio_common_vsnprintf_s 100ab9f0 f   libucrtd:output.obj
 0001:000aaa30       ___stdio_common_vsnwprintf_s 100aba30 f   libucrtd:output.obj
 0001:000aaa70       ___stdio_common_vsprintf   100aba70 f   libucrtd:output.obj
 0001:000aaab0       ___stdio_common_vsprintf_p 100abab0 f   libucrtd:output.obj
 0001:000aaaf0       ___stdio_common_vsprintf_s 100abaf0 f   libucrtd:output.obj
 0001:000aab30       ___stdio_common_vswprintf  100abb30 f   libucrtd:output.obj
 0001:000aab70       ___stdio_common_vswprintf_p 100abb70 f   libucrtd:output.obj
 0001:000aabb0       ___stdio_common_vswprintf_s 100abbb0 f   libucrtd:output.obj
 0001:000aabf0       __ctype_fast_check_internal 100abbf0 f i libucrtd:output.obj
 0001:000aac10       __isdigit_fast_internal    100abc10 f i libucrtd:output.obj
 0001:000aac30       __tolower_fast_internal    100abc30 f i libucrtd:output.obj
 0001:000ab7d0       __makepath                 100ac7d0 f   libucrtd:makepath.obj
 0001:000ab800       __makepath_s               100ac800 f   libucrtd:makepath.obj
 0001:000ab830       __wmakepath                100ac830 f   libucrtd:makepath.obj
 0001:000ab860       __wmakepath_s              100ac860 f   libucrtd:makepath.obj
 0001:000ad810       ??$tcsncpy_s@AAPADIAAPBDABI@?$__crt_char_traits@D@@SAHAAPAD$$QAIAAPBDABI@Z 100ae810 f i libucrtd:splitpath.obj
 0001:000ad840       ??$tcsncpy_s@AAPADIAAPBDH@?$__crt_char_traits@D@@SAHAAPAD$$QAIAAPBD$$QAH@Z 100ae840 f i libucrtd:splitpath.obj
 0001:000ad870       ??$tcsncpy_s@AAPA_WIAAPB_WABI@?$__crt_char_traits@_W@@SAHAAPA_W$$QAIAAPB_WABI@Z 100ae870 f i libucrtd:splitpath.obj
 0001:000ad8a0       ??$tcsncpy_s@AAPA_WIAAPB_WH@?$__crt_char_traits@_W@@SAHAAPA_W$$QAIAAPB_W$$QAH@Z 100ae8a0 f i libucrtd:splitpath.obj
 0001:000adb40       __splitpath                100aeb40 f   libucrtd:splitpath.obj
 0001:000adb70       __splitpath_s              100aeb70 f   libucrtd:splitpath.obj
 0001:000adbd0       __wsplitpath               100aebd0 f   libucrtd:splitpath.obj
 0001:000adc00       __wsplitpath_s             100aec00 f   libucrtd:splitpath.obj
 0001:000ae040       _wcscpy_s                  100af040 f   libucrtd:wcscpy_s.obj
 0001:000ae070       __set_abort_behavior       100af070 f   libucrtd:abort.obj
 0001:000ae0b0       _abort                     100af0b0 f   libucrtd:abort.obj
 0001:000ae140       _strcmp                    100af140 f   libucrtd:strcmp.obj
 0001:000ae1f0       _strlen                    100af1f0 f   libucrtd:strlen.obj
 0001:000ae2a0       ??$is_overflow_condition@K@__crt_strtox@@YA_NIK@Z 100af2a0 f i libucrtd:atox.obj
 0001:000ae310       ??$is_overflow_condition@_K@__crt_strtox@@YA_NI_K@Z 100af310 f i libucrtd:atox.obj
 0001:000ae3c0       ??$make_c_string_character_source@D$$T@__crt_strtox@@YA?AV?$c_string_character_source@D@0@QBD$$T@Z 100af3c0 f i libucrtd:atox.obj
 0001:000ae3e0       ??$make_c_string_character_source@_W$$T@__crt_strtox@@YA?AV?$c_string_character_source@_W@0@QB_W$$T@Z 100af3e0 f i libucrtd:atox.obj
 0001:000ae400       ??$parse_integer@KV?$c_string_character_source@D@__crt_strtox@@@__crt_strtox@@YAKQAU__crt_locale_pointers@@V?$c_string_character_source@D@0@H_N@Z 100af400 f i libucrtd:atox.obj
 0001:000ae850       ??$parse_integer@KV?$c_string_character_source@_W@__crt_strtox@@@__crt_strtox@@YAKQAU__crt_locale_pointers@@V?$c_string_character_source@_W@0@H_N@Z 100af850 f i libucrtd:atox.obj
 0001:000aeca0       ??$parse_integer@_KV?$c_string_character_source@D@__crt_strtox@@@__crt_strtox@@YA_KQAU__crt_locale_pointers@@V?$c_string_character_source@D@0@H_N@Z 100afca0 f i libucrtd:atox.obj
 0001:000af1c0       ??$parse_integer@_KV?$c_string_character_source@_W@__crt_strtox@@@__crt_strtox@@YA_KQAU__crt_locale_pointers@@V?$c_string_character_source@_W@0@H_N@Z 100b01c0 f i libucrtd:atox.obj
 0001:000af700       ??$parse_integer_from_string@JD$$T@__crt_strtox@@YAJQBD$$THQAU__crt_locale_pointers@@@Z 100b0700 f i libucrtd:atox.obj
 0001:000af750       ??$parse_integer_from_string@J_W$$T@__crt_strtox@@YAJQB_W$$THQAU__crt_locale_pointers@@@Z 100b0750 f i libucrtd:atox.obj
 0001:000af7a0       ??$parse_integer_from_string@_JD$$T@__crt_strtox@@YA_JQBD$$THQAU__crt_locale_pointers@@@Z 100b07a0 f i libucrtd:atox.obj
 0001:000af7f0       ??$parse_integer_from_string@_J_W$$T@__crt_strtox@@YA_JQB_W$$THQAU__crt_locale_pointers@@@Z 100b07f0 f i libucrtd:atox.obj
 0001:000af840       ??0?$c_string_character_source@D@__crt_strtox@@QAE@QBDQAPBD@Z 100b0840 f i libucrtd:atox.obj
 0001:000af880       ??0?$c_string_character_source@_W@__crt_strtox@@QAE@QB_WQAPB_W@Z 100b0880 f i libucrtd:atox.obj
 0001:000af8c0       ??1?$c_string_character_source@D@__crt_strtox@@QAE@XZ 100b08c0 f i libucrtd:atox.obj
 0001:000af8f0       ??1?$c_string_character_source@_W@__crt_strtox@@QAE@XZ 100b08f0 f i libucrtd:atox.obj
 0001:000af920       ?get@?$c_string_character_source@D@__crt_strtox@@QAEDXZ 100b0920 f i libucrtd:atox.obj
 0001:000af960       ?get@?$c_string_character_source@_W@__crt_strtox@@QAE_WXZ 100b0960 f i libucrtd:atox.obj
 0001:000af9a0       ?is_space@__crt_strtox@@YA_NDQAU__crt_locale_pointers@@@Z 100b09a0 f i libucrtd:atox.obj
 0001:000af9f0       ?is_space@__crt_strtox@@YA_N_WPAU__crt_locale_pointers@@@Z 100b09f0 f i libucrtd:atox.obj
 0001:000afa30       ?maximum_signed_value@__crt_strtox@@YAJK@Z 100b0a30 f i libucrtd:atox.obj
 0001:000afa40       ?maximum_signed_value@__crt_strtox@@YA_J_K@Z 100b0a40 f i libucrtd:atox.obj
 0001:000afa60       ?minimum_signed_value@__crt_strtox@@YAJK@Z 100b0a60 f i libucrtd:atox.obj
 0001:000afa70       ?minimum_signed_value@__crt_strtox@@YA_J_K@Z 100b0a70 f i libucrtd:atox.obj
 0001:000afa90       ?parse_digit@__crt_strtox@@YAID@Z 100b0a90 f i libucrtd:atox.obj
 0001:000afb10       ?parse_digit@__crt_strtox@@YAI_W@Z 100b0b10 f i libucrtd:atox.obj
 0001:000afb70       ?restore_state@?$c_string_character_source@D@__crt_strtox@@QAE_NQBD@Z 100b0b70 f i libucrtd:atox.obj
 0001:000afb90       ?restore_state@?$c_string_character_source@_W@__crt_strtox@@QAE_NQB_W@Z 100b0b90 f i libucrtd:atox.obj
 0001:000afbb0       ?save_state@?$c_string_character_source@D@__crt_strtox@@QBEPBDXZ 100b0bb0 f i libucrtd:atox.obj
 0001:000afbd0       ?save_state@?$c_string_character_source@_W@__crt_strtox@@QBEPB_WXZ 100b0bd0 f i libucrtd:atox.obj
 0001:000afbf0       ?unget@?$c_string_character_source@D@__crt_strtox@@QAEXD@Z 100b0bf0 f i libucrtd:atox.obj
 0001:000afcc0       ?unget@?$c_string_character_source@_W@__crt_strtox@@QAEX_W@Z 100b0cc0 f i libucrtd:atox.obj
 0001:000afd90       ?validate@?$c_string_character_source@D@__crt_strtox@@QBE_NXZ 100b0d90 f i libucrtd:atox.obj
 0001:000afe50       ?validate@?$c_string_character_source@_W@__crt_strtox@@QBE_NXZ 100b0e50 f i libucrtd:atox.obj
 0001:000aff10       ?wide_character_to_digit@__crt_strtox@@YAH_W@Z 100b0f10 f i libucrtd:atox.obj
 0001:000b0300       ___ascii_iswalpha          100b1300 f i libucrtd:atox.obj
 0001:000b0350       ___ascii_toupper           100b1350 f i libucrtd:atox.obj
 0001:000b0380       ___ascii_towupper          100b1380 f i libucrtd:atox.obj
 0001:000b03a0       __atoi64                   100b13a0 f   libucrtd:atox.obj
 0001:000b03c0       __atoi64_l                 100b13c0 f   libucrtd:atox.obj
 0001:000b03f0       __atoi_l                   100b13f0 f   libucrtd:atox.obj
 0001:000b0420       __atol_l                   100b1420 f   libucrtd:atox.obj
 0001:000b0450       __atoll_l                  100b1450 f   libucrtd:atox.obj
 0001:000b0480       __wtoi                     100b1480 f   libucrtd:atox.obj
 0001:000b04a0       __wtoi64                   100b14a0 f   libucrtd:atox.obj
 0001:000b04c0       __wtoi64_l                 100b14c0 f   libucrtd:atox.obj
 0001:000b04f0       __wtoi_l                   100b14f0 f   libucrtd:atox.obj
 0001:000b0520       __wtol                     100b1520 f   libucrtd:atox.obj
 0001:000b0540       __wtol_l                   100b1540 f   libucrtd:atox.obj
 0001:000b0570       __wtoll                    100b1570 f   libucrtd:atox.obj
 0001:000b0590       __wtoll_l                  100b1590 f   libucrtd:atox.obj
 0001:000b05c0       _atoi                      100b15c0 f   libucrtd:atox.obj
 0001:000b05e0       _atol                      100b15e0 f   libucrtd:atox.obj
 0001:000b0600       _atoll                     100b1600 f   libucrtd:atox.obj
 0001:000b0620       _strncmp                   100b1620 f   libucrtd:strncmp.obj
 0001:000b06c0       _wcsncmp                   100b16c0 f   libucrtd:wcsncmp.obj
 0001:000b0730       _free                      100b1730 f   libucrtd:free.obj
 0001:000b0760       _malloc                    100b1760 f   libucrtd:malloc.obj
 0001:000b0780       __add_exp                  100b1780 f   libucrtd:util.obj
 0001:000b07c0       __decomp                   100b17c0 f   libucrtd:util.obj
 0001:000b0930       __get_exp                  100b1930 f   libucrtd:util.obj
 0001:000b0970       __set_bexp                 100b1970 f   libucrtd:util.obj
 0001:000b09b0       __set_exp                  100b19b0 f   libucrtd:util.obj
 0001:000b0a00       __sptype                   100b1a00 f   libucrtd:util.obj
 0001:000b0aa0       ___clrfp_sse2              100b1aa0 f   libucrtd:fpctrl.obj
 0001:000b0af0       ___ctrlfp_sse2             100b1af0 f   libucrtd:fpctrl.obj
 0001:000b0b60       ___fclrf_sse2              100b1b60 f   libucrtd:fpctrl.obj
 0001:000b0b90       ___get_fpsr_sse2           100b1b90 f   libucrtd:fpctrl.obj
 0001:000b0bc0       ___set_fpsr_sse2           100b1bc0 f   libucrtd:fpctrl.obj
 0001:000b0cd0       ___set_statfp_sse2         100b1cd0 f   libucrtd:fpctrl.obj
 0001:000b0d10       ___statfp_sse2             100b1d10 f   libucrtd:fpctrl.obj
 0001:000b0d50       __clrfp                    100b1d50 f   libucrtd:fpctrl.obj
 0001:000b0d70       __ctrlfp                   100b1d70 f   libucrtd:fpctrl.obj
 0001:000b0db0       __set_statfp               100b1db0 f   libucrtd:fpctrl.obj
 0001:000b0e30       __statfp                   100b1e30 f   libucrtd:fpctrl.obj
 0001:000b0e50       _ldexp                     100b1e50 f   libucrtd:ldexp.obj
 0001:000b1200       _nextafter                 100b2200 f   libucrtd:nextafter.obj
 0001:000b1230       ___acrt_initialize_sse2    100b2230 f   libucrtd:mathfcns.obj
 0001:000b1250       __set_SSE2_enable          100b2250 f   libucrtd:mathfcns.obj
 0001:000b12b0       __CIpow                    100b22b0 f   libucrtd:pow_impl.obj
 0001:000b12eb       __CIpow_default            100b22eb f   libucrtd:pow_impl.obj
 0001:000b1304       __pow_default              100b2304     libucrtd:pow_impl.obj
 0001:000b1590       __CIpow_pentium4           100b2590 f   libucrtd:pow_pentium4.obj
 0001:000b15a9       __pow_pentium4             100b25a9     libucrtd:pow_pentium4.obj
 0001:000b2380       __twoToTOS                 100b3380 f   libucrtd:common.obj
 0001:000b2395       __load_CW                  100b3395 f   libucrtd:common.obj
 0001:000b23ac       __convertTOStoQNaN         100b33ac f   libucrtd:common.obj
 0001:000b23c5       __fload_withFB             100b33c5 f   libucrtd:common.obj
 0001:000b2408       __checkTOS_withFB          100b3408 f   libucrtd:common.obj
 0001:000b241e       __fast_exit                100b341e f   libucrtd:common.obj
 0001:000b242b       __math_exit                100b342b f   libucrtd:common.obj
 0001:000b2455       __check_overflow_exit      100b3455 f   libucrtd:common.obj
 0001:000b2469       __check_range_exit         100b3469 f   libucrtd:common.obj
 0001:000b2570       __CIsqrt                   100b3570 f   libucrtd:sqrt_impl.obj
 0001:000b2584       __sqrt_common              100b3584     libucrtd:sqrt_impl.obj
 0001:000b2650       __CIcos                    100b3650 f   libucrtd:cos_impl.obj
 0001:000b268b       __CIcos_default            100b368b f   libucrtd:cos_impl.obj
 0001:000b269f       __cos_default              100b369f     libucrtd:cos_impl.obj
 0001:000b2770       __CIcos_pentium4           100b3770 f   libucrtd:cos_pentium4.obj
 0001:000b2788       __cos_pentium4             100b3788     libucrtd:cos_pentium4.obj
 0001:000b2990       __CIsin                    100b3990 f   libucrtd:sin_impl.obj
 0001:000b29cb       __CIsin_default            100b39cb f   libucrtd:sin_impl.obj
 0001:000b29df       __sin_default              100b39df     libucrtd:sin_impl.obj
 0001:000b2ab0       __CIsin_pentium4           100b3ab0 f   libucrtd:sin_pentium4.obj
 0001:000b2ac8       __sin_pentium4             100b3ac8     libucrtd:sin_pentium4.obj
 0001:000b2d10       __fFATN2                   100b3d10 f   libucrtd:87triga.obj
 0001:000b2d60       __rtpiby2                  100b3d60     libucrtd:87triga.obj
 0001:000b2d70       __rtforatn20               100b3d70 f   libucrtd:87triga.obj
 0001:000b2da0       __rtforatnby0              100b3da0 f   libucrtd:87triga.obj
 0001:000b2de0       __cintrindisp2             100b3de0 f   libucrtd:87cdisp.obj
 0001:000b2e30       __cintrindisp1             100b3e30 f   libucrtd:87cdisp.obj
 0001:000b2e79       __ctrandisp2               100b3e79 f   libucrtd:87cdisp.obj
 0001:000b3008       __ctrandisp1               100b4008 f   libucrtd:87cdisp.obj
 0001:000b303b       __fload                    100b403b f   libucrtd:87cdisp.obj
 0001:000b3120       ___libm_error_support      100b4120 f   libucrtd:libm_error.obj
 0001:000b3850       ___libm_setusermatherr     100b4850 f   libucrtd:libm_error.obj
 0001:000b3890       __floor_default            100b4890 f   libucrtd:floor.obj
 0001:000b39f0       ??$__crt_fast_decode_pointer@P6AXPB_W00II@Z@@YAP6AXPB_W00II@ZQ6AX000II@Z@Z 100b49f0 f i libucrtd:invalid_parameter.obj
 0001:000b3a30       ??$__crt_fast_encode_pointer@P6AXPB_W00II@Z@@YAP6AXPB_W00II@ZQ6AX000II@Z@Z 100b4a30 f i libucrtd:invalid_parameter.obj
 0001:000b3a70       ??$initialize_from_array@$$BY00Q6AXPB_W00II@Z@?$dual_state_global@P6AXPB_W00II@Z@__crt_state_management@@QAAXAAY00Q6AXPB_W00II@Z@Z 100b4a70 f i libucrtd:invalid_parameter.obj
 0001:000b3ad0       ?dangerous_get_state_array@?$dual_state_global@P6AXPB_W00II@Z@__crt_state_management@@QAEPAP6AXPB_W00II@ZXZ 100b4ad0 f i libucrtd:invalid_parameter.obj
 0001:000b3af0       ?value@?$dual_state_global@P6AXPB_W00II@Z@__crt_state_management@@QAEAAP6AXPB_W00II@ZXZ 100b4af0 f i libucrtd:invalid_parameter.obj
 0001:000b3b10       ___acrt_call_reportfault   100b4b10 f   libucrtd:invalid_parameter.obj
 0001:000b3cc0       ___acrt_initialize_invalid_parameter_handler 100b4cc0 f   libucrtd:invalid_parameter.obj
 0001:000b3cf0       __get_invalid_parameter_handler 100b4cf0 f   libucrtd:invalid_parameter.obj
 0001:000b3d20       __get_thread_local_invalid_parameter_handler 100b4d20 f   libucrtd:invalid_parameter.obj
 0001:000b3d50       __invalid_parameter        100b4d50 f   libucrtd:invalid_parameter.obj
 0001:000b3e40       __invalid_parameter_noinfo 100b4e40 f   libucrtd:invalid_parameter.obj
 0001:000b3e60       __invalid_parameter_noinfo_noreturn 100b4e60 f   libucrtd:invalid_parameter.obj
 0001:000b3ea0       __invoke_watson            100b4ea0 f   libucrtd:invalid_parameter.obj
 0001:000b3ef0       __set_invalid_parameter_handler 100b4ef0 f   libucrtd:invalid_parameter.obj
 0001:000b3f50       __set_thread_local_invalid_parameter_handler 100b4f50 f   libucrtd:invalid_parameter.obj
 0001:000b3f90       __CrtGetReportHook         100b4f90 f   libucrtd:dbgrptt.obj
 0001:000b3fa0       __CrtSetReportFile         100b4fa0 f   libucrtd:dbgrptt.obj
 0001:000b40d0       __CrtSetReportHook         100b50d0 f   libucrtd:dbgrptt.obj
 0001:000b4100       __CrtSetReportMode         100b5100 f   libucrtd:dbgrptt.obj
 0001:000b4290       __VCrtDbgReportA           100b5290 f   libucrtd:dbgrptt.obj
 0001:000b4d30       __VCrtDbgReportW           100b5d30 f   libucrtd:dbgrptt.obj
 0001:000b5950       __snprintf_s               100b6950 f i libucrtd:dbgrptt.obj
 0001:000b59a0       __vsnprintf_s              100b69a0 f i libucrtd:dbgrptt.obj
 0001:000b59d0       __vsnprintf_s_l            100b69d0 f i libucrtd:dbgrptt.obj
 0001:000b5a40       ___acrt_errno_from_os_error 100b6a40 f   libucrtd:errno.obj
 0001:000b5ae0       ___acrt_errno_map_os_error 100b6ae0 f   libucrtd:errno.obj
 0001:000b5b20       ___doserrno                100b6b20 f   libucrtd:errno.obj
 0001:000b5b50       __errno                    100b6b50 f   libucrtd:errno.obj
 0001:000b5b80       __get_doserrno             100b6b80 f   libucrtd:errno.obj
 0001:000b5c30       __get_errno                100b6c30 f   libucrtd:errno.obj
 0001:000b5ce0       __set_doserrno             100b6ce0 f   libucrtd:errno.obj
 0001:000b5d20       __set_errno                100b6d20 f   libucrtd:errno.obj
 0001:000b6da0       ??1?$__crt_simd_cleanup_guard@$00@@QAE@XZ 100b7da0 f i libucrtd:strnlen.obj
 0001:000b6dc0       ??1?$__crt_simd_cleanup_guard@$0A@@@QAE@XZ 100b7dc0 f i libucrtd:strnlen.obj
 0001:000b6dd0       ?compare_equals@?$__crt_simd_traits@$00E@@SA?AT__m256i@@T2@0@Z 100b7dd0 f i libucrtd:strnlen.obj
 0001:000b6e20       ?compare_equals@?$__crt_simd_traits@$00G@@SA?AT__m256i@@T2@0@Z 100b7e20 f i libucrtd:strnlen.obj
 0001:000b6e70       ?compare_equals@?$__crt_simd_traits@$0A@E@@SA?AT__m128i@@T2@0@Z 100b7e70 f i libucrtd:strnlen.obj
 0001:000b6ec0       ?compare_equals@?$__crt_simd_traits@$0A@G@@SA?AT__m128i@@T2@0@Z 100b7ec0 f i libucrtd:strnlen.obj
 0001:000b6f10       ?compute_byte_mask@?$__crt_simd_pack_traits@$00@@SAHT__m256i@@@Z 100b7f10 f i libucrtd:strnlen.obj
 0001:000b6f50       ?compute_byte_mask@?$__crt_simd_pack_traits@$0A@@@SAHT__m128i@@@Z 100b7f50 f i libucrtd:strnlen.obj
 0001:000b6f90       ?get_zero_pack@?$__crt_simd_pack_traits@$00@@SA?AT__m256i@@XZ 100b7f90 f i libucrtd:strnlen.obj
 0001:000b6fd0       ?get_zero_pack@?$__crt_simd_pack_traits@$0A@@@SA?AT__m128i@@XZ 100b7fd0 f i libucrtd:strnlen.obj
 0001:000b7010       _strnlen                   100b8010 f   libucrtd:strnlen.obj
 0001:000b7030       _wcslen                    100b8030 f   libucrtd:strnlen.obj
 0001:000b7050       _wcsnlen                   100b8050 f   libucrtd:strnlen.obj
 0001:000b71f0       ??$__acrt_wcs_to_mbs_cp@U__crt_win32_buffer_no_resizing@@@@YAHQB_WAAV?$__crt_win32_buffer@DU__crt_win32_buffer_no_resizing@@@@I@Z 100b81f0 f i libucrtd:getmodulefilenamea.obj
 0001:000b7220       ??0?$__crt_win32_buffer@DU__crt_win32_buffer_no_resizing@@@@QAE@QADI@Z 100b8220 f i libucrtd:getmodulefilenamea.obj
 0001:000b7280       ??1?$__crt_win32_buffer@DU__crt_win32_buffer_no_resizing@@@@QAE@XZ 100b8280 f i libucrtd:getmodulefilenamea.obj
 0001:000b7310       ?__acrt_get_utf8_acp_compatibility_codepage@@YAIXZ 100b8310 f i libucrtd:getmodulefilenamea.obj
 0001:000b73c0       ?_deallocate@?$__crt_win32_buffer@DU__crt_win32_buffer_no_resizing@@@@AAEXXZ 100b83c0 f i libucrtd:getmodulefilenamea.obj
 0001:000b7410       ?allocate@?$__crt_win32_buffer@DU__crt_win32_buffer_no_resizing@@@@QAEHI@Z 100b8410 f i libucrtd:getmodulefilenamea.obj
 0001:000b7490       ?allocate@__crt_win32_buffer_no_resizing@@SAHQAPAXIABV__crt_win32_buffer_empty_debug_info@@@Z 100b8490 f i libucrtd:getmodulefilenamea.obj
 0001:000b74b0       ?capacity@?$__crt_win32_buffer@DU__crt_win32_buffer_no_resizing@@@@QBEIXZ 100b84b0 f i libucrtd:getmodulefilenamea.obj
 0001:000b74d0       ?data@?$__crt_win32_buffer@DU__crt_win32_buffer_no_resizing@@@@QAEPADXZ 100b84d0 f i libucrtd:getmodulefilenamea.obj
 0001:000b74f0       ?deallocate@__crt_win32_buffer_no_resizing@@SAXQAXABV__crt_win32_buffer_empty_debug_info@@@Z 100b84f0 f i libucrtd:getmodulefilenamea.obj
 0001:000b7500       ?debug_info@?$__crt_win32_buffer@DU__crt_win32_buffer_no_resizing@@@@QBEABV__crt_win32_buffer_empty_debug_info@@XZ 100b8500 f i libucrtd:getmodulefilenamea.obj
 0001:000b7520       ?set_to_nullptr@?$__crt_win32_buffer@DU__crt_win32_buffer_no_resizing@@@@QAEXXZ 100b8520 f i libucrtd:getmodulefilenamea.obj
 0001:000b7560       ?size@?$__crt_win32_buffer@DU__crt_win32_buffer_no_resizing@@@@QAEXI@Z 100b8560 f i libucrtd:getmodulefilenamea.obj
 0001:000b7580       ?size@?$__crt_win32_buffer@DU__crt_win32_buffer_no_resizing@@@@QBEIXZ 100b8580 f i libucrtd:getmodulefilenamea.obj
 0001:000b75a0       ___acrt_GetModuleFileNameA 100b85a0 f   libucrtd:getmodulefilenamea.obj
 0001:000b7950       ??$message_box@$$TABQBDABQBDK@?$__crt_char_traits@D@@SAH$$QA$$TABQBD1$$QAK@Z 100b8950 f i libucrtd:crtmbox.obj
 0001:000b7980       ??$message_box@$$TABQB_WABQB_WK@?$__crt_char_traits@_W@@SAH$$QA$$TABQB_W1$$QAK@Z 100b8980 f i libucrtd:crtmbox.obj
 0001:000b79b0       ??$message_box@PAUHWND__@@ABQBDABQBDABI@?$__crt_char_traits@D@@SAH$$QAPAUHWND__@@ABQBD1ABI@Z 100b89b0 f i libucrtd:crtmbox.obj
 0001:000b79e0       ??$message_box@PAUHWND__@@ABQB_WABQB_WABI@?$__crt_char_traits@_W@@SAH$$QAPAUHWND__@@ABQB_W1ABI@Z 100b89e0 f i libucrtd:crtmbox.obj
 0001:000b7a10       ??$output_debug_string@ABQBD@?$__crt_char_traits@D@@SAXABQBD@Z 100b8a10 f i libucrtd:crtmbox.obj
 0001:000b7a30       ??$output_debug_string@ABQB_W@?$__crt_char_traits@_W@@SAXABQB_W@Z 100b8a30 f i libucrtd:crtmbox.obj
 0001:000b7a50       ___acrt_show_narrow_message_box 100b8a50 f   libucrtd:crtmbox.obj
 0001:000b7a80       ___acrt_show_wide_message_box 100b8a80 f   libucrtd:crtmbox.obj
 0001:000b7ab0       ___acrt_initialize_locks   100b8ab0 f   libucrtd:locks.obj
 0001:000b7b30       ___acrt_lock               100b8b30 f   libucrtd:locks.obj
 0001:000b7b50       ___acrt_uninitialize_locks 100b8b50 f   libucrtd:locks.obj
 0001:000b7bb0       ___acrt_unlock             100b8bb0 f   libucrtd:locks.obj
 0001:000b7bd0       __lock_locales             100b8bd0 f   libucrtd:locks.obj
 0001:000b7bf0       __unlock_locales           100b8bf0 f   libucrtd:locks.obj
 0001:000b7c10       ??$?B$$A6AXH@Z@__crt_fast_encoded_nullptr_t@@QBEP6AXH@ZXZ 100b8c10 f i libucrtd:signal.obj
 0001:000b7d20       ??$__crt_fast_decode_pointer@P6AXH@Z@@YAP6AXH@ZQ6AXH@Z@Z 100b8d20 f i libucrtd:signal.obj
 0001:000b7d60       ??$__crt_fast_encode_pointer@P6AXH@Z@@YAP6AXH@ZQ6AXH@Z@Z 100b8d60 f i libucrtd:signal.obj
 0001:000b80d0       ?initialize@?$dual_state_global@P6AXH@Z@__crt_state_management@@QAEXQ6AXH@Z@Z 100b90d0 f i libucrtd:signal.obj
 0001:000b8270       ?value@?$dual_state_global@P6AXH@Z@__crt_state_management@@QAEAAP6AXH@ZXZ 100b9270 f i libucrtd:signal.obj
 0001:000b8290       ___acrt_get_sigabrt_handler 100b9290 f   libucrtd:signal.obj
 0001:000b82c0       ___acrt_initialize_signal_handlers 100b92c0 f   libucrtd:signal.obj
 0001:000b8310       ___fpecode                 100b9310 f   libucrtd:signal.obj
 0001:000b8330       ___pxcptinfoptrs           100b9330 f   libucrtd:signal.obj
 0001:000b8350       _raise                     100b9350 f   libucrtd:signal.obj
 0001:000b8810       _signal                    100b9810 f   libucrtd:signal.obj
 0001:000b8b30       ??$__crt_fast_decode_pointer@P6AHPAU_exception@@@Z@@YAP6AHPAU_exception@@@ZQ6AH0@Z@Z 100b9b30 f i libucrtd:matherr.obj
 0001:000b8b70       ??$__crt_fast_encode_pointer@P6AHPAU_exception@@@Z@@YAP6AHPAU_exception@@@ZQ6AH0@Z@Z 100b9b70 f i libucrtd:matherr.obj
 0001:000b8bb0       ?initialize@?$dual_state_global@P6AHPAU_exception@@@Z@__crt_state_management@@QAEXQ6AHPAU_exception@@@Z@Z 100b9bb0 f i libucrtd:matherr.obj
 0001:000b8c00       ?value@?$dual_state_global@P6AHPAU_exception@@@Z@__crt_state_management@@QAEAAP6AHPAU_exception@@@ZXZ 100b9c00 f i libucrtd:matherr.obj
 0001:000b8c20       ___acrt_has_user_matherr   100b9c20 f   libucrtd:matherr.obj
 0001:000b8c70       ___acrt_initialize_user_matherr 100b9c70 f   libucrtd:matherr.obj
 0001:000b8c90       ___acrt_invoke_user_matherr 100b9c90 f   libucrtd:matherr.obj
 0001:000b8cf0       ___setusermatherr          100b9cf0 f   libucrtd:matherr.obj
 0001:000b8d20       __chvalidator              100b9d20 f   libucrtd:isctype.obj
 0001:000b8d80       __chvalidator_l            100b9d80 f   libucrtd:isctype.obj
 0001:000b8e20       __isctype                  100b9e20 f   libucrtd:isctype.obj
 0001:000b8e70       __isctype_l                100b9e70 f   libucrtd:isctype.obj
 0001:000b9050       __isleadbyte_fast_internal 100ba050 f i libucrtd:isctype.obj
 0001:000b9080       ??$?B$$A6AHI@Z@__crt_fast_encoded_nullptr_t@@QBEP6AHI@ZXZ 100ba080 f i libucrtd:new_handler.obj
 0001:000b90a0       ??$__crt_fast_decode_pointer@P6AHI@Z@@YAP6AHI@ZQ6AHI@Z@Z 100ba0a0 f i libucrtd:new_handler.obj
 0001:000b90e0       ??$__crt_fast_encode_pointer@P6AHI@Z@@YAP6AHI@ZQ6AHI@Z@Z 100ba0e0 f i libucrtd:new_handler.obj
 0001:000b9120       ?_set_new_handler@@YAP6AHI@ZH@Z 100ba120 f   libucrtd:new_handler.obj
 0001:000b9190       ?initialize@?$dual_state_global@P6AHI@Z@__crt_state_management@@QAEXQ6AHI@Z@Z 100ba190 f i libucrtd:new_handler.obj
 0001:000b91e0       ?value@?$dual_state_global@P6AHI@Z@__crt_state_management@@QAEAAP6AHI@ZXZ 100ba1e0 f i libucrtd:new_handler.obj
 0001:000b9200       ___acrt_initialize_new_handler 100ba200 f   libucrtd:new_handler.obj
 0001:000b9220       __callnewh                 100ba220 f   libucrtd:new_handler.obj
 0001:000b9270       __query_new_handler        100ba270 f   libucrtd:new_handler.obj
 0001:000b9330       __set_new_handler          100ba330 f   libucrtd:new_handler.obj
 0001:000b9420       __free_base                100ba420 f   libucrtd:free_base.obj
 0001:000b9480       __realloc_base             100ba480 f   libucrtd:realloc_base.obj
 0001:000b9540       ??$?RU__acrt_ptd@@@__crt_internal_free_policy@@QBEXQBU__acrt_ptd@@@Z 100ba540 f i libucrtd:per_thread_data.obj
 0001:000b9b00       ??0?$__crt_unique_heap_ptr@U__acrt_ptd@@U__crt_internal_free_policy@@@@QAE@QAU__acrt_ptd@@@Z 100bab00 f i libucrtd:per_thread_data.obj
 0001:000b9b20       ??0__crt_scoped_get_last_error_reset@@QAE@XZ 100bab20 f i libucrtd:per_thread_data.obj
 0001:000b9b50       ??1?$__crt_unique_heap_ptr@U__acrt_ptd@@U__crt_internal_free_policy@@@@QAE@XZ 100bab50 f i libucrtd:per_thread_data.obj
 0001:000b9b70       ??1__crt_scoped_get_last_error_reset@@QAE@XZ 100bab70 f i libucrtd:per_thread_data.obj
 0001:000b9b90       ??B?$__crt_unique_heap_ptr@U__acrt_ptd@@U__crt_internal_free_policy@@@@QBE_NXZ 100bab90 f i libucrtd:per_thread_data.obj
 0001:000b9f50       ?dangerous_get_state_array@?$dual_state_global@PAU__crt_locale_data@@@__crt_state_management@@QAEPAPAU__crt_locale_data@@XZ 100baf50 f i libucrtd:per_thread_data.obj
 0001:000ba130       ?detach@?$__crt_unique_heap_ptr@U__acrt_ptd@@U__crt_internal_free_policy@@@@QAEPAU__acrt_ptd@@XZ 100bb130 f i libucrtd:per_thread_data.obj
 0001:000ba160       ?get@?$__crt_unique_heap_ptr@U__acrt_ptd@@U__crt_internal_free_policy@@@@QBEPAU__acrt_ptd@@XZ 100bb160 f i libucrtd:per_thread_data.obj
 0001:000ba180       ?get_current_state_index@__crt_state_management@@YAIABV__crt_scoped_get_last_error_reset@@@Z 100bb180 f i libucrtd:per_thread_data.obj
 0001:000ba340       ?is_valid@?$__crt_unique_heap_ptr@U__acrt_ptd@@U__crt_internal_free_policy@@@@QBE_NXZ 100bb340 f i libucrtd:per_thread_data.obj
 0001:000ba380       ?release@?$__crt_unique_heap_ptr@U__acrt_ptd@@U__crt_internal_free_policy@@@@QAEXXZ 100bb380 f i libucrtd:per_thread_data.obj
 0001:000ba490       ?value@?$dual_state_global@PAU__crt_locale_data@@@__crt_state_management@@QAEAAPAU__crt_locale_data@@XZ 100bb490 f i libucrtd:per_thread_data.obj
 0001:000ba4b0       ___acrt_freeptd            100bb4b0 f   libucrtd:per_thread_data.obj
 0001:000ba4f0       ___acrt_getptd             100bb4f0 f   libucrtd:per_thread_data.obj
 0001:000ba520       ___acrt_getptd_head        100bb520 f   libucrtd:per_thread_data.obj
 0001:000ba550       ___acrt_getptd_noexit      100bb550 f   libucrtd:per_thread_data.obj
 0001:000ba560       ___acrt_initialize_ptd     100bb560 f   libucrtd:per_thread_data.obj
 0001:000ba5b0       ___acrt_uninitialize_ptd   100bb5b0 f   libucrtd:per_thread_data.obj
 0001:000ba5e0       ___threadhandle            100bb5e0 f   libucrtd:per_thread_data.obj
 0001:000ba5f0       ___threadid                100bb5f0 f   libucrtd:per_thread_data.obj
 0001:000ba670       __expand                   100bb670 f   libucrtd:expand.obj
 0001:000ba6a0       __expand_base              100bb6a0 f   libucrtd:expand.obj
 0001:000ba820       ?value@?$dual_state_global@PAU__crt_multibyte_data@@@__crt_state_management@@QAEAAPAU__crt_multibyte_data@@XZ 100bb820 f i libucrtd:locale_update.obj
 0001:000ba840       ___acrt_should_sync_with_global_locale 100bb840 f i libucrtd:locale_update.obj
 0001:000ba880       ___acrt_update_locale_info 100bb880 f   libucrtd:locale_update.obj
 0001:000ba8d0       ___acrt_update_multibyte_info 100bb8d0 f   libucrtd:locale_update.obj
 0001:000ba920       ?value@?$dual_state_global@J@__crt_state_management@@QAEAAJXZ 100bb920 f i libucrtd:new_mode.obj
 0001:000ba940       __query_new_mode           100bb940 f   libucrtd:new_mode.obj
 0001:000ba960       __set_new_mode             100bb960 f   libucrtd:new_mode.obj
 0001:000baa30       __CrtDefaultAllocHook      100bba30 f   libucrtd:debug_heap_hook.obj
 0001:000baa50       ??$?RU__crt_locale_data@@@__crt_internal_free_policy@@QBEXQBU__crt_locale_data@@@Z 100bba50 f i libucrtd:wsetlocale.obj
 0001:000baa80       ??$?RU__crt_locale_pointers@@@__crt_internal_free_policy@@QBEXQBU__crt_locale_pointers@@@Z 100bba80 f i libucrtd:wsetlocale.obj
 0001:000baab0       ??$?RU__crt_multibyte_data@@@__crt_internal_free_policy@@QBEXQBU__crt_multibyte_data@@@Z 100bbab0 f i libucrtd:wsetlocale.obj
 0001:000bb200       ??0?$__crt_unique_heap_ptr@U__crt_locale_data@@U__crt_internal_free_policy@@@@QAE@QAU__crt_locale_data@@@Z 100bc200 f i libucrtd:wsetlocale.obj
 0001:000bb220       ??0?$__crt_unique_heap_ptr@U__crt_locale_pointers@@U__crt_internal_free_policy@@@@QAE@QAU__crt_locale_pointers@@@Z 100bc220 f i libucrtd:wsetlocale.obj
 0001:000bb240       ??0?$__crt_unique_heap_ptr@U__crt_multibyte_data@@U__crt_internal_free_policy@@@@QAE@QAU__crt_multibyte_data@@@Z 100bc240 f i libucrtd:wsetlocale.obj
 0001:000bb260       ??0_expandlocale_locale_name_cache@@QAE@QA_WIQAU__crt_qualified_locale_data@@@Z 100bc260 f i libucrtd:wsetlocale.obj
 0001:000bb2f0       ??1?$__crt_unique_heap_ptr@U__crt_locale_data@@U__crt_internal_free_policy@@@@QAE@XZ 100bc2f0 f i libucrtd:wsetlocale.obj
 0001:000bb310       ??1?$__crt_unique_heap_ptr@U__crt_locale_pointers@@U__crt_internal_free_policy@@@@QAE@XZ 100bc310 f i libucrtd:wsetlocale.obj
 0001:000bb330       ??1?$__crt_unique_heap_ptr@U__crt_multibyte_data@@U__crt_internal_free_policy@@@@QAE@XZ 100bc330 f i libucrtd:wsetlocale.obj
 0001:000bb350       ??1_expandlocale_locale_name_cache@@QAE@XZ 100bc350 f i libucrtd:wsetlocale.obj
 0001:000bb3d0       ??B?$__crt_unique_heap_ptr@U__crt_locale_data@@U__crt_internal_free_policy@@@@QBE_NXZ 100bc3d0 f i libucrtd:wsetlocale.obj
 0001:000bb3f0       ??B?$__crt_unique_heap_ptr@U__crt_locale_pointers@@U__crt_internal_free_policy@@@@QBE_NXZ 100bc3f0 f i libucrtd:wsetlocale.obj
 0001:000bb410       ??B?$__crt_unique_heap_ptr@U__crt_multibyte_data@@U__crt_internal_free_policy@@@@QBE_NXZ 100bc410 f i libucrtd:wsetlocale.obj
 0001:000bb910       ?commit_locale_name@_expandlocale_locale_name_cache@@QAEXQB_WI@Z 100bc910 f i libucrtd:wsetlocale.obj
 0001:000bb990       ?commit_locale_name_cache_already_updated@_expandlocale_locale_name_cache@@QAEXQB_WI@Z 100bc990 f i libucrtd:wsetlocale.obj
 0001:000bba00       ?detach@?$__crt_unique_heap_ptr@U__crt_locale_data@@U__crt_internal_free_policy@@@@QAEPAU__crt_locale_data@@XZ 100bca00 f i libucrtd:wsetlocale.obj
 0001:000bba30       ?detach@?$__crt_unique_heap_ptr@U__crt_locale_pointers@@U__crt_internal_free_policy@@@@QAEPAU__crt_locale_pointers@@XZ 100bca30 f i libucrtd:wsetlocale.obj
 0001:000bba60       ?detach@?$__crt_unique_heap_ptr@U__crt_multibyte_data@@U__crt_internal_free_policy@@@@QAEPAU__crt_multibyte_data@@XZ 100bca60 f i libucrtd:wsetlocale.obj
 0001:000bba90       ?get@?$__crt_unique_heap_ptr@U__crt_locale_data@@U__crt_internal_free_policy@@@@QBEPAU__crt_locale_data@@XZ 100bca90 f i libucrtd:wsetlocale.obj
 0001:000bbab0       ?get@?$__crt_unique_heap_ptr@U__crt_locale_pointers@@U__crt_internal_free_policy@@@@QBEPAU__crt_locale_pointers@@XZ 100bcab0 f i libucrtd:wsetlocale.obj
 0001:000bbad0       ?get@?$__crt_unique_heap_ptr@U__crt_multibyte_data@@U__crt_internal_free_policy@@@@QBEPAU__crt_multibyte_data@@XZ 100bcad0 f i libucrtd:wsetlocale.obj
 0001:000bbaf0       ?is_valid@?$__crt_unique_heap_ptr@U__crt_locale_data@@U__crt_internal_free_policy@@@@QBE_NXZ 100bcaf0 f i libucrtd:wsetlocale.obj
 0001:000bbb30       ?is_valid@?$__crt_unique_heap_ptr@U__crt_locale_pointers@@U__crt_internal_free_policy@@@@QBE_NXZ 100bcb30 f i libucrtd:wsetlocale.obj
 0001:000bbb70       ?is_valid@?$__crt_unique_heap_ptr@U__crt_multibyte_data@@U__crt_internal_free_policy@@@@QBE_NXZ 100bcb70 f i libucrtd:wsetlocale.obj
 0001:000bbbb0       ?release@?$__crt_unique_heap_ptr@U__crt_locale_data@@U__crt_internal_free_policy@@@@QAEXXZ 100bcbb0 f i libucrtd:wsetlocale.obj
 0001:000bbbe0       ?release@?$__crt_unique_heap_ptr@U__crt_locale_pointers@@U__crt_internal_free_policy@@@@QAEXXZ 100bcbe0 f i libucrtd:wsetlocale.obj
 0001:000bbc10       ?release@?$__crt_unique_heap_ptr@U__crt_multibyte_data@@U__crt_internal_free_policy@@@@QAEXXZ 100bcc10 f i libucrtd:wsetlocale.obj
 0001:000bbc40       ___acrt_copy_locale_name   100bcc40 f   libucrtd:wsetlocale.obj
 0001:000bbd10       ___acrt_set_locale_changed 100bcd10 f   libucrtd:wsetlocale.obj
 0001:000bbd30       ___acrt_uninitialize_locale 100bcd30 f   libucrtd:wsetlocale.obj
 0001:000bbd60       ___ascii_tolower           100bcd60 f i libucrtd:wsetlocale.obj
 0001:000bbd90       ___ascii_towlower          100bcd90 f i libucrtd:wsetlocale.obj
 0001:000bbdb0       ___lc_lctowcs              100bcdb0 f   libucrtd:wsetlocale.obj
 0001:000bbe90       ___lc_wcstolc              100bce90 f   libucrtd:wsetlocale.obj
 0001:000bc150       __configthreadlocale       100bd150 f   libucrtd:wsetlocale.obj
 0001:000bc320       __create_locale            100bd320 f   libucrtd:wsetlocale.obj
 0001:000bcae0       __free_locale              100bdae0 f   libucrtd:wsetlocale.obj
 0001:000bcc60       __get_current_locale       100bdc60 f   libucrtd:wsetlocale.obj
 0001:000bcd60       __wcreate_locale           100bdd60 f   libucrtd:wsetlocale.obj
 0001:000bd020       __wcscats                  100be020 f   libucrtd:wsetlocale.obj
 0001:000bd0c0       __wsetlocale               100be0c0 f   libucrtd:wsetlocale.obj
 0001:000bed50       ___p___mb_cur_max          100bfd50 f   libucrtd:nlsdata.obj
 0001:000bed90       ___acrt_getheap            100bfd90 f   libucrtd:heap_handle.obj
 0001:000bede0       ___acrt_initialize_heap    100bfde0 f   libucrtd:heap_handle.obj
 0001:000bee10       ___acrt_uninitialize_heap  100bfe10 f   libucrtd:heap_handle.obj
 0001:000bee30       __get_heap_handle          100bfe30 f   libucrtd:heap_handle.obj
 0001:000bf290       ___acrt_get_begin_thread_init_policy 100c0290 f   libucrtd:win_policies.obj
 0001:000bf2b0       ___acrt_get_developer_information_policy 100c02b0 f   libucrtd:win_policies.obj
 0001:000bf2d0       ___acrt_get_process_end_policy 100c02d0 f   libucrtd:win_policies.obj
 0001:000bf2f0       ___acrt_get_windowing_model_policy 100c02f0 f   libucrtd:win_policies.obj
 0001:000bf650       ??$__acrt_mbs_to_wcs_cp@U__crt_win32_buffer_internal_dynamic_resizing@@@@YAHQBDAAV?$__crt_win32_buffer@_WU__crt_win32_buffer_internal_dynamic_resizing@@@@I@Z 100c0650 f i libucrtd:argv_wildcards.obj
 0001:000bf680       ??$__acrt_wcs_to_mbs_cp@U__crt_win32_buffer_internal_dynamic_resizing@@@@YAHQB_WAAV?$__crt_win32_buffer@DU__crt_win32_buffer_internal_dynamic_resizing@@@@I@Z 100c0680 f i libucrtd:argv_wildcards.obj
 0001:000c0990       ??$tcsncpy_s@AAPADIAAPADABI@?$__crt_char_traits@D@@SAHAAPAD$$QAI0ABI@Z 100c1990 f i libucrtd:argv_wildcards.obj
 0001:000c09c0       ??$tcsncpy_s@AAPA_WIAAPA_WABI@?$__crt_char_traits@_W@@SAHAAPA_W$$QAI0ABI@Z 100c19c0 f i libucrtd:argv_wildcards.obj
 0001:000c09f0       ??$tcsncpy_s@PADABIABQBDABI@?$__crt_char_traits@D@@SAH$$QAPADABIABQBD1@Z 100c19f0 f i libucrtd:argv_wildcards.obj
 0001:000c0a20       ??$tcsncpy_s@PADIABQBDABI@?$__crt_char_traits@D@@SAH$$QAPAD$$QAIABQBDABI@Z 100c1a20 f i libucrtd:argv_wildcards.obj
 0001:000c0a50       ??$tcsncpy_s@PA_WABIABQB_WABI@?$__crt_char_traits@_W@@SAH$$QAPA_WABIABQB_W1@Z 100c1a50 f i libucrtd:argv_wildcards.obj
 0001:000c0a80       ??$tcsncpy_s@PA_WIABQB_WABI@?$__crt_char_traits@_W@@SAH$$QAPA_W$$QAIABQB_WABI@Z 100c1a80 f i libucrtd:argv_wildcards.obj
 0001:000c0ab0       ??$tcspbrk@AAPADAAY02$$CBD@?$__crt_char_traits@D@@SAPADAAPADAAY02$$CBD@Z 100c1ab0 f i libucrtd:argv_wildcards.obj
 0001:000c0ad0       ??$tcspbrk@AAPA_WAAY02$$CB_W@?$__crt_char_traits@_W@@SAPA_WAAPA_WAAY02$$CB_W@Z 100c1ad0 f i libucrtd:argv_wildcards.obj
 0001:000c0af0       ??0?$__crt_unique_handle_t@U__crt_findfile_traits@@@@QAE@QAX@Z 100c1af0 f i libucrtd:argv_wildcards.obj
 0001:000c0b10       ??0?$__crt_win32_buffer@DU__crt_win32_buffer_internal_dynamic_resizing@@@@QAE@XZ 100c1b10 f i libucrtd:argv_wildcards.obj
 0001:000c0b70       ??0?$__crt_win32_buffer@_WU__crt_win32_buffer_internal_dynamic_resizing@@@@QAE@XZ 100c1b70 f i libucrtd:argv_wildcards.obj
 0001:000c0c50       ??1?$__crt_unique_handle_t@U__crt_findfile_traits@@@@QAE@XZ 100c1c50 f i libucrtd:argv_wildcards.obj
 0001:000c0c70       ??1?$__crt_win32_buffer@DU__crt_win32_buffer_internal_dynamic_resizing@@@@QAE@XZ 100c1c70 f i libucrtd:argv_wildcards.obj
 0001:000c0cc0       ??1?$__crt_win32_buffer@_WU__crt_win32_buffer_internal_dynamic_resizing@@@@QAE@XZ 100c1cc0 f i libucrtd:argv_wildcards.obj
 0001:000c0fd0       ?_deallocate@?$__crt_win32_buffer@DU__crt_win32_buffer_internal_dynamic_resizing@@@@AAEXXZ 100c1fd0 f i libucrtd:argv_wildcards.obj
 0001:000c1020       ?_deallocate@?$__crt_win32_buffer@_WU__crt_win32_buffer_internal_dynamic_resizing@@@@AAEXXZ 100c2020 f i libucrtd:argv_wildcards.obj
 0001:000c1070       ?allocate@?$__crt_win32_buffer@DU__crt_win32_buffer_internal_dynamic_resizing@@@@QAEHI@Z 100c2070 f i libucrtd:argv_wildcards.obj
 0001:000c10f0       ?allocate@?$__crt_win32_buffer@_WU__crt_win32_buffer_internal_dynamic_resizing@@@@QAEHI@Z 100c20f0 f i libucrtd:argv_wildcards.obj
 0001:000c1180       ?allocate@__crt_win32_buffer_internal_dynamic_resizing@@SAHQAPAXIABV__crt_win32_buffer_empty_debug_info@@@Z 100c2180 f i libucrtd:argv_wildcards.obj
 0001:000c12f0       ?capacity@?$__crt_win32_buffer@DU__crt_win32_buffer_internal_dynamic_resizing@@@@QBEIXZ 100c22f0 f i libucrtd:argv_wildcards.obj
 0001:000c1310       ?capacity@?$__crt_win32_buffer@_WU__crt_win32_buffer_internal_dynamic_resizing@@@@QBEIXZ 100c2310 f i libucrtd:argv_wildcards.obj
 0001:000c1330       ?close@?$__crt_unique_handle_t@U__crt_findfile_traits@@@@QAEXXZ 100c2330 f i libucrtd:argv_wildcards.obj
 0001:000c1370       ?close@__crt_findfile_traits@@SA_NPAX@Z 100c2370 f i libucrtd:argv_wildcards.obj
 0001:000c13b0       ?data@?$__crt_win32_buffer@DU__crt_win32_buffer_internal_dynamic_resizing@@@@QAEPADXZ 100c23b0 f i libucrtd:argv_wildcards.obj
 0001:000c13d0       ?data@?$__crt_win32_buffer@_WU__crt_win32_buffer_internal_dynamic_resizing@@@@QAEPA_WXZ 100c23d0 f i libucrtd:argv_wildcards.obj
 0001:000c13f0       ?deallocate@__crt_win32_buffer_internal_dynamic_resizing@@SAXQAXABV__crt_win32_buffer_empty_debug_info@@@Z 100c23f0 f i libucrtd:argv_wildcards.obj
 0001:000c1410       ?debug_info@?$__crt_win32_buffer@DU__crt_win32_buffer_internal_dynamic_resizing@@@@QBEABV__crt_win32_buffer_empty_debug_info@@XZ 100c2410 f i libucrtd:argv_wildcards.obj
 0001:000c1430       ?debug_info@?$__crt_win32_buffer@_WU__crt_win32_buffer_internal_dynamic_resizing@@@@QBEABV__crt_win32_buffer_empty_debug_info@@XZ 100c2430 f i libucrtd:argv_wildcards.obj
 0001:000c17f0       ?get@?$__crt_unique_handle_t@U__crt_findfile_traits@@@@QBEPAXXZ 100c27f0 f i libucrtd:argv_wildcards.obj
 0001:000c1870       ?get_invalid_value@__crt_findfile_traits@@SAPAXXZ 100c2870 f i libucrtd:argv_wildcards.obj
 0001:000c1910       ?set_to_nullptr@?$__crt_win32_buffer@DU__crt_win32_buffer_internal_dynamic_resizing@@@@QAEXXZ 100c2910 f i libucrtd:argv_wildcards.obj
 0001:000c1950       ?set_to_nullptr@?$__crt_win32_buffer@_WU__crt_win32_buffer_internal_dynamic_resizing@@@@QAEXXZ 100c2950 f i libucrtd:argv_wildcards.obj
 0001:000c1990       ?size@?$__crt_win32_buffer@DU__crt_win32_buffer_internal_dynamic_resizing@@@@QAEXI@Z 100c2990 f i libucrtd:argv_wildcards.obj
 0001:000c19b0       ?size@?$__crt_win32_buffer@_WU__crt_win32_buffer_internal_dynamic_resizing@@@@QAEXI@Z 100c29b0 f i libucrtd:argv_wildcards.obj
 0001:000c1a30       ?strpbrk@@YAPADQADQBD@Z    100c2a30 f i libucrtd:argv_wildcards.obj
 0001:000c1a50       ?wcspbrk@@YAPA_WPA_WPB_W@Z 100c2a50 f i libucrtd:argv_wildcards.obj
 0001:000c1a70       ___acrt_expand_narrow_argv_wildcards 100c2a70 f   libucrtd:argv_wildcards.obj
 0001:000c1a90       ___acrt_expand_wide_argv_wildcards 100c2a90 f   libucrtd:argv_wildcards.obj
 0001:000c1b90       ??$initialize_from_array@$$BY10BAA@E@?$dual_state_global@PAE@__crt_state_management@@QAAXAAY10BAA@E@Z 100c2b90 f i libucrtd:mbctype.obj
 0001:000c1bf0       ??$initialize_from_array@$$BY10BAB@E@?$dual_state_global@PAE@__crt_state_management@@QAAXAAY10BAB@E@Z 100c2bf0 f i libucrtd:mbctype.obj
 0001:000c1f10       ?dangerous_get_state_array@?$dual_state_global@PAE@__crt_state_management@@QAEPAPAEXZ 100c2f10 f i libucrtd:mbctype.obj
 0001:000c1f30       ?dangerous_get_state_array@?$dual_state_global@PAU__crt_multibyte_data@@@__crt_state_management@@QAEPAPAU__crt_multibyte_data@@XZ 100c2f30 f i libucrtd:mbctype.obj
 0001:000c2040       ?initialize@?$dual_state_global@PAU__crt_multibyte_data@@@__crt_state_management@@QAEXQAU__crt_multibyte_data@@@Z 100c3040 f i libucrtd:mbctype.obj
 0001:000c2960       ?value@?$dual_state_global@PAE@__crt_state_management@@QAEAAPAEXZ 100c3960 f i libucrtd:mbctype.obj
 0001:000c2980       ___acrt_initialize_multibyte 100c3980 f   libucrtd:mbctype.obj
 0001:000c2a50       ___acrt_update_thread_multibyte_data 100c3a50 f   libucrtd:mbctype.obj
 0001:000c2a80       ___p__mbcasemap            100c3a80 f   libucrtd:mbctype.obj
 0001:000c2aa0       ___p__mbctype              100c3aa0 f   libucrtd:mbctype.obj
 0001:000c2ac0       __getmbcp                  100c3ac0 f   libucrtd:mbctype.obj
 0001:000c2b50       __setmbcp                  100c3b50 f   libucrtd:mbctype.obj
 0001:000c2b80       __setmbcp_nolock           100c3b80 f   libucrtd:mbctype.obj
 0001:000c3248       __ismbbalnum               100c4248 f   libucrtd:ismbbyte.obj
 0001:000c3269       __ismbbalnum_l             100c4269 f   libucrtd:ismbbyte.obj
 0001:000c328c       __ismbbalpha               100c428c f   libucrtd:ismbbyte.obj
 0001:000c32ad       __ismbbalpha_l             100c42ad f   libucrtd:ismbbyte.obj
 0001:000c32d0       __ismbbblank               100c42d0 f   libucrtd:ismbbyte.obj
 0001:000c32fb       __ismbbblank_l             100c42fb f   libucrtd:ismbbyte.obj
 0001:000c3328       __ismbbgraph               100c4328 f   libucrtd:ismbbyte.obj
 0001:000c3349       __ismbbgraph_l             100c4349 f   libucrtd:ismbbyte.obj
 0001:000c336c       __ismbbkalnum              100c436c f   libucrtd:ismbbyte.obj
 0001:000c338a       __ismbbkalnum_l            100c438a f   libucrtd:ismbbyte.obj
 0001:000c33a9       __ismbbkana                100c43a9 f   libucrtd:ismbbyte.obj
 0001:000c33c0       __ismbbkana_l              100c43c0 f   libucrtd:ismbbyte.obj
 0001:000c3422       __ismbbkprint              100c4422 f   libucrtd:ismbbyte.obj
 0001:000c3440       __ismbbkprint_l            100c4440 f   libucrtd:ismbbyte.obj
 0001:000c345f       __ismbbkpunct              100c445f f   libucrtd:ismbbyte.obj
 0001:000c347d       __ismbbkpunct_l            100c447d f   libucrtd:ismbbyte.obj
 0001:000c349c       __ismbblead                100c449c f   libucrtd:ismbbyte.obj
 0001:000c34ba       __ismbblead_l              100c44ba f   libucrtd:ismbbyte.obj
 0001:000c34d9       __ismbbprint               100c44d9 f   libucrtd:ismbbyte.obj
 0001:000c34fa       __ismbbprint_l             100c44fa f   libucrtd:ismbbyte.obj
 0001:000c351d       __ismbbpunct               100c451d f   libucrtd:ismbbyte.obj
 0001:000c353b       __ismbbpunct_l             100c453b f   libucrtd:ismbbyte.obj
 0001:000c355a       __ismbbtrail               100c455a f   libucrtd:ismbbyte.obj
 0001:000c3578       __ismbbtrail_l             100c4578 f   libucrtd:ismbbyte.obj
 0001:000c35a0       ___acrt_initialize_command_line 100c45a0 f   libucrtd:argv_data.obj
 0001:000c35d0       ___acrt_uninitialize_command_line 100c45d0 f   libucrtd:argv_data.obj
 0001:000c35e0       ___p___argc                100c45e0 f   libucrtd:argv_data.obj
 0001:000c35f0       ___p___argv                100c45f0 f   libucrtd:argv_data.obj
 0001:000c3600       ___p___wargv               100c4600 f   libucrtd:argv_data.obj
 0001:000c3610       ___p__acmdln               100c4610 f   libucrtd:argv_data.obj
 0001:000c3620       ___p__pgmptr               100c4620 f   libucrtd:argv_data.obj
 0001:000c3630       ___p__wcmdln               100c4630 f   libucrtd:argv_data.obj
 0001:000c3640       ___p__wpgmptr              100c4640 f   libucrtd:argv_data.obj
 0001:000c3650       __get_pgmptr               100c4650 f   libucrtd:argv_data.obj
 0001:000c37b0       __get_wpgmptr              100c47b0 f   libucrtd:argv_data.obj
 0001:000c39e0       ___acrt_MultiByteToWideChar 100c49e0 f   libucrtd:multibytetowidechar.obj
 0001:000c3b10       ___acrt_WideCharToMultiByte 100c4b10 f   libucrtd:widechartomultibyte.obj
 0001:000c3cb7       ___dcrt_get_narrow_environment_from_os 100c4cb7 f   libucrtd:get_environment_from_os.obj
 0001:000c3d6d       ___dcrt_get_wide_environment_from_os 100c4d6d f   libucrtd:get_environment_from_os.obj
 0001:000c4964       ??$get_or_create_environment_nolock@$$V@?$__crt_char_traits@D@@SAPAPADXZ 100c5964 f i libucrtd:setenv.obj
 0001:000c4969       ??$get_or_create_environment_nolock@$$V@?$__crt_char_traits@_W@@SAPAPA_WXZ 100c5969 f i libucrtd:setenv.obj
 0001:000c496e       ??$set_environment_variable@ABQADQAD@?$__crt_char_traits@D@@SAHABQAD$$QBQAD@Z 100c596e f i libucrtd:setenv.obj
 0001:000c498c       ??$set_environment_variable@ABQA_WQA_W@?$__crt_char_traits@_W@@SAHABQA_W$$QBQA_W@Z 100c598c f i libucrtd:setenv.obj
 0001:000c49a8       ??$tcschr@ABQADD@?$__crt_char_traits@D@@SAPADABQAD$$QAD@Z 100c59a8 f i libucrtd:setenv.obj
 0001:000c49c8       ??$tcschr@ABQA_WD@?$__crt_char_traits@_W@@SAPA_WABQA_W$$QAD@Z 100c59c8 f i libucrtd:setenv.obj
 0001:000c49ed       ??$tcscpy_s@AAPADABIAAPAD@?$__crt_char_traits@D@@SAHAAPADABI0@Z 100c59ed f i libucrtd:setenv.obj
 0001:000c4a12       ??$tcscpy_s@AAPA_WABIAAPA_W@?$__crt_char_traits@_W@@SAHAAPA_WABI0@Z 100c5a12 f i libucrtd:setenv.obj
 0001:000c4a37       ??$tcscpy_s@ABQADABIABQAD@?$__crt_char_traits@D@@SAHABQADABI0@Z 100c5a37 f i libucrtd:setenv.obj
 0001:000c4a5c       ??$tcscpy_s@ABQA_WABIABQA_W@?$__crt_char_traits@_W@@SAHABQA_WABI0@Z 100c5a5c f i libucrtd:setenv.obj
 0001:000c4a81       ??$tcslen@ABQAD@?$__crt_char_traits@D@@SAIABQAD@Z 100c5a81 f i libucrtd:setenv.obj
 0001:000c4a9f       ??$tcslen@ABQA_W@?$__crt_char_traits@_W@@SAIABQA_W@Z 100c5a9f f i libucrtd:setenv.obj
 0001:000c4ac4       ??$tcsnicoll@ABQBDAAPADABI@?$__crt_char_traits@D@@SAHABQBDAAPADABI@Z 100c5ac4 f i libucrtd:setenv.obj
 0001:000c4ae9       ??$tcsnicoll@ABQB_WAAPA_WABI@?$__crt_char_traits@_W@@SAHABQB_WAAPA_WABI@Z 100c5ae9 f i libucrtd:setenv.obj
 0001:000c4b0e       ??$tcsnlen@PADH@?$__crt_char_traits@D@@SAI$$QAPAD$$QAH@Z 100c5b0e f i libucrtd:setenv.obj
 0001:000c4b2c       ??$tcsnlen@PA_WH@?$__crt_char_traits@_W@@SAI$$QAPA_W$$QAH@Z 100c5b2c f i libucrtd:setenv.obj
 0001:000c4b6e       ?strchr@@YAPADQADH@Z       100c5b6e f i libucrtd:setenv.obj
 0001:000c4b7b       ?wcschr@@YAPA_WPA_W_W@Z    100c5b7b f i libucrtd:setenv.obj
 0001:000c4b88       ___dcrt_set_variable_in_narrow_environment_nolock 100c5b88 f   libucrtd:setenv.obj
 0001:000c4b95       ___dcrt_set_variable_in_wide_environment_nolock 100c5b95 f   libucrtd:setenv.obj
 0001:000c4bd0       ??$?B$$A6GHPA_WKJ@Z@__crt_fast_encoded_nullptr_t@@QBEP6GHPA_WKJ@ZXZ 100c5bd0 f i libucrtd:winapi_thunks.obj
 0001:000c4ce0       ??$__crt_fast_decode_pointer@P6GHPA_WKJ@Z@@YAP6GHPA_WKJ@ZQ6GH0KJ@Z@Z 100c5ce0 f i libucrtd:winapi_thunks.obj
 0001:000c4d20       ??$__crt_fast_encode_pointer@P6GHPA_WKJ@Z@@YAP6GHPA_WKJ@ZQ6GH0KJ@Z@Z 100c5d20 f i libucrtd:winapi_thunks.obj
 0001:000c59e0       _GetCurrentThreadEffectiveToken 100c69e0 f i libucrtd:winapi_thunks.obj
 0001:000c59f0       ___acrt_AppPolicyGetProcessTerminationMethodInternal@4 100c69f0 f   libucrtd:winapi_thunks.obj
 0001:000c5a40       ___acrt_AppPolicyGetShowDeveloperDiagnosticInternal@4 100c6a40 f   libucrtd:winapi_thunks.obj
 0001:000c5a90       ___acrt_AppPolicyGetThreadInitializationTypeInternal@4 100c6a90 f   libucrtd:winapi_thunks.obj
 0001:000c5ae0       ___acrt_AppPolicyGetWindowingModelInternal@4 100c6ae0 f   libucrtd:winapi_thunks.obj
 0001:000c5b30       ___acrt_AreFileApisANSI@0  100c6b30 f   libucrtd:winapi_thunks.obj
 0001:000c5b70       ___acrt_CompareStringEx@36 100c6b70 f   libucrtd:winapi_thunks.obj
 0001:000c5c10       ___acrt_EnumSystemLocalesEx@16 100c6c10 f   libucrtd:winapi_thunks.obj
 0001:000c5c80       ___acrt_FlsAlloc@4         100c6c80 f   libucrtd:winapi_thunks.obj
 0001:000c5cd0       ___acrt_FlsFree@4          100c6cd0 f   libucrtd:winapi_thunks.obj
 0001:000c5d20       ___acrt_FlsGetValue@4      100c6d20 f   libucrtd:winapi_thunks.obj
 0001:000c5d70       ___acrt_FlsSetValue@8      100c6d70 f   libucrtd:winapi_thunks.obj
 0001:000c5dd0       ___acrt_GetDateFormatEx@28 100c6dd0 f   libucrtd:winapi_thunks.obj
 0001:000c5e60       ___acrt_GetEnabledXStateFeatures@0 100c6e60 f   libucrtd:winapi_thunks.obj
 0001:000c5ea0       ___acrt_GetLocaleInfoEx@16 100c6ea0 f   libucrtd:winapi_thunks.obj
 0001:000c5f20       ___acrt_GetSystemTimePreciseAsFileTime@4 100c6f20 f   libucrtd:winapi_thunks.obj
 0001:000c5f70       ___acrt_GetTimeFormatEx@24 100c6f70 f   libucrtd:winapi_thunks.obj
 0001:000c6000       ___acrt_GetUserDefaultLocaleName@8 100c7000 f   libucrtd:winapi_thunks.obj
 0001:000c6070       ___acrt_GetXStateFeaturesMask@8 100c7070 f   libucrtd:winapi_thunks.obj
 0001:000c60c0       ___acrt_InitializeCriticalSectionEx@12 100c70c0 f   libucrtd:winapi_thunks.obj
 0001:000c6120       ___acrt_IsValidLocaleName@4 100c7120 f   libucrtd:winapi_thunks.obj
 0001:000c6180       ___acrt_LCIDToLocaleName@16 100c7180 f   libucrtd:winapi_thunks.obj
 0001:000c61f0       ___acrt_LCMapStringEx@36   100c71f0 f   libucrtd:winapi_thunks.obj
 0001:000c6290       ___acrt_LocaleNameToLCID@8 100c7290 f   libucrtd:winapi_thunks.obj
 0001:000c62f0       ___acrt_LocateXStateFeature@12 100c72f0 f   libucrtd:winapi_thunks.obj
 0001:000c6350       ___acrt_MessageBoxA@16     100c7350 f   libucrtd:winapi_thunks.obj
 0001:000c63b0       ___acrt_MessageBoxW@16     100c73b0 f   libucrtd:winapi_thunks.obj
 0001:000c6410       ___acrt_RoInitialize@4     100c7410 f   libucrtd:winapi_thunks.obj
 0001:000c6460       ___acrt_RoUninitialize@0   100c7460 f   libucrtd:winapi_thunks.obj
 0001:000c64a0       ___acrt_RtlGenRandom@8     100c74a0 f   libucrtd:winapi_thunks.obj
 0001:000c64f0       ___acrt_SetThreadStackGuarantee@4 100c74f0 f   libucrtd:winapi_thunks.obj
 0001:000c6540       ___acrt_can_show_message_box 100c7540 f   libucrtd:winapi_thunks.obj
 0001:000c6580       ___acrt_can_use_vista_locale_apis 100c7580 f   libucrtd:winapi_thunks.obj
 0001:000c65b0       ___acrt_can_use_xstate_apis 100c75b0 f   libucrtd:winapi_thunks.obj
 0001:000c65e0       ___acrt_eagerly_load_locale_apis 100c75e0 f   libucrtd:winapi_thunks.obj
 0001:000c6630       ___acrt_get_parent_window  100c7630 f   libucrtd:winapi_thunks.obj
 0001:000c66b0       ___acrt_initialize_winapi_thunks 100c76b0 f   libucrtd:winapi_thunks.obj
 0001:000c6730       ___acrt_is_interactive     100c7730 f   libucrtd:winapi_thunks.obj
 0001:000c6800       ___acrt_uninitialize_winapi_thunks 100c7800 f   libucrtd:winapi_thunks.obj
 0001:000c6c00       ___acrt_initialize_lowio   100c7c00 f   libucrtd:ioinit.obj
 0001:000c6cc0       ___acrt_uninitialize_lowio 100c7cc0 f   libucrtd:ioinit.obj
 0001:000c6d30       ___acrt_execute_initializers 100c7d30 f   libucrtd:shared_initialization.obj
 0001:000c6e10       ___acrt_execute_uninitializers 100c7e10 f   libucrtd:shared_initialization.obj
 0001:000c6e80       ?has_any_buffer@__crt_stdio_stream@@QBE_NXZ 100c7e80 f i libucrtd:_sftbuf.obj
 0001:000c6ea0       ?has_any_of@__crt_stdio_stream@@QBE_NJ@Z 100c7ea0 f i libucrtd:_sftbuf.obj
 0001:000c6ee0       ?has_temporary_buffer@__crt_stdio_stream@@QBE_NXZ 100c7ee0 f i libucrtd:_sftbuf.obj
 0001:000c6f00       ?set_flags@__crt_stdio_stream@@QBE_NJ@Z 100c7f00 f i libucrtd:_sftbuf.obj
 0001:000c6f60       ?unset_flags@__crt_stdio_stream@@QBE_NJ@Z 100c7f60 f i libucrtd:_sftbuf.obj
 0001:000c6fc0       ___acrt_should_use_temporary_buffer 100c7fc0 f   libucrtd:_sftbuf.obj
 0001:000c7020       ___acrt_stdio_begin_temporary_buffering_nolock 100c8020 f   libucrtd:_sftbuf.obj
 0001:000c7240       ___acrt_stdio_end_temporary_buffering_nolock 100c8240 f   libucrtd:_sftbuf.obj
 0001:000c72e0       __CrtGetDebugFillThreshold 100c82e0 f   libucrtd:debug_fill_threshold.obj
 0001:000c72f0       __CrtSetDebugFillThreshold 100c82f0 f   libucrtd:debug_fill_threshold.obj
 0001:000c7320       ??$make_c_string_character_source@DPAPAD@__crt_strtox@@YA?AV?$c_string_character_source@D@0@QBDQAPAD@Z 100c8320 f i libucrtd:strtox.obj
 0001:000c7340       ??$make_c_string_character_source@_WPAPA_W@__crt_strtox@@YA?AV?$c_string_character_source@_W@0@QB_WQAPA_W@Z 100c8340 f i libucrtd:strtox.obj
 0001:000c7360       ??$parse_integer_from_string@JDPAPAD@__crt_strtox@@YAJQBDQAPADHQAU__crt_locale_pointers@@@Z 100c8360 f i libucrtd:strtox.obj
 0001:000c73b0       ??$parse_integer_from_string@J_WPAPA_W@__crt_strtox@@YAJQB_WQAPA_WHQAU__crt_locale_pointers@@@Z 100c83b0 f i libucrtd:strtox.obj
 0001:000c7400       ??$parse_integer_from_string@KDPAPAD@__crt_strtox@@YAKQBDQAPADHQAU__crt_locale_pointers@@@Z 100c8400 f i libucrtd:strtox.obj
 0001:000c7450       ??$parse_integer_from_string@K_WPAPA_W@__crt_strtox@@YAKQB_WQAPA_WHQAU__crt_locale_pointers@@@Z 100c8450 f i libucrtd:strtox.obj
 0001:000c74a0       ??$parse_integer_from_string@_JDPAPAD@__crt_strtox@@YA_JQBDQAPADHQAU__crt_locale_pointers@@@Z 100c84a0 f i libucrtd:strtox.obj
 0001:000c74f0       ??$parse_integer_from_string@_J_WPAPA_W@__crt_strtox@@YA_JQB_WQAPA_WHQAU__crt_locale_pointers@@@Z 100c84f0 f i libucrtd:strtox.obj
 0001:000c7540       ??$parse_integer_from_string@_KDPAPAD@__crt_strtox@@YA_KQBDQAPADHQAU__crt_locale_pointers@@@Z 100c8540 f i libucrtd:strtox.obj
 0001:000c7590       ??$parse_integer_from_string@_K_WPAPA_W@__crt_strtox@@YA_KQB_WQAPA_WHQAU__crt_locale_pointers@@@Z 100c8590 f i libucrtd:strtox.obj
 0001:000c75e0       __strtoi64                 100c85e0 f   libucrtd:strtox.obj
 0001:000c7610       __strtoi64_l               100c8610 f   libucrtd:strtox.obj
 0001:000c7640       __strtoimax_l              100c8640 f   libucrtd:strtox.obj
 0001:000c7670       __strtol_l                 100c8670 f   libucrtd:strtox.obj
 0001:000c76a0       __strtoll_l                100c86a0 f   libucrtd:strtox.obj
 0001:000c76d0       __strtoui64                100c86d0 f   libucrtd:strtox.obj
 0001:000c7700       __strtoui64_l              100c8700 f   libucrtd:strtox.obj
 0001:000c7730       __strtoul_l                100c8730 f   libucrtd:strtox.obj
 0001:000c7760       __strtoull_l               100c8760 f   libucrtd:strtox.obj
 0001:000c7790       __strtoumax_l              100c8790 f   libucrtd:strtox.obj
 0001:000c77c0       __wcstoi64                 100c87c0 f   libucrtd:strtox.obj
 0001:000c77f0       __wcstoi64_l               100c87f0 f   libucrtd:strtox.obj
 0001:000c7820       __wcstoimax_l              100c8820 f   libucrtd:strtox.obj
 0001:000c7850       __wcstol_l                 100c8850 f   libucrtd:strtox.obj
 0001:000c7880       __wcstoll_l                100c8880 f   libucrtd:strtox.obj
 0001:000c78b0       __wcstoui64                100c88b0 f   libucrtd:strtox.obj
 0001:000c78e0       __wcstoui64_l              100c88e0 f   libucrtd:strtox.obj
 0001:000c7910       __wcstoul_l                100c8910 f   libucrtd:strtox.obj
 0001:000c7940       __wcstoull_l               100c8940 f   libucrtd:strtox.obj
 0001:000c7970       __wcstoumax_l              100c8970 f   libucrtd:strtox.obj
 0001:000c79a0       _strtoimax                 100c89a0 f   libucrtd:strtox.obj
 0001:000c79d0       _strtol                    100c89d0 f   libucrtd:strtox.obj
 0001:000c7a00       _strtoll                   100c8a00 f   libucrtd:strtox.obj
 0001:000c7a30       _strtoul                   100c8a30 f   libucrtd:strtox.obj
